 TmpPanel

 Timestamp is 6049238c (Wed Mar 10 19:52:44 2021)

 Preferred load address is 0000000180000000

 Start         Length     Name                   Class
 0001:00000000 00000008H .CRT$XCA                CODE
 0001:00000008 00000008H .CRT$XCZ                CODE
 0001:00000010 00000008H .CRT$XIA                CODE
 0001:00000018 00000018H .CRT$XIC                CODE
 0001:00000030 00000008H .CRT$XIZ                CODE
 0001:00000038 00000008H .CRT$XPA                CODE
 0001:00000040 00000010H .CRT$XPX                CODE
 0001:00000050 00000008H .CRT$XPXA               CODE
 0001:00000058 00000008H .CRT$XPZ                CODE
 0001:00000060 00000008H .CRT$XTA                CODE
 0001:00000068 00000008H .CRT$XTZ                CODE
 0001:00000070 00000000H .gfids$y                CODE
 0001:00000070 00007b38H .rdata                  CODE
 0001:00007ba8 000001f4H .rdata$r                CODE
 0001:00007d9c 000002c4H .rdata$zzzdbg           CODE
 0001:00008060 00000008H .rtc$IAA                CODE
 0001:00008068 00000008H .rtc$IZZ                CODE
 0001:00008070 00000008H .rtc$TAA                CODE
 0001:00008078 00000008H .rtc$TZZ                CODE
 0001:00008080 000134a0H .text$mn                CODE
 0001:0001b520 00000020H .text$mn$00             CODE
 0001:0001b540 000002e0H .text$x                 CODE
 0001:0001b820 00001328H .xdata                  CODE
 0001:0001cb48 000000f8H .xdata$x                CODE
 0001:0001cc40 00000192H .edata                  CODE
 0002:00000000 00000a28H .data                   DATA
 0002:00000a28 000000a8H .data$r                 DATA
 0002:00000ad0 00001ec0H .bss                    DATA
 0003:00000000 00001464H .pdata                  DATA
 0004:00000000 000002e0H .idata$5                DATA
 0004:000002e0 00000010H .00cfg                  DATA
 0004:000002f0 0000003cH .idata$2                DATA
 0004:0000032c 00000014H .idata$3                DATA
 0004:00000340 000002e0H .idata$4                DATA
 0004:00000620 0000067cH .idata$6                DATA
 0005:00000000 00000094H _RDATA                  DATA
 0006:00000000 00000060H .rsrc$01                DATA
 0006:00000060 00000378H .rsrc$02                DATA

  Address         Publics by Value              Rva+Base               Lib:Object

 0000:00000000       __hybrid_code_map_count    0000000000000000     <absolute>
 0000:00000000       __hybrid_code_map          0000000000000000     <absolute>
 0000:00000000       __guard_iat_count          0000000000000000     <absolute>
 0000:00000000       __guard_longjmp_count      0000000000000000     <absolute>
 0000:00000000       __volatile_metadata        0000000000000000     <absolute>
 0000:00000000       __guard_longjmp_table      0000000000000000     <absolute>
 0000:00000000       __guard_iat_table          0000000000000000     <absolute>
 0000:00000000       __guard_fids_count         0000000000000000     <absolute>
 0000:00000000       ___safe_se_handler_count   0000000000000000     <absolute>
 0000:00000000       __enclave_config           0000000000000000     <absolute>
 0000:00000000       __AbsoluteZero             0000000000000000     <absolute>
 0000:00000000       ___safe_se_handler_table   0000000000000000     <absolute>
 0000:00000000       __guard_fids_table         0000000000000000     <absolute>
 0000:00000000       __hybrid_auxiliary_iat     0000000000000000     <absolute>
 0000:00000000       __dynamic_value_reloc_table 0000000000000000     <absolute>
 0000:00000100       __guard_flags              0000000000000100     <absolute>
 0000:00000000       __ImageBase                0000000180000000     <linker-defined>
 0001:00000000       __xc_a                     0000000180001000     LIBCMT:initializers.obj
 0001:00000008       __xc_z                     0000000180001008     LIBCMT:initializers.obj
 0001:00000010       __xi_a                     0000000180001010     LIBCMT:initializers.obj
 0001:00000018       __acrt_multibyte_initializer 0000000180001018     libucrt:multibyte_initializer.obj
 0001:00000020       __acrt_stdio_initializer   0000000180001020     libucrt:stdio_initializer.obj
 0001:00000028       __acrt_tran_fma3_initializer 0000000180001028     libucrt:fma3_initializer.obj
 0001:00000030       __xi_z                     0000000180001030     LIBCMT:initializers.obj
 0001:00000038       __xp_a                     0000000180001038     LIBCMT:initializers.obj
 0001:00000040       __acrt_locale_terminator   0000000180001040     libucrt:locale_initializer.obj
 0001:00000048       __dcrt_console_output_terminator 0000000180001048     libucrt:console_output_initializer.obj
 0001:00000050       __acrt_stdio_terminator    0000000180001050     libucrt:stdio_initializer.obj
 0001:00000058       __xp_z                     0000000180001058     LIBCMT:initializers.obj
 0001:00000060       __xt_a                     0000000180001060     LIBCMT:initializers.obj
 0001:00000068       __xt_z                     0000000180001068     LIBCMT:initializers.obj
 0001:00000070       MainGuid                   0000000180001070     TmpPanel.obj
 0001:00000080       MenuGuid                   0000000180001080     TmpPanel.obj
 0001:00000090       ConfigDialogGuid           0000000180001090     TmpPanel.obj
 0001:000000a0       ??_C@_11LOCGONAA@@         00000001800010a0     TmpPanel.obj
 0001:000000a8       ??_C@_1O@CILPHMLJ@?$AAF?$AAA?$AAR?$AAT?$AAM?$AAP@ 00000001800010a8     TmpPanel.obj
 0001:000000b8       ??_C@_1BM@MDBPDFDA@?$AA?$CF?$AAC?$AAO?$AAM?$AAS?$AAP?$AAE?$AAC?$AA?$CF?$AA?5?$AA?1?$AAc?$AA?5@ 00000001800010b8     TmpPanel.obj
 0001:000000d4       ??_C@_13IMODFHAA@?$AA?9@   00000001800010d4     TmpPanel.obj
 0001:000000d8       ??_C@_15KIOHKAAB@?$AA?$CK?$AA?4@ 00000001800010d8     TmpPanel.obj
 0001:000000e0       ??_C@_1BC@ENICKDH@?$AAC?$AAo?$AAn?$AAt?$AAe?$AAn?$AAt?$AAs@ 00000001800010e0     TmpPanel.obj
 0001:000000f8       ??_C@_19BDAJEHDN@?$AAo?$AAp?$AAe?$AAn@ 00000001800010f8     TmpPanel.obj
 0001:00000108       ??_C@_1BC@DDPAOGMO@?$AAT?$AAm?$AAp?$AAP?$AAa?$AAn?$AAe?$AAl@ 0000000180001108     TmpPanel.obj
 0001:00000120       ??_C@_1EA@PHBPOOLI@?$AAT?$AAe?$AAm?$AAp?$AAo?$AAr?$AAa?$AAr?$AAy?$AA?5?$AAP?$AAa?$AAn?$AAe?$AAl@ 0000000180001120     TmpPanel.obj
 0001:00000160       ??_C@_1DE@BGKMIKPD@?$AAE?$AAu?$AAg?$AAe?$AAn?$AAe?$AA?5?$AAR?$AAo?$AAs?$AAh?$AAa?$AAl?$AA?5?$AA?$CG@ 0000000180001160     TmpPanel.obj
 0001:000001f0       ??_7PluginCheckBoxBinding@@6B@ 00000001800011f0     TmpCfg.obj
 0001:00000200       ??_7PluginEditFieldBinding@@6B@ 0000000180001200     TmpCfg.obj
 0001:00000210       ??_C@_1BO@NGDOFANC@?$AAA?$AAd?$AAd?$AAT?$AAo?$AAD?$AAi?$AAs?$AAk?$AAs?$AAM?$AAe?$AAn?$AAu@ 0000000180001210     TmpCfg.obj
 0001:00000230       ??_C@_1CC@PNNAOHJC@?$AAA?$AAd?$AAd?$AAT?$AAo?$AAP?$AAl?$AAu?$AAg?$AAi?$AAn?$AAs?$AAM?$AAe?$AAn@ 0000000180001230     TmpCfg.obj
 0001:00000258       ??_C@_1BI@CPJJFPIA@?$AAC?$AAo?$AAm?$AAm?$AAo?$AAn?$AAP?$AAa?$AAn?$AAe?$AAl@ 0000000180001258     TmpCfg.obj
 0001:00000270       ??_C@_1BM@FPOJMDKB@?$AAS?$AAa?$AAf?$AAe?$AAM?$AAo?$AAd?$AAe?$AAP?$AAa?$AAn?$AAe?$AAl@ 0000000180001270     TmpCfg.obj
 0001:00000290       ??_C@_1BG@NHJCENND@?$AAA?$AAn?$AAy?$AAI?$AAn?$AAP?$AAa?$AAn?$AAe?$AAl@ 0000000180001290     TmpCfg.obj
 0001:000002a8       ??_C@_1BK@BNOFJDBM@?$AAC?$AAo?$AAp?$AAy?$AAC?$AAo?$AAn?$AAt?$AAe?$AAn?$AAt?$AAs@ 00000001800012a8     TmpCfg.obj
 0001:000002c8       ??_C@_19OBGHODPD@?$AAM?$AAo?$AAd?$AAe@ 00000001800012c8     TmpCfg.obj
 0001:000002d8       ??_C@_1CA@JNAJBENN@?$AAM?$AAe?$AAn?$AAu?$AAF?$AAo?$AAr?$AAF?$AAi?$AAl?$AAe?$AAl?$AAi?$AAs?$AAt@ 00000001800012d8     TmpCfg.obj
 0001:000002f8       ??_C@_1DC@BNKDLIA@?$AAN?$AAe?$AAw?$AAP?$AAa?$AAn?$AAe?$AAl?$AAF?$AAo?$AAr?$AAS?$AAe?$AAa?$AAr@ 00000001800012f8     TmpCfg.obj
 0001:00000330       ??_C@_1CA@GMFGCAGE@?$AAF?$AAu?$AAl?$AAl?$AAS?$AAc?$AAr?$AAe?$AAe?$AAn?$AAP?$AAa?$AAn?$AAe?$AAl@ 0000000180001330     TmpCfg.obj
 0001:00000350       ??_C@_1BC@JCHBPJL@?$AAL?$AAi?$AAs?$AAt?$AAU?$AAT?$AAF?$AA8@ 0000000180001350     TmpCfg.obj
 0001:00000368       ??_C@_17PBMJFEI@?$AAN?$AA?0?$AAS@ 0000000180001368     TmpCfg.obj
 0001:00000370       ??_C@_1BI@KCJICNAC@?$AAC?$AAo?$AAl?$AAu?$AAm?$AAn?$AAT?$AAy?$AAp?$AAe?$AAs@ 0000000180001370     TmpCfg.obj
 0001:00000388       ??_C@_17FKOBGGOI@?$AA0?$AA?0?$AA8@ 0000000180001388     TmpCfg.obj
 0001:00000390       ??_C@_1BK@IJFPLJEF@?$AAC?$AAo?$AAl?$AAu?$AAm?$AAn?$AAW?$AAi?$AAd?$AAt?$AAh?$AAs@ 0000000180001390     TmpCfg.obj
 0001:000003b0       ??_C@_1BE@CNONJJPK@?$AAN?$AAR?$AA?0?$AAS?$AAC?$AA?0?$AAD?$AA?0?$AAT@ 00000001800013b0     TmpCfg.obj
 0001:000003c8       ??_C@_1CE@CFCOMBOO@?$AAS?$AAt?$AAa?$AAt?$AAu?$AAs?$AAC?$AAo?$AAl?$AAu?$AAm?$AAn?$AAT?$AAy?$AAp@ 00000001800013c8     TmpCfg.obj
 0001:000003f0       ??_C@_1BA@HANPCFLL@?$AA0?$AA?0?$AA8?$AA?0?$AA0?$AA?0?$AA5@ 00000001800013f0     TmpCfg.obj
 0001:00000400       ??_C@_1CG@NCCICMEA@?$AAS?$AAt?$AAa?$AAt?$AAu?$AAs?$AAC?$AAo?$AAl?$AAu?$AAm?$AAn?$AAW?$AAi?$AAd@ 0000000180001400     TmpCfg.obj
 0001:00000428       ??_C@_1O@HIOLBLLI@?$AA?$CK?$AA?4?$AAt?$AAe?$AAm?$AAp@ 0000000180001428     TmpCfg.obj
 0001:00000438       ??_C@_19KOBLENB@?$AAM?$AAa?$AAs?$AAk@ 0000000180001438     TmpCfg.obj
 0001:00000448       ??_C@_17GNJCADOE@?$AAt?$AAm?$AAp@ 0000000180001448     TmpCfg.obj
 0001:00000450       ??_C@_1O@GBAEOCCH@?$AAP?$AAr?$AAe?$AAf?$AAi?$AAx@ 0000000180001450     TmpCfg.obj
 0001:00000460       ??_C@_1O@BJPKKLLM@?$AAC?$AAo?$AAn?$AAf?$AAi?$AAg@ 0000000180001460     TmpCfg.obj
 0001:00000470       ??_C@_1CM@OOGBEAGB@?$AAT?$AAe?$AAm?$AAp?$AAP?$AAa?$AAn?$AAe?$AAl?$AA?4?$AAC?$AAo?$AAl?$AAu?$AAm@ 0000000180001470     TmpCfg.obj
 0001:000004a0       ??_C@_1CO@PEIMNADN@?$AAT?$AAe?$AAm?$AAp?$AAP?$AAa?$AAn?$AAe?$AAl?$AA?4?$AAC?$AAo?$AAl?$AAu?$AAm@ 00000001800014a0     TmpCfg.obj
 0001:000004d0       ??_C@_1DI@DFFNPDGJ@?$AAT?$AAe?$AAm?$AAp?$AAP?$AAa?$AAn?$AAe?$AAl?$AA?4?$AAS?$AAt?$AAa?$AAt?$AAu@ 00000001800014d0     TmpCfg.obj
 0001:00000508       ??_C@_1DK@GODNGDDP@?$AAT?$AAe?$AAm?$AAp?$AAP?$AAa?$AAn?$AAe?$AAl?$AA?4?$AAS?$AAt?$AAa?$AAt?$AAu@ 0000000180001508     TmpCfg.obj
 0001:00000548       ??_C@_1BO@JLKBMGBC@?$AAT?$AAe?$AAm?$AAp?$AAP?$AAa?$AAn?$AAe?$AAl?$AA?4?$AAM?$AAa?$AAs?$AAk@ 0000000180001548     TmpCfg.obj
 0001:00000568       ??_C@_1CC@CFPIPDCG@?$AAT?$AAe?$AAm?$AAp?$AAP?$AAa?$AAn?$AAe?$AAl?$AA?4?$AAP?$AAr?$AAe?$AAf?$AAi@ 0000000180001568     TmpCfg.obj
 0001:00000590       __xmm@00000000000000020000000000000000 0000000180001590     TmpCfg.obj
 0001:000005a0       __xmm@ffffffffffffffffffffffffffffffff 00000001800015a0     TmpCfg.obj
 0001:000005b0       ??_C@_15DDHGOCBH@?$AA?4?$AA?4@ 00000001800015b0     TmpClass.obj
 0001:000005b8       ??_C@_19NHGNNLNG@?$AA?$CI?$AAR?$AA?$CJ?$AA?5@ 00000001800015b8     TmpClass.obj
 0001:000005c8       ??_C@_1O@OCNONAPA@?$AA?5?$AA?$CF?$AAs?$AA?$CF?$AAs?$AA?5@ 00000001800015c8     TmpClass.obj
 0001:000005d8       ??_C@_13FPGAJAPJ@?$AA?2@   00000001800015d8     TmpClass.obj
 0001:000005dc       ??_C@_13BBDEGPLJ@?$AA?$CK@ 00000001800015dc     TmpClass.obj
 0001:000005e0       ??_C@_13JOFGPIOO@?$AA?4@   00000001800015e0     TmpClass.obj
 0001:000005e8       ??_C@_1M@HCONLDPB@?$AAp?$AAa?$AAn?$AAe?$AAl@ 00000001800015e8     TmpClass.obj
 0001:000005f8       ??_C@_1CE@FHMHDLFC@?$AAT?$AAm?$AAp?$AAP?$AAa?$AAn?$AAe?$AAl?$AA?4?$AAS?$AAa?$AAv?$AAe?$AAL?$AAi@ 00000001800015f8     TmpClass.obj
 0001:00000624       ??_C@_15JNBOKNOG@?$AA?$AN?$AA?6@ 0000000180001624     TmpClass.obj
 0001:0000062c       ??_C@_02PCIJFNDE@?$AN?6@   000000018000162c     TmpClass.obj
 0001:00000648       ??_C@_19BKJMDJK@?$AA?2?$AA?2?$AA?4?$AA?2@ 0000000180001648     TmpClass.obj
 0001:00000658       ??_C@_1CE@JKDBMIKG@?$AA?2?$AA?2?$AA?4?$AA?2?$AAP?$AAh?$AAy?$AAs?$AAi?$AAc?$AAa?$AAl?$AAD?$AAr?$AAi@ 0000000180001658     TmpClass.obj
 0001:00000680       ??_C@_1BE@BNONMOPA@?$AA?2?$AA?2?$AA?4?$AA?2?$AAc?$AAd?$AAr?$AAo?$AAm@ 0000000180001680     TmpClass.obj
 0001:000006a0       __xmm@00000000000000010000000000000000 00000001800016a0     TmpClass.obj
 0001:000006b0       __xmm@00000000000000010000000000000001 00000001800016b0     TmpClass.obj
 0001:000006c0       ??_C@_1BC@NAEGMMKI@?$AA?2?$AA?2?$AA?$DP?$AA?2?$AAU?$AAN?$AAC?$AA?2@ 00000001800016c0     TmpMix.obj
 0001:000006d8       ??_C@_19MJCDBCKE@?$AA?2?$AA?2?$AA?$DP?$AA?2@ 00000001800016d8     TmpMix.obj
 0001:000006e8       ??_C@_1CC@OPFFOEHP@?$AA?$CF?$AAF?$AAA?$AAR?$AAH?$AAO?$AAM?$AAE?$AA?$CF?$AA?$DL?$AA?$CF?$AAP?$AAA?$AAT?$AAH@ 00000001800016e8     TmpMix.obj
 0001:00000710       _pDefaultRawDllMain        0000000180001710     LIBCMT:dll_dllmain.obj
 0001:00000710       _pRawDllMain               0000000180001710     LIBCMT:dll_dllmain.obj
 0001:00000720       ??_7exception@std@@6B@     0000000180001720     LIBCMT:throw_bad_alloc.obj
 0001:00000730       ??_C@_0BC@EOODALEL@Unknown?5exception@ 0000000180001730     LIBCMT:throw_bad_alloc.obj
 0001:00000750       ??_7bad_alloc@std@@6B@     0000000180001750     LIBCMT:throw_bad_alloc.obj
 0001:00000760       ??_C@_0P@GHFPNOJB@bad?5allocation@ 0000000180001760     LIBCMT:throw_bad_alloc.obj
 0001:00000778       ??_7bad_array_new_length@std@@6B@ 0000000180001778     LIBCMT:throw_bad_alloc.obj
 0001:00000788       ??_C@_0BF@KINCDENJ@bad?5array?5new?5length@ 0000000180001788     LIBCMT:throw_bad_alloc.obj
 0001:000007a8       ??_7type_info@@6B@         00000001800017a8     LIBCMT:std_type_info_static.obj
 0001:000007b0       _pDestructExceptionObject  00000001800017b0     libvcruntime:ehhelpers.obj
 0001:00000ec0       ??_C@_08EHJDFFNH@__based?$CI@ 0000000180001ec0     libvcruntime:undname.obj
 0001:00000ed0       ??_C@_07KOLFKCDI@__cdecl@  0000000180001ed0     libvcruntime:undname.obj
 0001:00000ed8       ??_C@_08GHMPAG@__pascal@   0000000180001ed8     libvcruntime:undname.obj
 0001:00000ee8       ??_C@_09IFJBGAPI@__stdcall@ 0000000180001ee8     libvcruntime:undname.obj
 0001:00000ef8       ??_C@_0L@NPHFGOKO@__thiscall@ 0000000180001ef8     libvcruntime:undname.obj
 0001:00000f08       ??_C@_0L@JMKHOMEK@__fastcall@ 0000000180001f08     libvcruntime:undname.obj
 0001:00000f18       ??_C@_0N@BCKKPABJ@__vectorcall@ 0000000180001f18     libvcruntime:undname.obj
 0001:00000f28       ??_C@_09HIJEGCPM@__clrcall@ 0000000180001f28     libvcruntime:undname.obj
 0001:00000f34       ??_C@_06GHPCKEAG@__eabi@   0000000180001f34     libvcruntime:undname.obj
 0001:00000f40       ??_C@_09IOPIDJLG@__swift_1@ 0000000180001f40     libvcruntime:undname.obj
 0001:00000f50       ??_C@_09KFNFGKHF@__swift_2@ 0000000180001f50     libvcruntime:undname.obj
 0001:00000f60       ??_C@_07JOMMBBKO@__ptr64@  0000000180001f60     libvcruntime:undname.obj
 0001:00000f68       ??_C@_0L@PILCLIHE@__restrict@ 0000000180001f68     libvcruntime:undname.obj
 0001:00000f78       ??_C@_0M@GFIIJFMG@__unaligned@ 0000000180001f78     libvcruntime:undname.obj
 0001:00000f88       ??_C@_09DHDLOLLB@restrict?$CI@ 0000000180001f88     libvcruntime:undname.obj
 0001:00000f92       ??_C@_00CNPNBAHC@@         0000000180001f92     libvcruntime:undname.obj
 0001:00000f94       ??_C@_04NIHEBCM@?5new@     0000000180001f94     libvcruntime:undname.obj
 0001:00000fa0       ??_C@_07FPCDHGMM@?5delete@ 0000000180001fa0     libvcruntime:undname.obj
 0001:00000fa8       ??_C@_01NEMOKFLO@?$DN@     0000000180001fa8     libvcruntime:undname.obj
 0001:00000fac       ??_C@_02GPIOPFAK@?$DO?$DO@ 0000000180001fac     libvcruntime:undname.obj
 0001:00000fb0       ??_C@_02FODMEDOG@?$DM?$DM@ 0000000180001fb0     libvcruntime:undname.obj
 0001:00000fb4       ??_C@_01DCLJPIOD@?$CB@     0000000180001fb4     libvcruntime:undname.obj
 0001:00000fb8       ??_C@_02EGOFBIJA@?$DN?$DN@ 0000000180001fb8     libvcruntime:undname.obj
 0001:00000fbc       ??_C@_02FDNJECIE@?$CB?$DN@ 0000000180001fbc     libvcruntime:undname.obj
 0001:00000fc0       ??_C@_02GPECMEKF@?$FL?$FN@ 0000000180001fc0     libvcruntime:undname.obj
 0001:00000fc8       ??_C@_08LHJFAFGD@operator@ 0000000180001fc8     libvcruntime:undname.obj
 0001:00000fd4       ??_C@_02HBOOOICD@?9?$DO@   0000000180001fd4     libvcruntime:undname.obj
 0001:00000fd8       ??_C@_01NBENCBCI@?$CK@     0000000180001fd8     libvcruntime:undname.obj
 0001:00000fdc       ??_C@_02ECNGHCIF@?$CL?$CL@ 0000000180001fdc     libvcruntime:undname.obj
 0001:00000fe0       ??_C@_02BAABKJLB@?9?9@     0000000180001fe0     libvcruntime:undname.obj
 0001:00000fe4       ??_C@_01JOAMLHOP@?9@       0000000180001fe4     libvcruntime:undname.obj
 0001:00000fe8       ??_C@_01MIFGBAGJ@?$CL@     0000000180001fe8     libvcruntime:undname.obj
 0001:00000fec       ??_C@_01HNPIGOCE@?$CG@     0000000180001fec     libvcruntime:undname.obj
 0001:00000ff0       ??_C@_03MNHNFDLC@?9?$DO?$CK@ 0000000180001ff0     libvcruntime:undname.obj
 0001:00000ff4       ??_C@_01KMDKNFGN@?1@       0000000180001ff4     libvcruntime:undname.obj
 0001:00000ff8       ??_C@_01FGNFDNOH@?$CF@     0000000180001ff8     libvcruntime:undname.obj
 0001:00000ffc       ??_C@_01MNNFJEPP@?$DM@     0000000180001ffc     libvcruntime:undname.obj
 0001:00001000       ??_C@_02EHCHHCKH@?$DM?$DN@ 0000000180002000     libvcruntime:undname.obj
 0001:00001004       ??_C@_01PPODPGHN@?$DO@     0000000180002004     libvcruntime:undname.obj
 0001:00001008       ??_C@_02EEKDKGMJ@?$DO?$DN@ 0000000180002008     libvcruntime:undname.obj
 0001:0000100c       ??_C@_01IHBHIGKO@?0@       000000018000200c     libvcruntime:undname.obj
 0001:00001010       ??_C@_02HCKGKOFO@?$CI?$CJ@ 0000000180002010     libvcruntime:undname.obj
 0001:00001014       ??_C@_01PJKLJHI@?$HO@      0000000180002014     libvcruntime:undname.obj
 0001:00001018       ??_C@_01JKBOJNNK@?$FO@     0000000180002018     libvcruntime:undname.obj
 0001:0000101c       ??_C@_01DNKMNLPK@?$HM@     000000018000201c     libvcruntime:undname.obj
 0001:00001020       ??_C@_02PPKAJPJL@?$CG?$CG@ 0000000180002020     libvcruntime:undname.obj
 0001:00001024       ??_C@_02NONPIBCD@?$HM?$HM@ 0000000180002024     libvcruntime:undname.obj
 0001:00001028       ??_C@_02FPIMKNGF@?$CK?$DN@ 0000000180002028     libvcruntime:undname.obj
 0001:0000102c       ??_C@_02FOEOMHFC@?$CL?$DN@ 000000018000202c     libvcruntime:undname.obj
 0001:00001030       ??_C@_02FKMDLLOA@?9?$DN@   0000000180002030     libvcruntime:undname.obj
 0001:00001034       ??_C@_02FJEHGPIO@?1?$DN@   0000000180002034     libvcruntime:undname.obj
 0001:00001038       ??_C@_02FENAOKFI@?$CF?$DN@ 0000000180002038     libvcruntime:undname.obj
 0001:0000103c       ??_C@_03IKFCCPFF@?$DO?$DO?$DN@ 000000018000203c     libvcruntime:undname.obj
 0001:00001040       ??_C@_03CDNPDDLA@?$DM?$DM?$DN@ 0000000180002040     libvcruntime:undname.obj
 0001:00001044       ??_C@_02FGJGFEAB@?$CG?$DN@ 0000000180002044     libvcruntime:undname.obj
 0001:00001048       ??_C@_02DHLNPPGH@?$HM?$DN@ 0000000180002048     libvcruntime:undname.obj
 0001:0000104c       ??_C@_02MHEGNOJ@?$FO?$DN@  000000018000204c     libvcruntime:undname.obj
 0001:00001050       ??_C@_09IFPLHPGF@?$GAvftable?8@ 0000000180002050     libvcruntime:undname.obj
 0001:00001060       ??_C@_09BLBHBJP@?$GAvbtable?8@ 0000000180002060     libvcruntime:undname.obj
 0001:00001070       ??_C@_07FEEIOKP@?$GAvcall?8@ 0000000180002070     libvcruntime:undname.obj
 0001:00001078       ??_C@_08LLFFHHDJ@?$GAtypeof?8@ 0000000180002078     libvcruntime:undname.obj
 0001:00001088       ??_C@_0BF@KDPPACIK@?$GAlocal?5static?5guard?8@ 0000000180002088     libvcruntime:undname.obj
 0001:000010a0       ??_C@_08OBABFOLI@?$GAstring?8@ 00000001800020a0     libvcruntime:undname.obj
 0001:000010b0       ??_C@_0BD@JDLKDPAB@?$GAvbase?5destructor?8@ 00000001800020b0     libvcruntime:undname.obj
 0001:000010c8       ??_C@_0BN@DEGPLNFK@?$GAvector?5deleting?5destructor?8@ 00000001800020c8     libvcruntime:undname.obj
 0001:000010e8       ??_C@_0BO@OBMKPJIG@?$GAdefault?5constructor?5closure?8@ 00000001800020e8     libvcruntime:undname.obj
 0001:00001108       ??_C@_0BN@IMDCHIKM@?$GAscalar?5deleting?5destructor?8@ 0000000180002108     libvcruntime:undname.obj
 0001:00001128       ??_C@_0BO@PFGOCPJJ@?$GAvector?5constructor?5iterator?8@ 0000000180002128     libvcruntime:undname.obj
 0001:00001148       ??_C@_0BN@LFPFMEDL@?$GAvector?5destructor?5iterator?8@ 0000000180002148     libvcruntime:undname.obj
 0001:00001168       ??_C@_0CE@IKBNEHA@?$GAvector?5vbase?5constructor?5itera@ 0000000180002168     libvcruntime:undname.obj
 0001:00001190       ??_C@_0BL@NILFHHPC@?$GAvirtual?5displacement?5map?8@ 0000000180002190     libvcruntime:undname.obj
 0001:000011b0       ??_C@_0CB@JONCMFFK@?$GAeh?5vector?5constructor?5iterator@ 00000001800021b0     libvcruntime:undname.obj
 0001:000011d8       ??_C@_0CA@GCEOPDGL@?$GAeh?5vector?5destructor?5iterator?8@ 00000001800021d8     libvcruntime:undname.obj
 0001:000011f8       ??_C@_0CH@OOJPLCPH@?$GAeh?5vector?5vbase?5constructor?5it@ 00000001800021f8     libvcruntime:undname.obj
 0001:00001220       ??_C@_0BL@LLKPOHJI@?$GAcopy?5constructor?5closure?8@ 0000000180002220     libvcruntime:undname.obj
 0001:00001240       ??_C@_0BA@KBCDOMBN@?$GAudt?5returning?8@ 0000000180002240     libvcruntime:undname.obj
 0001:00001250       ??_C@_03KLGMFNMG@?$GAEH@   0000000180002250     libvcruntime:undname.obj
 0001:00001254       ??_C@_05KHLCHHI@?$GARTTI@  0000000180002254     libvcruntime:undname.obj
 0001:00001260       ??_C@_0BA@KKLDJDLB@?$GAlocal?5vftable?8@ 0000000180002260     libvcruntime:undname.obj
 0001:00001270       ??_C@_0CE@IIHCMGGL@?$GAlocal?5vftable?5constructor?5clos@ 0000000180002270     libvcruntime:undname.obj
 0001:00001294       ??_C@_06FHBGPFGH@?5new?$FL?$FN@ 0000000180002294     libvcruntime:undname.obj
 0001:000012a0       ??_C@_09LBNFPBCA@?5delete?$FL?$FN@ 00000001800022a0     libvcruntime:undname.obj
 0001:000012b0       ??_C@_0P@HJKNJFNN@?$GAomni?5callsig?8@ 00000001800022b0     libvcruntime:undname.obj
 0001:000012c0       ??_C@_0BL@CNOONJFP@?$GAplacement?5delete?5closure?8@ 00000001800022c0     libvcruntime:undname.obj
 0001:000012e0       ??_C@_0BN@CKNJLHMB@?$GAplacement?5delete?$FL?$FN?5closure?8@ 00000001800022e0     libvcruntime:undname.obj
 0001:00001300       ??_C@_0CG@CFDHKGGD@?$GAmanaged?5vector?5constructor?5ite@ 0000000180002300     libvcruntime:undname.obj
 0001:00001328       ??_C@_0CF@IMGKMJNO@?$GAmanaged?5vector?5destructor?5iter@ 0000000180002328     libvcruntime:undname.obj
 0001:00001350       ??_C@_0CG@HLDDJMAG@?$GAeh?5vector?5copy?5constructor?5ite@ 0000000180002350     libvcruntime:undname.obj
 0001:00001378       ??_C@_0CM@FCBBDIGB@?$GAeh?5vector?5vbase?5copy?5construct@ 0000000180002378     libvcruntime:undname.obj
 0001:000013a8       ??_C@_0BL@CLIPGLGB@?$GAdynamic?5initializer?5for?5?8@ 00000001800023a8     libvcruntime:undname.obj
 0001:000013c8       ??_C@_0CB@PDBIFEP@?$GAdynamic?5atexit?5destructor?5for?5@ 00000001800023c8     libvcruntime:undname.obj
 0001:000013f0       ??_C@_0CD@CGAJBKEJ@?$GAvector?5copy?5constructor?5iterat@ 00000001800023f0     libvcruntime:undname.obj
 0001:00001418       ??_C@_0CJ@GJELGAMM@?$GAvector?5vbase?5copy?5constructor?5@ 0000000180002418     libvcruntime:undname.obj
 0001:00001448       ??_C@_0CL@FGIJHLCE@?$GAmanaged?5vector?5copy?5constructo@ 0000000180002448     libvcruntime:undname.obj
 0001:00001478       ??_C@_0BM@PMGGMLDN@?$GAlocal?5static?5thread?5guard?8@ 0000000180002478     libvcruntime:undname.obj
 0001:00001498       ??_C@_0N@BDNMDMOL@operator?5?$CC?$CC?5@ 0000000180002498     libvcruntime:undname.obj
 0001:000014a8       ??_C@_0BC@GGEBGALA@operator?5co_await@ 00000001800024a8     libvcruntime:undname.obj
 0001:000014c0       ??_C@_0M@GAAIMMOH@operator?$DM?$DN?$DO@ 00000001800024c0     libvcruntime:undname.obj
 0001:000014d0       ??_C@_0BC@DAFEJGAK@?5Type?5Descriptor?8@ 00000001800024d0     libvcruntime:undname.obj
 0001:000014e8       ??_C@_0BM@LDKODKLH@?5Base?5Class?5Descriptor?5at?5?$CI@ 00000001800024e8     libvcruntime:undname.obj
 0001:00001508       ??_C@_0BD@LGICGFMM@?5Base?5Class?5Array?8@ 0000000180002508     libvcruntime:undname.obj
 0001:00001520       ??_C@_0BN@MECKDCOJ@?5Class?5Hierarchy?5Descriptor?8@ 0000000180002520     libvcruntime:undname.obj
 0001:00001540       ??_C@_0BK@CFCOFLF@?5Complete?5Object?5Locator?8@ 0000000180002540     libvcruntime:undname.obj
 0001:00001560       ??_C@_0BG@JNJLAMPM@?$GAanonymous?5namespace?8@ 0000000180002560     libvcruntime:undname.obj
 0001:00001590       ??_C@_1DM@KHCHBNEB@?$AAa?$AAp?$AAi?$AA?9?$AAm?$AAs?$AA?9?$AAw?$AAi?$AAn?$AA?9?$AAc?$AAo?$AAr?$AAe@ 0000000180002590     libvcruntime:winapi_downlevel.obj
 0001:000015d0       ??_C@_1DK@LPPGFMPP@?$AAa?$AAp?$AAi?$AA?9?$AAm?$AAs?$AA?9?$AAw?$AAi?$AAn?$AA?9?$AAc?$AAo?$AAr?$AAe@ 00000001800025d0     libvcruntime:winapi_downlevel.obj
 0001:00001610       ??_C@_1BC@GDMECMAK@?$AAk?$AAe?$AAr?$AAn?$AAe?$AAl?$AA3?$AA2@ 0000000180002610     libvcruntime:winapi_downlevel.obj
 0001:00001628       ??_C@_1BA@PFFKHIOG@?$AAa?$AAp?$AAi?$AA?9?$AAm?$AAs?$AA?9@ 0000000180002628     libvcruntime:winapi_downlevel.obj
 0001:00001640       ??_C@_08KNHFBNJ@FlsAlloc@  0000000180002640     libvcruntime:winapi_downlevel.obj
 0001:00001658       ??_C@_07PEJMOBNF@FlsFree@  0000000180002658     libvcruntime:winapi_downlevel.obj
 0001:00001668       ??_C@_0M@GDNOONDI@FlsGetValue@ 0000000180002668     libvcruntime:winapi_downlevel.obj
 0001:00001680       ??_C@_0M@JCPCPOEF@FlsSetValue@ 0000000180002680     libvcruntime:winapi_downlevel.obj
 0001:00001698       ??_C@_0BM@HCFOFFN@InitializeCriticalSectionEx@ 0000000180002698     libvcruntime:winapi_downlevel.obj
 0001:000016c0       __acrt_exception_action_table 00000001800026c0     libucrt:exception_filter.obj
 0001:00001780       __acrt_signal_action_table_count 0000000180002780     libucrt:exception_filter.obj
 0001:00001788       __acrt_signal_action_first_fpe_index 0000000180002788     libucrt:exception_filter.obj
 0001:00001790       __acrt_signal_action_fpe_count 0000000180002790     libucrt:exception_filter.obj
 0001:00001798       ??_C@_1BI@BGOHAHKC@?$AAm?$AAs?$AAc?$AAo?$AAr?$AAe?$AAe?$AA?4?$AAd?$AAl?$AAl@ 0000000180002798     libucrt:exit.obj
 0001:000017b0       ??_C@_0P@MIGLKIOC@CorExitProcess@ 00000001800027b0     libucrt:exit.obj
 0001:00001a48       ??_C@_1M@HPNHIDJI@?$AAj?$AAa?$AA?9?$AAJ?$AAP@ 0000000180002a48     libucrt:mbctype.obj
 0001:00001a58       ??_C@_1M@BIBDDEMK@?$AAz?$AAh?$AA?9?$AAC?$AAN@ 0000000180002a58     libucrt:mbctype.obj
 0001:00001a68       ??_C@_1M@JLOOOEGK@?$AAk?$AAo?$AA?9?$AAK?$AAR@ 0000000180002a68     libucrt:mbctype.obj
 0001:00001a78       ??_C@_1M@CLNBBOPM@?$AAz?$AAh?$AA?9?$AAT?$AAW@ 0000000180002a78     libucrt:mbctype.obj
 0001:00001b30       ??_C@_1EA@JGEFHKEI@?$AAa?$AAp?$AAi?$AA?9?$AAm?$AAs?$AA?9?$AAw?$AAi?$AAn?$AA?9?$AAc?$AAo?$AAr?$AAe@ 0000000180002b30     libucrt:winapi_thunks.obj
 0001:00001b70       ??_C@_1DI@IJCEHOCB@?$AAa?$AAp?$AAi?$AA?9?$AAm?$AAs?$AA?9?$AAw?$AAi?$AAn?$AA?9?$AAc?$AAo?$AAr?$AAe@ 0000000180002b70     libucrt:winapi_thunks.obj
 0001:00001bb0       ??_C@_1EI@MPIAOHOC@?$AAa?$AAp?$AAi?$AA?9?$AAm?$AAs?$AA?9?$AAw?$AAi?$AAn?$AA?9?$AAc?$AAo?$AAr?$AAe@ 0000000180002bb0     libucrt:winapi_thunks.obj
 0001:00001c00       ??_C@_1FK@FPHCKFIE@?$AAa?$AAp?$AAi?$AA?9?$AAm?$AAs?$AA?9?$AAw?$AAi?$AAn?$AA?9?$AAc?$AAo?$AAr?$AAe@ 0000000180002c00     libucrt:winapi_thunks.obj
 0001:00001c60       ??_C@_1EM@DILCGIIO@?$AAa?$AAp?$AAi?$AA?9?$AAm?$AAs?$AA?9?$AAw?$AAi?$AAn?$AA?9?$AAc?$AAo?$AAr?$AAe@ 0000000180002c60     libucrt:winapi_thunks.obj
 0001:00001cb0       ??_C@_1DM@LNCGDDPN@?$AAa?$AAp?$AAi?$AA?9?$AAm?$AAs?$AA?9?$AAw?$AAi?$AAn?$AA?9?$AAc?$AAo?$AAr?$AAe@ 0000000180002cb0     libucrt:winapi_thunks.obj
 0001:00001cf0       ??_C@_1DO@FPAPJEMD@?$AAa?$AAp?$AAi?$AA?9?$AAm?$AAs?$AA?9?$AAw?$AAi?$AAn?$AA?9?$AAc?$AAo?$AAr?$AAe@ 0000000180002cf0     libucrt:winapi_thunks.obj
 0001:00001d30       ??_C@_1DK@NDHNAHIO@?$AAa?$AAp?$AAi?$AA?9?$AAm?$AAs?$AA?9?$AAw?$AAi?$AAn?$AA?9?$AAc?$AAo?$AAr?$AAe@ 0000000180002d30     libucrt:winapi_thunks.obj
 0001:00001d70       ??_C@_1DM@KGHDGBCM@?$AAa?$AAp?$AAi?$AA?9?$AAm?$AAs?$AA?9?$AAw?$AAi?$AAn?$AA?9?$AAc?$AAo?$AAr?$AAe@ 0000000180002d70     libucrt:winapi_thunks.obj
 0001:00001db0       ??_C@_1EO@IJIOEFOH@?$AAa?$AAp?$AAi?$AA?9?$AAm?$AAs?$AA?9?$AAw?$AAi?$AAn?$AA?9?$AAr?$AAt?$AAc?$AAo@ 0000000180002db0     libucrt:winapi_thunks.obj
 0001:00001e00       ??_C@_1FG@HHGEKANL@?$AAa?$AAp?$AAi?$AA?9?$AAm?$AAs?$AA?9?$AAw?$AAi?$AAn?$AA?9?$AAs?$AAe?$AAc?$AAu@ 0000000180002e00     libucrt:winapi_thunks.obj
 0001:00001e60       ??_C@_1EG@DBIOJECG@?$AAe?$AAx?$AAt?$AA?9?$AAm?$AAs?$AA?9?$AAw?$AAi?$AAn?$AA?9?$AAn?$AAt?$AAu?$AAs@ 0000000180002e60     libucrt:winapi_thunks.obj
 0001:00001eb0       ??_C@_1EO@FIHMJCLF@?$AAe?$AAx?$AAt?$AA?9?$AAm?$AAs?$AA?9?$AAw?$AAi?$AAn?$AA?9?$AAn?$AAt?$AAu?$AAs@ 0000000180002eb0     libucrt:winapi_thunks.obj
 0001:00001f00       ??_C@_1BC@DNHGCMLG@?$AAa?$AAd?$AAv?$AAa?$AAp?$AAi?$AA3?$AA2@ 0000000180002f00     libucrt:winapi_thunks.obj
 0001:00001f18       ??_C@_1M@OAIMIKLP@?$AAn?$AAt?$AAd?$AAl?$AAl@ 0000000180002f18     libucrt:winapi_thunks.obj
 0001:00001f30       ??_C@_1EG@DPGNFKGC@?$AAa?$AAp?$AAi?$AA?9?$AAm?$AAs?$AA?9?$AAw?$AAi?$AAn?$AA?9?$AAa?$AAp?$AAp?$AAm@ 0000000180002f30     libucrt:winapi_thunks.obj
 0001:00001f78       ??_C@_1O@BCCLBEOE@?$AAu?$AAs?$AAe?$AAr?$AA3?$AA2@ 0000000180002f78     libucrt:winapi_thunks.obj
 0001:00001f88       ??_C@_1BA@IAIFMGEF@?$AAe?$AAx?$AAt?$AA?9?$AAm?$AAs?$AA?9@ 0000000180002f88     libucrt:winapi_thunks.obj
 0001:00001fa0       ??_C@_0BA@FHFNEAED@AreFileApisANSI@ 0000000180002fa0     libucrt:winapi_thunks.obj
 0001:00001fe0       ??_C@_0O@KKBNKAPF@LCMapStringEx@ 0000000180002fe0     libucrt:winapi_thunks.obj
 0001:00001ff8       ??_C@_0BB@HBDEELFH@LocaleNameToLCID@ 0000000180002ff8     libucrt:winapi_thunks.obj
 0001:00002010       ??_C@_0CF@OJOFEIGO@AppPolicyGetProcessTerminationM@ 0000000180003010     libucrt:winapi_thunks.obj
 0001:00002040       __lc_time_c                0000000180003040     libucrt:nlsdata.obj
 0001:00002300       ??_C@_03KOEHGMDN@Sun@      0000000180003300     libucrt:nlsdata.obj
 0001:00002304       ??_C@_03PDAGKDH@Mon@       0000000180003304     libucrt:nlsdata.obj
 0001:00002308       ??_C@_03NAGEINEP@Tue@      0000000180003308     libucrt:nlsdata.obj
 0001:0000230c       ??_C@_03MHOMLAJA@Wed@      000000018000330c     libucrt:nlsdata.obj
 0001:00002310       ??_C@_03IOFIKPDN@Thu@      0000000180003310     libucrt:nlsdata.obj
 0001:00002314       ??_C@_03IDIOELNC@Fri@      0000000180003314     libucrt:nlsdata.obj
 0001:00002318       ??_C@_03FEFJNEK@Sat@       0000000180003318     libucrt:nlsdata.obj
 0001:0000231c       ??_C@_06OOPIFAJ@Sunday@    000000018000331c     libucrt:nlsdata.obj
 0001:00002324       ??_C@_06JLEDEDGH@Monday@   0000000180003324     libucrt:nlsdata.obj
 0001:00002330       ??_C@_07BAAGCFCM@Tuesday@  0000000180003330     libucrt:nlsdata.obj
 0001:00002338       ??_C@_09DLIGFAKA@Wednesday@ 0000000180003338     libucrt:nlsdata.obj
 0001:00002348       ??_C@_08HACCIKIA@Thursday@ 0000000180003348     libucrt:nlsdata.obj
 0001:00002354       ??_C@_06JECMNKMI@Friday@   0000000180003354     libucrt:nlsdata.obj
 0001:00002360       ??_C@_08INBOOONO@Saturday@ 0000000180003360     libucrt:nlsdata.obj
 0001:0000236c       ??_C@_03JIHJHPIE@Jan@      000000018000336c     libucrt:nlsdata.obj
 0001:00002370       ??_C@_03HJBDCHOM@Feb@      0000000180003370     libucrt:nlsdata.obj
 0001:00002374       ??_C@_03ODNJBKGA@Mar@      0000000180003374     libucrt:nlsdata.obj
 0001:00002378       ??_C@_03LEOLGMJP@Apr@      0000000180003378     libucrt:nlsdata.obj
 0001:0000237c       ??_C@_03CNMDKL@May@        000000018000337c     libucrt:nlsdata.obj
 0001:00002380       ??_C@_03IDFGHECI@Jun@      0000000180003380     libucrt:nlsdata.obj
 0001:00002384       ??_C@_03LBGABGKK@Jul@      0000000180003384     libucrt:nlsdata.obj
 0001:00002388       ??_C@_03IFJFEIGA@Aug@      0000000180003388     libucrt:nlsdata.obj
 0001:0000238c       ??_C@_03GGCAPAJC@Sep@      000000018000338c     libucrt:nlsdata.obj
 0001:00002390       ??_C@_03BMAOKBAD@Oct@      0000000180003390     libucrt:nlsdata.obj
 0001:00002394       ??_C@_03JPJOFNIA@Nov@      0000000180003394     libucrt:nlsdata.obj
 0001:00002398       ??_C@_03MKABNOCG@Dec@      0000000180003398     libucrt:nlsdata.obj
 0001:000023a0       ??_C@_07CGJPFGJA@January@  00000001800033a0     libucrt:nlsdata.obj
 0001:000023a8       ??_C@_08GNJGEPFN@February@ 00000001800033a8     libucrt:nlsdata.obj
 0001:000023b4       ??_C@_05HPCKOFNC@March@    00000001800033b4     libucrt:nlsdata.obj
 0001:000023bc       ??_C@_05DMJDNLEJ@April@    00000001800033bc     libucrt:nlsdata.obj
 0001:000023c4       ??_C@_04CNLMGBGM@June@     00000001800033c4     libucrt:nlsdata.obj
 0001:000023cc       ??_C@_04MIEPOIFP@July@     00000001800033cc     libucrt:nlsdata.obj
 0001:000023d4       ??_C@_06LBBHFDDG@August@   00000001800033d4     libucrt:nlsdata.obj
 0001:000023e0       ??_C@_09BHHEALKD@September@ 00000001800033e0     libucrt:nlsdata.obj
 0001:000023f0       ??_C@_07JJNFCEND@October@  00000001800033f0     libucrt:nlsdata.obj
 0001:000023f8       ??_C@_08HCHEGEOA@November@ 00000001800033f8     libucrt:nlsdata.obj
 0001:00002408       ??_C@_08EDHMEBNP@December@ 0000000180003408     libucrt:nlsdata.obj
 0001:00002414       ??_C@_02DEDBPAFC@AM@       0000000180003414     libucrt:nlsdata.obj
 0001:00002418       ??_C@_02CJNFDJBF@PM@       0000000180003418     libucrt:nlsdata.obj
 0001:00002420       ??_C@_08BPBNCDIB@MM?1dd?1yy@ 0000000180003420     libucrt:nlsdata.obj
 0001:00002430       ??_C@_0BE@CKGJFCPC@dddd?0?5MMMM?5dd?0?5yyyy@ 0000000180003430     libucrt:nlsdata.obj
 0001:00002448       ??_C@_08JCCMCCIL@HH?3mm?3ss@ 0000000180003448     libucrt:nlsdata.obj
 0001:00002458       ??_C@_17MBGCMIPB@?$AAS?$AAu?$AAn@ 0000000180003458     libucrt:nlsdata.obj
 0001:00002460       ??_C@_17KBOMKBF@?$AAM?$AAo?$AAn@ 0000000180003460     libucrt:nlsdata.obj
 0001:00002468       ??_C@_17BMKGEGOJ@?$AAT?$AAu?$AAe@ 0000000180003468     libucrt:nlsdata.obj
 0001:00002470       ??_C@_17CJEDCEPE@?$AAW?$AAe?$AAd@ 0000000180003470     libucrt:nlsdata.obj
 0001:00002478       ??_C@_17PDPHAADD@?$AAT?$AAh?$AAu@ 0000000180003478     libucrt:nlsdata.obj
 0001:00002480       ??_C@_17HFOLPPLP@?$AAF?$AAr?$AAi@ 0000000180003480     libucrt:nlsdata.obj
 0001:00002488       ??_C@_17GGIBDPIH@?$AAS?$AAa?$AAt@ 0000000180003488     libucrt:nlsdata.obj
 0001:00002490       ??_C@_1O@IHNHDHPB@?$AAS?$AAu?$AAn?$AAd?$AAa?$AAy@ 0000000180003490     libucrt:nlsdata.obj
 0001:000024a0       ??_C@_1O@MMNBFLIA@?$AAM?$AAo?$AAn?$AAd?$AAa?$AAy@ 00000001800034a0     libucrt:nlsdata.obj
 0001:000024b0       ??_C@_1BA@ENFBFFEK@?$AAT?$AAu?$AAe?$AAs?$AAd?$AAa?$AAy@ 00000001800034b0     libucrt:nlsdata.obj
 0001:000024c0       ??_C@_1BE@EBOGMDOH@?$AAW?$AAe?$AAd?$AAn?$AAe?$AAs?$AAd?$AAa?$AAy@ 00000001800034c0     libucrt:nlsdata.obj
 0001:000024d8       ??_C@_1BC@HHMNLIHE@?$AAT?$AAh?$AAu?$AAr?$AAs?$AAd?$AAa?$AAy@ 00000001800034d8     libucrt:nlsdata.obj
 0001:000024f0       ??_C@_1O@PDICJHAG@?$AAF?$AAr?$AAi?$AAd?$AAa?$AAy@ 00000001800034f0     libucrt:nlsdata.obj
 0001:00002500       ??_C@_1BC@ENMNNPAJ@?$AAS?$AAa?$AAt?$AAu?$AAr?$AAd?$AAa?$AAy@ 0000000180003500     libucrt:nlsdata.obj
 0001:00002518       ??_C@_17DKNBKCHM@?$AAJ?$AAa?$AAn@ 0000000180003518     libucrt:nlsdata.obj
 0001:00002520       ??_C@_17LMDJEKJN@?$AAF?$AAe?$AAb@ 0000000180003520     libucrt:nlsdata.obj
 0001:00002528       ??_C@_17CKNLEDEC@?$AAM?$AAa?$AAr@ 0000000180003528     libucrt:nlsdata.obj
 0001:00002530       ??_C@_17LFPOIHDD@?$AAA?$AAp?$AAr@ 0000000180003530     libucrt:nlsdata.obj
 0001:00002538       ??_C@_17PNNKMEED@?$AAM?$AAa?$AAy@ 0000000180003538     libucrt:nlsdata.obj
 0001:00002540       ??_C@_17KCJGOCPB@?$AAJ?$AAu?$AAn@ 0000000180003540     libucrt:nlsdata.obj
 0001:00002548       ??_C@_17IJPCKHK@?$AAJ?$AAu?$AAl@ 0000000180003548     libucrt:nlsdata.obj
 0001:00002550       ??_C@_17ICPELBCN@?$AAA?$AAu?$AAg@ 0000000180003550     libucrt:nlsdata.obj
 0001:00002558       ??_C@_17HCHCOKMG@?$AAS?$AAe?$AAp@ 0000000180003558     libucrt:nlsdata.obj
 0001:00002560       ??_C@_17FNLKOI@?$AAO?$AAc?$AAt@ 0000000180003560     libucrt:nlsdata.obj
 0001:00002568       ??_C@_17BBDMLCIG@?$AAN?$AAo?$AAv@ 0000000180003568     libucrt:nlsdata.obj
 0001:00002570       ??_C@_17EGKACKIF@?$AAD?$AAe?$AAc@ 0000000180003570     libucrt:nlsdata.obj
 0001:00002578       ??_C@_1BA@EFMEIEBA@?$AAJ?$AAa?$AAn?$AAu?$AAa?$AAr?$AAy@ 0000000180003578     libucrt:nlsdata.obj
 0001:00002588       ??_C@_1BC@JGDDFFAM@?$AAF?$AAe?$AAb?$AAr?$AAu?$AAa?$AAr?$AAy@ 0000000180003588     libucrt:nlsdata.obj
 0001:000025a0       ??_C@_1M@IKEENEDF@?$AAM?$AAa?$AAr?$AAc?$AAh@ 00000001800035a0     libucrt:nlsdata.obj
 0001:000025b0       ??_C@_1M@GJNLMHFD@?$AAA?$AAp?$AAr?$AAi?$AAl@ 00000001800035b0     libucrt:nlsdata.obj
 0001:000025c0       ??_C@_19EPFLPGAP@?$AAJ?$AAu?$AAn?$AAe@ 00000001800035c0     libucrt:nlsdata.obj
 0001:000025d0       ??_C@_19BIFMLPCD@?$AAJ?$AAu?$AAl?$AAy@ 00000001800035d0     libucrt:nlsdata.obj
 0001:000025e0       ??_C@_1O@PAHLKOAC@?$AAA?$AAu?$AAg?$AAu?$AAs?$AAt@ 00000001800035e0     libucrt:nlsdata.obj
 0001:000025f0       ??_C@_1BE@DKAAMBJL@?$AAS?$AAe?$AAp?$AAt?$AAe?$AAm?$AAb?$AAe?$AAr@ 00000001800035f0     libucrt:nlsdata.obj
 0001:00002608       ??_C@_1BA@EPANDLNG@?$AAO?$AAc?$AAt?$AAo?$AAb?$AAe?$AAr@ 0000000180003608     libucrt:nlsdata.obj
 0001:00002618       ??_C@_1BC@BGLIFPF@?$AAN?$AAo?$AAv?$AAe?$AAm?$AAb?$AAe?$AAr@ 0000000180003618     libucrt:nlsdata.obj
 0001:00002630       ??_C@_1BC@FEMKIFH@?$AAD?$AAe?$AAc?$AAe?$AAm?$AAb?$AAe?$AAr@ 0000000180003630     libucrt:nlsdata.obj
 0001:00002644       ??_C@_15ODEHAHHF@?$AAA?$AAM@ 0000000180003644     libucrt:nlsdata.obj
 0001:0000264c       ??_C@_15CLMNNGEL@?$AAP?$AAM@ 000000018000364c     libucrt:nlsdata.obj
 0001:00002658       ??_C@_1BC@IEBCMHCM@?$AAM?$AAM?$AA?1?$AAd?$AAd?$AA?1?$AAy?$AAy@ 0000000180003658     libucrt:nlsdata.obj
 0001:00002670       ??_C@_1CI@KNAKOEBC@?$AAd?$AAd?$AAd?$AAd?$AA?0?$AA?5?$AAM?$AAM?$AAM?$AAM?$AA?5?$AAd?$AAd?$AA?0?$AA?5@ 0000000180003670     libucrt:nlsdata.obj
 0001:00002698       ??_C@_1BC@GDGBMEMK@?$AAH?$AAH?$AA?3?$AAm?$AAm?$AA?3?$AAs?$AAs@ 0000000180003698     libucrt:nlsdata.obj
 0001:000026b0       ??_C@_1M@BMHNFIME@?$AAe?$AAn?$AA?9?$AAU?$AAS@ 00000001800036b0     libucrt:nlsdata.obj
 0001:000026c0       __newctype                 00000001800036c0     libucrt:ctype.obj
 0001:000029c0       __newclmap                 00000001800039c0     libucrt:ctype.obj
 0001:00002b40       __newcumap                 0000000180003b40     libucrt:ctype.obj
 0001:00003b00       ??_C@_15EMKDOKLE@?$AAa?$AAr@ 0000000180004b00     libucrt:lcidtoname_downlevel.obj
 0001:00003b08       ??_C@_15KNPADPLH@?$AAb?$AAg@ 0000000180004b08     libucrt:lcidtoname_downlevel.obj
 0001:00003b10       ??_C@_15EDMHLDMO@?$AAc?$AAa@ 0000000180004b10     libucrt:lcidtoname_downlevel.obj
 0001:00003b18       ??_C@_1O@BPEAJADD@?$AAz?$AAh?$AA?9?$AAC?$AAH?$AAS@ 0000000180004b18     libucrt:lcidtoname_downlevel.obj
 0001:00003b28       ??_C@_15LJNHCMNK@?$AAc?$AAs@ 0000000180004b28     libucrt:lcidtoname_downlevel.obj
 0001:00003b30       ??_C@_15FOMCIDHG@?$AAd?$AAa@ 0000000180004b30     libucrt:lcidtoname_downlevel.obj
 0001:00003b38       ??_C@_15NBKABECB@?$AAd?$AAe@ 0000000180004b38     libucrt:lcidtoname_downlevel.obj
 0001:00003b40       ??_C@_15GHPEIIAO@?$AAe?$AAl@ 0000000180004b40     libucrt:lcidtoname_downlevel.obj
 0001:00003b48       ??_C@_15MNPNEAIF@?$AAe?$AAn@ 0000000180004b48     libucrt:lcidtoname_downlevel.obj
 0001:00003b50       ??_C@_15GPIOMPMH@?$AAe?$AAs@ 0000000180004b50     libucrt:lcidtoname_downlevel.obj
 0001:00003b58       ??_C@_15NGLOAKJC@?$AAf?$AAi@ 0000000180004b58     libucrt:lcidtoname_downlevel.obj
 0001:00003b60       ??_C@_15FBKGNKAM@?$AAf?$AAr@ 0000000180004b60     libucrt:lcidtoname_downlevel.obj
 0001:00003b68       ??_C@_15KGGCNEFK@?$AAh?$AAe@ 0000000180004b68     libucrt:lcidtoname_downlevel.obj
 0001:00003b70       ??_C@_15PGHLIDMF@?$AAh?$AAu@ 0000000180004b70     libucrt:lcidtoname_downlevel.obj
 0001:00003b78       ??_C@_15BIEMAPLM@?$AAi?$AAs@ 0000000180004b78     libucrt:lcidtoname_downlevel.obj
 0001:00003b80       ??_C@_15IFJLDHAF@?$AAi?$AAt@ 0000000180004b80     libucrt:lcidtoname_downlevel.obj
 0001:00003b88       ??_C@_15GEMIOCAG@?$AAj?$AAa@ 0000000180004b88     libucrt:lcidtoname_downlevel.obj
 0001:00003b90       ??_C@_15EPELEGJA@?$AAk?$AAo@ 0000000180004b90     libucrt:lcidtoname_downlevel.obj
 0001:00003b98       ??_C@_15NDDHIMN@?$AAn?$AAl@ 0000000180004b98     libucrt:lcidtoname_downlevel.obj
 0001:00003ba0       ??_C@_15BPIGNHCD@?$AAn?$AAo@ 0000000180004ba0     libucrt:lcidtoname_downlevel.obj
 0001:00003ba8       ??_C@_15DEOPBLCG@?$AAp?$AAl@ 0000000180004ba8     libucrt:lcidtoname_downlevel.obj
 0001:00003bb0       ??_C@_15KBECGEFG@?$AAp?$AAt@ 0000000180004bb0     libucrt:lcidtoname_downlevel.obj
 0001:00003bb8       ??_C@_15GLJCBFMD@?$AAr?$AAo@ 0000000180004bb8     libucrt:lcidtoname_downlevel.obj
 0001:00003bc0       ??_C@_15FEDGKCDI@?$AAr?$AAu@ 0000000180004bc0     libucrt:lcidtoname_downlevel.obj
 0001:00003bc8       ??_C@_15GLKMLLHM@?$AAh?$AAr@ 0000000180004bc8     libucrt:lcidtoname_downlevel.obj
 0001:00003bd0       ??_C@_15CPKMFBDB@?$AAs?$AAk@ 0000000180004bd0     libucrt:lcidtoname_downlevel.obj
 0001:00003bd8       ??_C@_15BAAIOGMK@?$AAs?$AAq@ 0000000180004bd8     libucrt:lcidtoname_downlevel.obj
 0001:00003be0       ??_C@_15INNPNOHD@?$AAs?$AAv@ 0000000180004be0     libucrt:lcidtoname_downlevel.obj
 0001:00003be8       ??_C@_15CABMMOGH@?$AAt?$AAh@ 0000000180004be8     libucrt:lcidtoname_downlevel.obj
 0001:00003bf0       ??_C@_15BPLIHJJM@?$AAt?$AAr@ 0000000180004bf0     libucrt:lcidtoname_downlevel.obj
 0001:00003bf8       ??_C@_15NEOEKKDJ@?$AAu?$AAr@ 0000000180004bf8     libucrt:lcidtoname_downlevel.obj
 0001:00003c00       ??_C@_15NFICGAJK@?$AAi?$AAd@ 0000000180004c00     libucrt:lcidtoname_downlevel.obj
 0001:00003c08       ??_C@_15PJPFLCCM@?$AAu?$AAk@ 0000000180004c08     libucrt:lcidtoname_downlevel.obj
 0001:00003c10       ??_C@_15HPJPHDM@?$AAb?$AAe@ 0000000180004c10     libucrt:lcidtoname_downlevel.obj
 0001:00003c18       ??_C@_15LCHLGJII@?$AAs?$AAl@ 0000000180004c18     libucrt:lcidtoname_downlevel.obj
 0001:00003c20       ??_C@_15PCFJPHHO@?$AAe?$AAt@ 0000000180004c20     libucrt:lcidtoname_downlevel.obj
 0001:00003c28       ??_C@_15HPFPGODN@?$AAl?$AAv@ 0000000180004c28     libucrt:lcidtoname_downlevel.obj
 0001:00003c30       ??_C@_15NFFGKGLG@?$AAl?$AAt@ 0000000180004c30     libucrt:lcidtoname_downlevel.obj
 0001:00003c38       ??_C@_15BDAKCCHN@?$AAf?$AAa@ 0000000180004c38     libucrt:lcidtoname_downlevel.obj
 0001:00003c40       ??_C@_15NFGIAIAJ@?$AAv?$AAi@ 0000000180004c40     libucrt:lcidtoname_downlevel.obj
 0001:00003c48       ??_C@_15LMKNDMHN@?$AAh?$AAy@ 0000000180004c48     libucrt:lcidtoname_downlevel.obj
 0001:00003c50       ??_C@_15IJBHMCFL@?$AAa?$AAz@ 0000000180004c50     libucrt:lcidtoname_downlevel.obj
 0001:00003c58       ??_C@_15EKOFJABL@?$AAe?$AAu@ 0000000180004c58     libucrt:lcidtoname_downlevel.obj
 0001:00003c60       ??_C@_15BGHADCNK@?$AAm?$AAk@ 0000000180004c60     libucrt:lcidtoname_downlevel.obj
 0001:00003c68       ??_C@_15JDNICKHM@?$AAa?$AAf@ 0000000180004c68     libucrt:lcidtoname_downlevel.obj
 0001:00003c70       ??_C@_15KPJEDBKD@?$AAk?$AAa@ 0000000180004c70     libucrt:lcidtoname_downlevel.obj
 0001:00003c78       ??_C@_15PDNFFFEO@?$AAf?$AAo@ 0000000180004c78     libucrt:lcidtoname_downlevel.obj
 0001:00003c80       ??_C@_15OMLEGLOC@?$AAh?$AAi@ 0000000180004c80     libucrt:lcidtoname_downlevel.obj
 0001:00003c88       ??_C@_15IDNNENKK@?$AAm?$AAs@ 0000000180004c88     libucrt:lcidtoname_downlevel.obj
 0001:00003c90       ??_C@_15MACJNBMH@?$AAk?$AAk@ 0000000180004c90     libucrt:lcidtoname_downlevel.obj
 0001:00003c98       ??_C@_15DKDJEOND@?$AAk?$AAy@ 0000000180004c98     libucrt:lcidtoname_downlevel.obj
 0001:00003ca0       ??_C@_15DFGDLJBG@?$AAs?$AAw@ 0000000180004ca0     libucrt:lcidtoname_downlevel.obj
 0001:00003ca8       ??_C@_15BBFAICNG@?$AAu?$AAz@ 0000000180004ca8     libucrt:lcidtoname_downlevel.obj
 0001:00003cb0       ??_C@_15DKNDCGEA@?$AAt?$AAt@ 0000000180004cb0     libucrt:lcidtoname_downlevel.obj
 0001:00003cb8       ??_C@_15MGIFMDPL@?$AAp?$AAa@ 0000000180004cb8     libucrt:lcidtoname_downlevel.obj
 0001:00003cc0       ??_C@_15HCNDBBA@?$AAg?$AAu@ 0000000180004cc0     libucrt:lcidtoname_downlevel.obj
 0001:00003cc8       ??_C@_15FNBEIBON@?$AAt?$AAa@ 0000000180004cc8     libucrt:lcidtoname_downlevel.obj
 0001:00003cd0       ??_C@_15NCHGBGLK@?$AAt?$AAe@ 0000000180004cd0     libucrt:lcidtoname_downlevel.obj
 0001:00003cd8       ??_C@_15PHPHCBPF@?$AAk?$AAn@ 0000000180004cd8     libucrt:lcidtoname_downlevel.obj
 0001:00003ce0       ??_C@_15DLGBCKMP@?$AAm?$AAr@ 0000000180004ce0     libucrt:lcidtoname_downlevel.obj
 0001:00003ce8       ??_C@_15EABBLBFF@?$AAs?$AAa@ 0000000180004ce8     libucrt:lcidtoname_downlevel.obj
 0001:00003cf0       ??_C@_15CBKOMCOI@?$AAm?$AAn@ 0000000180004cf0     libucrt:lcidtoname_downlevel.obj
 0001:00003cf8       ??_C@_15CKDMCJAF@?$AAg?$AAl@ 0000000180004cf8     libucrt:lcidtoname_downlevel.obj
 0001:00003d00       ??_C@_17CNJFBPG@?$AAk?$AAo?$AAk@ 0000000180004d00     libucrt:lcidtoname_downlevel.obj
 0001:00003d08       ??_C@_17FFBJICPL@?$AAs?$AAy?$AAr@ 0000000180004d08     libucrt:lcidtoname_downlevel.obj
 0001:00003d10       ??_C@_17KPNDCPAF@?$AAd?$AAi?$AAv@ 0000000180004d10     libucrt:lcidtoname_downlevel.obj
 0001:00003d18       ??_C@_1M@OKAHONE@?$AAa?$AAr?$AA?9?$AAS?$AAA@ 0000000180004d18     libucrt:lcidtoname_downlevel.obj
 0001:00003d28       ??_C@_1M@FFFIGIGK@?$AAb?$AAg?$AA?9?$AAB?$AAG@ 0000000180004d28     libucrt:lcidtoname_downlevel.obj
 0001:00003d38       ??_C@_1M@BJNKEDC@?$AAc?$AAa?$AA?9?$AAE?$AAS@ 0000000180004d38     libucrt:lcidtoname_downlevel.obj
 0001:00003d48       ??_C@_1M@IJJHFJHA@?$AAc?$AAs?$AA?9?$AAC?$AAZ@ 0000000180004d48     libucrt:lcidtoname_downlevel.obj
 0001:00003d58       ??_C@_1M@CLPEOBGI@?$AAd?$AAa?$AA?9?$AAD?$AAK@ 0000000180004d58     libucrt:lcidtoname_downlevel.obj
 0001:00003d68       ??_C@_1M@MCMADGCB@?$AAd?$AAe?$AA?9?$AAD?$AAE@ 0000000180004d68     libucrt:lcidtoname_downlevel.obj
 0001:00003d78       ??_C@_1M@OOCKEMAM@?$AAe?$AAl?$AA?9?$AAG?$AAR@ 0000000180004d78     libucrt:lcidtoname_downlevel.obj
 0001:00003d88       ??_C@_1M@DDNJFGID@?$AAf?$AAi?$AA?9?$AAF?$AAI@ 0000000180004d88     libucrt:lcidtoname_downlevel.obj
 0001:00003d98       ??_C@_1M@GLIPPMAC@?$AAf?$AAr?$AA?9?$AAF?$AAR@ 0000000180004d98     libucrt:lcidtoname_downlevel.obj
 0001:00003da8       ??_C@_1M@GFMCHPE@?$AAh?$AAe?$AA?9?$AAI?$AAL@ 0000000180004da8     libucrt:lcidtoname_downlevel.obj
 0001:00003db8       ??_C@_1M@MHLPGNKM@?$AAh?$AAu?$AA?9?$AAH?$AAU@ 0000000180004db8     libucrt:lcidtoname_downlevel.obj
 0001:00003dc8       ??_C@_1M@LPDDNNPN@?$AAi?$AAs?$AA?9?$AAI?$AAS@ 0000000180004dc8     libucrt:lcidtoname_downlevel.obj
 0001:00003dd8       ??_C@_1M@MADIPODN@?$AAi?$AAt?$AA?9?$AAI?$AAT@ 0000000180004dd8     libucrt:lcidtoname_downlevel.obj
 0001:00003de8       ??_C@_1M@IHBJJGG@?$AAn?$AAl?$AA?9?$AAN?$AAL@ 0000000180004de8     libucrt:lcidtoname_downlevel.obj
 0001:00003df8       ??_C@_1M@EANAGDL@?$AAn?$AAb?$AA?9?$AAN?$AAO@ 0000000180004df8     libucrt:lcidtoname_downlevel.obj
 0001:00003e08       ??_C@_1M@NEIEMEGP@?$AAp?$AAl?$AA?9?$AAP?$AAL@ 0000000180004e08     libucrt:lcidtoname_downlevel.obj
 0001:00003e18       ??_C@_1M@BOCFIGEP@?$AAp?$AAt?$AA?9?$AAB?$AAR@ 0000000180004e18     libucrt:lcidtoname_downlevel.obj
 0001:00003e28       ??_C@_1M@IMPFOPBG@?$AAr?$AAo?$AA?9?$AAR?$AAO@ 0000000180004e28     libucrt:lcidtoname_downlevel.obj
 0001:00003e38       ??_C@_1M@IDNNEJMM@?$AAr?$AAu?$AA?9?$AAR?$AAU@ 0000000180004e38     libucrt:lcidtoname_downlevel.obj
 0001:00003e48       ??_C@_1M@LILEEOGM@?$AAh?$AAr?$AA?9?$AAH?$AAR@ 0000000180004e48     libucrt:lcidtoname_downlevel.obj
 0001:00003e58       ??_C@_1M@FKIFEHPB@?$AAs?$AAk?$AA?9?$AAS?$AAK@ 0000000180004e58     libucrt:lcidtoname_downlevel.obj
 0001:00003e68       ??_C@_1M@LJMAMNPJ@?$AAs?$AAq?$AA?9?$AAA?$AAL@ 0000000180004e68     libucrt:lcidtoname_downlevel.obj
 0001:00003e78       ??_C@_1M@GIAKDKJK@?$AAs?$AAv?$AA?9?$AAS?$AAE@ 0000000180004e78     libucrt:lcidtoname_downlevel.obj
 0001:00003e88       ??_C@_1M@MKJKIKCL@?$AAt?$AAh?$AA?9?$AAT?$AAH@ 0000000180004e88     libucrt:lcidtoname_downlevel.obj
 0001:00003e98       ??_C@_1M@MFLCCMPB@?$AAt?$AAr?$AA?9?$AAT?$AAR@ 0000000180004e98     libucrt:lcidtoname_downlevel.obj
 0001:00003ea8       ??_C@_1M@OIJHDKJN@?$AAu?$AAr?$AA?9?$AAP?$AAK@ 0000000180004ea8     libucrt:lcidtoname_downlevel.obj
 0001:00003eb8       ??_C@_1M@LHIPCIEK@?$AAi?$AAd?$AA?9?$AAI?$AAD@ 0000000180004eb8     libucrt:lcidtoname_downlevel.obj
 0001:00003ec8       ??_C@_1M@MFMOBGI@?$AAu?$AAk?$AA?9?$AAU?$AAA@ 0000000180004ec8     libucrt:lcidtoname_downlevel.obj
 0001:00003ed8       ??_C@_1M@OBGLJIPL@?$AAb?$AAe?$AA?9?$AAB?$AAY@ 0000000180004ed8     libucrt:lcidtoname_downlevel.obj
 0001:00003ee8       ??_C@_1M@BCFAJEAD@?$AAs?$AAl?$AA?9?$AAS?$AAI@ 0000000180004ee8     libucrt:lcidtoname_downlevel.obj
 0001:00003ef8       ??_C@_1M@FKFFEDDN@?$AAe?$AAt?$AA?9?$AAE?$AAE@ 0000000180004ef8     libucrt:lcidtoname_downlevel.obj
 0001:00003f08       ??_C@_1M@KGKKAACI@?$AAl?$AAv?$AA?9?$AAL?$AAV@ 0000000180004f08     libucrt:lcidtoname_downlevel.obj
 0001:00003f18       ??_C@_1M@IFGBIJO@?$AAl?$AAt?$AA?9?$AAL?$AAT@ 0000000180004f18     libucrt:lcidtoname_downlevel.obj
 0001:00003f28       ??_C@_1M@FGEAHEDM@?$AAf?$AAa?$AA?9?$AAI?$AAR@ 0000000180004f28     libucrt:lcidtoname_downlevel.obj
 0001:00003f38       ??_C@_1M@KBMAIBFN@?$AAv?$AAi?$AA?9?$AAV?$AAN@ 0000000180004f38     libucrt:lcidtoname_downlevel.obj
 0001:00003f48       ??_C@_1M@GPCBKDJK@?$AAh?$AAy?$AA?9?$AAA?$AAM@ 0000000180004f48     libucrt:lcidtoname_downlevel.obj
 0001:00003f58       ??_C@_1BG@BECMDDJB@?$AAa?$AAz?$AA?9?$AAA?$AAZ?$AA?9?$AAL?$AAa?$AAt?$AAn@ 0000000180004f58     libucrt:lcidtoname_downlevel.obj
 0001:00003f70       ??_C@_1M@MAOFCAEA@?$AAe?$AAu?$AA?9?$AAE?$AAS@ 0000000180004f70     libucrt:lcidtoname_downlevel.obj
 0001:00003f80       ??_C@_1M@IGHABKPI@?$AAm?$AAk?$AA?9?$AAM?$AAK@ 0000000180004f80     libucrt:lcidtoname_downlevel.obj
 0001:00003f90       ??_C@_1M@IAIGNEJG@?$AAt?$AAn?$AA?9?$AAZ?$AAA@ 0000000180004f90     libucrt:lcidtoname_downlevel.obj
 0001:00003fa0       ??_C@_1M@IIJCOJFA@?$AAx?$AAh?$AA?9?$AAZ?$AAA@ 0000000180004fa0     libucrt:lcidtoname_downlevel.obj
 0001:00003fb0       ??_C@_1M@LGPJHNJH@?$AAz?$AAu?$AA?9?$AAZ?$AAA@ 0000000180004fb0     libucrt:lcidtoname_downlevel.obj
 0001:00003fc0       ??_C@_1M@HOKAOIO@?$AAa?$AAf?$AA?9?$AAZ?$AAA@ 0000000180004fc0     libucrt:lcidtoname_downlevel.obj
 0001:00003fd0       ??_C@_1M@DPCLHLIE@?$AAk?$AAa?$AA?9?$AAG?$AAE@ 0000000180004fd0     libucrt:lcidtoname_downlevel.obj
 0001:00003fe0       ??_C@_1M@BLKMHJBI@?$AAf?$AAo?$AA?9?$AAF?$AAO@ 0000000180004fe0     libucrt:lcidtoname_downlevel.obj
 0001:00003ff0       ??_C@_1M@LGGJAPPB@?$AAh?$AAi?$AA?9?$AAI?$AAN@ 0000000180004ff0     libucrt:lcidtoname_downlevel.obj
 0001:00004000       ??_C@_1M@FIKPIHFE@?$AAm?$AAt?$AA?9?$AAM?$AAT@ 0000000180005000     libucrt:lcidtoname_downlevel.obj
 0001:00004010       ??_C@_1M@HEGGPBFA@?$AAs?$AAe?$AA?9?$AAN?$AAO@ 0000000180005010     libucrt:lcidtoname_downlevel.obj
 0001:00004020       ??_C@_1M@EIBJEEPA@?$AAm?$AAs?$AA?9?$AAM?$AAY@ 0000000180005020     libucrt:lcidtoname_downlevel.obj
 0001:00004030       ??_C@_1M@FHLBGMPP@?$AAk?$AAk?$AA?9?$AAK?$AAZ@ 0000000180005030     libucrt:lcidtoname_downlevel.obj
 0001:00004040       ??_C@_1M@NGJJLCGI@?$AAk?$AAy?$AA?9?$AAK?$AAG@ 0000000180005040     libucrt:lcidtoname_downlevel.obj
 0001:00004050       ??_C@_1M@GIENNBFC@?$AAs?$AAw?$AA?9?$AAK?$AAE@ 0000000180005050     libucrt:lcidtoname_downlevel.obj
 0001:00004060       ??_C@_1BG@NDGMJIMJ@?$AAu?$AAz?$AA?9?$AAU?$AAZ?$AA?9?$AAL?$AAa?$AAt?$AAn@ 0000000180005060     libucrt:lcidtoname_downlevel.obj
 0001:00004078       ??_C@_1M@IDCCIHBC@?$AAt?$AAt?$AA?9?$AAR?$AAU@ 0000000180005078     libucrt:lcidtoname_downlevel.obj
 0001:00004088       ??_C@_1M@LOICPMOJ@?$AAb?$AAn?$AA?9?$AAI?$AAN@ 0000000180005088     libucrt:lcidtoname_downlevel.obj
 0001:00004098       ??_C@_1M@KPKKNEAH@?$AAp?$AAa?$AA?9?$AAI?$AAN@ 0000000180005098     libucrt:lcidtoname_downlevel.obj
 0001:000040a8       ??_C@_1M@PJGPPBOG@?$AAg?$AAu?$AA?9?$AAI?$AAN@ 00000001800050a8     libucrt:lcidtoname_downlevel.obj
 0001:000040b8       ??_C@_1M@KMKMOPHI@?$AAt?$AAa?$AA?9?$AAI?$AAN@ 00000001800050b8     libucrt:lcidtoname_downlevel.obj
 0001:000040c8       ??_C@_1M@KFEHEPAC@?$AAt?$AAe?$AA?9?$AAI?$AAN@ 00000001800050c8     libucrt:lcidtoname_downlevel.obj
 0001:000040d8       ??_C@_1M@CDCLMGHI@?$AAk?$AAn?$AA?9?$AAI?$AAN@ 00000001800050d8     libucrt:lcidtoname_downlevel.obj
 0001:000040e8       ??_C@_1M@MIODLDKF@?$AAm?$AAl?$AA?9?$AAI?$AAN@ 00000001800050e8     libucrt:lcidtoname_downlevel.obj
 0001:000040f8       ??_C@_1M@PBIEACPO@?$AAm?$AAr?$AA?9?$AAI?$AAN@ 00000001800050f8     libucrt:lcidtoname_downlevel.obj
 0001:00004108       ??_C@_1M@NIDEAGPH@?$AAs?$AAa?$AA?9?$AAI?$AAN@ 0000000180005108     libucrt:lcidtoname_downlevel.obj
 0001:00004118       ??_C@_1M@FHIHCBIO@?$AAm?$AAn?$AA?9?$AAM?$AAN@ 0000000180005118     libucrt:lcidtoname_downlevel.obj
 0001:00004128       ??_C@_1M@JAIJPENP@?$AAc?$AAy?$AA?9?$AAG?$AAB@ 0000000180005128     libucrt:lcidtoname_downlevel.obj
 0001:00004138       ??_C@_1M@PHGFBEPN@?$AAg?$AAl?$AA?9?$AAE?$AAS@ 0000000180005138     libucrt:lcidtoname_downlevel.obj
 0001:00004148       ??_C@_1O@KPIPDNCP@?$AAk?$AAo?$AAk?$AA?9?$AAI?$AAN@ 0000000180005148     libucrt:lcidtoname_downlevel.obj
 0001:00004158       ??_C@_1O@KNHJLDJA@?$AAs?$AAy?$AAr?$AA?9?$AAS?$AAY@ 0000000180005158     libucrt:lcidtoname_downlevel.obj
 0001:00004168       ??_C@_1O@MKEKBLAH@?$AAd?$AAi?$AAv?$AA?9?$AAM?$AAV@ 0000000180005168     libucrt:lcidtoname_downlevel.obj
 0001:00004178       ??_C@_1O@OHDCKDDF@?$AAq?$AAu?$AAz?$AA?9?$AAB?$AAO@ 0000000180005178     libucrt:lcidtoname_downlevel.obj
 0001:00004188       ??_C@_1M@LEPJNLFD@?$AAn?$AAs?$AA?9?$AAZ?$AAA@ 0000000180005188     libucrt:lcidtoname_downlevel.obj
 0001:00004198       ??_C@_1M@OMLEIIJB@?$AAm?$AAi?$AA?9?$AAN?$AAZ@ 0000000180005198     libucrt:lcidtoname_downlevel.obj
 0001:000041a8       ??_C@_1M@PMPEAILG@?$AAa?$AAr?$AA?9?$AAI?$AAQ@ 00000001800051a8     libucrt:lcidtoname_downlevel.obj
 0001:000041b8       ??_C@_1M@CNKPNOEE@?$AAd?$AAe?$AA?9?$AAC?$AAH@ 00000001800051b8     libucrt:lcidtoname_downlevel.obj
 0001:000041c8       ??_C@_1M@LKMGMLKO@?$AAe?$AAn?$AA?9?$AAG?$AAB@ 00000001800051c8     libucrt:lcidtoname_downlevel.obj
 0001:000041d8       ??_C@_1M@PGKJFFGL@?$AAe?$AAs?$AA?9?$AAM?$AAX@ 00000001800051d8     libucrt:lcidtoname_downlevel.obj
 0001:000041e8       ??_C@_1M@DNNANBDC@?$AAf?$AAr?$AA?9?$AAB?$AAE@ 00000001800051e8     libucrt:lcidtoname_downlevel.obj
 0001:000041f8       ??_C@_1M@HLGMDFHM@?$AAi?$AAt?$AA?9?$AAC?$AAH@ 00000001800051f8     libucrt:lcidtoname_downlevel.obj
 0001:00004208       ??_C@_1M@CLLBGJH@?$AAn?$AAl?$AA?9?$AAB?$AAE@ 0000000180005208     libucrt:lcidtoname_downlevel.obj
 0001:00004218       ??_C@_1M@BODBOGLF@?$AAn?$AAn?$AA?9?$AAN?$AAO@ 0000000180005218     libucrt:lcidtoname_downlevel.obj
 0001:00004228       ??_C@_1M@HFFAHKAD@?$AAp?$AAt?$AA?9?$AAP?$AAT@ 0000000180005228     libucrt:lcidtoname_downlevel.obj
 0001:00004238       ??_C@_1BG@LNOAKHIE@?$AAs?$AAr?$AA?9?$AAS?$AAP?$AA?9?$AAL?$AAa?$AAt?$AAn@ 0000000180005238     libucrt:lcidtoname_downlevel.obj
 0001:00004250       ??_C@_1M@HBMHBGAK@?$AAs?$AAv?$AA?9?$AAF?$AAI@ 0000000180005250     libucrt:lcidtoname_downlevel.obj
 0001:00004260       ??_C@_1BG@DGCJGJBE@?$AAa?$AAz?$AA?9?$AAA?$AAZ?$AA?9?$AAC?$AAy?$AAr?$AAl@ 0000000180005260     libucrt:lcidtoname_downlevel.obj
 0001:00004278       ??_C@_1M@KEJDAAHB@?$AAs?$AAe?$AA?9?$AAS?$AAE@ 0000000180005278     libucrt:lcidtoname_downlevel.obj
 0001:00004288       ??_C@_1M@HEIBJJAD@?$AAm?$AAs?$AA?9?$AAB?$AAN@ 0000000180005288     libucrt:lcidtoname_downlevel.obj
 0001:00004298       ??_C@_1BG@PBGJMCEM@?$AAu?$AAz?$AA?9?$AAU?$AAZ?$AA?9?$AAC?$AAy?$AAr?$AAl@ 0000000180005298     libucrt:lcidtoname_downlevel.obj
 0001:000042b0       ??_C@_1O@LAOBCMDF@?$AAq?$AAu?$AAz?$AA?9?$AAE?$AAC@ 00000001800052b0     libucrt:lcidtoname_downlevel.obj
 0001:000042c0       ??_C@_1M@POEEMAIO@?$AAa?$AAr?$AA?9?$AAE?$AAG@ 00000001800052c0     libucrt:lcidtoname_downlevel.obj
 0001:000042d0       ??_C@_1M@EFAKDEDL@?$AAz?$AAh?$AA?9?$AAH?$AAK@ 00000001800052d0     libucrt:lcidtoname_downlevel.obj
 0001:000042e0       ??_C@_1M@HKKIJHGI@?$AAd?$AAe?$AA?9?$AAA?$AAT@ 00000001800052e0     libucrt:lcidtoname_downlevel.obj
 0001:000042f0       ??_C@_1M@KBFBEHJF@?$AAe?$AAn?$AA?9?$AAA?$AAU@ 00000001800052f0     libucrt:lcidtoname_downlevel.obj
 0001:00004300       ??_C@_1M@MNPLFAAH@?$AAe?$AAs?$AA?9?$AAE?$AAS@ 0000000180005300     libucrt:lcidtoname_downlevel.obj
 0001:00004310       ??_C@_1M@HJOOJFMA@?$AAf?$AAr?$AA?9?$AAC?$AAA@ 0000000180005310     libucrt:lcidtoname_downlevel.obj
 0001:00004320       ??_C@_1BG@JPOFPNAB@?$AAs?$AAr?$AA?9?$AAS?$AAP?$AA?9?$AAC?$AAy?$AAr?$AAl@ 0000000180005320     libucrt:lcidtoname_downlevel.obj
 0001:00004338       ??_C@_1M@LNFOCMOB@?$AAs?$AAe?$AA?9?$AAF?$AAI@ 0000000180005338     libucrt:lcidtoname_downlevel.obj
 0001:00004348       ??_C@_1O@MGJBOAMB@?$AAq?$AAu?$AAz?$AA?9?$AAP?$AAE@ 0000000180005348     libucrt:lcidtoname_downlevel.obj
 0001:00004358       ??_C@_1M@GJINLBOK@?$AAa?$AAr?$AA?9?$AAL?$AAY@ 0000000180005358     libucrt:lcidtoname_downlevel.obj
 0001:00004368       ??_C@_1M@GGMNHJNL@?$AAz?$AAh?$AA?9?$AAS?$AAG@ 0000000180005368     libucrt:lcidtoname_downlevel.obj
 0001:00004378       ??_C@_1M@HOIKODND@?$AAd?$AAe?$AA?9?$AAL?$AAU@ 0000000180005378     libucrt:lcidtoname_downlevel.obj
 0001:00004388       ??_C@_1M@DDOCCGFG@?$AAe?$AAn?$AA?9?$AAC?$AAA@ 0000000180005388     libucrt:lcidtoname_downlevel.obj
 0001:00004398       ??_C@_1M@BNOEMJLF@?$AAe?$AAs?$AA?9?$AAG?$AAT@ 0000000180005398     libucrt:lcidtoname_downlevel.obj
 0001:000043a8       ??_C@_1M@EOGNKEK@?$AAf?$AAr?$AA?9?$AAC?$AAH@ 00000001800053a8     libucrt:lcidtoname_downlevel.obj
 0001:000043b8       ??_C@_1M@FLIDJFHL@?$AAh?$AAr?$AA?9?$AAB?$AAA@ 00000001800053b8     libucrt:lcidtoname_downlevel.obj
 0001:000043c8       ??_C@_1O@FMCELNAJ@?$AAs?$AAm?$AAj?$AA?9?$AAN?$AAO@ 00000001800053c8     libucrt:lcidtoname_downlevel.obj
 0001:000043d8       ??_C@_1M@JHGLJMGJ@?$AAa?$AAr?$AA?9?$AAD?$AAZ@ 00000001800053d8     libucrt:lcidtoname_downlevel.obj
 0001:000043e8       ??_C@_1M@JKKFDCNP@?$AAz?$AAh?$AA?9?$AAM?$AAO@ 00000001800053e8     libucrt:lcidtoname_downlevel.obj
 0001:000043f8       ??_C@_1M@GEEFALPE@?$AAd?$AAe?$AA?9?$AAL?$AAI@ 00000001800053f8     libucrt:lcidtoname_downlevel.obj
 0001:00004408       ??_C@_1M@IGEOFBG@?$AAe?$AAn?$AA?9?$AAN?$AAZ@ 0000000180005408     libucrt:lcidtoname_downlevel.obj
 0001:00004418       ??_C@_1M@KDBONEHP@?$AAe?$AAs?$AA?9?$AAC?$AAR@ 0000000180005418     libucrt:lcidtoname_downlevel.obj
 0001:00004428       ??_C@_1M@FHMDOHNN@?$AAf?$AAr?$AA?9?$AAL?$AAU@ 0000000180005428     libucrt:lcidtoname_downlevel.obj
 0001:00004438       ??_C@_1BG@NFKKMAFG@?$AAb?$AAs?$AA?9?$AAB?$AAA?$AA?9?$AAL?$AAa?$AAt?$AAn@ 0000000180005438     libucrt:lcidtoname_downlevel.obj
 0001:00004450       ??_C@_1O@IMNBEMCI@?$AAs?$AAm?$AAj?$AA?9?$AAS?$AAE@ 0000000180005450     libucrt:lcidtoname_downlevel.obj
 0001:00004460       ??_C@_1M@DHHMBNDP@?$AAa?$AAr?$AA?9?$AAM?$AAA@ 0000000180005460     libucrt:lcidtoname_downlevel.obj
 0001:00004470       ??_C@_1M@BNBLJCGH@?$AAe?$AAn?$AA?9?$AAI?$AAE@ 0000000180005470     libucrt:lcidtoname_downlevel.obj
 0001:00004480       ??_C@_1M@GEPAFMDL@?$AAe?$AAs?$AA?9?$AAP?$AAA@ 0000000180005480     libucrt:lcidtoname_downlevel.obj
 0001:00004490       ??_C@_1M@OJONDMDL@?$AAf?$AAr?$AA?9?$AAM?$AAC@ 0000000180005490     libucrt:lcidtoname_downlevel.obj
 0001:000044a0       ??_C@_1BG@OBCNFJB@?$AAs?$AAr?$AA?9?$AAB?$AAA?$AA?9?$AAL?$AAa?$AAt?$AAn@ 00000001800054a0     libucrt:lcidtoname_downlevel.obj
 0001:000044b8       ??_C@_1O@KEMEEGPO@?$AAs?$AAm?$AAa?$AA?9?$AAN?$AAO@ 00000001800054b8     libucrt:lcidtoname_downlevel.obj
 0001:000044c8       ??_C@_1M@ELMGFODK@?$AAa?$AAr?$AA?9?$AAT?$AAN@ 00000001800054c8     libucrt:lcidtoname_downlevel.obj
 0001:000044d8       ??_C@_1M@BHDLHFAF@?$AAe?$AAn?$AA?9?$AAZ?$AAA@ 00000001800054d8     libucrt:lcidtoname_downlevel.obj
 0001:000044e8       ??_C@_1M@BMGIGLIF@?$AAe?$AAs?$AA?9?$AAD?$AAO@ 00000001800054e8     libucrt:lcidtoname_downlevel.obj
 0001:000044f8       ??_C@_1BG@CMBHIPBE@?$AAs?$AAr?$AA?9?$AAB?$AAA?$AA?9?$AAC?$AAy?$AAr?$AAl@ 00000001800054f8     libucrt:lcidtoname_downlevel.obj
 0001:00004510       ??_C@_1O@HEDBLHNP@?$AAs?$AAm?$AAa?$AA?9?$AAS?$AAE@ 0000000180005510     libucrt:lcidtoname_downlevel.obj
 0001:00004520       ??_C@_1M@DAGCADIM@?$AAa?$AAr?$AA?9?$AAO?$AAM@ 0000000180005520     libucrt:lcidtoname_downlevel.obj
 0001:00004530       ??_C@_1M@FODLMICG@?$AAe?$AAn?$AA?9?$AAJ?$AAM@ 0000000180005530     libucrt:lcidtoname_downlevel.obj
 0001:00004540       ??_C@_1M@DNMLCIHB@?$AAe?$AAs?$AA?9?$AAV?$AAE@ 0000000180005540     libucrt:lcidtoname_downlevel.obj
 0001:00004550       ??_C@_1O@EOKHMKJK@?$AAs?$AAm?$AAs?$AA?9?$AAF?$AAI@ 0000000180005550     libucrt:lcidtoname_downlevel.obj
 0001:00004560       ??_C@_1M@CAFJMKOF@?$AAa?$AAr?$AA?9?$AAY?$AAE@ 0000000180005560     libucrt:lcidtoname_downlevel.obj
 0001:00004570       ??_C@_1M@CBFHIJLI@?$AAe?$AAn?$AA?9?$AAC?$AAB@ 0000000180005570     libucrt:lcidtoname_downlevel.obj
 0001:00004580       ??_C@_1M@BGNFLDN@?$AAe?$AAs?$AA?9?$AAC?$AAO@ 0000000180005580     libucrt:lcidtoname_downlevel.obj
 0001:00004590       ??_C@_1O@JMPHMAMC@?$AAs?$AAm?$AAn?$AA?9?$AAF?$AAI@ 0000000180005590     libucrt:lcidtoname_downlevel.obj
 0001:000045a0       ??_C@_1M@JLANABKE@?$AAa?$AAr?$AA?9?$AAS?$AAY@ 00000001800055a0     libucrt:lcidtoname_downlevel.obj
 0001:000045b0       ??_C@_1M@HPKGCFGN@?$AAe?$AAn?$AA?9?$AAB?$AAZ@ 00000001800055b0     libucrt:lcidtoname_downlevel.obj
 0001:000045c0       ??_C@_1M@OLJCMLGM@?$AAe?$AAs?$AA?9?$AAP?$AAE@ 00000001800055c0     libucrt:lcidtoname_downlevel.obj
 0001:000045d0       ??_C@_1M@MKKGFKLE@?$AAa?$AAr?$AA?9?$AAJ?$AAO@ 00000001800055d0     libucrt:lcidtoname_downlevel.obj
 0001:000045e0       ??_C@_1M@EKPGLDNI@?$AAe?$AAn?$AA?9?$AAT?$AAT@ 00000001800055e0     libucrt:lcidtoname_downlevel.obj
 0001:000045f0       ??_C@_1M@OONGHFHE@?$AAe?$AAs?$AA?9?$AAA?$AAR@ 00000001800055f0     libucrt:lcidtoname_downlevel.obj
 0001:00004600       ??_C@_1M@OOJFGBHE@?$AAa?$AAr?$AA?9?$AAL?$AAB@ 0000000180005600     libucrt:lcidtoname_downlevel.obj
 0001:00004610       ??_C@_1M@GCEJHNEG@?$AAe?$AAn?$AA?9?$AAZ?$AAW@ 0000000180005610     libucrt:lcidtoname_downlevel.obj
 0001:00004620       ??_C@_1M@JNOCAHJI@?$AAe?$AAs?$AA?9?$AAE?$AAC@ 0000000180005620     libucrt:lcidtoname_downlevel.obj
 0001:00004630       ??_C@_1M@JEFHPGGB@?$AAa?$AAr?$AA?9?$AAK?$AAW@ 0000000180005630     libucrt:lcidtoname_downlevel.obj
 0001:00004640       ??_C@_1M@MLKIBJOJ@?$AAe?$AAn?$AA?9?$AAP?$AAH@ 0000000180005640     libucrt:lcidtoname_downlevel.obj
 0001:00004650       ??_C@_1M@BDNIPEND@?$AAe?$AAs?$AA?9?$AAC?$AAL@ 0000000180005650     libucrt:lcidtoname_downlevel.obj
 0001:00004660       ??_C@_1M@MPNMEKBD@?$AAa?$AAr?$AA?9?$AAA?$AAE@ 0000000180005660     libucrt:lcidtoname_downlevel.obj
 0001:00004670       ??_C@_1M@KBJALCPI@?$AAe?$AAs?$AA?9?$AAU?$AAY@ 0000000180005670     libucrt:lcidtoname_downlevel.obj
 0001:00004680       ??_C@_1M@LLCCOAGA@?$AAa?$AAr?$AA?9?$AAB?$AAH@ 0000000180005680     libucrt:lcidtoname_downlevel.obj
 0001:00004690       ??_C@_1M@PBFNCDEL@?$AAe?$AAs?$AA?9?$AAP?$AAY@ 0000000180005690     libucrt:lcidtoname_downlevel.obj
 0001:000046a0       ??_C@_1M@EDGINPNP@?$AAa?$AAr?$AA?9?$AAQ?$AAA@ 00000001800056a0     libucrt:lcidtoname_downlevel.obj
 0001:000046b0       ??_C@_1M@MKDBIIJI@?$AAe?$AAs?$AA?9?$AAB?$AAO@ 00000001800056b0     libucrt:lcidtoname_downlevel.obj
 0001:000046c0       ??_C@_1M@CPKKEBLD@?$AAe?$AAs?$AA?9?$AAS?$AAV@ 00000001800056c0     libucrt:lcidtoname_downlevel.obj
 0001:000046d0       ??_C@_1M@NDBGMMJL@?$AAe?$AAs?$AA?9?$AAH?$AAN@ 00000001800056d0     libucrt:lcidtoname_downlevel.obj
 0001:000046e0       ??_C@_1M@JIJIBHDP@?$AAe?$AAs?$AA?9?$AAN?$AAI@ 00000001800056e0     libucrt:lcidtoname_downlevel.obj
 0001:000046f0       ??_C@_1M@CGFMKEEK@?$AAe?$AAs?$AA?9?$AAP?$AAR@ 00000001800056f0     libucrt:lcidtoname_downlevel.obj
 0001:00004700       ??_C@_1O@ICJHKIIK@?$AAz?$AAh?$AA?9?$AAC?$AAH?$AAT@ 0000000180005700     libucrt:lcidtoname_downlevel.obj
 0001:00004710       ??_C@_15CLNEJCE@?$AAs?$AAr@ 0000000180005710     libucrt:lcidtoname_downlevel.obj
 0001:00005560       ??_C@_1M@KAHEKEIG@?$AAa?$AAf?$AA?9?$AAz?$AAa@ 0000000180006560     libucrt:lcidtoname_downlevel.obj
 0001:00005570       ??_C@_1M@GIECOABL@?$AAa?$AAr?$AA?9?$AAa?$AAe@ 0000000180006570     libucrt:lcidtoname_downlevel.obj
 0001:00005580       ??_C@_1M@BMLMEKGI@?$AAa?$AAr?$AA?9?$AAb?$AAh@ 0000000180006580     libucrt:lcidtoname_downlevel.obj
 0001:00005590       ??_C@_1M@DAPFDGGB@?$AAa?$AAr?$AA?9?$AAd?$AAz@ 0000000180006590     libucrt:lcidtoname_downlevel.obj
 0001:000055a0       ??_C@_1M@FJNKGKIG@?$AAa?$AAr?$AA?9?$AAe?$AAg@ 00000001800065a0     libucrt:lcidtoname_downlevel.obj
 0001:000055b0       ??_C@_1M@FLGKKCLO@?$AAa?$AAr?$AA?9?$AAi?$AAq@ 00000001800065b0     libucrt:lcidtoname_downlevel.obj
 0001:000055c0       ??_C@_1M@GNDIPALM@?$AAa?$AAr?$AA?9?$AAj?$AAo@ 00000001800065c0     libucrt:lcidtoname_downlevel.obj
 0001:000055d0       ??_C@_1M@DDMJFMGJ@?$AAa?$AAr?$AA?9?$AAk?$AAw@ 00000001800065d0     libucrt:lcidtoname_downlevel.obj
 0001:000055e0       ??_C@_1M@EJALMLHM@?$AAa?$AAr?$AA?9?$AAl?$AAb@ 00000001800065e0     libucrt:lcidtoname_downlevel.obj
 0001:000055f0       ??_C@_1M@MOBDBLOC@?$AAa?$AAr?$AA?9?$AAl?$AAy@ 00000001800065f0     libucrt:lcidtoname_downlevel.obj
 0001:00005600       ??_C@_1M@JAOCLHDH@?$AAa?$AAr?$AA?9?$AAm?$AAa@ 0000000180006600     libucrt:lcidtoname_downlevel.obj
 0001:00005610       ??_C@_1M@JHPMKJIE@?$AAa?$AAr?$AA?9?$AAo?$AAm@ 0000000180006610     libucrt:lcidtoname_downlevel.obj
 0001:00005620       ??_C@_1M@OEPGHFNH@?$AAa?$AAr?$AA?9?$AAq?$AAa@ 0000000180006620     libucrt:lcidtoname_downlevel.obj
 0001:00005630       ??_C@_1M@KJDONENM@?$AAa?$AAr?$AA?9?$AAs?$AAa@ 0000000180006630     libucrt:lcidtoname_downlevel.obj
 0001:00005640       ??_C@_1M@DMJDKLKM@?$AAa?$AAr?$AA?9?$AAs?$AAy@ 0000000180006640     libucrt:lcidtoname_downlevel.obj
 0001:00005650       ??_C@_1M@OMFIPEDC@?$AAa?$AAr?$AA?9?$AAt?$AAn@ 0000000180006650     libucrt:lcidtoname_downlevel.obj
 0001:00005660       ??_C@_1M@IHMHGAON@?$AAa?$AAr?$AA?9?$AAy?$AAe@ 0000000180006660     libucrt:lcidtoname_downlevel.obj
 0001:00005670       ??_C@_1BG@KDCPGJGB@?$AAa?$AAz?$AA?9?$AAa?$AAz?$AA?9?$AAc?$AAy?$AAr?$AAl@ 0000000180006670     libucrt:lcidtoname_downlevel.obj
 0001:00005688       ??_C@_1BG@IBCKDDOE@?$AAa?$AAz?$AA?9?$AAa?$AAz?$AA?9?$AAl?$AAa?$AAt?$AAn@ 0000000180006688     libucrt:lcidtoname_downlevel.obj
 0001:000056a0       ??_C@_1M@EGPFDCPD@?$AAb?$AAe?$AA?9?$AAb?$AAy@ 00000001800066a0     libucrt:lcidtoname_downlevel.obj
 0001:000056b0       ??_C@_1M@PCMGMCGC@?$AAb?$AAg?$AA?9?$AAb?$AAg@ 00000001800066b0     libucrt:lcidtoname_downlevel.obj
 0001:000056c0       ??_C@_1M@BJBMFGOB@?$AAb?$AAn?$AA?9?$AAi?$AAn@ 00000001800066c0     libucrt:lcidtoname_downlevel.obj
 0001:000056d0       ??_C@_1BG@EAKMMACD@?$AAb?$AAs?$AA?9?$AAb?$AAa?$AA?9?$AAl?$AAa?$AAt?$AAn@ 00000001800066d0     libucrt:lcidtoname_downlevel.obj
 0001:000056e8       ??_C@_1M@KGADAODK@?$AAc?$AAa?$AA?9?$AAe?$AAs@ 00000001800066e8     libucrt:lcidtoname_downlevel.obj
 0001:000056f8       ??_C@_1M@COAJPDHI@?$AAc?$AAs?$AA?9?$AAc?$AAz@ 00000001800066f8     libucrt:lcidtoname_downlevel.obj
 0001:00005708       ??_C@_1M@DHBHFONH@?$AAc?$AAy?$AA?9?$AAg?$AAb@ 0000000180006708     libucrt:lcidtoname_downlevel.obj
 0001:00005718       ??_C@_1M@IMGKELGA@?$AAd?$AAa?$AA?9?$AAd?$AAk@ 0000000180006718     libucrt:lcidtoname_downlevel.obj
 0001:00005728       ??_C@_1M@NNDGDNGA@?$AAd?$AAe?$AA?9?$AAa?$AAt@ 0000000180006728     libucrt:lcidtoname_downlevel.obj
 0001:00005738       ??_C@_1M@IKDBHEEM@?$AAd?$AAe?$AA?9?$AAc?$AAh@ 0000000180006738     libucrt:lcidtoname_downlevel.obj
 0001:00005748       ??_C@_1M@GFFOJMCJ@?$AAd?$AAe?$AA?9?$AAd?$AAe@ 0000000180006748     libucrt:lcidtoname_downlevel.obj
 0001:00005758       ??_C@_1M@MDNLKBPM@?$AAd?$AAe?$AA?9?$AAl?$AAi@ 0000000180006758     libucrt:lcidtoname_downlevel.obj
 0001:00005768       ??_C@_1M@NJBEEJNL@?$AAd?$AAe?$AA?9?$AAl?$AAu@ 0000000180006768     libucrt:lcidtoname_downlevel.obj
 0001:00005778       ??_C@_1O@GNNELBAP@?$AAd?$AAi?$AAv?$AA?9?$AAm?$AAv@ 0000000180006778     libucrt:lcidtoname_downlevel.obj
 0001:00005788       ??_C@_1M@EJLEOGAE@?$AAe?$AAl?$AA?9?$AAg?$AAr@ 0000000180006788     libucrt:lcidtoname_downlevel.obj
 0001:00005798       ??_C@_1M@GMPONJN@?$AAe?$AAn?$AA?9?$AAa?$AAu@ 0000000180006798     libucrt:lcidtoname_downlevel.obj
 0001:000057a8       ??_C@_1M@NIDIIPGF@?$AAe?$AAn?$AA?9?$AAb?$AAz@ 00000001800067a8     libucrt:lcidtoname_downlevel.obj
 0001:000057b8       ??_C@_1M@JEHMIMFO@?$AAe?$AAn?$AA?9?$AAc?$AAa@ 00000001800067b8     libucrt:lcidtoname_downlevel.obj
 0001:000057c8       ??_C@_1M@IGMJCDLA@?$AAe?$AAn?$AA?9?$AAc?$AAb@ 00000001800067c8     libucrt:lcidtoname_downlevel.obj
 0001:000057d8       ??_C@_1M@BNFIGBKG@?$AAe?$AAn?$AA?9?$AAg?$AAb@ 00000001800067d8     libucrt:lcidtoname_downlevel.obj
 0001:000057e8       ??_C@_1M@LKIFDIGP@?$AAe?$AAn?$AA?9?$AAi?$AAe@ 00000001800067e8     libucrt:lcidtoname_downlevel.obj
 0001:000057f8       ??_C@_1M@PJKFGCCO@?$AAe?$AAn?$AA?9?$AAj?$AAm@ 00000001800067f8     libucrt:lcidtoname_downlevel.obj
 0001:00005808       ??_C@_1M@KPPKEPBO@?$AAe?$AAn?$AA?9?$AAn?$AAz@ 0000000180006808     libucrt:lcidtoname_downlevel.obj
 0001:00005818       ??_C@_1M@GMDGLDOB@?$AAe?$AAn?$AA?9?$AAp?$AAh@ 0000000180006818     libucrt:lcidtoname_downlevel.obj
 0001:00005828       ??_C@_1M@ONGIBJNA@?$AAe?$AAn?$AA?9?$AAt?$AAt@ 0000000180006828     libucrt:lcidtoname_downlevel.obj
 0001:00005838       ??_C@_1M@LLODPCMM@?$AAe?$AAn?$AA?9?$AAu?$AAs@ 0000000180006838     libucrt:lcidtoname_downlevel.obj
 0001:00005848       ??_C@_1M@LAKFNPAN@?$AAe?$AAn?$AA?9?$AAz?$AAa@ 0000000180006848     libucrt:lcidtoname_downlevel.obj
 0001:00005858       ??_C@_1M@MFNHNHEO@?$AAe?$AAn?$AA?9?$AAz?$AAw@ 0000000180006858     libucrt:lcidtoname_downlevel.obj
 0001:00005868       ??_C@_1M@EJEINPHM@?$AAe?$AAs?$AA?9?$AAa?$AAr@ 0000000180006868     libucrt:lcidtoname_downlevel.obj
 0001:00005878       ??_C@_1M@GNKPCCJA@?$AAe?$AAs?$AA?9?$AAb?$AAo@ 0000000180006878     libucrt:lcidtoname_downlevel.obj
 0001:00005888       ??_C@_1M@LEEGFONL@?$AAe?$AAs?$AA?9?$AAc?$AAl@ 0000000180006888     libucrt:lcidtoname_downlevel.obj
 0001:00005898       ??_C@_1M@KGPDPBDF@?$AAe?$AAs?$AA?9?$AAc?$AAo@ 0000000180006898     libucrt:lcidtoname_downlevel.obj
 0001:000058a8       ??_C@_1M@EIAHOHH@?$AAe?$AAs?$AA?9?$AAc?$AAr@ 00000001800068a8     libucrt:lcidtoname_downlevel.obj
 0001:000058b8       ??_C@_1M@LLPGMBIN@?$AAe?$AAs?$AA?9?$AAd?$AAo@ 00000001800068b8     libucrt:lcidtoname_downlevel.obj
 0001:000058c8       ??_C@_1M@DKHMKNJA@?$AAe?$AAs?$AA?9?$AAe?$AAc@ 00000001800068c8     libucrt:lcidtoname_downlevel.obj
 0001:000058d8       ??_C@_1M@GKGFPKAP@?$AAe?$AAs?$AA?9?$AAe?$AAs@ 00000001800068d8     libucrt:lcidtoname_downlevel.obj
 0001:000058e8       ??_C@_1M@LKHKGDLN@?$AAe?$AAs?$AA?9?$AAg?$AAt@ 00000001800068e8     libucrt:lcidtoname_downlevel.obj
 0001:000058f8       ??_C@_1M@HEIIGGJD@?$AAe?$AAs?$AA?9?$AAh?$AAn@ 00000001800068f8     libucrt:lcidtoname_downlevel.obj
 0001:00005908       ??_C@_1M@FBDHPPGD@?$AAe?$AAs?$AA?9?$AAm?$AAx@ 0000000180006908     libucrt:lcidtoname_downlevel.obj
 0001:00005918       ??_C@_1M@DPAGLNDH@?$AAe?$AAs?$AA?9?$AAn?$AAi@ 0000000180006918     libucrt:lcidtoname_downlevel.obj
 0001:00005928       ??_C@_1M@MDGOPGDD@?$AAe?$AAs?$AA?9?$AAp?$AAa@ 0000000180006928     libucrt:lcidtoname_downlevel.obj
 0001:00005938       ??_C@_1M@EMAMGBGE@?$AAe?$AAs?$AA?9?$AAp?$AAe@ 0000000180006938     libucrt:lcidtoname_downlevel.obj
 0001:00005948       ??_C@_1M@IBMCAOEC@?$AAe?$AAs?$AA?9?$AAp?$AAr@ 0000000180006948     libucrt:lcidtoname_downlevel.obj
 0001:00005958       ??_C@_1M@FGMDIJED@?$AAe?$AAs?$AA?9?$AAp?$AAy@ 0000000180006958     libucrt:lcidtoname_downlevel.obj
 0001:00005968       ??_C@_1M@IIDEOLLL@?$AAe?$AAs?$AA?9?$AAs?$AAv@ 0000000180006968     libucrt:lcidtoname_downlevel.obj
 0001:00005978       ??_C@_1M@GAOBIPA@?$AAe?$AAs?$AA?9?$AAu?$AAy@ 0000000180006978     libucrt:lcidtoname_downlevel.obj
 0001:00005988       ??_C@_1M@JKFFICHJ@?$AAe?$AAs?$AA?9?$AAv?$AAe@ 0000000180006988     libucrt:lcidtoname_downlevel.obj
 0001:00005998       ??_C@_1M@PNMLOJDF@?$AAe?$AAt?$AA?9?$AAe?$AAe@ 0000000180006998     libucrt:lcidtoname_downlevel.obj
 0001:000059a8       ??_C@_1M@GHHLIKEI@?$AAe?$AAu?$AA?9?$AAe?$AAs@ 00000001800069a8     libucrt:lcidtoname_downlevel.obj
 0001:000059b8       ??_C@_1M@PBNONODE@?$AAf?$AAa?$AA?9?$AAi?$AAr@ 00000001800069b8     libucrt:lcidtoname_downlevel.obj
 0001:000059c8       ??_C@_1M@JEEHPMIL@?$AAf?$AAi?$AA?9?$AAf?$AAi@ 00000001800069c8     libucrt:lcidtoname_downlevel.obj
 0001:000059d8       ??_C@_1M@LMDCNDBA@?$AAf?$AAo?$AA?9?$AAf?$AAo@ 00000001800069d8     libucrt:lcidtoname_downlevel.obj
 0001:000059e8       ??_C@_1M@JKEOHLDK@?$AAf?$AAr?$AA?9?$AAb?$AAe@ 00000001800069e8     libucrt:lcidtoname_downlevel.obj
 0001:000059f8       ??_C@_1M@NOHADPMI@?$AAf?$AAr?$AA?9?$AAc?$AAa@ 00000001800069f8     libucrt:lcidtoname_downlevel.obj
 0001:00005a08       ??_C@_1M@KDHIHAEC@?$AAf?$AAr?$AA?9?$AAc?$AAh@ 0000000180006a08     libucrt:lcidtoname_downlevel.obj
 0001:00005a18       ??_C@_1M@MMBBFGAK@?$AAf?$AAr?$AA?9?$AAf?$AAr@ 0000000180006a18     libucrt:lcidtoname_downlevel.obj
 0001:00005a28       ??_C@_1M@PAFNENNF@?$AAf?$AAr?$AA?9?$AAl?$AAu@ 0000000180006a28     libucrt:lcidtoname_downlevel.obj
 0001:00005a38       ??_C@_1M@EOHDJGDD@?$AAf?$AAr?$AA?9?$AAm?$AAc@ 0000000180006a38     libucrt:lcidtoname_downlevel.obj
 0001:00005a48       ??_C@_1M@FAPLLOPF@?$AAg?$AAl?$AA?9?$AAe?$AAs@ 0000000180006a48     libucrt:lcidtoname_downlevel.obj
 0001:00005a58       ??_C@_1M@FOPBFLOO@?$AAg?$AAu?$AA?9?$AAi?$AAn@ 0000000180006a58     libucrt:lcidtoname_downlevel.obj
 0001:00005a68       ??_C@_1M@KBMCINPM@?$AAh?$AAe?$AA?9?$AAi?$AAl@ 0000000180006a68     libucrt:lcidtoname_downlevel.obj
 0001:00005a78       ??_C@_1M@BBPHKFPJ@?$AAh?$AAi?$AA?9?$AAi?$AAn@ 0000000180006a78     libucrt:lcidtoname_downlevel.obj
 0001:00005a88       ??_C@_1M@PMBNDPHD@?$AAh?$AAr?$AA?9?$AAb?$AAa@ 0000000180006a88     libucrt:lcidtoname_downlevel.obj
 0001:00005a98       ??_C@_1M@BPCKOEGE@?$AAh?$AAr?$AA?9?$AAh?$AAr@ 0000000180006a98     libucrt:lcidtoname_downlevel.obj
 0001:00005aa8       ??_C@_1M@GACBMHKE@?$AAh?$AAu?$AA?9?$AAh?$AAu@ 0000000180006aa8     libucrt:lcidtoname_downlevel.obj
 0001:00005ab8       ??_C@_1M@MILPAJJC@?$AAh?$AAy?$AA?9?$AAa?$AAm@ 0000000180006ab8     libucrt:lcidtoname_downlevel.obj
 0001:00005ac8       ??_C@_1M@BABBICEC@?$AAi?$AAd?$AA?9?$AAi?$AAd@ 0000000180006ac8     libucrt:lcidtoname_downlevel.obj
 0001:00005ad8       ??_C@_1M@BIKNHHPF@?$AAi?$AAs?$AA?9?$AAi?$AAs@ 0000000180006ad8     libucrt:lcidtoname_downlevel.obj
 0001:00005ae8       ??_C@_1M@NMPCJPHE@?$AAi?$AAt?$AA?9?$AAc?$AAh@ 0000000180006ae8     libucrt:lcidtoname_downlevel.obj
 0001:00005af8       ??_C@_1M@GHKGFEDF@?$AAi?$AAt?$AA?9?$AAi?$AAt@ 0000000180006af8     libucrt:lcidtoname_downlevel.obj
 0001:00005b08       ??_C@_1M@NIEJCJJA@?$AAj?$AAa?$AA?9?$AAj?$AAp@ 0000000180006b08     libucrt:lcidtoname_downlevel.obj
 0001:00005b18       ??_C@_1M@JILFNBIM@?$AAk?$AAa?$AA?9?$AAg?$AAe@ 0000000180006b18     libucrt:lcidtoname_downlevel.obj
 0001:00005b28       ??_C@_1M@PACPMGPH@?$AAk?$AAk?$AA?9?$AAk?$AAz@ 0000000180006b28     libucrt:lcidtoname_downlevel.obj
 0001:00005b38       ??_C@_1M@IELFGMHA@?$AAk?$AAn?$AA?9?$AAi?$AAn@ 0000000180006b38     libucrt:lcidtoname_downlevel.obj
 0001:00005b48       ??_C@_1O@IBBJHCH@?$AAk?$AAo?$AAk?$AA?9?$AAi?$AAn@ 0000000180006b48     libucrt:lcidtoname_downlevel.obj
 0001:00005b58       ??_C@_1M@DMHAEOGC@?$AAk?$AAo?$AA?9?$AAk?$AAr@ 0000000180006b58     libucrt:lcidtoname_downlevel.obj
 0001:00005b68       ??_C@_1M@HBAHBIGA@?$AAk?$AAy?$AA?9?$AAk?$AAg@ 0000000180006b68     libucrt:lcidtoname_downlevel.obj
 0001:00005b78       ??_C@_1M@KPMILCJG@?$AAl?$AAt?$AA?9?$AAl?$AAt@ 0000000180006b78     libucrt:lcidtoname_downlevel.obj
 0001:00005b88       ??_C@_1M@BDEKKCA@?$AAl?$AAv?$AA?9?$AAl?$AAv@ 0000000180006b88     libucrt:lcidtoname_downlevel.obj
 0001:00005b98       ??_C@_1M@ELCKCCJJ@?$AAm?$AAi?$AA?9?$AAn?$AAz@ 0000000180006b98     libucrt:lcidtoname_downlevel.obj
 0001:00005ba8       ??_C@_1M@CBOOLAPA@?$AAm?$AAk?$AA?9?$AAm?$AAk@ 0000000180006ba8     libucrt:lcidtoname_downlevel.obj
 0001:00005bb8       ??_C@_1M@GPHNBJKN@?$AAm?$AAl?$AA?9?$AAi?$AAn@ 0000000180006bb8     libucrt:lcidtoname_downlevel.obj
 0001:00005bc8       ??_C@_1M@PABJILIG@?$AAm?$AAn?$AA?9?$AAm?$AAn@ 0000000180006bc8     libucrt:lcidtoname_downlevel.obj
 0001:00005bd8       ??_C@_1M@FGBKKIPG@?$AAm?$AAr?$AA?9?$AAi?$AAn@ 0000000180006bd8     libucrt:lcidtoname_downlevel.obj
 0001:00005be8       ??_C@_1M@NDBPDDAL@?$AAm?$AAs?$AA?9?$AAb?$AAn@ 0000000180006be8     libucrt:lcidtoname_downlevel.obj
 0001:00005bf8       ??_C@_1M@OPIHOOPI@?$AAm?$AAs?$AA?9?$AAm?$AAy@ 0000000180006bf8     libucrt:lcidtoname_downlevel.obj
 0001:00005c08       ??_C@_1M@PPDBCNFM@?$AAm?$AAt?$AA?9?$AAm?$AAt@ 0000000180006c08     libucrt:lcidtoname_downlevel.obj
 0001:00005c18       ??_C@_1M@KDJDKMDD@?$AAn?$AAb?$AA?9?$AAn?$AAo@ 0000000180006c18     libucrt:lcidtoname_downlevel.obj
 0001:00005c28       ??_C@_1M@KFCFLMJP@?$AAn?$AAl?$AA?9?$AAb?$AAe@ 0000000180006c28     libucrt:lcidtoname_downlevel.obj
 0001:00005c38       ??_C@_1M@KPOPDDGO@?$AAn?$AAl?$AA?9?$AAn?$AAl@ 0000000180006c38     libucrt:lcidtoname_downlevel.obj
 0001:00005c48       ??_C@_1M@LJKPEMLN@?$AAn?$AAn?$AA?9?$AAn?$AAo@ 0000000180006c48     libucrt:lcidtoname_downlevel.obj
 0001:00005c58       ??_C@_1M@BDGHHBFL@?$AAn?$AAs?$AA?9?$AAz?$AAa@ 0000000180006c58     libucrt:lcidtoname_downlevel.obj
 0001:00005c68       ??_C@_1M@IDEHOAP@?$AAp?$AAa?$AA?9?$AAi?$AAn@ 0000000180006c68     libucrt:lcidtoname_downlevel.obj
 0001:00005c78       ??_C@_1M@HDBKGOGH@?$AAp?$AAl?$AA?9?$AAp?$AAl@ 0000000180006c78     libucrt:lcidtoname_downlevel.obj
 0001:00005c88       ??_C@_1M@LJLLCMEH@?$AAp?$AAt?$AA?9?$AAb?$AAr@ 0000000180006c88     libucrt:lcidtoname_downlevel.obj
 0001:00005c98       ??_C@_1M@NCMONAAL@?$AAp?$AAt?$AA?9?$AAp?$AAt@ 0000000180006c98     libucrt:lcidtoname_downlevel.obj
 0001:00005ca8       ??_C@_1O@EAKMAJDN@?$AAq?$AAu?$AAz?$AA?9?$AAb?$AAo@ 0000000180006ca8     libucrt:lcidtoname_downlevel.obj
 0001:00005cb8       ??_C@_1O@BHHPIGDN@?$AAq?$AAu?$AAz?$AA?9?$AAe?$AAc@ 0000000180006cb8     libucrt:lcidtoname_downlevel.obj
 0001:00005cc8       ??_C@_1O@GBAPEKMJ@?$AAq?$AAu?$AAz?$AA?9?$AAp?$AAe@ 0000000180006cc8     libucrt:lcidtoname_downlevel.obj
 0001:00005cd8       ??_C@_1M@CLGLEFBO@?$AAr?$AAo?$AA?9?$AAr?$AAo@ 0000000180006cd8     libucrt:lcidtoname_downlevel.obj
 0001:00005ce8       ??_C@_1M@CEEDODME@?$AAr?$AAu?$AA?9?$AAr?$AAu@ 0000000180006ce8     libucrt:lcidtoname_downlevel.obj
 0001:00005cf8       ??_C@_1M@HPKKKMPP@?$AAs?$AAa?$AA?9?$AAi?$AAn@ 0000000180006cf8     libucrt:lcidtoname_downlevel.obj
 0001:00005d08       ??_C@_1M@BKMAIGOJ@?$AAs?$AAe?$AA?9?$AAf?$AAi@ 0000000180006d08     libucrt:lcidtoname_downlevel.obj
 0001:00005d18       ??_C@_1M@NDPIFLFI@?$AAs?$AAe?$AA?9?$AAn?$AAo@ 0000000180006d18     libucrt:lcidtoname_downlevel.obj
 0001:00005d28       ??_C@_1M@DANKKHJ@?$AAs?$AAe?$AA?9?$AAs?$AAe@ 0000000180006d28     libucrt:lcidtoname_downlevel.obj
 0001:00005d38       ??_C@_1M@PNBLONPJ@?$AAs?$AAk?$AA?9?$AAs?$AAk@ 0000000180006d38     libucrt:lcidtoname_downlevel.obj
 0001:00005d48       ??_C@_1M@LFMODOAL@?$AAs?$AAl?$AA?9?$AAs?$AAi@ 0000000180006d48     libucrt:lcidtoname_downlevel.obj
 0001:00005d58       ??_C@_1O@DFKOMPG@?$AAs?$AAm?$AAa?$AA?9?$AAn?$AAo@ 0000000180006d58     libucrt:lcidtoname_downlevel.obj
 0001:00005d68       ??_C@_1O@NDKPBNNH@?$AAs?$AAm?$AAa?$AA?9?$AAs?$AAe@ 0000000180006d68     libucrt:lcidtoname_downlevel.obj
 0001:00005d78       ??_C@_1O@PLLKBHAB@?$AAs?$AAm?$AAj?$AA?9?$AAn?$AAo@ 0000000180006d78     libucrt:lcidtoname_downlevel.obj
 0001:00005d88       ??_C@_1O@CLEPOGCA@?$AAs?$AAm?$AAj?$AA?9?$AAs?$AAe@ 0000000180006d88     libucrt:lcidtoname_downlevel.obj
 0001:00005d98       ??_C@_1O@DLGJGKMK@?$AAs?$AAm?$AAn?$AA?9?$AAf?$AAi@ 0000000180006d98     libucrt:lcidtoname_downlevel.obj
 0001:00005da8       ??_C@_1O@OJDJGAJC@?$AAs?$AAm?$AAs?$AA?9?$AAf?$AAi@ 0000000180006da8     libucrt:lcidtoname_downlevel.obj
 0001:00005db8       ??_C@_1M@BOFOGHPB@?$AAs?$AAq?$AA?9?$AAa?$AAl@ 0000000180006db8     libucrt:lcidtoname_downlevel.obj
 0001:00005dc8       ??_C@_1BG@LJBBIPGB@?$AAs?$AAr?$AA?9?$AAb?$AAa?$AA?9?$AAc?$AAy?$AAr?$AAl@ 0000000180006dc8     libucrt:lcidtoname_downlevel.obj
 0001:00005de0       ??_C@_1BG@JLBENFOE@?$AAs?$AAr?$AA?9?$AAb?$AAa?$AA?9?$AAl?$AAa?$AAt?$AAn@ 0000000180006de0     libucrt:lcidtoname_downlevel.obj
 0001:00005df8       ??_C@_1BG@KODPNHE@?$AAs?$AAr?$AA?9?$AAs?$AAp?$AA?9?$AAc?$AAy?$AAr?$AAl@ 0000000180006df8     libucrt:lcidtoname_downlevel.obj
 0001:00005e10       ??_C@_1BG@CIOGKHPB@?$AAs?$AAr?$AA?9?$AAs?$AAp?$AA?9?$AAl?$AAa?$AAt?$AAn@ 0000000180006e10     libucrt:lcidtoname_downlevel.obj
 0001:00005e28       ??_C@_1M@NGFJLMAC@?$AAs?$AAv?$AA?9?$AAf?$AAi@ 0000000180006e28     libucrt:lcidtoname_downlevel.obj
 0001:00005e38       ??_C@_1M@MPJEJAJC@?$AAs?$AAv?$AA?9?$AAs?$AAe@ 0000000180006e38     libucrt:lcidtoname_downlevel.obj
 0001:00005e48       ??_C@_1M@MPNDHLFK@?$AAs?$AAw?$AA?9?$AAk?$AAe@ 0000000180006e48     libucrt:lcidtoname_downlevel.obj
 0001:00005e58       ??_C@_1O@KOHBJJI@?$AAs?$AAy?$AAr?$AA?9?$AAs?$AAy@ 0000000180006e58     libucrt:lcidtoname_downlevel.obj
 0001:00005e68       ??_C@_1M@LDCEFHA@?$AAt?$AAa?$AA?9?$AAi?$AAn@ 0000000180006e68     libucrt:lcidtoname_downlevel.obj
 0001:00005e78       ??_C@_1M@CNJOFAK@?$AAt?$AAe?$AA?9?$AAi?$AAn@ 0000000180006e78     libucrt:lcidtoname_downlevel.obj
 0001:00005e88       ??_C@_1M@GNAECACD@?$AAt?$AAh?$AA?9?$AAt?$AAh@ 0000000180006e88     libucrt:lcidtoname_downlevel.obj
 0001:00005e98       ??_C@_1M@CHBIHOJO@?$AAt?$AAn?$AA?9?$AAz?$AAa@ 0000000180006e98     libucrt:lcidtoname_downlevel.obj
 0001:00005ea8       ??_C@_1M@GCCMIGPJ@?$AAt?$AAr?$AA?9?$AAt?$AAr@ 0000000180006ea8     libucrt:lcidtoname_downlevel.obj
 0001:00005eb8       ??_C@_1M@CELMCNBK@?$AAt?$AAt?$AA?9?$AAr?$AAu@ 0000000180006eb8     libucrt:lcidtoname_downlevel.obj
 0001:00005ec8       ??_C@_1M@KLMCELGA@?$AAu?$AAk?$AA?9?$AAu?$AAa@ 0000000180006ec8     libucrt:lcidtoname_downlevel.obj
 0001:00005ed8       ??_C@_1M@EPAJJAJF@?$AAu?$AAr?$AA?9?$AAp?$AAk@ 0000000180006ed8     libucrt:lcidtoname_downlevel.obj
 0001:00005ee8       ??_C@_1BG@GEGPMCDJ@?$AAu?$AAz?$AA?9?$AAu?$AAz?$AA?9?$AAc?$AAy?$AAr?$AAl@ 0000000180006ee8     libucrt:lcidtoname_downlevel.obj
 0001:00005f00       ??_C@_1BG@EGGKJILM@?$AAu?$AAz?$AA?9?$AAu?$AAz?$AA?9?$AAl?$AAa?$AAt?$AAn@ 0000000180006f00     libucrt:lcidtoname_downlevel.obj
 0001:00005f18       ??_C@_1M@GFOCLFF@?$AAv?$AAi?$AA?9?$AAv?$AAn@ 0000000180006f18     libucrt:lcidtoname_downlevel.obj
 0001:00005f28       ??_C@_1M@CPAMEDFI@?$AAx?$AAh?$AA?9?$AAz?$AAa@ 0000000180006f28     libucrt:lcidtoname_downlevel.obj
 0001:00005f38       ??_C@_1O@EBKIFIGN@?$AAz?$AAh?$AA?9?$AAc?$AAh?$AAs@ 0000000180006f38     libucrt:lcidtoname_downlevel.obj
 0001:00005f48       ??_C@_1O@NMHPGANE@?$AAz?$AAh?$AA?9?$AAc?$AAh?$AAt@ 0000000180006f48     libucrt:lcidtoname_downlevel.obj
 0001:00005f58       ??_C@_1M@LPINJOMC@?$AAz?$AAh?$AA?9?$AAc?$AAn@ 0000000180006f58     libucrt:lcidtoname_downlevel.obj
 0001:00005f68       ??_C@_1M@OCJEJODD@?$AAz?$AAh?$AA?9?$AAh?$AAk@ 0000000180006f68     libucrt:lcidtoname_downlevel.obj
 0001:00005f78       ??_C@_1M@DNDLJINH@?$AAz?$AAh?$AA?9?$AAm?$AAo@ 0000000180006f78     libucrt:lcidtoname_downlevel.obj
 0001:00005f88       ??_C@_1M@MBFDNDND@?$AAz?$AAh?$AA?9?$AAs?$AAg@ 0000000180006f88     libucrt:lcidtoname_downlevel.obj
 0001:00005f98       ??_C@_1M@IMEPLEPE@?$AAz?$AAh?$AA?9?$AAt?$AAw@ 0000000180006f98     libucrt:lcidtoname_downlevel.obj
 0001:00005fa8       ??_C@_1M@BBGHNHJP@?$AAz?$AAu?$AA?9?$AAz?$AAa@ 0000000180006fa8     libucrt:lcidtoname_downlevel.obj
 0001:00006210       ??_C@_1BA@BALFACEM@?$AAC?$AAO?$AAN?$AAO?$AAU?$AAT?$AA$@ 0000000180007210     libucrt:initcon.obj
 0001:00006220       __log10_256_lead           0000000180007220     libucrt:log10_256_lead_tail_table.obj
 0001:00006a30       __log10_256_tail           0000000180007a30     libucrt:log10_256_lead_tail_table.obj
 0001:00007240       __log_F_inv_qword          0000000180008240     libucrt:log_f_inv_qword_table.obj
 0001:00007a50       ??_C@_05HGHHAHAP@log10@    0000000180008a50     libucrt:log_special.obj
 0001:00007aa0       _load_config_used          0000000180008aa0     LIBCMT:loadcfg.obj
 0001:00007ba8       ??_R4exception@std@@6B@    0000000180008ba8     LIBCMT:throw_bad_alloc.obj
 0001:00007bd0       ??_R3exception@std@@8      0000000180008bd0     LIBCMT:throw_bad_alloc.obj
 0001:00007be8       ??_R2exception@std@@8      0000000180008be8     LIBCMT:throw_bad_alloc.obj
 0001:00007bf8       ??_R1A@?0A@EA@exception@std@@8 0000000180008bf8     LIBCMT:throw_bad_alloc.obj
 0001:00007c20       ??_R4bad_alloc@std@@6B@    0000000180008c20     LIBCMT:throw_bad_alloc.obj
 0001:00007c48       ??_R3bad_alloc@std@@8      0000000180008c48     LIBCMT:throw_bad_alloc.obj
 0001:00007c60       ??_R2bad_alloc@std@@8      0000000180008c60     LIBCMT:throw_bad_alloc.obj
 0001:00007c78       ??_R1A@?0A@EA@bad_alloc@std@@8 0000000180008c78     LIBCMT:throw_bad_alloc.obj
 0001:00007ca0       ??_R4bad_array_new_length@std@@6B@ 0000000180008ca0     LIBCMT:throw_bad_alloc.obj
 0001:00007cc8       ??_R3bad_array_new_length@std@@8 0000000180008cc8     LIBCMT:throw_bad_alloc.obj
 0001:00007ce0       ??_R2bad_array_new_length@std@@8 0000000180008ce0     LIBCMT:throw_bad_alloc.obj
 0001:00007d00       ??_R1A@?0A@EA@bad_array_new_length@std@@8 0000000180008d00     LIBCMT:throw_bad_alloc.obj
 0001:00007d28       ??_R4type_info@@6B@        0000000180008d28     LIBCMT:std_type_info_static.obj
 0001:00007d50       ??_R3type_info@@8          0000000180008d50     LIBCMT:std_type_info_static.obj
 0001:00007d68       ??_R2type_info@@8          0000000180008d68     LIBCMT:std_type_info_static.obj
 0001:00007d78       ??_R1A@?0A@EA@type_info@@8 0000000180008d78     LIBCMT:std_type_info_static.obj
 0001:00008060       __rtc_iaa                  0000000180009060     LIBCMT:initsect.obj
 0001:00008068       __rtc_izz                  0000000180009068     LIBCMT:initsect.obj
 0001:00008070       __rtc_taa                  0000000180009070     LIBCMT:initsect.obj
 0001:00008078       __rtc_tzz                  0000000180009078     LIBCMT:initsect.obj
 0001:00008090       __chkstk                   0000000180009090 f   chkstk.obj
 0001:00008090       _alloca_probe              0000000180009090 f   chkstk.obj
 0001:00008520       ?ReadFileLines@@YAXPEAXKPEAPEA_WPEA_WPEAI3@Z 0000000180009520 f   TmpPanel.obj
 0001:00008ca0       AnalyseW                   0000000180009ca0 f   TmpPanel.obj
 0001:00008d00       ClosePanelW                0000000180009d00 f   TmpPanel.obj
 0001:00008d30       ConfigureW                 0000000180009d30 f   TmpPanel.obj
 0001:00008d40       ExitFARW                   0000000180009d40 f   TmpPanel.obj
 0001:00008d80       GetFindDataW               0000000180009d80 f   TmpPanel.obj
 0001:00008da0       GetGlobalInfoW             0000000180009da0 f   TmpPanel.obj
 0001:00008e20       GetOpenPanelInfoW          0000000180009e20 f   TmpPanel.obj
 0001:00008e30       GetPluginInfoW             0000000180009e30 f   TmpPanel.obj
 0001:00008f00       OpenW                      0000000180009f00 f   TmpPanel.obj
 0001:00009380       ProcessPanelEventW         000000018000a380 f   TmpPanel.obj
 0001:000093a0       ProcessPanelInputW         000000018000a3a0 f   TmpPanel.obj
 0001:000093c0       PutFilesW                  000000018000a3c0 f   TmpPanel.obj
 0001:00009400       SetDirectoryW              000000018000a400 f   TmpPanel.obj
 0001:00009420       SetFindListW               000000018000a420 f   TmpPanel.obj
 0001:00009440       SetStartupInfoW            000000018000a440 f   TmpPanel.obj
 0001:00009590       ??_GPluginEditFieldBinding@@UEAAPEAXI@Z 000000018000a590 f i TmpCfg.obj
 0001:00009590       ??_EPluginCheckBoxBinding@@UEAAPEAXI@Z 000000018000a590 f i TmpCfg.obj
 0001:00009590       ??_EPluginEditFieldBinding@@UEAAPEAXI@Z 000000018000a590 f i TmpCfg.obj
 0001:00009590       ??_GPluginCheckBoxBinding@@UEAAPEAXI@Z 000000018000a590 f i TmpCfg.obj
 0001:000095c0       ?AddButtons@PluginDialogBuilder@@QEAAXHPEBHHH@Z 000000018000a5c0 f i TmpCfg.obj
 0001:000098f0       ?AddCheckbox@PluginDialogBuilder@@QEAAPEAUFarDialogItem@@HPEAHH_N@Z 000000018000a8f0 f i TmpCfg.obj
 0001:00009a00       ?AddDialogItem@PluginDialogBuilder@@AEAAPEAUFarDialogItem@@W4FARDIALOGITEMTYPES@@PEB_W@Z 000000018000aa00 f i TmpCfg.obj
 0001:00009bb0       ?AddEditField@PluginDialogBuilder@@QEAAPEAUFarDialogItem@@PEA_WHHPEB_W_N@Z 000000018000abb0 f i TmpCfg.obj
 0001:00009cc0       ?Config@@YAHXZ             000000018000acc0 f   TmpCfg.obj
 0001:0000c430       ?EndColumns@PluginDialogBuilder@@QEAAXXZ 000000018000d430 f i TmpCfg.obj
 0001:0000c540       ?GetOptions@@YAXXZ         000000018000d540 f   TmpCfg.obj
 0001:0000cab0       ?ItemWidth@PluginDialogBuilder@@CA_JAEBUFarDialogItem@@@Z 000000018000dab0 f i TmpCfg.obj
 0001:0000cb40       ?SaveValue@PluginCheckBoxBinding@@UEAAXPEBUFarDialogItem@@H@Z 000000018000db40 f i TmpCfg.obj
 0001:0000cba0       ?SaveValue@PluginEditFieldBinding@@UEAAXPEBUFarDialogItem@@H@Z 000000018000dba0 f i TmpCfg.obj
 0001:0000cbe0       ?ShowDialogEx@PluginDialogBuilder@@QEAA_JXZ 000000018000dbe0 f i TmpCfg.obj
 0001:0000cf30       ??0TmpPanel@@QEAA@PEB_W@Z  000000018000df30 f   TmpClass.obj
 0001:0000cfd0       ??1TmpPanel@@QEAA@XZ       000000018000dfd0 f   TmpClass.obj
 0001:0000d010       ?BeginPutFiles@TmpPanel@@QEAAPEAXXZ 000000018000e010 f   TmpClass.obj
 0001:0000d0c0       ?CommitPutFiles@TmpPanel@@QEAAXPEAXH@Z 000000018000e0c0 f   TmpClass.obj
 0001:0000d0f0       ?GetFileInfoAndValidate@TmpPanel@@SA_NPEB_WPEAUPluginPanelItem@@H@Z 000000018000e0f0 f   TmpClass.obj
 0001:0000d410       ?GetFindData@TmpPanel@@QEAAHPEAPEAUPluginPanelItem@@PEA_K_K@Z 000000018000e410 f   TmpClass.obj
 0001:0000d5a0       ?GetOpenPanelInfo@TmpPanel@@QEAAXPEAUOpenPanelInfo@@@Z 000000018000e5a0 f   TmpClass.obj
 0001:0000d840       ?Inflate@SimpleString@@QEAAX_K@Z 000000018000e840 f i TmpClass.obj
 0001:0000d8d0       ?IsCurrentFileCorrect@TmpPanel@@AEAA_NPEAPEA_W@Z 000000018000e8d0 f   TmpClass.obj
 0001:0000da20       ?ProcessEvent@TmpPanel@@QEAAH_JPEAX@Z 000000018000ea20 f   TmpClass.obj
 0001:0000dbc0       ?ProcessKey@TmpPanel@@QEAAHPEBU_INPUT_RECORD@@@Z 000000018000ebc0 f   TmpClass.obj
 0001:0000e1a0       ?ProcessSaveListKey@TmpPanel@@AEAAXXZ 000000018000f1a0 f   TmpClass.obj
 0001:0000e510       ?PutDirectoryContents@TmpPanel@@QEAAHPEB_W@Z 000000018000f510 f   TmpClass.obj
 0001:0000e740       ?PutFiles@TmpPanel@@QEAAHPEAUPluginPanelItem@@_KHPEB_W_K@Z 000000018000f740 f   TmpClass.obj
 0001:0000e900       ?PutOneFile@TmpPanel@@QEAAHPEB_W@Z 000000018000f900 f   TmpClass.obj
 0001:0000e9d0       ?RemoveDups@TmpPanel@@AEAAXXZ 000000018000f9d0 f   TmpClass.obj
 0001:0000eb60       ?RemoveEmptyItems@TmpPanel@@AEAAXXZ 000000018000fb60 f   TmpClass.obj
 0001:0000ece0       ?Replace@SimpleString@@QEAAAEAV1@_K0PEB_W0@Z 000000018000fce0 f i TmpClass.obj
 0001:0000eea0       ?SaveListFile@TmpPanel@@AEAAXPEB_W@Z 000000018000fea0 f   TmpClass.obj
 0001:0000f180       ?SetDirectory@TmpPanel@@QEAAHPEB_W_K@Z 0000000180010180 f   TmpClass.obj
 0001:0000f1e0       ?SetFindList@TmpPanel@@QEAAHPEBUPluginPanelItem@@_K@Z 00000001800101e0 f   TmpClass.obj
 0001:0000f3f0       ?SortListCmp@@YAHPEBX0PEAX@Z 00000001800103f0 f   TmpClass.obj
 0001:0000f450       ?SwitchToPanel@TmpPanel@@AEAAXH@Z 0000000180010450 f   TmpClass.obj
 0001:0000f510       ?UpdateItems@TmpPanel@@AEAAXHH@Z 0000000180010510 f   TmpClass.obj
 0001:0000fa70       ?ExpandEnvStrs@@YAPEA_WPEB_WAEAVStrBuf@@@Z 0000000180010a70 f   TmpMix.obj
 0001:0000fb70       ?FindListFile@@YA_NPEB_WAEAVStrBuf@@@Z 0000000180010b70 f   TmpMix.obj
 0001:0000ffa0       ?FormNtPath@@YAPEA_WPEB_WAEAVStrBuf@@@Z 0000000180010fa0 f   TmpMix.obj
 0001:000100b0       ?FreePanelItems@@YAXPEAUPluginPanelItem@@_K@Z 00000001800110b0 f   TmpMix.obj
 0001:00010120       ?GetFullPath@@YAPEA_WPEB_WAEAVStrBuf@@@Z 0000000180011120 f   TmpMix.obj
 0001:000101e0       ?GetMsg@@YAPEB_WH@Z        00000001800111e0 f   TmpMix.obj
 0001:00010200       ?GoToFile@@YAXPEB_WH@Z     0000000180011200 f   TmpMix.obj
 0001:00010450       ?Grow@StrBuf@@QEAAX_K@Z    0000000180011450 f i TmpMix.obj
 0001:000104a0       ?IsTextUTF8@@YA_NPEBD_K@Z  00000001800114a0 f   TmpMix.obj
 0001:00010540       ?ParseParam@@YAPEA_WAEAPEA_W@Z 0000000180011540 f   TmpMix.obj
 0001:000105a0       ?WFD2FFD@@YAXAEAU_WIN32_FIND_DATAW@@AEAUPluginPanelItem@@@Z 00000001800115a0 f   TmpMix.obj
 0001:00010600       ??2@YAPEAX_K@Z             0000000180011600 f   LIBCMT:new_scalar.obj
 0001:0001063c       ??_V@YAXPEAX@Z             000000018001163c f   LIBCMT:delete_array.obj
 0001:0001063c       ??3@YAXPEAX_K@Z            000000018001163c f   LIBCMT:delete_scalar_size.obj
 0001:00010644       ??_U@YAPEAX_K@Z            0000000180011644 f   LIBCMT:new_array.obj
 0001:0001096c       _DllMainCRTStartup         000000018001196c f   LIBCMT:dll_dllmain.obj
 0001:000109ac       ??0bad_alloc@std@@QEAA@AEBV01@@Z 00000001800119ac f i LIBCMT:throw_bad_alloc.obj
 0001:000109e8       ??0bad_alloc@std@@QEAA@XZ  00000001800119e8 f i LIBCMT:throw_bad_alloc.obj
 0001:00010a08       ??0bad_array_new_length@std@@QEAA@AEBV01@@Z 0000000180011a08 f i LIBCMT:throw_bad_alloc.obj
 0001:00010a44       ??0bad_array_new_length@std@@QEAA@XZ 0000000180011a44 f i LIBCMT:throw_bad_alloc.obj
 0001:00010a64       ??0exception@std@@QEAA@AEBV01@@Z 0000000180011a64 f i LIBCMT:throw_bad_alloc.obj
 0001:00010a98       ??1bad_alloc@std@@UEAA@XZ  0000000180011a98 f i LIBCMT:throw_bad_alloc.obj
 0001:00010a98       ??1bad_array_new_length@std@@UEAA@XZ 0000000180011a98 f i LIBCMT:throw_bad_alloc.obj
 0001:00010aac       ??_Ebad_array_new_length@std@@UEAAPEAXI@Z 0000000180011aac f i LIBCMT:throw_bad_alloc.obj
 0001:00010aac       ??_Ebad_alloc@std@@UEAAPEAXI@Z 0000000180011aac f i LIBCMT:throw_bad_alloc.obj
 0001:00010aac       ??_Gbad_array_new_length@std@@UEAAPEAXI@Z 0000000180011aac f i LIBCMT:throw_bad_alloc.obj
 0001:00010aac       ??_Eexception@std@@UEAAPEAXI@Z 0000000180011aac f i LIBCMT:throw_bad_alloc.obj
 0001:00010aac       ??_Gbad_alloc@std@@UEAAPEAXI@Z 0000000180011aac f i LIBCMT:throw_bad_alloc.obj
 0001:00010aac       ??_Gexception@std@@UEAAPEAXI@Z 0000000180011aac f i LIBCMT:throw_bad_alloc.obj
 0001:00010af0       ?__scrt_throw_std_bad_alloc@@YAXXZ 0000000180011af0 f   LIBCMT:throw_bad_alloc.obj
 0001:00010b10       ?__scrt_throw_std_bad_array_new_length@@YAXXZ 0000000180011b10 f   LIBCMT:throw_bad_alloc.obj
 0001:00010b30       ?what@exception@std@@UEBAPEBDXZ 0000000180011b30 f i LIBCMT:throw_bad_alloc.obj
 0001:00010b44       ??3@YAXPEAX@Z              0000000180011b44 f   LIBCMT:delete_scalar.obj
 0001:00010b4c       __security_init_cookie     0000000180011b4c f   LIBCMT:gs_support.obj
 0001:00010bf8       _get_startup_argv_mode     0000000180011bf8 f   LIBCMT:argv_mode.obj
 0001:00010bf8       DllMain                    0000000180011bf8 f   LIBCMT:dll_dllmain_stub.obj
 0001:00010c00       ?__scrt_initialize_type_info@@YAXXZ 0000000180011c00 f   LIBCMT:tncleanup.obj
 0001:00010c10       ?__scrt_uninitialize_type_info@@YAXXZ 0000000180011c10 f   LIBCMT:tncleanup.obj
 0001:00010c1c       __local_stdio_printf_options 0000000180011c1c f i LIBCMT:default_local_stdio_options.obj
 0001:00010c24       __local_stdio_scanf_options 0000000180011c24 f i LIBCMT:default_local_stdio_options.obj
 0001:00010c2c       __scrt_initialize_default_local_stdio_options 0000000180011c2c f   LIBCMT:default_local_stdio_options.obj
 0001:00010c48       __scrt_acquire_startup_lock 0000000180011c48 f   LIBCMT:utility.obj
 0001:00010c84       __scrt_dllmain_after_initialize_c 0000000180011c84 f   LIBCMT:utility.obj
 0001:00010cb8       __scrt_dllmain_before_initialize_c 0000000180011cb8 f   LIBCMT:utility.obj
 0001:00010cd0       __scrt_dllmain_crt_thread_attach 0000000180011cd0 f   LIBCMT:utility.obj
 0001:00010cf8       __scrt_dllmain_crt_thread_detach 0000000180011cf8 f   LIBCMT:utility.obj
 0001:00010d10       __scrt_dllmain_exception_filter 0000000180011d10 f   LIBCMT:utility.obj
 0001:00010d70       __scrt_dllmain_uninitialize_c 0000000180011d70 f   LIBCMT:utility.obj
 0001:00010da0       __scrt_dllmain_uninitialize_critical 0000000180011da0 f   LIBCMT:utility.obj
 0001:00010db4       __scrt_initialize_crt      0000000180011db4 f   LIBCMT:utility.obj
 0001:00010e00       __scrt_initialize_onexit_tables 0000000180011e00 f   LIBCMT:utility.obj
 0001:00010e8c       __scrt_is_nonwritable_in_current_image 0000000180011e8c f   LIBCMT:utility.obj
 0001:00010f24       __scrt_release_startup_lock 0000000180011f24 f   LIBCMT:utility.obj
 0001:00010f48       __scrt_uninitialize_crt    0000000180011f48 f   LIBCMT:utility.obj
 0001:00010f74       __scrt_get_dyn_tls_init_callback 0000000180011f74 f   LIBCMT:dyn_tls_init.obj
 0001:00010f7c       __crt_debugger_hook        0000000180011f7c f   LIBCMT:utility_desktop.obj
 0001:00010f84       __scrt_fastfail            0000000180011f84 f   LIBCMT:utility_desktop.obj
 0001:000110d0       _RTC_Initialize            00000001800120d0 f   LIBCMT:initsect.obj
 0001:0001110c       _RTC_Terminate             000000018001210c f   LIBCMT:initsect.obj
 0001:00011148       _guard_check_icall_nop     0000000180012148 f i LIBCMT:guard_support.obj
 0001:0001114c       ??_Gtype_info@@UEAAPEAXI@Z 000000018001214c f i LIBCMT:std_type_info_static.obj
 0001:0001114c       ??_Etype_info@@UEAAPEAXI@Z 000000018001214c f i LIBCMT:std_type_info_static.obj
 0001:00011178       __isa_available_init       0000000180012178 f   LIBCMT:cpu_disp.obj
 0001:0001131c       __scrt_is_ucrt_dll_in_use  000000018001231c f   LIBCMT:ucrt_detection.obj
 0001:00011340       memcpy_repmovs             0000000180012340 f   libvcruntime:memcpy.obj
 0001:00011360       memmove                    0000000180012360 f   libvcruntime:memcpy.obj
 0001:00011360       memcpy                     0000000180012360 f   libvcruntime:memcpy.obj
 0001:00011750       memset_repmovs             0000000180012750 f   libvcruntime:memset.obj
 0001:00011770       memset                     0000000180012770 f   libvcruntime:memset.obj
 0001:00011900       wcschr                     0000000180012900 f   libvcruntime:wcschr.obj
 0001:0001197c       wcsrchr                    000000018001297c f   libvcruntime:wcsrchr.obj
 0001:00011a40       memcmp                     0000000180012a40 f   libvcruntime:memcmp.obj
 0001:00011b08       __C_specific_handler       0000000180012b08 f   libvcruntime:riscchandler.obj
 0001:00011d14       __std_exception_copy       0000000180012d14 f   libvcruntime:std_exception.obj
 0001:00011da4       __std_exception_destroy    0000000180012da4 f   libvcruntime:std_exception.obj
 0001:00011dcc       _CxxThrowException         0000000180012dcc f   libvcruntime:throw.obj
 0001:00011e6c       __std_type_info_destroy_list 0000000180012e6c f   libvcruntime:std_type_info.obj
 0001:00011e98       __vcrt_initialize          0000000180012e98 f   libvcruntime:initialization.obj
 0001:00011ec0       __vcrt_thread_attach       0000000180012ec0 f   libvcruntime:initialization.obj
 0001:00011ed4       __vcrt_thread_detach       0000000180012ed4 f   libvcruntime:initialization.obj
 0001:00011ee8       __vcrt_uninitialize        0000000180012ee8 f   libvcruntime:initialization.obj
 0001:00011f04       __vcrt_uninitialize_critical 0000000180012f04 f   libvcruntime:initialization.obj
 0001:00011f14       __DestructExceptionObject  0000000180012f14 f   libvcruntime:ehhelpers.obj
 0001:00011f84       ?_CallMemberFunction0@@YAXQEAX0@Z 0000000180012f84 f i libvcruntime:ehhelpers.obj
 0001:00011fa0       _NLG_Notify                0000000180012fa0 f   libvcruntime:notify.obj
 0001:00011fc0       __NLG_Dispatch2            0000000180012fc0 f   libvcruntime:notify.obj
 0001:00011fd0       __NLG_Return2              0000000180012fd0 f   libvcruntime:notify.obj
 0001:00011fd4       __except_validate_context_record 0000000180012fd4 f   libvcruntime:jbcxrval.obj
 0001:0001200c       __vcrt_freefls             000000018001300c f   libvcruntime:per_thread_data.obj
 0001:0001202c       __vcrt_freeptd             000000018001302c f   libvcruntime:per_thread_data.obj
 0001:0001207c       __vcrt_getptd              000000018001307c f   libvcruntime:per_thread_data.obj
 0001:00012098       __vcrt_getptd_noexit       0000000180013098 f   libvcruntime:per_thread_data.obj
 0001:00012158       __vcrt_initialize_ptd      0000000180013158 f   libvcruntime:per_thread_data.obj
 0001:000121a0       __vcrt_uninitialize_ptd    00000001800131a0 f   libvcruntime:per_thread_data.obj
 0001:000121c4       __vcrt_initialize_locks    00000001800131c4 f   libvcruntime:locks.obj
 0001:000121f8       __vcrt_uninitialize_locks  00000001800131f8 f   libvcruntime:locks.obj
 0001:0001238c       __vcrt_FlsAlloc            000000018001338c f   libvcruntime:winapi_downlevel.obj
 0001:000123d4       __vcrt_FlsFree             00000001800133d4 f   libvcruntime:winapi_downlevel.obj
 0001:0001241c       __vcrt_FlsGetValue         000000018001341c f   libvcruntime:winapi_downlevel.obj
 0001:00012464       __vcrt_FlsSetValue         0000000180013464 f   libvcruntime:winapi_downlevel.obj
 0001:000124b8       __vcrt_InitializeCriticalSectionEx 00000001800134b8 f   libvcruntime:winapi_downlevel.obj
 0001:00012530       _CallSettingFrame          0000000180013530 f   libvcruntime:handlers.obj
 0001:00012580       _CallSettingFrame_LookupContinuationIndex 0000000180013580 f   libvcruntime:handlers.obj
 0001:000125b0       _CallSettingFrame_NotifyContinuationAddr 00000001800135b0 f   libvcruntime:handlers.obj
 0001:000125e0       _CallSettingFrameEncoded   00000001800135e0 f   libvcruntime:handlers.obj
 0001:00012628       calloc                     0000000180013628 f   libucrt:calloc.obj
 0001:00012630       free                       0000000180013630 f   libucrt:free.obj
 0001:00012644       malloc                     0000000180013644 f   libucrt:malloc.obj
 0001:0001264c       realloc                    000000018001364c f   libucrt:realloc.obj
 0001:00012654       __acrt_initialize_new_handler 0000000180013654 f   libucrt:new_handler.obj
 0001:0001265c       _callnewh                  000000018001365c f   libucrt:new_handler.obj
 0001:0001268c       _query_new_handler         000000018001368c f   libucrt:new_handler.obj
 0001:000126c0       _initterm                  00000001800136c0 f   libucrt:initterm.obj
 0001:00012724       _initterm_e                0000000180013724 f   libucrt:initterm.obj
 0001:00012764       _seh_filter_dll            0000000180013764 f   libucrt:exception_filter.obj
 0001:00012778       _seh_filter_exe            0000000180013778 f   libucrt:exception_filter.obj
 0001:00012b68       __acrt_initialize_thread_local_exit_callback 0000000180013b68 f   libucrt:exit.obj
 0001:00012b70       _cexit                     0000000180013b70 f   libucrt:exit.obj
 0001:00012b80       _exit                      0000000180013b80 f   libucrt:exit.obj
 0001:00012b8c       _is_c_termination_complete 0000000180013b8c f   libucrt:exit.obj
 0001:00012d58       __acrt_allocate_buffer_for_argv 0000000180013d58 f   libucrt:argv_parsing.obj
 0001:00012db8       _configure_narrow_argv     0000000180013db8 f   libucrt:argv_parsing.obj
 0001:00013130       __dcrt_uninitialize_environments_nolock 0000000180014130 f   libucrt:environment_initialization.obj
 0001:00013168       _initialize_narrow_environment 0000000180014168 f   libucrt:environment_initialization.obj
 0001:000132c4       _execute_onexit_table      00000001800142c4 f   libucrt:onexit.obj
 0001:00013300       _initialize_onexit_table   0000000180014300 f   libucrt:onexit.obj
 0001:00013360       __acrt_uninitialize_command_line 0000000180014360 f   libucrt:argv_data.obj
 0001:00013458       __acrt_initialize          0000000180014458 f   libucrt:initialization.obj
 0001:0001346c       __acrt_thread_attach       000000018001446c f   libucrt:initialization.obj
 0001:00013480       __acrt_thread_detach       0000000180014480 f   libucrt:initialization.obj
 0001:00013490       __acrt_uninitialize        0000000180014490 f   libucrt:initialization.obj
 0001:000134c8       __acrt_uninitialize_critical 00000001800144c8 f   libucrt:initialization.obj
 0001:000134d8       terminate                  00000001800144d8 f   libucrt:terminate.obj
 0001:000134f8       _wcsdup                    00000001800144f8 f   libucrt:wcsdup.obj
 0001:000134f8       wcsdup                     00000001800144f8 f   libucrt:wcsdup.obj
 0001:0001357c       abort                      000000018001457c f   libucrt:abort.obj
 0001:000135d4       strcpy_s                   00000001800145d4 f   libucrt:strcpy_s.obj
 0001:00013634       ??0_LocaleUpdate@@QEAA@QEAU__crt_locale_pointers@@@Z 0000000180014634 f i libucrt:output.obj
 0001:000136e0       strncmp                    00000001800146e0 f   libucrt:strncmp.obj
 0001:00013760       wcsncmp                    0000000180014760 f   libucrt:wcsncmp.obj
 0001:0001378c       _calloc_base               000000018001478c f   libucrt:calloc_base.obj
 0001:00013804       _free_base                 0000000180014804 f   libucrt:free_base.obj
 0001:00013844       _malloc_base               0000000180014844 f   libucrt:malloc_base.obj
 0001:000138a4       _realloc_base              00000001800148a4 f   libucrt:realloc_base.obj
 0001:00013920       __acrt_initialize_locks    0000000180014920 f   libucrt:locks.obj
 0001:00013968       __acrt_lock                0000000180014968 f   libucrt:locks.obj
 0001:00013984       __acrt_uninitialize_locks  0000000180014984 f   libucrt:locks.obj
 0001:000139bc       __acrt_unlock              00000001800149bc f   libucrt:locks.obj
 0001:00013d50       __acrt_freeptd             0000000180014d50 f   libucrt:per_thread_data.obj
 0001:00013d94       __acrt_getptd              0000000180014d94 f   libucrt:per_thread_data.obj
 0001:00013e68       __acrt_getptd_head         0000000180014e68 f   libucrt:per_thread_data.obj
 0001:00013f10       __acrt_getptd_noexit       0000000180014f10 f   libucrt:per_thread_data.obj
 0001:00013fdc       __acrt_initialize_ptd      0000000180014fdc f   libucrt:per_thread_data.obj
 0001:00014018       __acrt_uninitialize_ptd    0000000180015018 f   libucrt:per_thread_data.obj
 0001:0001403c       __acrt_get_process_end_policy 000000018001503c f   libucrt:win_policies.obj
 0001:00014078       __acrt_call_reportfault    0000000180015078 f   libucrt:invalid_parameter.obj
 0001:000141d4       __acrt_initialize_invalid_parameter_handler 00000001800151d4 f   libucrt:invalid_parameter.obj
 0001:000141dc       _invalid_parameter         00000001800151dc f   libucrt:invalid_parameter.obj
 0001:0001428c       _invalid_parameter_noinfo  000000018001528c f   libucrt:invalid_parameter.obj
 0001:000142ac       _invoke_watson             00000001800152ac f   libucrt:invalid_parameter.obj
 0001:000142f4       __acrt_errno_from_os_error 00000001800152f4 f   libucrt:errno.obj
 0001:0001433c       __acrt_errno_map_os_error  000000018001533c f   libucrt:errno.obj
 0001:0001438c       __doserrno                 000000018001538c f   libucrt:errno.obj
 0001:000143ac       _errno                     00000001800153ac f   libucrt:errno.obj
 0001:000143e0       ??$__acrt_mbs_to_wcs_cp@U__crt_win32_buffer_internal_dynamic_resizing@@@@YAHQEBDAEAV?$__crt_win32_buffer@_WU__crt_win32_buffer_internal_dynamic_resizing@@@@I@Z 00000001800153e0 f i libucrt:argv_wildcards.obj
 0001:00014558       ??$__acrt_wcs_to_mbs_cp@U__crt_win32_buffer_internal_dynamic_resizing@@@@YAHQEB_WAEAV?$__crt_win32_buffer@DU__crt_win32_buffer_internal_dynamic_resizing@@@@I@Z 0000000180015558 f i libucrt:argv_wildcards.obj
 0001:00014d88       __acrt_expand_narrow_argv_wildcards 0000000180015d88 f   libucrt:argv_wildcards.obj
 0001:00014d90       ??$__acrt_wcs_to_mbs_cp@U__crt_win32_buffer_no_resizing@@@@YAHQEB_WAEAV?$__crt_win32_buffer@DU__crt_win32_buffer_no_resizing@@@@I@Z 0000000180015d90 f i libucrt:getmodulefilenamea.obj
 0001:00014ea4       __acrt_GetModuleFileNameA  0000000180015ea4 f   libucrt:getmodulefilenamea.obj
 0001:000156f0       __acrt_initialize_multibyte 00000001800166f0 f   libucrt:mbctype.obj
 0001:00015750       __acrt_update_thread_multibyte_data 0000000180016750 f   libucrt:mbctype.obj
 0001:0001576c       _setmbcp_nolock            000000018001676c f   libucrt:mbctype.obj
 0001:00015aa0       _ismbblead                 0000000180016aa0 f   libucrt:ismbbyte.obj
 0001:00015ab4       __acrt_initialize_command_line 0000000180016ab4 f   libucrt:argv_data.obj
 0001:00015adc       wcscpy_s                   0000000180016adc f   libucrt:wcscpy_s.obj
 0001:00015b44       __acrt_MultiByteToWideChar 0000000180016b44 f   libucrt:multibytetowidechar.obj
 0001:00015ba0       __acrt_WideCharToMultiByte 0000000180016ba0 f   libucrt:widechartomultibyte.obj
 0001:00015c38       __dcrt_get_narrow_environment_from_os 0000000180016c38 f   libucrt:get_environment_from_os.obj
 0001:00015d3c       _recalloc_base             0000000180016d3c f   libucrt:recalloc.obj
 0001:00015fac       __acrt_AppPolicyGetProcessTerminationMethodInternal 0000000180016fac f   libucrt:winapi_thunks.obj
 0001:00015ffc       __acrt_AreFileApisANSI     0000000180016ffc f   libucrt:winapi_thunks.obj
 0001:00016038       __acrt_FlsAlloc            0000000180017038 f   libucrt:winapi_thunks.obj
 0001:00016080       __acrt_FlsFree             0000000180017080 f   libucrt:winapi_thunks.obj
 0001:000160c8       __acrt_FlsGetValue         00000001800170c8 f   libucrt:winapi_thunks.obj
 0001:00016110       __acrt_FlsSetValue         0000000180017110 f   libucrt:winapi_thunks.obj
 0001:00016164       __acrt_InitializeCriticalSectionEx 0000000180017164 f   libucrt:winapi_thunks.obj
 0001:000161c8       __acrt_LCMapStringEx       00000001800171c8 f   libucrt:winapi_thunks.obj
 0001:000162a4       __acrt_LocaleNameToLCID    00000001800172a4 f   libucrt:winapi_thunks.obj
 0001:000162f4       __acrt_initialize_winapi_thunks 00000001800172f4 f   libucrt:winapi_thunks.obj
 0001:00016328       __acrt_uninitialize_winapi_thunks 0000000180017328 f   libucrt:winapi_thunks.obj
 0001:0001636c       __acrt_initialize_heap     000000018001736c f   libucrt:heap_handle.obj
 0001:00016388       __acrt_uninitialize_heap   0000000180017388 f   libucrt:heap_handle.obj
 0001:00016590       __acrt_initialize_lowio    0000000180017590 f   libucrt:ioinit.obj
 0001:000165cc       __acrt_uninitialize_lowio  00000001800175cc f   libucrt:ioinit.obj
 0001:0001660c       __acrt_execute_initializers 000000018001760c f   libucrt:shared_initialization.obj
 0001:0001668c       __acrt_execute_uninitializers 000000018001768c f   libucrt:shared_initialization.obj
 0001:00016710       __acrt_get_sigabrt_handler 0000000180017710 f   libucrt:signal.obj
 0001:00016740       __acrt_initialize_signal_handlers 0000000180017740 f   libucrt:signal.obj
 0001:00016760       raise                      0000000180017760 f   libucrt:signal.obj
 0001:000169cc       __acrt_has_user_matherr    00000001800179cc f   libucrt:matherr.obj
 0001:000169ec       __acrt_initialize_user_matherr 00000001800179ec f   libucrt:matherr.obj
 0001:000169f4       __acrt_invoke_user_matherr 00000001800179f4 f   libucrt:matherr.obj
 0001:00016c00       __acrt_stdio_flush_nolock  0000000180017c00 f   libucrt:fflush.obj
 0001:00016c7c       _fflush_nolock             0000000180017c7c f   libucrt:fflush.obj
 0001:00016cc8       _flushall                  0000000180017cc8 f   libucrt:fflush.obj
 0001:00016cd0       __acrt_initialize_stdio    0000000180017cd0 f   libucrt:_file.obj
 0001:00016df0       __acrt_uninitialize_stdio  0000000180017df0 f   libucrt:_file.obj
 0001:00016e4c       _lock_file                 0000000180017e4c f   libucrt:_file.obj
 0001:00016e58       _unlock_file               0000000180017e58 f   libucrt:_file.obj
 0001:00016e64       _mbtowc_l                  0000000180017e64 f   libucrt:mbtowc.obj
 0001:00016fe4       mbtowc                     0000000180017fe4 f   libucrt:mbtowc.obj
 0001:00016fec       __acrt_update_locale_info  0000000180017fec f   libucrt:locale_update.obj
 0001:00017020       __acrt_update_multibyte_info 0000000180018020 f   libucrt:locale_update.obj
 0001:00017054       _fileno                    0000000180018054 f   libucrt:fileno.obj
 0001:000170ec       __acrt_set_locale_changed  00000001800180ec f   libucrt:wsetlocale.obj
 0001:000170f8       __acrt_uninitialize_locale 00000001800180f8 f   libucrt:wsetlocale.obj
 0001:00017128       __pctype_func              0000000180018128 f   libucrt:ctype.obj
 0001:00017158       _query_new_mode            0000000180018158 f   libucrt:new_mode.obj
 0001:00017160       __acrt_add_locale_ref      0000000180018160 f   libucrt:locale_refcounting.obj
 0001:000171ec       __acrt_free_locale         00000001800181ec f   libucrt:locale_refcounting.obj
 0001:00017364       __acrt_locale_add_lc_time_reference 0000000180018364 f   libucrt:locale_refcounting.obj
 0001:0001738c       __acrt_locale_free_lc_time_if_unreferenced 000000018001838c f   libucrt:locale_refcounting.obj
 0001:000173c4       __acrt_locale_release_lc_time_reference 00000001800183c4 f   libucrt:locale_refcounting.obj
 0001:000173ec       __acrt_release_locale_ref  00000001800183ec f   libucrt:locale_refcounting.obj
 0001:00017494       __acrt_update_thread_locale_data 0000000180018494 f   libucrt:locale_refcounting.obj
 0001:00017500       _updatetlocinfoEx_nolock   0000000180018500 f   libucrt:locale_refcounting.obj
 0001:00017570       qsort                      0000000180018570 f   libucrt:qsort.obj
 0001:00017920       strncpy_s                  0000000180018920 f   libucrt:strncpy_s.obj
 0001:00017aa0       strpbrk                    0000000180018aa0 f   libucrt:strpbrk.obj
 0001:00017e80       _mbsdec                    0000000180018e80 f   libucrt:mbsdec.obj
 0001:00017e88       _mbsdec_l                  0000000180018e88 f   libucrt:mbsdec.obj
 0001:00017f1c       __acrt_GetStringTypeA      0000000180018f1c f   libucrt:getstringtypea.obj
 0001:000183c4       __acrt_LCMapStringA        00000001800193c4 f   libucrt:lcmapstringa.obj
 0001:00018474       _msize_base                0000000180019474 f   libucrt:msize.obj
 0001:000184b0       __acrt_DownlevelLocaleNameToLCID 00000001800194b0 f   libucrt:lcidtoname_downlevel.obj
 0001:00018560       __acrt_lowio_create_handle_array 0000000180019560 f   libucrt:osfinfo.obj
 0001:00018608       __acrt_lowio_destroy_handle_array 0000000180019608 f   libucrt:osfinfo.obj
 0001:00018658       __acrt_lowio_ensure_fh_exists 0000000180019658 f   libucrt:osfinfo.obj
 0001:00018700       __acrt_lowio_lock_fh       0000000180019700 f   libucrt:osfinfo.obj
 0001:00018728       __acrt_lowio_unlock_fh     0000000180019728 f   libucrt:osfinfo.obj
 0001:00018750       _free_osfhnd               0000000180019750 f   libucrt:osfinfo.obj
 0001:0001880c       _get_osfhandle             000000018001980c f   libucrt:osfinfo.obj
 0001:00018910       _commit                    0000000180019910 f   libucrt:commit.obj
 0001:00019204       _write                     000000018001a204 f   libucrt:write.obj
 0001:000192f0       _write_nolock              000000018001a2f0 f   libucrt:write.obj
 0001:000195cc       _fcloseall                 000000018001a5cc f   libucrt:closeall.obj
 0001:00019680       __acrt_stdio_free_buffer_nolock 000000018001a680 f   libucrt:_freebuf.obj
 0001:000196c0       _isatty                    000000018001a6c0 f   libucrt:isatty.obj
 0001:00019720       _isleadbyte_l              000000018001a720 f i libucrt:_wctype.obj
 0001:0001976c       ?__mbrtowc_utf8@__crt_mbstring@@YA_KPEA_WPEBD_KPEAU_Mbstatet@@@Z 000000018001a76c f   libucrt:mbrtowc.obj
 0001:000197a8       ?__mbsrtowcs_utf8@__crt_mbstring@@YA_KPEA_WPEAPEBD_KPEAU_Mbstatet@@@Z 000000018001a7a8 f   libucrt:mbrtowc.obj
 0001:00019920       __acrt_locale_free_monetary 000000018001a920 f   libucrt:initmon.obj
 0001:00019a2c       __acrt_locale_free_numeric 000000018001aa2c f   libucrt:initnum.obj
 0001:00019af0       __acrt_locale_free_time    000000018001aaf0 f   libucrt:inittime.obj
 0001:00019bf8       __strncnt                  000000018001abf8 f   libucrt:strncnt.obj
 0001:00019c10       __ascii_wcsnicmp           000000018001ac10 f   libucrt:wcsnicmp.obj
 0001:00019c5c       _query_app_type            000000018001ac5c f   libucrt:report_runtime_error.obj
 0001:00019d00       _lseeki64_nolock           000000018001ad00 f   libucrt:lseek.obj
 0001:00019d08       _putwch_nolock             000000018001ad08 f   libucrt:putwch.obj
 0001:00019d44       _fclose_nolock             000000018001ad44 f   libucrt:fclose.obj
 0001:00019dc8       fclose                     000000018001adc8 f   libucrt:fclose.obj
 0001:00019e2c       ?__mbrtoc32_utf8@__crt_mbstring@@YA_KPEA_UPEBD_KPEAU_Mbstatet@@@Z 000000018001ae2c f   libucrt:mbrtoc32.obj
 0001:0001a010       log10                      000000018001b010 f   libucrt:log10.obj
 0001:0001a5bc       __dcrt_lowio_ensure_console_output_initialized 000000018001b5bc f   libucrt:initcon.obj
 0001:0001a610       __dcrt_terminate_console_output 000000018001b610 f   libucrt:initcon.obj
 0001:0001a62c       __dcrt_write_console       000000018001b62c f   libucrt:initcon.obj
 0001:0001a760       _close                     000000018001b760 f   libucrt:close.obj
 0001:0001a804       _close_nolock              000000018001b804 f   libucrt:close.obj
 0001:0001a8c4       ?__acrt_stdio_free_stream@@YAXV__crt_stdio_stream@@@Z 000000018001b8c4 f   libucrt:stream.obj
 0001:0001aa04       _handle_error              000000018001ba04 f   libucrt:libm_error.obj
 0001:0001ab30       __acrt_initialize_fma3     000000018001bb30 f   libucrt:fma3_available.obj
 0001:0001aba0       _log10_special             000000018001bba0 f   libucrt:log_special.obj
 0001:0001ac70       _get_fpsr                  000000018001bc70 f   libucrt:fpsr.obj
 0001:0001ac80       _set_fpsr                  000000018001bc80 f   libucrt:fpsr.obj
 0001:0001ac8a       _fclrf                     000000018001bc8a f   libucrt:fpsr.obj
 0001:0001ac9e       _frnd                      000000018001bc9e f   libucrt:fpsr.obj
 0001:0001acc0       _raise_exc                 000000018001bcc0 f   libucrt:fpexcept.obj
 0001:0001ace8       _raise_exc_ex              000000018001bce8 f   libucrt:fpexcept.obj
 0001:0001aff8       _set_errno_from_matherr    000000018001bff8 f   libucrt:fpexcept.obj
 0001:0001b028       _clrfp                     000000018001c028 f   libucrt:fpctrl.obj
 0001:0001b048       _ctrlfp                    000000018001c048 f   libucrt:fpctrl.obj
 0001:0001b0c4       _set_statfp                000000018001c0c4 f   libucrt:fpctrl.obj
 0001:0001b0e4       _statfp                    000000018001c0e4 f   libucrt:fpctrl.obj
 0001:0001b0f5       IsProcessorFeaturePresent  000000018001c0f5 f   kernel32:KERNEL32.dll
 0001:0001b100       _FindPESection             000000018001c100 f   LIBCMT:pesect.obj
 0001:0001b150       _IsNonwritableInCurrentImage 000000018001c150 f   LIBCMT:pesect.obj
 0001:0001b1a0       _ValidateImageBase         000000018001c1a0 f   LIBCMT:pesect.obj
 0001:0001b1d0       __GSHandlerCheck           000000018001c1d0 f   LIBCMT:gshandler.obj
 0001:0001b1f0       __GSHandlerCheckCommon     000000018001c1f0 f   LIBCMT:gshandler.obj
 0001:0001b260       __security_check_cookie    000000018001c260 f   LIBCMT:amdsecgs.obj
 0001:0001b284       __raise_securityfailure    000000018001c284 f   LIBCMT:gs_report.obj
 0001:0001b2b8       __report_gsfailure         000000018001c2b8 f   LIBCMT:gs_report.obj
 0001:0001b38c       __report_rangecheckfailure 000000018001c38c f   LIBCMT:gs_report.obj
 0001:0001b3a0       __report_securityfailure   000000018001c3a0 f   LIBCMT:gs_report.obj
 0001:0001b530       _guard_dispatch_icall_nop  000000018001c530 f   LIBCMT:guard_dispatch.obj
 0001:0001cb48       _TI2?AVbad_alloc@std@@     000000018001db48     LIBCMT:throw_bad_alloc.obj
 0001:0001cb68       _CTA2?AVbad_alloc@std@@    000000018001db68     LIBCMT:throw_bad_alloc.obj
 0001:0001cb80       _CT??_R0?AVbad_alloc@std@@@8??0bad_alloc@std@@QEAA@AEBV01@@Z24 000000018001db80     LIBCMT:throw_bad_alloc.obj
 0001:0001cba8       _CT??_R0?AVexception@std@@@8??0exception@std@@QEAA@AEBV01@@Z24 000000018001dba8     LIBCMT:throw_bad_alloc.obj
 0001:0001cbd0       _TI3?AVbad_array_new_length@std@@ 000000018001dbd0     LIBCMT:throw_bad_alloc.obj
 0001:0001cbf0       _CTA3?AVbad_array_new_length@std@@ 000000018001dbf0     LIBCMT:throw_bad_alloc.obj
 0001:0001cc10       _CT??_R0?AVbad_array_new_length@std@@@8??0bad_array_new_length@std@@QEAA@AEBV01@@Z24 000000018001dc10     LIBCMT:throw_bad_alloc.obj
 0002:00000038       __scrt_native_dllmain_reason 000000018001e038     LIBCMT:utility.obj
 0002:00000040       __security_cookie_complement 000000018001e040     LIBCMT:gs_cookie.obj
 0002:00000048       __security_cookie          000000018001e048     LIBCMT:gs_cookie.obj
 0002:00000050       __isa_available            000000018001e050     LIBCMT:cpu_disp.obj
 0002:00000054       __isa_enabled              000000018001e054     LIBCMT:cpu_disp.obj
 0002:00000058       __memcpy_nt_iters          000000018001e058     LIBCMT:cpu_disp.obj
 0002:00000060       __memset_nt_iters          000000018001e060     LIBCMT:cpu_disp.obj
 0002:00000080       __abort_behavior           000000018001e080     libucrt:abort.obj
 0002:000000a0       __acrt_initial_multibyte_data 000000018001e0a0     libucrt:mbctype.obj
 0002:000005e0       __acrt_initial_locale_data 000000018001e5e0     libucrt:nlsdata.obj
 0002:00000738       __acrt_initial_locale_pointers 000000018001e738     libucrt:nlsdata.obj
 0002:00000748       __acrt_wide_c_locale_string 000000018001e748     libucrt:nlsdata.obj
 0002:00000750       _iob                       000000018001e750     libucrt:_file.obj
 0002:00000858       __globallocalestatus       000000018001e858     libucrt:glstatus.obj
 0002:00000860       __acrt_lconv_c             000000018001e860     libucrt:localeconv.obj
 0002:000008f8       __acrt_lconv_static_decimal 000000018001e8f8     libucrt:localeconv.obj
 0002:000008fc       __acrt_lconv_static_W_decimal 000000018001e8fc     libucrt:localeconv.obj
 0002:00000900       _lookuptrailbytes          000000018001e900     libucrt:read.obj
 0002:00000a20       _fltused                   000000018001ea20     LIBCMT:fltused.obj
 0002:00000a28       ??_R0?AVbad_alloc@std@@@8  000000018001ea28     LIBCMT:throw_bad_alloc.obj
 0002:00000a50       ??_R0?AVexception@std@@@8  000000018001ea50     LIBCMT:throw_bad_alloc.obj
 0002:00000a78       ??_R0?AVbad_array_new_length@std@@@8 000000018001ea78     LIBCMT:throw_bad_alloc.obj
 0002:00000aa8       ??_R0?AVtype_info@@@8      000000018001eaa8     LIBCMT:std_type_info_static.obj
 0002:00000ad0       ?CommonPanels@@3PAU_PluginPanels@@A 000000018001ead0     TmpPanel.obj
 0002:00000b70       ?CurrentCommonPanel@@3IA   000000018001eb70     TmpPanel.obj
 0002:00000b80       ?Info@@3UPluginStartupInfo@@A 000000018001eb80     TmpPanel.obj
 0002:00000ca0       ?FSF@@3UFarStandardFunctions@@A 000000018001eca0     TmpPanel.obj
 0002:00000e40       ?StartupOptFullScreenPanel@@3HA 000000018001ee40     TmpCfg.obj
 0002:00000e44       ?StartupOptCommonPanel@@3HA 000000018001ee44     TmpCfg.obj
 0002:00000e48       ?StartupOpenFrom@@3HA      000000018001ee48     TmpCfg.obj
 0002:00000e50       ?Opt@@3Uoptions_s@@A       000000018001ee50     TmpCfg.obj
 0002:000017d0       ?__type_info_root_node@@3U__type_info_node@@A 000000018001f7d0     LIBCMT:tncleanup.obj
 0002:000017e0       ?_OptionsStorage@?1??__local_stdio_printf_options@@9@4_KA 000000018001f7e0     LIBCMT:default_local_stdio_options.obj
 0002:000017e8       ?_OptionsStorage@?1??__local_stdio_scanf_options@@9@4_KA 000000018001f7e8     LIBCMT:default_local_stdio_options.obj
 0002:000017f0       __scrt_current_native_startup_state 000000018001f7f0     LIBCMT:utility.obj
 0002:000017f8       __scrt_native_startup_lock 000000018001f7f8     LIBCMT:utility.obj
 0002:00001838       __scrt_debugger_hook_flag  000000018001f838     LIBCMT:utility_desktop.obj
 0002:0000183c       __favor                    000000018001f83c     LIBCMT:cpu_disp.obj
 0002:00001840       ?__WinRTOutOfMemoryExceptionCallback@@3P6APEAXXZEA 000000018001f840     libvcruntime:ehhelpers.obj
 0002:00001848       __pPurecall                000000018001f848     libvcruntime:purevirt_data.obj
 0002:00001850       ?pArgList@UnDecorator@@0PEAVReplicator@@EA 000000018001f850     libvcruntime:undname.obj
 0002:00001858       ?pZNameList@UnDecorator@@0PEAVReplicator@@EA 000000018001f858     libvcruntime:undname.obj
 0002:00001860       ?pTemplateArgList@UnDecorator@@0PEAVReplicator@@EA 000000018001f860     libvcruntime:undname.obj
 0002:00001868       ?gName@UnDecorator@@0PEBDEB 000000018001f868     libvcruntime:undname.obj
 0002:00001870       ?name@UnDecorator@@0PEBDEB 000000018001f870     libvcruntime:undname.obj
 0002:00001878       ?disableFlags@UnDecorator@@0KA 000000018001f878     libvcruntime:undname.obj
 0002:0000187c       ?fExplicitTemplateParams@UnDecorator@@0_NA 000000018001f87c     libvcruntime:undname.obj
 0002:0000187d       ?fGetTemplateArgumentList@UnDecorator@@0_NA 000000018001f87d     libvcruntime:undname.obj
 0002:00001880       ?m_pGetParameter@UnDecorator@@0P6APEADJ@ZEA 000000018001f880     libvcruntime:undname.obj
 0002:00001888       ?m_CHPENameOffset@UnDecorator@@0KA 000000018001f888     libvcruntime:undname.obj
 0002:0000188c       ?m_recursionLevel@UnDecorator@@0KA 000000018001f88c     libvcruntime:undname.obj
 0002:000019c8       ?c_exit_complete@?1???R<lambda_6e4b09c48022b2350581041d5f6b0c4c>@@QEBA@XZ@4_NA 000000018001f9c8     libucrt:exit.obj
 0002:00001ad8       _environ_table             000000018001fad8     libucrt:environment_initialization.obj
 0002:00001ae0       _wenviron_table            000000018001fae0     libucrt:environment_initialization.obj
 0002:00001ae8       __dcrt_initial_wide_environment 000000018001fae8     libucrt:environment_initialization.obj
 0002:00001af0       __dcrt_initial_narrow_environment 000000018001faf0     libucrt:environment_initialization.obj
 0002:00001af8       __acrt_atexit_table        000000018001faf8     libucrt:onexit.obj
 0002:00001b10       __acrt_at_quick_exit_table 000000018001fb10     libucrt:onexit.obj
 0002:00001d70       _mbctype                   000000018001fd70     libucrt:mbctype.obj
 0002:00001d78       _mbcasemap                 000000018001fd78     libucrt:mbctype.obj
 0002:00001d80       __acrt_current_multibyte_data 000000018001fd80     libucrt:mbctype.obj
 0002:00001d90       _pgmptr                    000000018001fd90     libucrt:argv_data.obj
 0002:00001d98       __argc                     000000018001fd98     libucrt:argv_data.obj
 0002:00001da0       __argv                     000000018001fda0     libucrt:argv_data.obj
 0002:00001da8       __wargv                    000000018001fda8     libucrt:argv_data.obj
 0002:00001db0       _acmdln                    000000018001fdb0     libucrt:argv_data.obj
 0002:00001db8       _wcmdln                    000000018001fdb8     libucrt:argv_data.obj
 0002:00001f70       __acrt_heap                000000018001ff70     libucrt:heap_handle.obj
 0002:00001f80       __pioinfo                  000000018001ff80     libucrt:ioinit.obj
 0002:00002380       _nhandle                   0000000180020380     libucrt:ioinit.obj
 0002:000023b0       __acrt_current_locale_data 00000001800203b0     libucrt:nlsdata.obj
 0002:000023b8       _nstream                   00000001800203b8     libucrt:_file.obj
 0002:000023c0       __piob                     00000001800203c0     libucrt:_file.obj
 0002:000023c8       __acrt_stdout_buffer       00000001800203c8     libucrt:_sftbuf.obj
 0002:000023d0       __acrt_stderr_buffer       00000001800203d0     libucrt:_sftbuf.obj
 0002:000023e0       __acrt_locale_changed_data 00000001800203e0     libucrt:wsetlocale.obj
 0002:000023e8       __acrt_lconv_static_null   00000001800203e8     libucrt:localeconv.obj
 0002:000023ec       __acrt_lconv_static_W_null 00000001800203ec     libucrt:localeconv.obj
 0002:00002400       __fma3_is_available        0000000180020400     libucrt:fma3_available.obj
 0002:00002404       __use_fma3_lib             0000000180020404     libucrt:fma3_available.obj
 0002:00002980       __scrt_ucrt_dll_is_in_use  0000000180020980     <common>
 0002:00002988       __dyn_tls_init_callback    0000000180020988     <common>
 0004:00000000       __imp_IsTextUnicode        0000000180023000     advapi32:ADVAPI32.dll
 0004:00000008       \177ADVAPI32_NULL_THUNK_DATA 0000000180023008     advapi32:ADVAPI32.dll
 0004:00000010       __imp_DeleteFileW          0000000180023010     kernel32:KERNEL32.dll
 0004:00000018       __imp_GetFileSize          0000000180023018     kernel32:KERNEL32.dll
 0004:00000020       __imp_CloseHandle          0000000180023020     kernel32:KERNEL32.dll
 0004:00000028       __imp_WaitForSingleObject  0000000180023028     kernel32:KERNEL32.dll
 0004:00000030       __imp_CreateProcessW       0000000180023030     kernel32:KERNEL32.dll
 0004:00000038       __imp_CreateFileMappingW   0000000180023038     kernel32:KERNEL32.dll
 0004:00000040       __imp_MapViewOfFile        0000000180023040     kernel32:KERNEL32.dll
 0004:00000048       __imp_UnmapViewOfFile      0000000180023048     kernel32:KERNEL32.dll
 0004:00000050       __imp_lstrcmpW             0000000180023050     kernel32:KERNEL32.dll
 0004:00000058       __imp_lstrcmpiW            0000000180023058     kernel32:KERNEL32.dll
 0004:00000060       __imp_lstrcpynW            0000000180023060     kernel32:KERNEL32.dll
 0004:00000068       __imp_lstrcpyW             0000000180023068     kernel32:KERNEL32.dll
 0004:00000070       __imp_lstrcatW             0000000180023070     kernel32:KERNEL32.dll
 0004:00000078       __imp_CreateFileW          0000000180023078     kernel32:KERNEL32.dll
 0004:00000080       __imp_MultiByteToWideChar  0000000180023080     kernel32:KERNEL32.dll
 0004:00000088       __imp_GetConsoleTitleW     0000000180023088     kernel32:KERNEL32.dll
 0004:00000090       __imp_SetConsoleTitleW     0000000180023090     kernel32:KERNEL32.dll
 0004:00000098       __imp_FindClose            0000000180023098     kernel32:KERNEL32.dll
 0004:000000a0       __imp_FindFirstFileW       00000001800230a0     kernel32:KERNEL32.dll
 0004:000000a8       __imp_FindNextFileW        00000001800230a8     kernel32:KERNEL32.dll
 0004:000000b0       __imp_GetFileAttributesW   00000001800230b0     kernel32:KERNEL32.dll
 0004:000000b8       __imp_GetFileTime          00000001800230b8     kernel32:KERNEL32.dll
 0004:000000c0       __imp_WriteFile            00000001800230c0     kernel32:KERNEL32.dll
 0004:000000c8       __imp_WideCharToMultiByte  00000001800230c8     kernel32:KERNEL32.dll
 0004:000000d0       __imp_ExpandEnvironmentStringsW 00000001800230d0     kernel32:KERNEL32.dll
 0004:000000d8       __imp_SearchPathW          00000001800230d8     kernel32:KERNEL32.dll
 0004:000000e0       __imp_WriteConsoleW        00000001800230e0     kernel32:KERNEL32.dll
 0004:000000e8       __imp_lstrlenW             00000001800230e8     kernel32:KERNEL32.dll
 0004:000000f0       __imp_GetStdHandle         00000001800230f0     kernel32:KERNEL32.dll
 0004:000000f8       __imp_QueryPerformanceCounter 00000001800230f8     kernel32:KERNEL32.dll
 0004:00000100       __imp_GetCurrentProcessId  0000000180023100     kernel32:KERNEL32.dll
 0004:00000108       __imp_GetCurrentThreadId   0000000180023108     kernel32:KERNEL32.dll
 0004:00000110       __imp_GetSystemTimeAsFileTime 0000000180023110     kernel32:KERNEL32.dll
 0004:00000118       __imp_InitializeSListHead  0000000180023118     kernel32:KERNEL32.dll
 0004:00000120       __imp_RtlCaptureContext    0000000180023120     kernel32:KERNEL32.dll
 0004:00000128       __imp_RtlLookupFunctionEntry 0000000180023128     kernel32:KERNEL32.dll
 0004:00000130       __imp_RtlVirtualUnwind     0000000180023130     kernel32:KERNEL32.dll
 0004:00000138       __imp_IsDebuggerPresent    0000000180023138     kernel32:KERNEL32.dll
 0004:00000140       __imp_UnhandledExceptionFilter 0000000180023140     kernel32:KERNEL32.dll
 0004:00000148       __imp_SetUnhandledExceptionFilter 0000000180023148     kernel32:KERNEL32.dll
 0004:00000150       __imp_GetStartupInfoW      0000000180023150     kernel32:KERNEL32.dll
 0004:00000158       __imp_IsProcessorFeaturePresent 0000000180023158     kernel32:KERNEL32.dll
 0004:00000160       __imp_GetModuleHandleW     0000000180023160     kernel32:KERNEL32.dll
 0004:00000168       __imp_RtlUnwindEx          0000000180023168     kernel32:KERNEL32.dll
 0004:00000170       __imp_RtlPcToFileHeader    0000000180023170     kernel32:KERNEL32.dll
 0004:00000178       __imp_RaiseException       0000000180023178     kernel32:KERNEL32.dll
 0004:00000180       __imp_InterlockedFlushSList 0000000180023180     kernel32:KERNEL32.dll
 0004:00000188       __imp_GetLastError         0000000180023188     kernel32:KERNEL32.dll
 0004:00000190       __imp_SetLastError         0000000180023190     kernel32:KERNEL32.dll
 0004:00000198       __imp_EnterCriticalSection 0000000180023198     kernel32:KERNEL32.dll
 0004:000001a0       __imp_LeaveCriticalSection 00000001800231a0     kernel32:KERNEL32.dll
 0004:000001a8       __imp_DeleteCriticalSection 00000001800231a8     kernel32:KERNEL32.dll
 0004:000001b0       __imp_InitializeCriticalSectionAndSpinCount 00000001800231b0     kernel32:KERNEL32.dll
 0004:000001b8       __imp_TlsAlloc             00000001800231b8     kernel32:KERNEL32.dll
 0004:000001c0       __imp_TlsGetValue          00000001800231c0     kernel32:KERNEL32.dll
 0004:000001c8       __imp_TlsSetValue          00000001800231c8     kernel32:KERNEL32.dll
 0004:000001d0       __imp_TlsFree              00000001800231d0     kernel32:KERNEL32.dll
 0004:000001d8       __imp_FreeLibrary          00000001800231d8     kernel32:KERNEL32.dll
 0004:000001e0       __imp_GetProcAddress       00000001800231e0     kernel32:KERNEL32.dll
 0004:000001e8       __imp_LoadLibraryExW       00000001800231e8     kernel32:KERNEL32.dll
 0004:000001f0       __imp_GetCurrentProcess    00000001800231f0     kernel32:KERNEL32.dll
 0004:000001f8       __imp_ExitProcess          00000001800231f8     kernel32:KERNEL32.dll
 0004:00000200       __imp_TerminateProcess     0000000180023200     kernel32:KERNEL32.dll
 0004:00000208       __imp_GetModuleHandleExW   0000000180023208     kernel32:KERNEL32.dll
 0004:00000210       __imp_GetModuleFileNameW   0000000180023210     kernel32:KERNEL32.dll
 0004:00000218       __imp_HeapAlloc            0000000180023218     kernel32:KERNEL32.dll
 0004:00000220       __imp_HeapFree             0000000180023220     kernel32:KERNEL32.dll
 0004:00000228       __imp_HeapReAlloc          0000000180023228     kernel32:KERNEL32.dll
 0004:00000230       __imp_FindFirstFileExW     0000000180023230     kernel32:KERNEL32.dll
 0004:00000238       __imp_IsValidCodePage      0000000180023238     kernel32:KERNEL32.dll
 0004:00000240       __imp_GetACP               0000000180023240     kernel32:KERNEL32.dll
 0004:00000248       __imp_GetOEMCP             0000000180023248     kernel32:KERNEL32.dll
 0004:00000250       __imp_GetCPInfo            0000000180023250     kernel32:KERNEL32.dll
 0004:00000258       __imp_GetCommandLineA      0000000180023258     kernel32:KERNEL32.dll
 0004:00000260       __imp_GetCommandLineW      0000000180023260     kernel32:KERNEL32.dll
 0004:00000268       __imp_GetEnvironmentStringsW 0000000180023268     kernel32:KERNEL32.dll
 0004:00000270       __imp_FreeEnvironmentStringsW 0000000180023270     kernel32:KERNEL32.dll
 0004:00000278       __imp_LCMapStringW         0000000180023278     kernel32:KERNEL32.dll
 0004:00000280       __imp_GetProcessHeap       0000000180023280     kernel32:KERNEL32.dll
 0004:00000288       __imp_GetFileType          0000000180023288     kernel32:KERNEL32.dll
 0004:00000290       __imp_GetStringTypeW       0000000180023290     kernel32:KERNEL32.dll
 0004:00000298       __imp_HeapSize             0000000180023298     kernel32:KERNEL32.dll
 0004:000002a0       __imp_SetStdHandle         00000001800232a0     kernel32:KERNEL32.dll
 0004:000002a8       __imp_FlushFileBuffers     00000001800232a8     kernel32:KERNEL32.dll
 0004:000002b0       __imp_GetConsoleCP         00000001800232b0     kernel32:KERNEL32.dll
 0004:000002b8       __imp_GetConsoleMode       00000001800232b8     kernel32:KERNEL32.dll
 0004:000002c0       __imp_SetFilePointerEx     00000001800232c0     kernel32:KERNEL32.dll
 0004:000002c8       \177KERNEL32_NULL_THUNK_DATA 00000001800232c8     kernel32:KERNEL32.dll
 0004:000002d0       __imp_ShellExecuteW        00000001800232d0     shell32:SHELL32.dll
 0004:000002d8       \177SHELL32_NULL_THUNK_DATA 00000001800232d8     shell32:SHELL32.dll
 0004:000002e0       __guard_check_icall_fptr   00000001800232e0     LIBCMT:guard_support.obj
 0004:000002e8       __guard_dispatch_icall_fptr 00000001800232e8     LIBCMT:guard_support.obj
 0004:000002f0       __IMPORT_DESCRIPTOR_KERNEL32 00000001800232f0     kernel32:KERNEL32.dll
 0004:00000304       __IMPORT_DESCRIPTOR_ADVAPI32 0000000180023304     advapi32:ADVAPI32.dll
 0004:00000318       __IMPORT_DESCRIPTOR_SHELL32 0000000180023318     shell32:SHELL32.dll
 0004:0000032c       __NULL_IMPORT_DESCRIPTOR   000000018002332c     kernel32:KERNEL32.dll

 entry point at        0001:0001096c

 Static symbols

 0001:000001a0       ?ParamsStr@?4??OpenW@@9@4QAY07$$CB_WA 00000001800011a0     TmpPanel.obj
 0001:0000061c       ?bom@?9??SaveListFile@TmpPanel@@AEAAXPEB_W@Z@4GB 000000018000161c     TmpClass.obj
 0001:0000061e       ?bomhi@?M@??SaveListFile@TmpPanel@@AEAAXPEB_W@Z@4EB 000000018000161e     TmpClass.obj
 0001:00000620       ?bomlo@?M@??SaveListFile@TmpPanel@@AEAAXPEB_W@Z@4GB 0000000180001620     TmpClass.obj
 0001:00000630       ?fmt1@?1??ProcessPanelSwitchMenu@TmpPanel@@AEAAXXZ@4QB_WB 0000000180001630     TmpClass.obj
 0001:000007c0       ?tokenTable@@3QBUStringLiteral@@B 00000001800017c0     libvcruntime:undname.obj
 0001:000008c0       ?nameTable@@3QBUStringLiteral@@B 00000001800018c0     libvcruntime:undname.obj
 0001:00000df0       ?rttiTable@@3QBUStringLiteral@@B 0000000180001df0     libvcruntime:undname.obj
 0001:00000e40       ?IndirectionName@@3QBUStringLiteral@@B 0000000180001e40     libvcruntime:undname.obj
 0001:00000ea0       ?PrefixName@@3QBUStringLiteral@@B 0000000180001ea0     libvcruntime:undname.obj
 0001:00001578       ?module_names@?A0x81a78551@@3QBQEB_WB 0000000180002578     libvcruntime:winapi_downlevel.obj
 0001:00001638       ?candidate_modules@?1??try_get_FlsAlloc@@YAP6AKP6AXPEAX@Z@ZXZ@4QBW4module_id@?A0x81a78551@@B 0000000180002638     libvcruntime:winapi_downlevel.obj
 0001:00001650       ?candidate_modules@?1??try_get_FlsFree@@YAP6AHK@ZXZ@4QBW4module_id@?A0x81a78551@@B 0000000180002650     libvcruntime:winapi_downlevel.obj
 0001:00001660       ?candidate_modules@?1??try_get_FlsGetValue@@YAP6APEAXK@ZXZ@4QBW4module_id@?A0x81a78551@@B 0000000180002660     libvcruntime:winapi_downlevel.obj
 0001:00001678       ?candidate_modules@?1??try_get_FlsSetValue@@YAP6AHKPEAX@ZXZ@4QBW4module_id@?A0x81a78551@@B 0000000180002678     libvcruntime:winapi_downlevel.obj
 0001:00001690       ?candidate_modules@?1??try_get_InitializeCriticalSectionEx@@YAP6AHPEAU_RTL_CRITICAL_SECTION@@KK@ZXZ@4QBW4module_id@?A0x81a78551@@B 0000000180002690     libvcruntime:winapi_downlevel.obj
 0001:000017c0       __acrt_initializers        00000001800027c0     libucrt:initialization.obj
 0001:000018c0       ?errtable@@3QBUerrentry@?A0x31fdb9ec@@B 00000001800028c0     libucrt:errno.obj
 0001:00001a28       ?_mb_locale_names@@3QBQEB_WB 0000000180002a28     libucrt:mbctype.obj
 0001:00001a90       ?module_names@?A0x391cf84c@@3QBQEB_WB 0000000180002a90     libucrt:winapi_thunks.obj
 0001:00001f98       ?candidate_modules@?1??try_get_AreFileApisANSI@@YAP6AHXZXZ@4QBW4module_id@?A0x391cf84c@@B 0000000180002f98     libucrt:winapi_thunks.obj
 0001:00001fb0       ?candidate_modules@?1??try_get_FlsAlloc@@YAP6AKP6AXPEAX@Z@ZXZ@4QBW4module_id@?A0x391cf84c@@B 0000000180002fb0     libucrt:winapi_thunks.obj
 0001:00001fb8       ?candidate_modules@?1??try_get_FlsFree@@YAP6AHK@ZXZ@4QBW4module_id@?A0x391cf84c@@B 0000000180002fb8     libucrt:winapi_thunks.obj
 0001:00001fc0       ?candidate_modules@?1??try_get_FlsGetValue@@YAP6APEAXK@ZXZ@4QBW4module_id@?A0x391cf84c@@B 0000000180002fc0     libucrt:winapi_thunks.obj
 0001:00001fc8       ?candidate_modules@?1??try_get_FlsSetValue@@YAP6AHKPEAX@ZXZ@4QBW4module_id@?A0x391cf84c@@B 0000000180002fc8     libucrt:winapi_thunks.obj
 0001:00001fd0       ?candidate_modules@?1??try_get_InitializeCriticalSectionEx@@YAP6AHPEAU_RTL_CRITICAL_SECTION@@KK@ZXZ@4QBW4module_id@?A0x391cf84c@@B 0000000180002fd0     libucrt:winapi_thunks.obj
 0001:00001fd8       ?candidate_modules@?1??try_get_LCMapStringEx@@YAP6AHPEB_WK0HPEA_WHPEAU_nlsversioninfo@@PEAX_J@ZXZ@4QBW4module_id@?A0x391cf84c@@B 0000000180002fd8     libucrt:winapi_thunks.obj
 0001:00001ff0       ?candidate_modules@?1??try_get_LocaleNameToLCID@@YAP6AKPEB_WK@ZXZ@4QBW4module_id@?A0x391cf84c@@B 0000000180002ff0     libucrt:winapi_thunks.obj
 0001:0000200c       ?candidate_modules@?1??try_get_AppPolicyGetProcessTerminationMethod@@YAP6AJPEAXPEAW4AppPolicyProcessTerminationMethod@@@ZXZ@4QBW4module_id@?A0x391cf84c@@B 000000018000300c     libucrt:winapi_thunks.obj
 0001:00002cc0       ?LcidToLocaleNameTable@?A0x881e4c05@@3QBULcidToLocaleName@1@B 0000000180003cc0     libucrt:lcidtoname_downlevel.obj
 0001:00004720       ?LocaleNameToIndexTable@?A0x881e4c05@@3QBULocaleNameIndex@1@B 0000000180005720     libucrt:lcidtoname_downlevel.obj
 0001:00005fc0       __real_ninf                0000000180006fc0     libucrt:log10.obj
 0001:00005fd0       __real_inf                 0000000180006fd0     libucrt:log10.obj
 0001:00005fe0       __real_neg_qnan            0000000180006fe0     libucrt:log10.obj
 0001:00005ff0       __real_qnanbit             0000000180006ff0     libucrt:log10.obj
 0001:00006000       __int_1023                 0000000180007000     libucrt:log10.obj
 0001:00006010       __mask_001                 0000000180007010     libucrt:log10.obj
 0001:00006020       __mask_mant                0000000180007020     libucrt:log10.obj
 0001:00006030       __mask_mant_top8           0000000180007030     libucrt:log10.obj
 0001:00006040       __mask_mant9               0000000180007040     libucrt:log10.obj
 0001:00006050       __real_log10_e             0000000180007050     libucrt:log10.obj
 0001:00006060       __real_log10_e_lead        0000000180007060     libucrt:log10.obj
 0001:00006070       __real_log10_e_tail        0000000180007070     libucrt:log10.obj
 0001:00006080       __real_log10_2_lead        0000000180007080     libucrt:log10.obj
 0001:00006090       __real_log10_2_tail        0000000180007090     libucrt:log10.obj
 0001:000060a0       __real_two                 00000001800070a0     libucrt:log10.obj
 0001:000060b0       __real_one                 00000001800070b0     libucrt:log10.obj
 0001:000060c0       __real_half                00000001800070c0     libucrt:log10.obj
 0001:000060d0       __mask_100                 00000001800070d0     libucrt:log10.obj
 0001:000060e0       __real_1_over_512          00000001800070e0     libucrt:log10.obj
 0001:000060f0       __real_1_over_2            00000001800070f0     libucrt:log10.obj
 0001:00006100       __real_1_over_3            0000000180007100     libucrt:log10.obj
 0001:00006110       __real_1_over_4            0000000180007110     libucrt:log10.obj
 0001:00006120       __real_1_over_5            0000000180007120     libucrt:log10.obj
 0001:00006130       __real_1_over_6            0000000180007130     libucrt:log10.obj
 0001:00006140       __real_neg_1023            0000000180007140     libucrt:log10.obj
 0001:00006150       __mask_2045                0000000180007150     libucrt:log10.obj
 0001:00006160       __real_threshold           0000000180007160     libucrt:log10.obj
 0001:00006170       __real_near_one_lt         0000000180007170     libucrt:log10.obj
 0001:00006180       __real_near_one_gt         0000000180007180     libucrt:log10.obj
 0001:00006190       __real_min_norm            0000000180007190     libucrt:log10.obj
 0001:000061a0       __real_notsign             00000001800071a0     libucrt:log10.obj
 0001:000061b0       __real_ca1                 00000001800071b0     libucrt:log10.obj
 0001:000061c0       __real_ca2                 00000001800071c0     libucrt:log10.obj
 0001:000061d0       __real_ca3                 00000001800071d0     libucrt:log10.obj
 0001:000061e0       __real_ca4                 00000001800071e0     libucrt:log10.obj
 0001:000061f0       __mask_lower               00000001800071f0     libucrt:log10.obj
 0001:00006200       __flag_x_zero              0000000180007200     libucrt:log10.obj
 0001:00006204       __flag_x_neg               0000000180007204     libucrt:log10.obj
 0001:00006208       __flag_x_nan               0000000180007208     libucrt:log10.obj
 0001:00007a60       __real@433fffffffffffff    0000000180008a60     libucrt:fpsr.obj
 0001:00007a68       __real@c33fffffffffffff    0000000180008a68     libucrt:fpsr.obj
 0001:00007a70       GS_ExceptionPointers       0000000180008a70     LIBCMT:gs_report.obj
 0001:00008080       $$000000                   0000000180009080     chkstk.obj
 0001:000080f0       ?OpenPanelFromOutput@@YAPEAXPEA_W@Z 00000001800090f0 f   TmpPanel.obj
 0001:00008440       ?ProcessList@@YAXPEAXPEA_WH@Z 0000000180009440 f   TmpPanel.obj
 0001:000087c0       ?ReadFileList@@YAXPEA_WPEAHPEAPEAPEA_W@Z 00000001800097c0 f   TmpPanel.obj
 0001:00008920       ?ShowMenuFromList@@YAXPEA_W@Z 0000000180009920 f   TmpPanel.obj
 0001:000098b8       $LN46                      000000018000a8b8     TmpCfg.obj
 0001:0000c400       $LN639                     000000018000d400     TmpCfg.obj
 0001:0000c504       $LN27                      000000018000d504     TmpCfg.obj
 0001:0000cb0c       $LN13                      000000018000db0c     TmpCfg.obj
 0001:0000cf00       $LN69                      000000018000df00     TmpCfg.obj
 0001:0001064c       ?dllmain_crt_dispatch@@YAHQEAUHINSTANCE__@@KQEAX@Z 000000018001164c f   LIBCMT:dll_dllmain.obj
 0001:0001069c       ?dllmain_crt_process_attach@@YAHQEAUHINSTANCE__@@QEAX@Z 000000018001169c f   LIBCMT:dll_dllmain.obj
 0001:000107b4       ?dllmain_crt_process_detach@@YAH_N@Z 00000001800117b4 f   LIBCMT:dll_dllmain.obj
 0001:00010838       ?dllmain_dispatch@@YAHQEAUHINSTANCE__@@KQEAX@Z 0000000180011838 f   LIBCMT:dll_dllmain.obj
 0001:00011330       $$000000                   0000000180012330     libvcruntime:memcpy.obj
 0001:00011740       $$000000                   0000000180012740     libvcruntime:memset.obj
 0001:00011a30       $$000000                   0000000180012a30     libvcruntime:memcmp.obj
 0001:00011f90       $$000000                   0000000180012f90     libvcruntime:notify.obj
 0001:00012230       ?try_get_function@@YAPEAXW4function_id@?A0x81a78551@@QEBDQEBW4module_id@2@2@Z 0000000180013230 f   libvcruntime:winapi_downlevel.obj
 0001:00012520       $$000000                   0000000180013520     libvcruntime:handlers.obj
 0001:000128fc       ??$?RV<lambda_d80eeec6fff315bfe5c115232f3240e3>@@AEAV<lambda_6e4b09c48022b2350581041d5f6b0c4c>@@V<lambda_2358e3775559c9db80273638284d5e45>@@@?$__crt_seh_guarded_call@X@@QEAAX$$QEAV<lambda_d80eeec6fff315bfe5c115232f3240e3>@@AEAV<lambda_6e4b09c48022b2350581041d5f6b0c4c>@@$$QEAV<lambda_2358e3775559c9db80273638284d5e45>@@@Z 00000001800138fc f   libucrt:exit.obj
 0001:00012934       ??R<lambda_6e4b09c48022b2350581041d5f6b0c4c>@@QEBA@XZ 0000000180013934 f   libucrt:exit.obj
 0001:000129f8       ?atexit_exception_filter@@YAHK@Z 00000001800139f8 f   libucrt:exit.obj
 0001:00012a04       ?common_exit@@YAXHW4_crt_exit_cleanup_mode@@W4_crt_exit_return_mode@@@Z 0000000180013a04 f   libucrt:exit.obj
 0001:00012ac0       ?exit_or_terminate_process@@YAXI@Z 0000000180013ac0 f   libucrt:exit.obj
 0001:00012b0c       ?try_cor_exit_process@@YAXI@Z 0000000180013b0c f   libucrt:exit.obj
 0001:00012b94       ??$parse_command_line@D@@YAXPEADPEAPEAD0PEA_K2@Z 0000000180013b94 f   libucrt:argv_parsing.obj
 0001:00012f40       ??$common_initialize_environment_nolock@D@@YAHXZ 0000000180013f40 f   libucrt:environment_initialization.obj
 0001:00012fac       ??$create_environment@D@@YAQEAPEADQEAD@Z 0000000180013fac f   libucrt:environment_initialization.obj
 0001:000130b4       ??$free_environment@D@@YAXQEAPEAD@Z 00000001800140b4 f   libucrt:environment_initialization.obj
 0001:000130b4       ??$free_environment@_W@@YAXQEAPEA_W@Z 00000001800140b4 f   libucrt:environment_initialization.obj
 0001:000130f8       ??$uninitialize_environment_internal@D@@YAXAEAPEAPEAD@Z 00000001800140f8 f   libucrt:environment_initialization.obj
 0001:00013114       ??$uninitialize_environment_internal@_W@@YAXAEAPEAPEA_W@Z 0000000180014114 f   libucrt:environment_initialization.obj
 0001:00013170       ??$?RV<lambda_7777bce6b2f8c936911f934f8298dc43>@@AEAV<lambda_f03950bc5685219e0bcd2087efbe011e>@@V<lambda_3883c3dff614d5e0c5f61bb1ac94921c>@@@?$__crt_seh_guarded_call@H@@QEAAH$$QEAV<lambda_7777bce6b2f8c936911f934f8298dc43>@@AEAV<lambda_f03950bc5685219e0bcd2087efbe011e>@@$$QEAV<lambda_3883c3dff614d5e0c5f61bb1ac94921c>@@@Z 0000000180014170 f   libucrt:onexit.obj
 0001:000131ac       ??R<lambda_f03950bc5685219e0bcd2087efbe011e>@@QEBAHXZ 00000001800141ac f   libucrt:onexit.obj
 0001:00013328       initialize_global_variables 0000000180014328 f   libucrt:initialization.obj
 0001:0001333c       initialize_c               000000018001433c f   libucrt:initialization.obj
 0001:00013360       initialize_environment     0000000180014360 f   libucrt:initialization.obj
 0001:00013360       initialize_global_state_isolation 0000000180014360 f   libucrt:initialization.obj
 0001:00013360       report_memory_leaks        0000000180014360 f   libucrt:initialization.obj
 0001:00013360       uninitialize_c             0000000180014360 f   libucrt:initialization.obj
 0001:00013360       uninitialize_global_state_isolation 0000000180014360 f   libucrt:initialization.obj
 0001:00013364       uninitialize_environment   0000000180014364 f   libucrt:initialization.obj
 0001:00013374       initialize_pointers        0000000180014374 f   libucrt:initialization.obj
 0001:000133b4       uninitialize_vcruntime     00000001800143b4 f   libucrt:initialization.obj
 0001:000133bc       uninitialize_allocated_memory 00000001800143bc f   libucrt:initialization.obj
 0001:000133fc       uninitialize_allocated_io_buffers 00000001800143fc f   libucrt:initialization.obj
 0001:000136d0       $$000000                   00000001800146d0     libucrt:strncmp.obj
 0001:000139d8       ??$?RV<lambda_0ae27a3a962d80f24befdcbee591983d>@@AEAV<lambda_8d0ee55de4b1038c4002e0adecdf1839>@@V<lambda_dc504788e8f1664fe9b84e20bfb512f2>@@@?$__crt_seh_guarded_call@X@@QEAAX$$QEAV<lambda_0ae27a3a962d80f24befdcbee591983d>@@AEAV<lambda_8d0ee55de4b1038c4002e0adecdf1839>@@$$QEAV<lambda_dc504788e8f1664fe9b84e20bfb512f2>@@@Z 00000001800149d8 f   libucrt:per_thread_data.obj
 0001:00013a18       ??$?RV<lambda_2d41944a1d46af3157314b8a01080d33>@@AEAV<lambda_8f455de75cd7d7f24b4096f044d8b9e6>@@V<lambda_aa500f224e6afead328df44964fe2772>@@@?$__crt_seh_guarded_call@X@@QEAAX$$QEAV<lambda_2d41944a1d46af3157314b8a01080d33>@@AEAV<lambda_8f455de75cd7d7f24b4096f044d8b9e6>@@$$QEAV<lambda_aa500f224e6afead328df44964fe2772>@@@Z 0000000180014a18 f   libucrt:per_thread_data.obj
 0001:00013a58       ??$?RV<lambda_aa87e3671a710a21b5dc78c0bdf72e11>@@AEAV<lambda_92619d2358a28f41a33ba319515a20b9>@@V<lambda_6992ecaafeb10aed2b74cb1fae11a551>@@@?$__crt_seh_guarded_call@X@@QEAAX$$QEAV<lambda_aa87e3671a710a21b5dc78c0bdf72e11>@@AEAV<lambda_92619d2358a28f41a33ba319515a20b9>@@$$QEAV<lambda_6992ecaafeb10aed2b74cb1fae11a551>@@@Z 0000000180014a58 f   libucrt:per_thread_data.obj
 0001:00013aa0       ??$?RV<lambda_f2e299630e499de9f9a165e60fcd3db5>@@AEAV<lambda_2ae9d31cdba2644fcbeaf08da7c24588>@@V<lambda_40d01ff24d0e7b3814fdbdcee8eab3c7>@@@?$__crt_seh_guarded_call@X@@QEAAX$$QEAV<lambda_f2e299630e499de9f9a165e60fcd3db5>@@AEAV<lambda_2ae9d31cdba2644fcbeaf08da7c24588>@@$$QEAV<lambda_40d01ff24d0e7b3814fdbdcee8eab3c7>@@@Z 0000000180014aa0 f   libucrt:per_thread_data.obj
 0001:00013b00       ?construct_ptd_array@@YAXQEAU__acrt_ptd@@@Z 0000000180014b00 f   libucrt:per_thread_data.obj
 0001:00013bd0       ?destroy_fls@@YAXPEAX@Z    0000000180014bd0 f   libucrt:per_thread_data.obj
 0001:00013bf0       ?destroy_ptd_array@@YAXQEAU__acrt_ptd@@@Z 0000000180014bf0 f   libucrt:per_thread_data.obj
 0001:00013ce8       ?replace_current_thread_locale_nolock@@YAXQEAU__acrt_ptd@@QEAU__crt_locale_data@@@Z 0000000180014ce8 f   libucrt:per_thread_data.obj
 0001:000143cc       ?<lambda_invoker_cdecl>@<lambda_a1ce4c8ae42411fd470c77163914f50e>@@CAHPEBX0@Z 00000001800153cc f   libucrt:argv_wildcards.obj
 0001:000146e4       ??$common_expand_argv_wildcards@D@@YAHQEAPEADQEAPEAPEAD@Z 00000001800156e4 f   libucrt:argv_wildcards.obj
 0001:000148f0       ??$copy_and_add_argument_to_buffer@D@@YAHQEBD0_KAEAV?$argument_list@D@?A0x5f5c8891@@@Z 00000001800158f0 f   libucrt:argv_wildcards.obj
 0001:00014a78       ??$expand_argument_wildcards@D@@YAHQEAD0AEAV?$argument_list@D@?A0x5f5c8891@@@Z 0000000180015a78 f   libucrt:argv_wildcards.obj
 0001:00014fc4       ??$?RV<lambda_efdfa57d1f175319df784efa44bb7b81>@@AEAV<lambda_5f0a4c1567f8adc6734073e5d1e1b35c>@@V<lambda_2e8a7d3640ea6ccb4c2413664c2db6fd>@@@?$__crt_seh_guarded_call@X@@QEAAX$$QEAV<lambda_efdfa57d1f175319df784efa44bb7b81>@@AEAV<lambda_5f0a4c1567f8adc6734073e5d1e1b35c>@@$$QEAV<lambda_2e8a7d3640ea6ccb4c2413664c2db6fd>@@@Z 0000000180015fc4 f   libucrt:mbctype.obj
 0001:00015180       ?getSystemCP@@YAHH@Z       0000000180016180 f   libucrt:mbctype.obj
 0001:00015200       ?setSBCS@@YAXPEAU__crt_multibyte_data@@@Z 0000000180016200 f   libucrt:mbctype.obj
 0001:00015290       ?setSBUpLow@@YAXPEAU__crt_multibyte_data@@@Z 0000000180016290 f   libucrt:mbctype.obj
 0001:00015474       ?setmbcp_internal@@YAHH_NQEAU__acrt_ptd@@QEAPEAU__crt_multibyte_data@@@Z 0000000180016474 f   libucrt:mbctype.obj
 0001:00015638       ?update_thread_multibyte_data_internal@@YAPEAU__crt_multibyte_data@@QEAU__acrt_ptd@@QEAPEAU1@@Z 0000000180016638 f   libucrt:mbctype.obj
 0001:00015a28       ?x_ismbbtype_l@@YAHPEAU__crt_locale_pointers@@IHH@Z 0000000180016a28 f   libucrt:ismbbyte.obj
 0001:00015dd4       ?try_get_function@@YAPEAXW4function_id@?A0x391cf84c@@QEBDQEBW4module_id@2@2@Z 0000000180016dd4 f   libucrt:winapi_thunks.obj
 0001:00016394       ?initialize_inherited_file_handles_nolock@@YAXXZ 0000000180017394 f   libucrt:ioinit.obj
 0001:00016484       ?initialize_stdio_handles_nolock@@YAXXZ 0000000180017484 f   libucrt:ioinit.obj
 0001:000166c8       ??$?RV<lambda_450d765d439847d4c735a33c368b5fc0>@@AEAV<lambda_44731a7d0e6d81c3e6aa82d741081786>@@V<lambda_601a2a7da3b7a96e9554ac7215c4b07c>@@@?$__crt_seh_guarded_call@P6AXH@Z@@QEAAP6AXH@Z$$QEAV<lambda_450d765d439847d4c735a33c368b5fc0>@@AEAV<lambda_44731a7d0e6d81c3e6aa82d741081786>@@$$QEAV<lambda_601a2a7da3b7a96e9554ac7215c4b07c>@@@Z 00000001800176c8 f   libucrt:signal.obj
 0001:00016a24       ??$?RV<lambda_842d9ff0dc9ef11c61343bbaebe7f885>@@AEAV<lambda_c5860995281e5c4ce005b3de8f5874ee>@@V<lambda_d90129c13df834fdcbf8d2b88dafcf2d>@@@?$__crt_seh_guarded_call@X@@QEAAX$$QEAV<lambda_842d9ff0dc9ef11c61343bbaebe7f885>@@AEAV<lambda_c5860995281e5c4ce005b3de8f5874ee>@@$$QEAV<lambda_d90129c13df834fdcbf8d2b88dafcf2d>@@@Z 0000000180017a24 f   libucrt:fflush.obj
 0001:00016ac0       ??$?RV<lambda_886d6c58226a84441f68b9f2b8217b83>@@AEAV<lambda_ab61a845afdef5b7c387490eaf3616ee>@@V<lambda_f7f22ab5edc0698d5f6905b0d3f44752>@@@?$__crt_seh_guarded_call@X@@QEAAX$$QEAV<lambda_886d6c58226a84441f68b9f2b8217b83>@@AEAV<lambda_ab61a845afdef5b7c387490eaf3616ee>@@$$QEAV<lambda_f7f22ab5edc0698d5f6905b0d3f44752>@@@Z 0000000180017ac0 f   libucrt:fflush.obj
 0001:00016ba0       ?common_flush_all@@YAH_N@Z 0000000180017ba0 f   libucrt:fflush.obj
 0001:0001707c       ??$?RV<lambda_410d79af7f07d98d83a3f525b3859a53>@@AEAV<lambda_3e16ef9562a7dcce91392c22ab16ea36>@@V<lambda_38119f0e861e05405d8a144b9b982f0a>@@@?$__crt_seh_guarded_call@X@@QEAAX$$QEAV<lambda_410d79af7f07d98d83a3f525b3859a53>@@AEAV<lambda_3e16ef9562a7dcce91392c22ab16ea36>@@$$QEAV<lambda_38119f0e861e05405d8a144b9b982f0a>@@@Z 000000018001807c f   libucrt:wsetlocale.obj
 0001:000179f4       fallbackMethod             00000001800189f4 f   libucrt:strpbrk.obj
 0001:00017dc4       $LN78                      0000000180018dc4     libucrt:strpbrk.obj
 0001:00017e00       $LN77                      0000000180018e00     libucrt:strpbrk.obj
 0001:00017e40       $LN76                      0000000180018e40     libucrt:strpbrk.obj
 0001:000180ac       ?__acrt_LCMapStringA_stat@@YAHPEAU__crt_locale_pointers@@PEB_WKPEBDHPEADHHH@Z 00000001800190ac f   libucrt:lcmapstringa.obj
 0001:0001845c       ?initialize_multibyte@@YAHXZ 000000018001945c f   libucrt:multibyte_initializer.obj
 0001:00018884       ??$?RV<lambda_a37b2b86f63e897a80ea819b0eb08c01>@@AEAV<lambda_38ce7e780aa69e748d6df282ebc68efe>@@V<lambda_99fb1378e971ab6e7edea83e3a7a83a2>@@@?$__crt_seh_guarded_call@H@@QEAAH$$QEAV<lambda_a37b2b86f63e897a80ea819b0eb08c01>@@AEAV<lambda_38ce7e780aa69e748d6df282ebc68efe>@@$$QEAV<lambda_99fb1378e971ab6e7edea83e3a7a83a2>@@@Z 0000000180019884 f   libucrt:commit.obj
 0001:000189a4       ?write_double_translated_ansi_nolock@@YA?AUwrite_result@?A0x17268360@@HQEBDI@Z 00000001800199a4 f   libucrt:write.obj
 0001:00018e74       ?write_text_ansi_nolock@@YA?AUwrite_result@?A0x17268360@@HQEBDI@Z 0000000180019e74 f   libucrt:write.obj
 0001:00018f78       ?write_text_utf16le_nolock@@YA?AUwrite_result@?A0x17268360@@HQEBDI@Z 0000000180019f78 f   libucrt:write.obj
 0001:00019094       ?write_text_utf8_nolock@@YA?AUwrite_result@?A0x17268360@@HQEBDI@Z 000000018001a094 f   libucrt:write.obj
 0001:00019a98       ?free_crt_array_internal@@YAXQEAPEBX_K@Z 000000018001aa98 f   libucrt:inittime.obj
 0001:00019c64       ??$common_lseek_nolock@_J@@YA_JH_JH@Z 000000018001ac64 f   libucrt:lseek.obj
 0001:0001a010       $$000000                   000000018001b010     libucrt:log10.obj
 0001:0001a6ec       ??$?RV<lambda_751a882b2c74d4b022dec766aa51a29a>@@AEAV<lambda_628dfdc04ba53c8bfc02c9951375f3f5>@@V<lambda_f6c7be5f7998530c34de24c7437d6b54>@@@?$__crt_seh_guarded_call@H@@QEAAH$$QEAV<lambda_751a882b2c74d4b022dec766aa51a29a>@@AEAV<lambda_628dfdc04ba53c8bfc02c9951375f3f5>@@$$QEAV<lambda_f6c7be5f7998530c34de24c7437d6b54>@@@Z 000000018001b6ec f   libucrt:close.obj
 0001:0001a8e0       _call_matherr              000000018001b8e0 f   libucrt:libm_error.obj
 0001:0001a948       _exception_enabled         000000018001b948 f   libucrt:libm_error.obj
 0001:0001abc0       _log_special_common        000000018001bbc0 f   libucrt:log_special.obj
 0001:0001ac60       $$000000                   000000018001bc60     libucrt:fpsr.obj
 0001:0001b250       $$000000                   000000018001c250     LIBCMT:amdsecgs.obj
 0001:0001b43c       capture_current_context    000000018001c43c f   LIBCMT:gs_report.obj
 0001:0001b4ac       capture_previous_context   000000018001c4ac f   LIBCMT:gs_report.obj
 0001:0001b520       $$000000                   000000018001c520     LIBCMT:guard_dispatch.obj
 0001:0001b540       ?fin$0@?0??dllmain_crt_process_attach@@YAHQEAUHINSTANCE__@@QEAX@Z@4HA 000000018001c540 f   LIBCMT:dll_dllmain.obj
 0001:0001b557       ?fin$0@?0??dllmain_crt_process_detach@@YAH_N@Z@4HA 000000018001c557 f   LIBCMT:dll_dllmain.obj
 0001:0001b570       ?fin$1@?0??dllmain_crt_process_detach@@YAH_N@Z@4HA 000000018001c570 f   LIBCMT:dll_dllmain.obj
 0001:0001b584       ?filt$0@?0??dllmain_dispatch@@YAHQEAUHINSTANCE__@@KQEAX@Z@4HA 000000018001c584 f   LIBCMT:dll_dllmain.obj
 0001:0001b5ba       __scrt_is_nonwritable_in_current_image$filt$0 000000018001c5ba f   LIBCMT:utility.obj
 0001:0001b5d2       __DestructExceptionObject$filt$0 000000018001c5d2 f   libvcruntime:ehhelpers.obj
 0001:0001b668       _query_new_handler$fin$0   000000018001c668 f   libucrt:new_handler.obj
 0001:0001b67e       ?fin$0@?0???$?RV<lambda_0ae27a3a962d80f24befdcbee591983d>@@AEAV<lambda_8d0ee55de4b1038c4002e0adecdf1839>@@V<lambda_dc504788e8f1664fe9b84e20bfb512f2>@@@?$__crt_seh_guarded_call@X@@QEAAX$$QEAV<lambda_0ae27a3a962d80f24befdcbee591983d>@@AEAV<lambda_8d0ee55de4b1038c4002e0adecdf1839>@@$$QEAV<lambda_dc504788e8f1664fe9b84e20bfb512f2>@@@Z@4HA 000000018001c67e f   libucrt:per_thread_data.obj
 0001:0001b67e       ?fin$0@?0???$?RV<lambda_2d41944a1d46af3157314b8a01080d33>@@AEAV<lambda_8f455de75cd7d7f24b4096f044d8b9e6>@@V<lambda_aa500f224e6afead328df44964fe2772>@@@?$__crt_seh_guarded_call@X@@QEAAX$$QEAV<lambda_2d41944a1d46af3157314b8a01080d33>@@AEAV<lambda_8f455de75cd7d7f24b4096f044d8b9e6>@@$$QEAV<lambda_aa500f224e6afead328df44964fe2772>@@@Z@4HA 000000018001c67e f   libucrt:per_thread_data.obj
 0001:0001b67e       ?fin$0@?0???$?RV<lambda_aa87e3671a710a21b5dc78c0bdf72e11>@@AEAV<lambda_92619d2358a28f41a33ba319515a20b9>@@V<lambda_6992ecaafeb10aed2b74cb1fae11a551>@@@?$__crt_seh_guarded_call@X@@QEAAX$$QEAV<lambda_aa87e3671a710a21b5dc78c0bdf72e11>@@AEAV<lambda_92619d2358a28f41a33ba319515a20b9>@@$$QEAV<lambda_6992ecaafeb10aed2b74cb1fae11a551>@@@Z@4HA 000000018001c67e f   libucrt:per_thread_data.obj
 0001:0001b67e       ?fin$0@?0???$?RV<lambda_f2e299630e499de9f9a165e60fcd3db5>@@AEAV<lambda_2ae9d31cdba2644fcbeaf08da7c24588>@@V<lambda_40d01ff24d0e7b3814fdbdcee8eab3c7>@@@?$__crt_seh_guarded_call@X@@QEAAX$$QEAV<lambda_f2e299630e499de9f9a165e60fcd3db5>@@AEAV<lambda_2ae9d31cdba2644fcbeaf08da7c24588>@@$$QEAV<lambda_40d01ff24d0e7b3814fdbdcee8eab3c7>@@@Z@4HA 000000018001c67e f   libucrt:per_thread_data.obj
 0001:0001b67e       ?fin$0@?0???$?RV<lambda_efdfa57d1f175319df784efa44bb7b81>@@AEAV<lambda_5f0a4c1567f8adc6734073e5d1e1b35c>@@V<lambda_2e8a7d3640ea6ccb4c2413664c2db6fd>@@@?$__crt_seh_guarded_call@X@@QEAAX$$QEAV<lambda_efdfa57d1f175319df784efa44bb7b81>@@AEAV<lambda_5f0a4c1567f8adc6734073e5d1e1b35c>@@$$QEAV<lambda_2e8a7d3640ea6ccb4c2413664c2db6fd>@@@Z@4HA 000000018001c67e f   libucrt:mbctype.obj
 0001:0001b67e       ?fin$0@?0???$?RV<lambda_450d765d439847d4c735a33c368b5fc0>@@AEAV<lambda_44731a7d0e6d81c3e6aa82d741081786>@@V<lambda_601a2a7da3b7a96e9554ac7215c4b07c>@@@?$__crt_seh_guarded_call@P6AXH@Z@@QEAAP6AXH@Z$$QEAV<lambda_450d765d439847d4c735a33c368b5fc0>@@AEAV<lambda_44731a7d0e6d81c3e6aa82d741081786>@@$$QEAV<lambda_601a2a7da3b7a96e9554ac7215c4b07c>@@@Z@4HA 000000018001c67e f   libucrt:signal.obj
 0001:0001b67e       ?fin$0@?0???$?RV<lambda_d80eeec6fff315bfe5c115232f3240e3>@@AEAV<lambda_6e4b09c48022b2350581041d5f6b0c4c>@@V<lambda_2358e3775559c9db80273638284d5e45>@@@?$__crt_seh_guarded_call@X@@QEAAX$$QEAV<lambda_d80eeec6fff315bfe5c115232f3240e3>@@AEAV<lambda_6e4b09c48022b2350581041d5f6b0c4c>@@$$QEAV<lambda_2358e3775559c9db80273638284d5e45>@@@Z@4HA 000000018001c67e f   libucrt:exit.obj
 0001:0001b67e       ?fin$0@?0???$?RV<lambda_7777bce6b2f8c936911f934f8298dc43>@@AEAV<lambda_f03950bc5685219e0bcd2087efbe011e>@@V<lambda_3883c3dff614d5e0c5f61bb1ac94921c>@@@?$__crt_seh_guarded_call@H@@QEAAH$$QEAV<lambda_7777bce6b2f8c936911f934f8298dc43>@@AEAV<lambda_f03950bc5685219e0bcd2087efbe011e>@@$$QEAV<lambda_3883c3dff614d5e0c5f61bb1ac94921c>@@@Z@4HA 000000018001c67e f   libucrt:onexit.obj
 0001:0001b698       ?filt$0@?0???R<lambda_6e4b09c48022b2350581041d5f6b0c4c>@@QEBA@XZ@4HA 000000018001c698 f   libucrt:exit.obj
 0001:0001b6b3       ?fin$0@?0??update_thread_multibyte_data_internal@@YAPEAU__crt_multibyte_data@@QEAU__acrt_ptd@@QEAPEAU1@@Z@4HA 000000018001c6b3 f   libucrt:mbctype.obj
 0001:0001b6cc       __acrt_initialize_lowio$fin$0 000000018001c6cc f   libucrt:ioinit.obj
 0001:0001b6cc       __acrt_lowio_ensure_fh_exists$fin$0 000000018001c6cc f   libucrt:osfinfo.obj
 0001:0001b6e5       raise$fin$0                000000018001c6e5 f   libucrt:signal.obj
 0001:0001b706       ?fin$0@?0???$?RV<lambda_842d9ff0dc9ef11c61343bbaebe7f885>@@AEAV<lambda_c5860995281e5c4ce005b3de8f5874ee>@@V<lambda_d90129c13df834fdcbf8d2b88dafcf2d>@@@?$__crt_seh_guarded_call@X@@QEAAX$$QEAV<lambda_842d9ff0dc9ef11c61343bbaebe7f885>@@AEAV<lambda_c5860995281e5c4ce005b3de8f5874ee>@@$$QEAV<lambda_d90129c13df834fdcbf8d2b88dafcf2d>@@@Z@4HA 000000018001c706 f   libucrt:fflush.obj
 0001:0001b721       ?fin$0@?0???$?RV<lambda_886d6c58226a84441f68b9f2b8217b83>@@AEAV<lambda_ab61a845afdef5b7c387490eaf3616ee>@@V<lambda_f7f22ab5edc0698d5f6905b0d3f44752>@@@?$__crt_seh_guarded_call@X@@QEAAX$$QEAV<lambda_886d6c58226a84441f68b9f2b8217b83>@@AEAV<lambda_ab61a845afdef5b7c387490eaf3616ee>@@$$QEAV<lambda_f7f22ab5edc0698d5f6905b0d3f44752>@@@Z@4HA 000000018001c721 f   libucrt:fflush.obj
 0001:0001b73e       ?fin$0@?0???$?RV<lambda_410d79af7f07d98d83a3f525b3859a53>@@AEAV<lambda_3e16ef9562a7dcce91392c22ab16ea36>@@V<lambda_38119f0e861e05405d8a144b9b982f0a>@@@?$__crt_seh_guarded_call@X@@QEAAX$$QEAV<lambda_410d79af7f07d98d83a3f525b3859a53>@@AEAV<lambda_3e16ef9562a7dcce91392c22ab16ea36>@@$$QEAV<lambda_38119f0e861e05405d8a144b9b982f0a>@@@Z@4HA 000000018001c73e f   libucrt:wsetlocale.obj
 0001:0001b758       __acrt_update_thread_locale_data$fin$0 000000018001c758 f   libucrt:locale_refcounting.obj
 0001:0001b771       ?fin$0@?0???$?RV<lambda_751a882b2c74d4b022dec766aa51a29a>@@AEAV<lambda_628dfdc04ba53c8bfc02c9951375f3f5>@@V<lambda_f6c7be5f7998530c34de24c7437d6b54>@@@?$__crt_seh_guarded_call@H@@QEAAH$$QEAV<lambda_751a882b2c74d4b022dec766aa51a29a>@@AEAV<lambda_628dfdc04ba53c8bfc02c9951375f3f5>@@$$QEAV<lambda_f6c7be5f7998530c34de24c7437d6b54>@@@Z@4HA 000000018001c771 f   libucrt:close.obj
 0001:0001b771       ?fin$0@?0???$?RV<lambda_a37b2b86f63e897a80ea819b0eb08c01>@@AEAV<lambda_38ce7e780aa69e748d6df282ebc68efe>@@V<lambda_99fb1378e971ab6e7edea83e3a7a83a2>@@@?$__crt_seh_guarded_call@H@@QEAAH$$QEAV<lambda_a37b2b86f63e897a80ea819b0eb08c01>@@AEAV<lambda_38ce7e780aa69e748d6df282ebc68efe>@@$$QEAV<lambda_99fb1378e971ab6e7edea83e3a7a83a2>@@@Z@4HA 000000018001c771 f   libucrt:commit.obj
 0001:0001b78b       _write$fin$0               000000018001c78b f   libucrt:write.obj
 0001:0001b7a2       _fcloseall$fin$0           000000018001c7a2 f   libucrt:closeall.obj
 0001:0001b7bb       fclose$fin$0               000000018001c7bb f   libucrt:fclose.obj
 0001:0001b7d3       _ctrlfp$filt$0             000000018001c7d3 f   libucrt:fpctrl.obj
 0001:0001b800       _IsNonwritableInCurrentImage$filt$0 000000018001c800 f   LIBCMT:pesect.obj
 0001:0001b820       $xdatasym                  000000018001c820     chkstk.obj
 0001:0001b828       $unwind$AnalyseW           000000018001c828     TmpPanel.obj
 0001:0001b830       $chain$0$AnalyseW          000000018001c830     TmpPanel.obj
 0001:0001b844       $chain$1$AnalyseW          000000018001c844     TmpPanel.obj
 0001:0001b854       $unwind$??_GPluginCheckBoxBinding@@UEAAPEAXI@Z 000000018001c854     TmpCfg.obj
 0001:0001b854       $unwind$??_GPluginEditFieldBinding@@UEAAPEAXI@Z 000000018001c854     TmpCfg.obj
 0001:0001b854       $unwind$?EndColumns@PluginDialogBuilder@@QEAAXXZ 000000018001c854     TmpCfg.obj
 0001:0001b854       $unwind$?SaveValue@PluginCheckBoxBinding@@UEAAXPEBUFarDialogItem@@H@Z 000000018001c854     TmpCfg.obj
 0001:0001b854       $unwind$?SaveValue@PluginEditFieldBinding@@UEAAXPEBUFarDialogItem@@H@Z 000000018001c854     TmpCfg.obj
 0001:0001b854       $unwind$??1TmpPanel@@QEAA@XZ 000000018001c854     TmpClass.obj
 0001:0001b854       $unwind$?CommitPutFiles@TmpPanel@@QEAAXPEAXH@Z 000000018001c854     TmpClass.obj
 0001:0001b854       $unwind$?Inflate@SimpleString@@QEAAX_K@Z 000000018001c854     TmpClass.obj
 0001:0001b854       $unwind$?FormNtPath@@YAPEA_WPEB_WAEAVStrBuf@@@Z 000000018001c854     TmpMix.obj
 0001:0001b854       $unwind$?WFD2FFD@@YAXAEAU_WIN32_FIND_DATAW@@AEAUPluginPanelItem@@@Z 000000018001c854     TmpMix.obj
 0001:0001b854       $unwind$ClosePanelW        000000018001c854     TmpPanel.obj
 0001:0001b854       $unwind$__raise_securityfailure 000000018001c854     LIBCMT:gs_report.obj
 0001:0001b854       $unwind$??2@YAPEAX_K@Z     000000018001c854     LIBCMT:new_scalar.obj
 0001:0001b854       $unwind$??_Gtype_info@@UEAAPEAXI@Z 000000018001c854     LIBCMT:std_type_info_static.obj
 0001:0001b854       $unwind$??0bad_alloc@std@@QEAA@AEBV01@@Z 000000018001c854     LIBCMT:throw_bad_alloc.obj
 0001:0001b854       $unwind$??0bad_array_new_length@std@@QEAA@AEBV01@@Z 000000018001c854     LIBCMT:throw_bad_alloc.obj
 0001:0001b854       $unwind$??0exception@std@@QEAA@AEBV01@@Z 000000018001c854     LIBCMT:throw_bad_alloc.obj
 0001:0001b854       $unwind$__scrt_initialize_crt 000000018001c854     LIBCMT:utility.obj
 0001:0001b854       $unwind$__scrt_initialize_onexit_tables 000000018001c854     LIBCMT:utility.obj
 0001:0001b854       $unwind$__scrt_release_startup_lock 000000018001c854     LIBCMT:utility.obj
 0001:0001b854       $unwind$__scrt_uninitialize_crt 000000018001c854     LIBCMT:utility.obj
 0001:0001b854       $unwind$__vcrt_uninitialize_locks 000000018001c854     libvcruntime:locks.obj
 0001:0001b854       $unwind$__vcrt_freeptd     000000018001c854     libvcruntime:per_thread_data.obj
 0001:0001b854       $unwind$__std_exception_destroy 000000018001c854     libvcruntime:std_exception.obj
 0001:0001b854       $unwind$__std_type_info_destroy_list 000000018001c854     libvcruntime:std_type_info.obj
 0001:0001b854       $unwind$__vcrt_FlsAlloc    000000018001c854     libvcruntime:winapi_downlevel.obj
 0001:0001b854       $unwind$__vcrt_FlsFree     000000018001c854     libvcruntime:winapi_downlevel.obj
 0001:0001b854       $unwind$__vcrt_FlsGetValue 000000018001c854     libvcruntime:winapi_downlevel.obj
 0001:0001b854       $unwind$_calloc_base       000000018001c854     libucrt:calloc_base.obj
 0001:0001b854       $unwind$_malloc_base       000000018001c854     libucrt:malloc_base.obj
 0001:0001b854       $unwind$_callnewh          000000018001c854     libucrt:new_handler.obj
 0001:0001b854       $unwind$initialize_pointers 000000018001c854     libucrt:initialization.obj
 0001:0001b854       $unwind$uninitialize_allocated_memory 000000018001c854     libucrt:initialization.obj
 0001:0001b854       $unwind$__acrt_initialize_locks 000000018001c854     libucrt:locks.obj
 0001:0001b854       $unwind$__acrt_uninitialize_locks 000000018001c854     libucrt:locks.obj
 0001:0001b854       $unwind$__acrt_freeptd     000000018001c854     libucrt:per_thread_data.obj
 0001:0001b854       $unwind$__acrt_getptd_head 000000018001c854     libucrt:per_thread_data.obj
 0001:0001b854       $unwind$__acrt_get_process_end_policy 000000018001c854     libucrt:win_policies.obj
 0001:0001b854       $unwind$__acrt_AppPolicyGetProcessTerminationMethodInternal 000000018001c854     libucrt:winapi_thunks.obj
 0001:0001b854       $unwind$__acrt_FlsAlloc    000000018001c854     libucrt:winapi_thunks.obj
 0001:0001b854       $unwind$__acrt_FlsFree     000000018001c854     libucrt:winapi_thunks.obj
 0001:0001b854       $unwind$__acrt_FlsGetValue 000000018001c854     libucrt:winapi_thunks.obj
 0001:0001b854       $unwind$__acrt_uninitialize_winapi_thunks 000000018001c854     libucrt:winapi_thunks.obj
 0001:0001b854       $unwind$__acrt_update_locale_info 000000018001c854     libucrt:locale_update.obj
 0001:0001b854       $unwind$__acrt_update_multibyte_info 000000018001c854     libucrt:locale_update.obj
 0001:0001b854       $unwind$__acrt_allocate_buffer_for_argv 000000018001c854     libucrt:argv_parsing.obj
 0001:0001b854       $unwind$?exit_or_terminate_process@@YAXI@Z 000000018001c854     libucrt:exit.obj
 0001:0001b854       $unwind$?try_cor_exit_process@@YAXI@Z 000000018001c854     libucrt:exit.obj
 0001:0001b854       $unwind$__acrt_uninitialize_stdio 000000018001c854     libucrt:_file.obj
 0001:0001b854       $unwind$__acrt_stdio_free_buffer_nolock 000000018001c854     libucrt:_freebuf.obj
 0001:0001b854       $unwind$_fflush_nolock     000000018001c854     libucrt:fflush.obj
 0001:0001b854       $unwind$strcpy_s           000000018001c854     libucrt:strcpy_s.obj
 0001:0001b854       $unwind$wcscpy_s           000000018001c854     libucrt:wcscpy_s.obj
 0001:0001b854       $unwind$_clrfp             000000018001c854     libucrt:fpctrl.obj
 0001:0001b854       $unwind$_set_statfp        000000018001c854     libucrt:fpctrl.obj
 0001:0001b85c       $unwind$?ItemWidth@PluginDialogBuilder@@CA_JAEBUFarDialogItem@@@Z 000000018001c85c     TmpCfg.obj
 0001:0001b85c       $unwind$ConfigureW         000000018001c85c     TmpPanel.obj
 0001:0001b85c       $unwind$GetFindDataW       000000018001c85c     TmpPanel.obj
 0001:0001b85c       $unwind$GetGlobalInfoW     000000018001c85c     TmpPanel.obj
 0001:0001b85c       $unwind$ProcessPanelEventW 000000018001c85c     TmpPanel.obj
 0001:0001b85c       $unwind$ProcessPanelInputW 000000018001c85c     TmpPanel.obj
 0001:0001b85c       $unwind$SetDirectoryW      000000018001c85c     TmpPanel.obj
 0001:0001b85c       $unwind$SetFindListW       000000018001c85c     TmpPanel.obj
 0001:0001b85c       $unwind$SetStartupInfoW    000000018001c85c     TmpPanel.obj
 0001:0001b85c       $unwind$__scrt_initialize_default_local_stdio_options 000000018001c85c     LIBCMT:default_local_stdio_options.obj
 0001:0001b85c       $unwind$?dllmain_crt_dispatch@@YAHQEAUHINSTANCE__@@KQEAX@Z 000000018001c85c     LIBCMT:dll_dllmain.obj
 0001:0001b85c       $unwind$__report_rangecheckfailure 000000018001c85c     LIBCMT:gs_report.obj
 0001:0001b85c       $unwind$__GSHandlerCheck   000000018001c85c     LIBCMT:gshandler.obj
 0001:0001b85c       $unwind$__scrt_acquire_startup_lock 000000018001c85c     LIBCMT:utility.obj
 0001:0001b85c       $unwind$__scrt_dllmain_after_initialize_c 000000018001c85c     LIBCMT:utility.obj
 0001:0001b85c       $unwind$__scrt_dllmain_before_initialize_c 000000018001c85c     LIBCMT:utility.obj
 0001:0001b85c       $unwind$__scrt_dllmain_crt_thread_attach 000000018001c85c     LIBCMT:utility.obj
 0001:0001b85c       $unwind$__scrt_dllmain_crt_thread_detach 000000018001c85c     LIBCMT:utility.obj
 0001:0001b85c       $unwind$__scrt_dllmain_uninitialize_c 000000018001c85c     LIBCMT:utility.obj
 0001:0001b85c       $unwind$__scrt_dllmain_uninitialize_critical 000000018001c85c     LIBCMT:utility.obj
 0001:0001b85c       $unwind$__vcrt_initialize  000000018001c85c     libvcruntime:initialization.obj
 0001:0001b85c       $unwind$__vcrt_thread_attach 000000018001c85c     libvcruntime:initialization.obj
 0001:0001b85c       $unwind$__vcrt_thread_detach 000000018001c85c     libvcruntime:initialization.obj
 0001:0001b85c       $unwind$__vcrt_uninitialize 000000018001c85c     libvcruntime:initialization.obj
 0001:0001b85c       $unwind$__vcrt_uninitialize_critical 000000018001c85c     libvcruntime:initialization.obj
 0001:0001b85c       $unwind$__vcrt_initialize_locks 000000018001c85c     libvcruntime:locks.obj
 0001:0001b85c       $unwind$__vcrt_freefls     000000018001c85c     libvcruntime:per_thread_data.obj
 0001:0001b85c       $unwind$__vcrt_getptd      000000018001c85c     libvcruntime:per_thread_data.obj
 0001:0001b85c       $unwind$__vcrt_initialize_ptd 000000018001c85c     libvcruntime:per_thread_data.obj
 0001:0001b85c       $unwind$__vcrt_uninitialize_ptd 000000018001c85c     libvcruntime:per_thread_data.obj
 0001:0001b85c       $unwind$__dcrt_terminate_console_output 000000018001c85c     libucrt:initcon.obj
 0001:0001b85c       $unwind$??$uninitialize_environment_internal@D@@YAXAEAPEAPEAD@Z 000000018001c85c     libucrt:environment_initialization.obj
 0001:0001b85c       $unwind$??$uninitialize_environment_internal@_W@@YAXAEAPEAPEA_W@Z 000000018001c85c     libucrt:environment_initialization.obj
 0001:0001b85c       $unwind$__dcrt_uninitialize_environments_nolock 000000018001c85c     libucrt:environment_initialization.obj
 0001:0001b85c       $unwind$__acrt_initialize_heap 000000018001c85c     libucrt:heap_handle.obj
 0001:0001b85c       $unwind$_msize_base        000000018001c85c     libucrt:msize.obj
 0001:0001b85c       $unwind$?initialize_multibyte@@YAHXZ 000000018001c85c     libucrt:multibyte_initializer.obj
 0001:0001b85c       $unwind$__acrt_thread_attach 000000018001c85c     libucrt:initialization.obj
 0001:0001b85c       $unwind$__acrt_thread_detach 000000018001c85c     libucrt:initialization.obj
 0001:0001b85c       $unwind$__acrt_uninitialize 000000018001c85c     libucrt:initialization.obj
 0001:0001b85c       $unwind$__acrt_uninitialize_critical 000000018001c85c     libucrt:initialization.obj
 0001:0001b85c       $unwind$initialize_c       000000018001c85c     libucrt:initialization.obj
 0001:0001b85c       $unwind$uninitialize_allocated_io_buffers 000000018001c85c     libucrt:initialization.obj
 0001:0001b85c       $unwind$uninitialize_environment 000000018001c85c     libucrt:initialization.obj
 0001:0001b85c       $unwind$__acrt_initialize_ptd 000000018001c85c     libucrt:per_thread_data.obj
 0001:0001b85c       $unwind$__acrt_uninitialize_ptd 000000018001c85c     libucrt:per_thread_data.obj
 0001:0001b85c       $unwind$__acrt_AreFileApisANSI 000000018001c85c     libucrt:winapi_thunks.obj
 0001:0001b85c       $unwind$__pctype_func      000000018001c85c     libucrt:ctype.obj
 0001:0001b85c       $unwind$__acrt_release_locale_ref 000000018001c85c     libucrt:locale_refcounting.obj
 0001:0001b85c       $unwind$_isatty            000000018001c85c     libucrt:isatty.obj
 0001:0001b85c       $unwind$_get_osfhandle     000000018001c85c     libucrt:osfinfo.obj
 0001:0001b85c       $unwind$__acrt_initialize_multibyte 000000018001c85c     libucrt:mbctype.obj
 0001:0001b85c       $unwind$__acrt_update_thread_multibyte_data 000000018001c85c     libucrt:mbctype.obj
 0001:0001b85c       $unwind$__doserrno         000000018001c85c     libucrt:errno.obj
 0001:0001b85c       $unwind$_errno             000000018001c85c     libucrt:errno.obj
 0001:0001b85c       $unwind$_invoke_watson     000000018001c85c     libucrt:invalid_parameter.obj
 0001:0001b85c       $unwind$abort              000000018001c85c     libucrt:abort.obj
 0001:0001b85c       $unwind$__acrt_initialize_command_line 000000018001c85c     libucrt:argv_data.obj
 0001:0001b85c       $unwind$_fileno            000000018001c85c     libucrt:fileno.obj
 0001:0001b85c       $unwind$_statfp            000000018001c85c     libucrt:fpctrl.obj
 0001:0001b85c       $unwind$_set_errno_from_matherr 000000018001c85c     libucrt:fpexcept.obj
 0001:0001b864       $unwind$??0TmpPanel@@QEAA@PEB_W@Z 000000018001c864     TmpClass.obj
 0001:0001b864       $unwind$?SetDirectory@TmpPanel@@QEAAHPEB_W_K@Z 000000018001c864     TmpClass.obj
 0001:0001b864       $unwind$?SortListCmp@@YAHPEBX0PEAX@Z 000000018001c864     TmpClass.obj
 0001:0001b864       $unwind$?Grow@StrBuf@@QEAAX_K@Z 000000018001c864     TmpMix.obj
 0001:0001b864       $unwind$?ParseParam@@YAPEA_WAEAPEA_W@Z 000000018001c864     TmpMix.obj
 0001:0001b864       $unwind$ExitFARW           000000018001c864     TmpPanel.obj
 0001:0001b864       $unwind$GetPluginInfoW     000000018001c864     TmpPanel.obj
 0001:0001b864       $unwind$_RTC_Initialize    000000018001c864     LIBCMT:initsect.obj
 0001:0001b864       $unwind$_RTC_Terminate     000000018001c864     LIBCMT:initsect.obj
 0001:0001b864       $unwind$??_Gbad_alloc@std@@UEAAPEAXI@Z 000000018001c864     LIBCMT:throw_bad_alloc.obj
 0001:0001b864       $unwind$??_Gbad_array_new_length@std@@UEAAPEAXI@Z 000000018001c864     LIBCMT:throw_bad_alloc.obj
 0001:0001b864       $unwind$??_Gexception@std@@UEAAPEAXI@Z 000000018001c864     LIBCMT:throw_bad_alloc.obj
 0001:0001b864       $unwind$__vcrt_FlsSetValue 000000018001c864     libvcruntime:winapi_downlevel.obj
 0001:0001b864       $unwind$??$common_initialize_environment_nolock@D@@YAHXZ 000000018001c864     libucrt:environment_initialization.obj
 0001:0001b864       $unwind$_realloc_base      000000018001c864     libucrt:realloc_base.obj
 0001:0001b864       $unwind$?replace_current_thread_locale_nolock@@YAXQEAU__acrt_ptd@@QEAU__crt_locale_data@@@Z 000000018001c864     libucrt:per_thread_data.obj
 0001:0001b864       $unwind$__acrt_execute_uninitializers 000000018001c864     libucrt:shared_initialization.obj
 0001:0001b864       $unwind$__acrt_FlsSetValue 000000018001c864     libucrt:winapi_thunks.obj
 0001:0001b864       $unwind$__acrt_LocaleNameToLCID 000000018001c864     libucrt:winapi_thunks.obj
 0001:0001b864       $unwind$_updatetlocinfoEx_nolock 000000018001c864     libucrt:locale_refcounting.obj
 0001:0001b864       $unwind$_close_nolock      000000018001c864     libucrt:close.obj
 0001:0001b864       $unwind$__acrt_uninitialize_lowio 000000018001c864     libucrt:ioinit.obj
 0001:0001b864       $unwind$__acrt_errno_map_os_error 000000018001c864     libucrt:errno.obj
 0001:0001b864       $unwind$_initterm_e        000000018001c864     libucrt:initterm.obj
 0001:0001b864       $unwind$_fclose_nolock     000000018001c864     libucrt:fclose.obj
 0001:0001b864       $unwind$strncpy_s          000000018001c864     libucrt:strncpy_s.obj
 0001:0001b870       $unwind$OpenW              000000018001c870     TmpPanel.obj
 0001:0001b880       $chain$0$OpenW             000000018001c880     TmpPanel.obj
 0001:0001b894       $chain$3$OpenW             000000018001c894     TmpPanel.obj
 0001:0001b8b0       $chain$4$OpenW             000000018001c8b0     TmpPanel.obj
 0001:0001b8c0       $chain$5$OpenW             000000018001c8c0     TmpPanel.obj
 0001:0001b8d0       $unwind$PutFilesW          000000018001c8d0     TmpPanel.obj
 0001:0001b8d0       $unwind$_invalid_parameter_noinfo 000000018001c8d0     libucrt:invalid_parameter.obj
 0001:0001b8d0       $unwind$_log10_special     000000018001c8d0     libucrt:log_special.obj
 0001:0001b8d8       $unwind$?ProcessList@@YAXPEAXPEA_WH@Z 000000018001c8d8     TmpPanel.obj
 0001:0001b8ec       $unwind$?ShowMenuFromList@@YAXPEA_W@Z 000000018001c8ec     TmpPanel.obj
 0001:0001b8f8       $chain$1$?ShowMenuFromList@@YAXPEA_W@Z 000000018001c8f8     TmpPanel.obj
 0001:0001b910       $chain$3$?ShowMenuFromList@@YAXPEA_W@Z 000000018001c910     TmpPanel.obj
 0001:0001b928       $chain$5$?ShowMenuFromList@@YAXPEA_W@Z 000000018001c928     TmpPanel.obj
 0001:0001b940       $chain$6$?ShowMenuFromList@@YAXPEA_W@Z 000000018001c940     TmpPanel.obj
 0001:0001b954       $chain$7$?ShowMenuFromList@@YAXPEA_W@Z 000000018001c954     TmpPanel.obj
 0001:0001b964       $chain$8$?ShowMenuFromList@@YAXPEA_W@Z 000000018001c964     TmpPanel.obj
 0001:0001b974       $unwind$?OpenPanelFromOutput@@YAPEAXPEA_W@Z 000000018001c974     TmpPanel.obj
 0001:0001b988       $chain$1$?OpenPanelFromOutput@@YAPEAXPEA_W@Z 000000018001c988     TmpPanel.obj
 0001:0001b9a0       $chain$2$?OpenPanelFromOutput@@YAPEAXPEA_W@Z 000000018001c9a0     TmpPanel.obj
 0001:0001b9b4       $chain$3$?OpenPanelFromOutput@@YAPEAXPEA_W@Z 000000018001c9b4     TmpPanel.obj
 0001:0001b9c4       $chain$4$?OpenPanelFromOutput@@YAPEAXPEA_W@Z 000000018001c9c4     TmpPanel.obj
 0001:0001b9d4       $unwind$?ReadFileLines@@YAXPEAXKPEAPEA_WPEA_WPEAI3@Z 000000018001c9d4     TmpPanel.obj
 0001:0001b9e8       $chain$1$?ReadFileLines@@YAXPEAXKPEAPEA_WPEA_WPEAI3@Z 000000018001c9e8     TmpPanel.obj
 0001:0001ba00       $chain$2$?ReadFileLines@@YAXPEAXKPEAPEA_WPEA_WPEAI3@Z 000000018001ca00     TmpPanel.obj
 0001:0001ba10       $unwind$?ReadFileList@@YAXPEA_WPEAHPEAPEAPEA_W@Z 000000018001ca10     TmpPanel.obj
 0001:0001ba20       $chain$0$?ReadFileList@@YAXPEA_WPEAHPEAPEAPEA_W@Z 000000018001ca20     TmpPanel.obj
 0001:0001ba34       $chain$1$?ReadFileList@@YAXPEA_WPEAHPEAPEAPEA_W@Z 000000018001ca34     TmpPanel.obj
 0001:0001ba44       $unwind$?AddCheckbox@PluginDialogBuilder@@QEAAPEAUFarDialogItem@@HPEAHH_N@Z 000000018001ca44     TmpCfg.obj
 0001:0001ba44       $unwind$__std_exception_copy 000000018001ca44     libvcruntime:std_exception.obj
 0001:0001ba44       $unwind$_free_osfhnd       000000018001ca44     libucrt:osfinfo.obj
 0001:0001ba58       $unwind$?AddEditField@PluginDialogBuilder@@QEAAPEAUFarDialogItem@@PEA_WHHPEB_W_N@Z 000000018001ca58     TmpCfg.obj
 0001:0001ba70       $chain$0$?EndColumns@PluginDialogBuilder@@QEAAXXZ 000000018001ca70     TmpCfg.obj
 0001:0001ba84       $chain$2$?EndColumns@PluginDialogBuilder@@QEAAXXZ 000000018001ca84     TmpCfg.obj
 0001:0001ba9c       $chain$3$?EndColumns@PluginDialogBuilder@@QEAAXXZ 000000018001ca9c     TmpCfg.obj
 0001:0001baac       $chain$4$?EndColumns@PluginDialogBuilder@@QEAAXXZ 000000018001caac     TmpCfg.obj
 0001:0001babc       $unwind$?AddButtons@PluginDialogBuilder@@QEAAXHPEBHHH@Z 000000018001cabc     TmpCfg.obj
 0001:0001bac8       $chain$4$?AddButtons@PluginDialogBuilder@@QEAAXHPEBHHH@Z 000000018001cac8     TmpCfg.obj
 0001:0001baec       $chain$5$?AddButtons@PluginDialogBuilder@@QEAAXHPEBHHH@Z 000000018001caec     TmpCfg.obj
 0001:0001bafc       $unwind$?ShowDialogEx@PluginDialogBuilder@@QEAA_JXZ 000000018001cafc     TmpCfg.obj
 0001:0001bb08       $chain$4$?ShowDialogEx@PluginDialogBuilder@@QEAA_JXZ 000000018001cb08     TmpCfg.obj
 0001:0001bb2c       $chain$6$?ShowDialogEx@PluginDialogBuilder@@QEAA_JXZ 000000018001cb2c     TmpCfg.obj
 0001:0001bb44       $chain$7$?ShowDialogEx@PluginDialogBuilder@@QEAA_JXZ 000000018001cb44     TmpCfg.obj
 0001:0001bb58       $chain$8$?ShowDialogEx@PluginDialogBuilder@@QEAA_JXZ 000000018001cb58     TmpCfg.obj
 0001:0001bb68       $unwind$?AddDialogItem@PluginDialogBuilder@@AEAAPEAUFarDialogItem@@W4FARDIALOGITEMTYPES@@PEB_W@Z 000000018001cb68     TmpCfg.obj
 0001:0001bb78       $chain$0$?AddDialogItem@PluginDialogBuilder@@AEAAPEAUFarDialogItem@@W4FARDIALOGITEMTYPES@@PEB_W@Z 000000018001cb78     TmpCfg.obj
 0001:0001bb8c       $chain$1$?AddDialogItem@PluginDialogBuilder@@AEAAPEAUFarDialogItem@@W4FARDIALOGITEMTYPES@@PEB_W@Z 000000018001cb8c     TmpCfg.obj
 0001:0001bba0       $chain$2$?AddDialogItem@PluginDialogBuilder@@AEAAPEAUFarDialogItem@@W4FARDIALOGITEMTYPES@@PEB_W@Z 000000018001cba0     TmpCfg.obj
 0001:0001bbb0       $chain$3$?AddDialogItem@PluginDialogBuilder@@AEAAPEAUFarDialogItem@@W4FARDIALOGITEMTYPES@@PEB_W@Z 000000018001cbb0     TmpCfg.obj
 0001:0001bbc0       $unwind$?Config@@YAHXZ     000000018001cbc0     TmpCfg.obj
 0001:0001bbe0       $unwind$?GetOptions@@YAXXZ 000000018001cbe0     TmpCfg.obj
 0001:0001bbf4       $unwind$?RemoveDups@TmpPanel@@AEAAXXZ 000000018001cbf4     TmpClass.obj
 0001:0001bc00       $chain$1$?RemoveDups@TmpPanel@@AEAAXXZ 000000018001cc00     TmpClass.obj
 0001:0001bc18       $chain$2$?RemoveDups@TmpPanel@@AEAAXXZ 000000018001cc18     TmpClass.obj
 0001:0001bc28       $unwind$?RemoveEmptyItems@TmpPanel@@AEAAXXZ 000000018001cc28     TmpClass.obj
 0001:0001bc30       $chain$3$?RemoveEmptyItems@TmpPanel@@AEAAXXZ 000000018001cc30     TmpClass.obj
 0001:0001bc50       $chain$4$?RemoveEmptyItems@TmpPanel@@AEAAXXZ 000000018001cc50     TmpClass.obj
 0001:0001bc64       $chain$5$?RemoveEmptyItems@TmpPanel@@AEAAXXZ 000000018001cc64     TmpClass.obj
 0001:0001bc74       $chain$6$?RemoveEmptyItems@TmpPanel@@AEAAXXZ 000000018001cc74     TmpClass.obj
 0001:0001bc84       $unwind$?UpdateItems@TmpPanel@@AEAAXHH@Z 000000018001cc84     TmpClass.obj
 0001:0001bc94       $chain$2$?UpdateItems@TmpPanel@@AEAAXHH@Z 000000018001cc94     TmpClass.obj
 0001:0001bcb0       $chain$3$?UpdateItems@TmpPanel@@AEAAXHH@Z 000000018001ccb0     TmpClass.obj
 0001:0001bcc4       $chain$4$?UpdateItems@TmpPanel@@AEAAXHH@Z 000000018001ccc4     TmpClass.obj
 0001:0001bcd4       $chain$5$?UpdateItems@TmpPanel@@AEAAXHH@Z 000000018001ccd4     TmpClass.obj
 0001:0001bce4       $unwind$?ProcessSaveListKey@TmpPanel@@AEAAXXZ 000000018001cce4     TmpClass.obj
 0001:0001bcf0       $chain$4$?ProcessSaveListKey@TmpPanel@@AEAAXXZ 000000018001ccf0     TmpClass.obj
 0001:0001bd14       $chain$5$?ProcessSaveListKey@TmpPanel@@AEAAXXZ 000000018001cd14     TmpClass.obj
 0001:0001bd30       $chain$6$?ProcessSaveListKey@TmpPanel@@AEAAXXZ 000000018001cd30     TmpClass.obj
 0001:0001bd40       $unwind$?SwitchToPanel@TmpPanel@@AEAAXH@Z 000000018001cd40     TmpClass.obj
 0001:0001bd4c       $chain$0$?SwitchToPanel@TmpPanel@@AEAAXH@Z 000000018001cd4c     TmpClass.obj
 0001:0001bd60       $chain$1$?SwitchToPanel@TmpPanel@@AEAAXH@Z 000000018001cd60     TmpClass.obj
 0001:0001bd70       $unwind$?SaveListFile@TmpPanel@@AEAAXPEB_W@Z 000000018001cd70     TmpClass.obj
 0001:0001bd78       $chain$1$?SaveListFile@TmpPanel@@AEAAXPEB_W@Z 000000018001cd78     TmpClass.obj
 0001:0001bd90       $chain$5$?SaveListFile@TmpPanel@@AEAAXPEB_W@Z 000000018001cd90     TmpClass.obj
 0001:0001bdb0       $chain$6$?SaveListFile@TmpPanel@@AEAAXPEB_W@Z 000000018001cdb0     TmpClass.obj
 0001:0001bdc0       $chain$7$?SaveListFile@TmpPanel@@AEAAXPEB_W@Z 000000018001cdc0     TmpClass.obj
 0001:0001bdd0       $unwind$?IsCurrentFileCorrect@TmpPanel@@AEAA_NPEAPEA_W@Z 000000018001cdd0     TmpClass.obj
 0001:0001bde8       $unwind$?GetFindData@TmpPanel@@QEAAHPEAPEAUPluginPanelItem@@PEA_K_K@Z 000000018001cde8     TmpClass.obj
 0001:0001be00       $unwind$?GetOpenPanelInfo@TmpPanel@@QEAAXPEAUOpenPanelInfo@@@Z 000000018001ce00     TmpClass.obj
 0001:0001be14       $chain$0$?GetOpenPanelInfo@TmpPanel@@QEAAXPEAUOpenPanelInfo@@@Z 000000018001ce14     TmpClass.obj
 0001:0001be28       $chain$1$?GetOpenPanelInfo@TmpPanel@@QEAAXPEAUOpenPanelInfo@@@Z 000000018001ce28     TmpClass.obj
 0001:0001be38       $unwind$?PutFiles@TmpPanel@@QEAAHPEAUPluginPanelItem@@_KHPEB_W_K@Z 000000018001ce38     TmpClass.obj
 0001:0001be38       $unwind$?try_get_function@@YAPEAXW4function_id@?A0x81a78551@@QEBDQEBW4module_id@2@2@Z 000000018001ce38     libvcruntime:winapi_downlevel.obj
 0001:0001be38       $unwind$?try_get_function@@YAPEAXW4function_id@?A0x391cf84c@@QEBDQEBW4module_id@2@2@Z 000000018001ce38     libucrt:winapi_thunks.obj
 0001:0001be54       $unwind$?BeginPutFiles@TmpPanel@@QEAAPEAXXZ 000000018001ce54     TmpClass.obj
 0001:0001be5c       $unwind$?PutDirectoryContents@TmpPanel@@QEAAHPEB_W@Z 000000018001ce5c     TmpClass.obj
 0001:0001be68       $chain$0$?PutDirectoryContents@TmpPanel@@QEAAHPEB_W@Z 000000018001ce68     TmpClass.obj
 0001:0001be7c       $chain$1$?PutDirectoryContents@TmpPanel@@QEAAHPEB_W@Z 000000018001ce7c     TmpClass.obj
 0001:0001be90       $chain$2$?PutDirectoryContents@TmpPanel@@QEAAHPEB_W@Z 000000018001ce90     TmpClass.obj
 0001:0001bea0       $chain$3$?PutDirectoryContents@TmpPanel@@QEAAHPEB_W@Z 000000018001cea0     TmpClass.obj
 0001:0001beb0       $unwind$?PutOneFile@TmpPanel@@QEAAHPEB_W@Z 000000018001ceb0     TmpClass.obj
 0001:0001bebc       $chain$0$?PutOneFile@TmpPanel@@QEAAHPEB_W@Z 000000018001cebc     TmpClass.obj
 0001:0001bed0       $chain$2$?PutOneFile@TmpPanel@@QEAAHPEB_W@Z 000000018001ced0     TmpClass.obj
 0001:0001bee4       $unwind$?SetFindList@TmpPanel@@QEAAHPEBUPluginPanelItem@@_K@Z 000000018001cee4     TmpClass.obj
 0001:0001befc       $chain$0$?SetFindList@TmpPanel@@QEAAHPEBUPluginPanelItem@@_K@Z 000000018001cefc     TmpClass.obj
 0001:0001bf10       $chain$1$?SetFindList@TmpPanel@@QEAAHPEBUPluginPanelItem@@_K@Z 000000018001cf10     TmpClass.obj
 0001:0001bf20       $unwind$?ProcessEvent@TmpPanel@@QEAAH_JPEAX@Z 000000018001cf20     TmpClass.obj
 0001:0001bf28       $chain$1$?ProcessEvent@TmpPanel@@QEAAH_JPEAX@Z 000000018001cf28     TmpClass.obj
 0001:0001bf40       $chain$2$?ProcessEvent@TmpPanel@@QEAAH_JPEAX@Z 000000018001cf40     TmpClass.obj
 0001:0001bf54       $chain$3$?ProcessEvent@TmpPanel@@QEAAH_JPEAX@Z 000000018001cf54     TmpClass.obj
 0001:0001bf64       $chain$4$?ProcessEvent@TmpPanel@@QEAAH_JPEAX@Z 000000018001cf64     TmpClass.obj
 0001:0001bf74       $unwind$?ProcessKey@TmpPanel@@QEAAHPEBU_INPUT_RECORD@@@Z 000000018001cf74     TmpClass.obj
 0001:0001bf90       $chain$0$?ProcessKey@TmpPanel@@QEAAHPEBU_INPUT_RECORD@@@Z 000000018001cf90     TmpClass.obj
 0001:0001bfa4       $chain$1$?ProcessKey@TmpPanel@@QEAAHPEBU_INPUT_RECORD@@@Z 000000018001cfa4     TmpClass.obj
 0001:0001bfb4       $unwind$?GetFileInfoAndValidate@TmpPanel@@SA_NPEB_WPEAUPluginPanelItem@@H@Z 000000018001cfb4     TmpClass.obj
 0001:0001bfd0       $unwind$?Replace@SimpleString@@QEAAAEAV1@_K0PEB_W0@Z 000000018001cfd0     TmpClass.obj
 0001:0001bfe0       $chain$1$?Replace@SimpleString@@QEAAAEAV1@_K0PEB_W0@Z 000000018001cfe0     TmpClass.obj
 0001:0001bff8       $chain$2$?Replace@SimpleString@@QEAAAEAV1@_K0PEB_W0@Z 000000018001cff8     TmpClass.obj
 0001:0001c00c       $chain$3$?Replace@SimpleString@@QEAAAEAV1@_K0PEB_W0@Z 000000018001d00c     TmpClass.obj
 0001:0001c01c       $chain$4$?Replace@SimpleString@@QEAAAEAV1@_K0PEB_W0@Z 000000018001d01c     TmpClass.obj
 0001:0001c02c       $unwind$?GoToFile@@YAXPEB_WH@Z 000000018001d02c     TmpMix.obj
 0001:0001c04c       $unwind$?FreePanelItems@@YAXPEAUPluginPanelItem@@_K@Z 000000018001d04c     TmpMix.obj
 0001:0001c058       $chain$0$?FreePanelItems@@YAXPEAUPluginPanelItem@@_K@Z 000000018001d058     TmpMix.obj
 0001:0001c06c       $chain$1$?FreePanelItems@@YAXPEAUPluginPanelItem@@_K@Z 000000018001d06c     TmpMix.obj
 0001:0001c07c       $unwind$?IsTextUTF8@@YA_NPEBD_K@Z 000000018001d07c     TmpMix.obj
 0001:0001c088       $chain$1$?FormNtPath@@YAPEA_WPEB_WAEAVStrBuf@@@Z 000000018001d088     TmpMix.obj
 0001:0001c0a0       $chain$2$?FormNtPath@@YAPEA_WPEB_WAEAVStrBuf@@@Z 000000018001d0a0     TmpMix.obj
 0001:0001c0b0       $unwind$?ExpandEnvStrs@@YAPEA_WPEB_WAEAVStrBuf@@@Z 000000018001d0b0     TmpMix.obj
 0001:0001c0b0       $unwind$?GetFullPath@@YAPEA_WPEB_WAEAVStrBuf@@@Z 000000018001d0b0     TmpMix.obj
 0001:0001c0b0       $unwind$__scrt_dllmain_exception_filter 000000018001d0b0     LIBCMT:utility.obj
 0001:0001c0b0       $unwind$_recalloc_base     000000018001d0b0     libucrt:recalloc.obj
 0001:0001c0b0       $unwind$__acrt_free_locale 000000018001d0b0     libucrt:locale_refcounting.obj
 0001:0001c0b0       $unwind$__acrt_lowio_create_handle_array 000000018001d0b0     libucrt:osfinfo.obj
 0001:0001c0b0       $unwind$?setSBCS@@YAXPEAU__crt_multibyte_data@@@Z 000000018001d0b0     libucrt:mbctype.obj
 0001:0001c0b0       $unwind$_seh_filter_exe    000000018001d0b0     libucrt:exception_filter.obj
 0001:0001c0b0       $unwind$_initterm          000000018001d0b0     libucrt:initterm.obj
 0001:0001c0c4       $unwind$?FindListFile@@YA_NPEB_WAEAVStrBuf@@@Z 000000018001d0c4     TmpMix.obj
 0001:0001c0c4       $unwind$??$copy_and_add_argument_to_buffer@D@@YAHQEBD0_KAEAV?$argument_list@D@?A0x5f5c8891@@@Z 000000018001d0c4     libucrt:argv_wildcards.obj
 0001:0001c0e0       $unwind$?dllmain_crt_process_attach@@YAHQEAUHINSTANCE__@@QEAX@Z 000000018001d0e0     LIBCMT:dll_dllmain.obj
 0001:0001c11c       $unwind$?fin$0@?0??dllmain_crt_process_attach@@YAHQEAUHINSTANCE__@@QEAX@Z@4HA 000000018001d11c     LIBCMT:dll_dllmain.obj
 0001:0001c11c       $unwind$?fin$0@?0??dllmain_crt_process_detach@@YAH_N@Z@4HA 000000018001d11c     LIBCMT:dll_dllmain.obj
 0001:0001c11c       $unwind$?fin$1@?0??dllmain_crt_process_detach@@YAH_N@Z@4HA 000000018001d11c     LIBCMT:dll_dllmain.obj
 0001:0001c11c       $unwind$_IsNonwritableInCurrentImage$filt$0 000000018001d11c     LIBCMT:pesect.obj
 0001:0001c11c       $unwind$_query_new_handler$fin$0 000000018001d11c     libucrt:new_handler.obj
 0001:0001c11c       $unwind$?fin$0@?0???$?RV<lambda_0ae27a3a962d80f24befdcbee591983d>@@AEAV<lambda_8d0ee55de4b1038c4002e0adecdf1839>@@V<lambda_dc504788e8f1664fe9b84e20bfb512f2>@@@?$__crt_seh_guarded_call@X@@QEAAX$$QEAV<lambda_0ae27a3a962d80f24befdcbee591983d>@@AEAV<lambda_8d0ee55de4b1038c4002e0adecdf1839>@@$$QEAV<lambda_dc504788e8f1664fe9b84e20bfb512f2>@@@Z@4HA 000000018001d11c     libucrt:per_thread_data.obj
 0001:0001c11c       $unwind$?fin$0@?0???$?RV<lambda_2d41944a1d46af3157314b8a01080d33>@@AEAV<lambda_8f455de75cd7d7f24b4096f044d8b9e6>@@V<lambda_aa500f224e6afead328df44964fe2772>@@@?$__crt_seh_guarded_call@X@@QEAAX$$QEAV<lambda_2d41944a1d46af3157314b8a01080d33>@@AEAV<lambda_8f455de75cd7d7f24b4096f044d8b9e6>@@$$QEAV<lambda_aa500f224e6afead328df44964fe2772>@@@Z@4HA 000000018001d11c     libucrt:per_thread_data.obj
 0001:0001c11c       $unwind$?fin$0@?0???$?RV<lambda_aa87e3671a710a21b5dc78c0bdf72e11>@@AEAV<lambda_92619d2358a28f41a33ba319515a20b9>@@V<lambda_6992ecaafeb10aed2b74cb1fae11a551>@@@?$__crt_seh_guarded_call@X@@QEAAX$$QEAV<lambda_aa87e3671a710a21b5dc78c0bdf72e11>@@AEAV<lambda_92619d2358a28f41a33ba319515a20b9>@@$$QEAV<lambda_6992ecaafeb10aed2b74cb1fae11a551>@@@Z@4HA 000000018001d11c     libucrt:per_thread_data.obj
 0001:0001c11c       $unwind$?fin$0@?0???$?RV<lambda_f2e299630e499de9f9a165e60fcd3db5>@@AEAV<lambda_2ae9d31cdba2644fcbeaf08da7c24588>@@V<lambda_40d01ff24d0e7b3814fdbdcee8eab3c7>@@@?$__crt_seh_guarded_call@X@@QEAAX$$QEAV<lambda_f2e299630e499de9f9a165e60fcd3db5>@@AEAV<lambda_2ae9d31cdba2644fcbeaf08da7c24588>@@$$QEAV<lambda_40d01ff24d0e7b3814fdbdcee8eab3c7>@@@Z@4HA 000000018001d11c     libucrt:per_thread_data.obj
 0001:0001c11c       $unwind$__acrt_update_thread_locale_data$fin$0 000000018001d11c     libucrt:locale_refcounting.obj
 0001:0001c11c       $unwind$?fin$0@?0???$?RV<lambda_410d79af7f07d98d83a3f525b3859a53>@@AEAV<lambda_3e16ef9562a7dcce91392c22ab16ea36>@@V<lambda_38119f0e861e05405d8a144b9b982f0a>@@@?$__crt_seh_guarded_call@X@@QEAAX$$QEAV<lambda_410d79af7f07d98d83a3f525b3859a53>@@AEAV<lambda_3e16ef9562a7dcce91392c22ab16ea36>@@$$QEAV<lambda_38119f0e861e05405d8a144b9b982f0a>@@@Z@4HA 000000018001d11c     libucrt:wsetlocale.obj
 0001:0001c11c       $unwind$?fin$0@?0???$?RV<lambda_751a882b2c74d4b022dec766aa51a29a>@@AEAV<lambda_628dfdc04ba53c8bfc02c9951375f3f5>@@V<lambda_f6c7be5f7998530c34de24c7437d6b54>@@@?$__crt_seh_guarded_call@H@@QEAAH$$QEAV<lambda_751a882b2c74d4b022dec766aa51a29a>@@AEAV<lambda_628dfdc04ba53c8bfc02c9951375f3f5>@@$$QEAV<lambda_f6c7be5f7998530c34de24c7437d6b54>@@@Z@4HA 000000018001d11c     libucrt:close.obj
 0001:0001c11c       $unwind$?fin$0@?0???$?RV<lambda_a37b2b86f63e897a80ea819b0eb08c01>@@AEAV<lambda_38ce7e780aa69e748d6df282ebc68efe>@@V<lambda_99fb1378e971ab6e7edea83e3a7a83a2>@@@?$__crt_seh_guarded_call@H@@QEAAH$$QEAV<lambda_a37b2b86f63e897a80ea819b0eb08c01>@@AEAV<lambda_38ce7e780aa69e748d6df282ebc68efe>@@$$QEAV<lambda_99fb1378e971ab6e7edea83e3a7a83a2>@@@Z@4HA 000000018001d11c     libucrt:commit.obj
 0001:0001c11c       $unwind$__acrt_initialize_lowio$fin$0 000000018001d11c     libucrt:ioinit.obj
 0001:0001c11c       $unwind$__acrt_lowio_ensure_fh_exists$fin$0 000000018001d11c     libucrt:osfinfo.obj
 0001:0001c11c       $unwind$_write$fin$0       000000018001d11c     libucrt:write.obj
 0001:0001c11c       $unwind$?fin$0@?0???$?RV<lambda_efdfa57d1f175319df784efa44bb7b81>@@AEAV<lambda_5f0a4c1567f8adc6734073e5d1e1b35c>@@V<lambda_2e8a7d3640ea6ccb4c2413664c2db6fd>@@@?$__crt_seh_guarded_call@X@@QEAAX$$QEAV<lambda_efdfa57d1f175319df784efa44bb7b81>@@AEAV<lambda_5f0a4c1567f8adc6734073e5d1e1b35c>@@$$QEAV<lambda_2e8a7d3640ea6ccb4c2413664c2db6fd>@@@Z@4HA 000000018001d11c     libucrt:mbctype.obj
 0001:0001c11c       $unwind$?fin$0@?0??update_thread_multibyte_data_internal@@YAPEAU__crt_multibyte_data@@QEAU__acrt_ptd@@QEAPEAU1@@Z@4HA 000000018001d11c     libucrt:mbctype.obj
 0001:0001c11c       $unwind$?fin$0@?0???$?RV<lambda_450d765d439847d4c735a33c368b5fc0>@@AEAV<lambda_44731a7d0e6d81c3e6aa82d741081786>@@V<lambda_601a2a7da3b7a96e9554ac7215c4b07c>@@@?$__crt_seh_guarded_call@P6AXH@Z@@QEAAP6AXH@Z$$QEAV<lambda_450d765d439847d4c735a33c368b5fc0>@@AEAV<lambda_44731a7d0e6d81c3e6aa82d741081786>@@$$QEAV<lambda_601a2a7da3b7a96e9554ac7215c4b07c>@@@Z@4HA 000000018001d11c     libucrt:signal.obj
 0001:0001c11c       $unwind$raise$fin$0        000000018001d11c     libucrt:signal.obj
 0001:0001c11c       $unwind$?filt$0@?0???R<lambda_6e4b09c48022b2350581041d5f6b0c4c>@@QEBA@XZ@4HA 000000018001d11c     libucrt:exit.obj
 0001:0001c11c       $unwind$?fin$0@?0???$?RV<lambda_d80eeec6fff315bfe5c115232f3240e3>@@AEAV<lambda_6e4b09c48022b2350581041d5f6b0c4c>@@V<lambda_2358e3775559c9db80273638284d5e45>@@@?$__crt_seh_guarded_call@X@@QEAAX$$QEAV<lambda_d80eeec6fff315bfe5c115232f3240e3>@@AEAV<lambda_6e4b09c48022b2350581041d5f6b0c4c>@@$$QEAV<lambda_2358e3775559c9db80273638284d5e45>@@@Z@4HA 000000018001d11c     libucrt:exit.obj
 0001:0001c11c       $unwind$?fin$0@?0???$?RV<lambda_7777bce6b2f8c936911f934f8298dc43>@@AEAV<lambda_f03950bc5685219e0bcd2087efbe011e>@@V<lambda_3883c3dff614d5e0c5f61bb1ac94921c>@@@?$__crt_seh_guarded_call@H@@QEAAH$$QEAV<lambda_7777bce6b2f8c936911f934f8298dc43>@@AEAV<lambda_f03950bc5685219e0bcd2087efbe011e>@@$$QEAV<lambda_3883c3dff614d5e0c5f61bb1ac94921c>@@@Z@4HA 000000018001d11c     libucrt:onexit.obj
 0001:0001c11c       $unwind$_fcloseall$fin$0   000000018001d11c     libucrt:closeall.obj
 0001:0001c11c       $unwind$fclose$fin$0       000000018001d11c     libucrt:fclose.obj
 0001:0001c11c       $unwind$?fin$0@?0???$?RV<lambda_842d9ff0dc9ef11c61343bbaebe7f885>@@AEAV<lambda_c5860995281e5c4ce005b3de8f5874ee>@@V<lambda_d90129c13df834fdcbf8d2b88dafcf2d>@@@?$__crt_seh_guarded_call@X@@QEAAX$$QEAV<lambda_842d9ff0dc9ef11c61343bbaebe7f885>@@AEAV<lambda_c5860995281e5c4ce005b3de8f5874ee>@@$$QEAV<lambda_d90129c13df834fdcbf8d2b88dafcf2d>@@@Z@4HA 000000018001d11c     libucrt:fflush.obj
 0001:0001c11c       $unwind$?fin$0@?0???$?RV<lambda_886d6c58226a84441f68b9f2b8217b83>@@AEAV<lambda_ab61a845afdef5b7c387490eaf3616ee>@@V<lambda_f7f22ab5edc0698d5f6905b0d3f44752>@@@?$__crt_seh_guarded_call@X@@QEAAX$$QEAV<lambda_886d6c58226a84441f68b9f2b8217b83>@@AEAV<lambda_ab61a845afdef5b7c387490eaf3616ee>@@$$QEAV<lambda_f7f22ab5edc0698d5f6905b0d3f44752>@@@Z@4HA 000000018001d11c     libucrt:fflush.obj
 0001:0001c11c       $unwind$_ctrlfp$filt$0     000000018001d11c     libucrt:fpctrl.obj
 0001:0001c124       $unwind$?dllmain_crt_process_detach@@YAH_N@Z 000000018001d124     LIBCMT:dll_dllmain.obj
 0001:0001c178       $unwind$?dllmain_dispatch@@YAHQEAUHINSTANCE__@@KQEAX@Z 000000018001d178     LIBCMT:dll_dllmain.obj
 0001:0001c1a0       $unwind$?filt$0@?0??dllmain_dispatch@@YAHQEAUHINSTANCE__@@KQEAX@Z@4HA 000000018001d1a0     LIBCMT:dll_dllmain.obj
 0001:0001c1a8       $unwind$_DllMainCRTStartup 000000018001d1a8     LIBCMT:dll_dllmain.obj
 0001:0001c1a8       $unwind$__vcrt_getptd_noexit 000000018001d1a8     libvcruntime:per_thread_data.obj
 0001:0001c1a8       $unwind$__vcrt_InitializeCriticalSectionEx 000000018001d1a8     libvcruntime:winapi_downlevel.obj
 0001:0001c1a8       $unwind$__acrt_getptd      000000018001d1a8     libucrt:per_thread_data.obj
 0001:0001c1a8       $unwind$__acrt_getptd_noexit 000000018001d1a8     libucrt:per_thread_data.obj
 0001:0001c1a8       $unwind$__acrt_execute_initializers 000000018001d1a8     libucrt:shared_initialization.obj
 0001:0001c1a8       $unwind$__acrt_InitializeCriticalSectionEx 000000018001d1a8     libucrt:winapi_thunks.obj
 0001:0001c1a8       $unwind$?free_crt_array_internal@@YAXQEAPEBX_K@Z 000000018001d1a8     libucrt:inittime.obj
 0001:0001c1a8       $unwind$??$common_lseek_nolock@_J@@YA_JH_JH@Z 000000018001d1a8     libucrt:lseek.obj
 0001:0001c1a8       $unwind$__acrt_stdio_flush_nolock 000000018001d1a8     libucrt:fflush.obj
 0001:0001c1a8       $unwind$??0_LocaleUpdate@@QEAA@QEAU__crt_locale_pointers@@@Z 000000018001d1a8     libucrt:output.obj
 0001:0001c1a8       $unwind$_exception_enabled 000000018001d1a8     libucrt:libm_error.obj
 0001:0001c1b8       $unwind$?__scrt_throw_std_bad_alloc@@YAXXZ 000000018001d1b8     LIBCMT:throw_bad_alloc.obj
 0001:0001c1b8       $unwind$?__scrt_throw_std_bad_array_new_length@@YAXXZ 000000018001d1b8     LIBCMT:throw_bad_alloc.obj
 0001:0001c1b8       $unwind$_raise_exc         000000018001d1b8     libucrt:fpexcept.obj
 0001:0001c1c0       $unwind$__security_init_cookie 000000018001d1c0     LIBCMT:gs_support.obj
 0001:0001c1cc       $unwind$__scrt_is_nonwritable_in_current_image 000000018001d1cc     LIBCMT:utility.obj
 0001:0001c1ec       $unwind$__scrt_is_nonwritable_in_current_image$filt$0 000000018001d1ec     LIBCMT:utility.obj
 0001:0001c1f4       $unwind$__scrt_fastfail    000000018001d1f4     LIBCMT:utility_desktop.obj
 0001:0001c204       $unwind$__isa_available_init 000000018001d204     LIBCMT:cpu_disp.obj
 0001:0001c218       $xdatasym                  000000018001d218     LIBCMT:guard_dispatch.obj
 0001:0001c220       $xdatasym                  000000018001d220     libvcruntime:memcpy.obj
 0001:0001c230       $xdatasym                  000000018001d230     libvcruntime:memset.obj
 0001:0001c240       $xdatasym                  000000018001d240     libvcruntime:memcmp.obj
 0001:0001c244       $unwind$__C_specific_handler 000000018001d244     libvcruntime:riscchandler.obj
 0001:0001c260       $unwind$_CxxThrowException 000000018001d260     libvcruntime:throw.obj
 0001:0001c270       $unwind$__DestructExceptionObject 000000018001d270     libvcruntime:ehhelpers.obj
 0001:0001c290       $unwind$__DestructExceptionObject$filt$0 000000018001d290     libvcruntime:ehhelpers.obj
 0001:0001c2a0       $xdatasym                  000000018001d2a0     libvcruntime:notify.obj
 0001:0001c2b0       $xdatasym                  000000018001d2b0     libvcruntime:handlers.obj
 0001:0001c2d0       $unwind$_query_new_handler 000000018001d2d0     libucrt:new_handler.obj
 0001:0001c2f0       $unwind$?common_exit@@YAXHW4_crt_exit_cleanup_mode@@W4_crt_exit_return_mode@@@Z 000000018001d2f0     libucrt:exit.obj
 0001:0001c2fc       $unwind$??R<lambda_6e4b09c48022b2350581041d5f6b0c4c>@@QEBA@XZ 000000018001d2fc     libucrt:exit.obj
 0001:0001c31c       $unwind$??$?RV<lambda_d80eeec6fff315bfe5c115232f3240e3>@@AEAV<lambda_6e4b09c48022b2350581041d5f6b0c4c>@@V<lambda_2358e3775559c9db80273638284d5e45>@@@?$__crt_seh_guarded_call@X@@QEAAX$$QEAV<lambda_d80eeec6fff315bfe5c115232f3240e3>@@AEAV<lambda_6e4b09c48022b2350581041d5f6b0c4c>@@$$QEAV<lambda_2358e3775559c9db80273638284d5e45>@@@Z 000000018001d31c     libucrt:exit.obj
 0001:0001c340       $unwind$_configure_narrow_argv 000000018001d340     libucrt:argv_parsing.obj
 0001:0001c354       $unwind$??$parse_command_line@D@@YAXPEADPEAPEAD0PEA_K2@Z 000000018001d354     libucrt:argv_parsing.obj
 0001:0001c370       $unwind$??$free_environment@D@@YAXQEAPEAD@Z 000000018001d370     libucrt:environment_initialization.obj
 0001:0001c370       $unwind$??$free_environment@_W@@YAXQEAPEA_W@Z 000000018001d370     libucrt:environment_initialization.obj
 0001:0001c37c       $unwind$??$create_environment@D@@YAQEAPEADQEAD@Z 000000018001d37c     libucrt:environment_initialization.obj
 0001:0001c394       $unwind$_execute_onexit_table 000000018001d394     libucrt:onexit.obj
 0001:0001c39c       $unwind$__acrt_DownlevelLocaleNameToLCID 000000018001d39c     libucrt:lcidtoname_downlevel.obj
 0001:0001c39c       $unwind$??R<lambda_f03950bc5685219e0bcd2087efbe011e>@@QEBAHXZ 000000018001d39c     libucrt:onexit.obj
 0001:0001c3b4       $unwind$??$?RV<lambda_7777bce6b2f8c936911f934f8298dc43>@@AEAV<lambda_f03950bc5685219e0bcd2087efbe011e>@@V<lambda_3883c3dff614d5e0c5f61bb1ac94921c>@@@?$__crt_seh_guarded_call@H@@QEAAH$$QEAV<lambda_7777bce6b2f8c936911f934f8298dc43>@@AEAV<lambda_f03950bc5685219e0bcd2087efbe011e>@@$$QEAV<lambda_3883c3dff614d5e0c5f61bb1ac94921c>@@@Z 000000018001d3b4     libucrt:onexit.obj
 0001:0001c3d8       $unwind$terminate          000000018001d3d8     libucrt:terminate.obj
 0001:0001c3f8       $unwind$_invalid_parameter 000000018001d3f8     libucrt:invalid_parameter.obj
 0001:0001c3f8       $unwind$_wcsdup            000000018001d3f8     libucrt:wcsdup.obj
 0001:0001c410       $xdatasym                  000000018001d410     libucrt:strncmp.obj
 0001:0001c414       $unwind$_free_base         000000018001d414     libucrt:free_base.obj
 0001:0001c414       $unwind$?destroy_fls@@YAXPEAX@Z 000000018001d414     libucrt:per_thread_data.obj
 0001:0001c414       $unwind$__acrt_locale_free_numeric 000000018001d414     libucrt:initnum.obj
 0001:0001c414       $unwind$__acrt_locale_free_lc_time_if_unreferenced 000000018001d414     libucrt:locale_refcounting.obj
 0001:0001c41c       $unwind$?construct_ptd_array@@YAXQEAU__acrt_ptd@@@Z 000000018001d41c     libucrt:per_thread_data.obj
 0001:0001c424       $unwind$?destroy_ptd_array@@YAXQEAU__acrt_ptd@@@Z 000000018001d424     libucrt:per_thread_data.obj
 0001:0001c42c       $unwind$??$?RV<lambda_0ae27a3a962d80f24befdcbee591983d>@@AEAV<lambda_8d0ee55de4b1038c4002e0adecdf1839>@@V<lambda_dc504788e8f1664fe9b84e20bfb512f2>@@@?$__crt_seh_guarded_call@X@@QEAAX$$QEAV<lambda_0ae27a3a962d80f24befdcbee591983d>@@AEAV<lambda_8d0ee55de4b1038c4002e0adecdf1839>@@$$QEAV<lambda_dc504788e8f1664fe9b84e20bfb512f2>@@@Z 000000018001d42c     libucrt:per_thread_data.obj
 0001:0001c450       $unwind$??$?RV<lambda_aa87e3671a710a21b5dc78c0bdf72e11>@@AEAV<lambda_92619d2358a28f41a33ba319515a20b9>@@V<lambda_6992ecaafeb10aed2b74cb1fae11a551>@@@?$__crt_seh_guarded_call@X@@QEAAX$$QEAV<lambda_aa87e3671a710a21b5dc78c0bdf72e11>@@AEAV<lambda_92619d2358a28f41a33ba319515a20b9>@@$$QEAV<lambda_6992ecaafeb10aed2b74cb1fae11a551>@@@Z 000000018001d450     libucrt:per_thread_data.obj
 0001:0001c474       $unwind$??$?RV<lambda_f2e299630e499de9f9a165e60fcd3db5>@@AEAV<lambda_2ae9d31cdba2644fcbeaf08da7c24588>@@V<lambda_40d01ff24d0e7b3814fdbdcee8eab3c7>@@@?$__crt_seh_guarded_call@X@@QEAAX$$QEAV<lambda_f2e299630e499de9f9a165e60fcd3db5>@@AEAV<lambda_2ae9d31cdba2644fcbeaf08da7c24588>@@$$QEAV<lambda_40d01ff24d0e7b3814fdbdcee8eab3c7>@@@Z 000000018001d474     libucrt:per_thread_data.obj
 0001:0001c498       $unwind$??$?RV<lambda_2d41944a1d46af3157314b8a01080d33>@@AEAV<lambda_8f455de75cd7d7f24b4096f044d8b9e6>@@V<lambda_aa500f224e6afead328df44964fe2772>@@@?$__crt_seh_guarded_call@X@@QEAAX$$QEAV<lambda_2d41944a1d46af3157314b8a01080d33>@@AEAV<lambda_8f455de75cd7d7f24b4096f044d8b9e6>@@$$QEAV<lambda_aa500f224e6afead328df44964fe2772>@@@Z 000000018001d498     libucrt:per_thread_data.obj
 0001:0001c4bc       $unwind$__acrt_call_reportfault 000000018001d4bc     libucrt:invalid_parameter.obj
 0001:0001c4dc       $unwind$??$__acrt_mbs_to_wcs_cp@U__crt_win32_buffer_internal_dynamic_resizing@@@@YAHQEBDAEAV?$__crt_win32_buffer@_WU__crt_win32_buffer_internal_dynamic_resizing@@@@I@Z 000000018001d4dc     libucrt:argv_wildcards.obj
 0001:0001c4f4       $unwind$__dcrt_get_narrow_environment_from_os 000000018001d4f4     libucrt:get_environment_from_os.obj
 0001:0001c4f4       $unwind$??$__acrt_wcs_to_mbs_cp@U__crt_win32_buffer_internal_dynamic_resizing@@@@YAHQEB_WAEAV?$__crt_win32_buffer@DU__crt_win32_buffer_internal_dynamic_resizing@@@@I@Z 000000018001d4f4     libucrt:argv_wildcards.obj
 0001:0001c50c       $unwind$??$common_expand_argv_wildcards@D@@YAHQEAPEADQEAPEAPEAD@Z 000000018001d50c     libucrt:argv_wildcards.obj
 0001:0001c524       $unwind$??$expand_argument_wildcards@D@@YAHQEAD0AEAV?$argument_list@D@?A0x5f5c8891@@@Z 000000018001d524     libucrt:argv_wildcards.obj
 0001:0001c548       $unwind$__acrt_GetModuleFileNameA 000000018001d548     libucrt:getmodulefilenamea.obj
 0001:0001c564       $unwind$__dcrt_write_console 000000018001d564     libucrt:initcon.obj
 0001:0001c564       $unwind$??$__acrt_wcs_to_mbs_cp@U__crt_win32_buffer_no_resizing@@@@YAHQEB_WAEAV?$__crt_win32_buffer@DU__crt_win32_buffer_no_resizing@@@@I@Z 000000018001d564     libucrt:getmodulefilenamea.obj
 0001:0001c578       $unwind$_setmbcp_nolock    000000018001d578     libucrt:mbctype.obj
 0001:0001c598       $unwind$__dcrt_lowio_ensure_console_output_initialized 000000018001d598     libucrt:initcon.obj
 0001:0001c598       $unwind$_isleadbyte_l      000000018001d598     libucrt:_wctype.obj
 0001:0001c598       $unwind$?getSystemCP@@YAHH@Z 000000018001d598     libucrt:mbctype.obj
 0001:0001c5a0       $unwind$?update_thread_multibyte_data_internal@@YAPEAU__crt_multibyte_data@@QEAU__acrt_ptd@@QEAPEAU1@@Z 000000018001d5a0     libucrt:mbctype.obj
 0001:0001c5c8       $unwind$?setmbcp_internal@@YAHH_NQEAU__acrt_ptd@@QEAPEAU__crt_multibyte_data@@@Z 000000018001d5c8     libucrt:mbctype.obj
 0001:0001c5d8       $unwind$?setSBUpLow@@YAXPEAU__crt_multibyte_data@@@Z 000000018001d5d8     libucrt:mbctype.obj
 0001:0001c5f4       $unwind$??$?RV<lambda_efdfa57d1f175319df784efa44bb7b81>@@AEAV<lambda_5f0a4c1567f8adc6734073e5d1e1b35c>@@V<lambda_2e8a7d3640ea6ccb4c2413664c2db6fd>@@@?$__crt_seh_guarded_call@X@@QEAAX$$QEAV<lambda_efdfa57d1f175319df784efa44bb7b81>@@AEAV<lambda_5f0a4c1567f8adc6734073e5d1e1b35c>@@$$QEAV<lambda_2e8a7d3640ea6ccb4c2413664c2db6fd>@@@Z 000000018001d5f4     libucrt:mbctype.obj
 0001:0001c618       $unwind$?x_ismbbtype_l@@YAHPEAU__crt_locale_pointers@@IHH@Z 000000018001d618     libucrt:ismbbyte.obj
 0001:0001c628       $unwind$__GSHandlerCheckCommon 000000018001d628     LIBCMT:gshandler.obj
 0001:0001c628       $unwind$__acrt_WideCharToMultiByte 000000018001d628     libucrt:widechartomultibyte.obj
 0001:0001c630       $unwind$__acrt_initialize_winapi_thunks 000000018001d630     libucrt:winapi_thunks.obj
 0001:0001c638       $unwind$_mbtowc_l          000000018001d638     libucrt:mbtowc.obj
 0001:0001c638       $unwind$__acrt_LCMapStringEx 000000018001d638     libucrt:winapi_thunks.obj
 0001:0001c64c       $unwind$__acrt_initialize_lowio 000000018001d64c     libucrt:ioinit.obj
 0001:0001c66c       $unwind$?initialize_inherited_file_handles_nolock@@YAXXZ 000000018001d66c     libucrt:ioinit.obj
 0001:0001c688       $unwind$?initialize_stdio_handles_nolock@@YAXXZ 000000018001d688     libucrt:ioinit.obj
 0001:0001c688       $unwind$__acrt_initialize_stdio 000000018001d688     libucrt:_file.obj
 0001:0001c6a0       $unwind$__acrt_uninitialize_locale 000000018001d6a0     libucrt:wsetlocale.obj
 0001:0001c6a0       $unwind$__acrt_get_sigabrt_handler 000000018001d6a0     libucrt:signal.obj
 0001:0001c6a8       $unwind$raise              000000018001d6a8     libucrt:signal.obj
 0001:0001c6e4       $unwind$??$?RV<lambda_450d765d439847d4c735a33c368b5fc0>@@AEAV<lambda_44731a7d0e6d81c3e6aa82d741081786>@@V<lambda_601a2a7da3b7a96e9554ac7215c4b07c>@@@?$__crt_seh_guarded_call@P6AXH@Z@@QEAAP6AXH@Z$$QEAV<lambda_450d765d439847d4c735a33c368b5fc0>@@AEAV<lambda_44731a7d0e6d81c3e6aa82d741081786>@@$$QEAV<lambda_601a2a7da3b7a96e9554ac7215c4b07c>@@@Z 000000018001d6e4     libucrt:signal.obj
 0001:0001c708       $unwind$?common_flush_all@@YAH_N@Z 000000018001d708     libucrt:fflush.obj
 0001:0001c710       $unwind$??$?RV<lambda_842d9ff0dc9ef11c61343bbaebe7f885>@@AEAV<lambda_c5860995281e5c4ce005b3de8f5874ee>@@V<lambda_d90129c13df834fdcbf8d2b88dafcf2d>@@@?$__crt_seh_guarded_call@X@@QEAAX$$QEAV<lambda_842d9ff0dc9ef11c61343bbaebe7f885>@@AEAV<lambda_c5860995281e5c4ce005b3de8f5874ee>@@$$QEAV<lambda_d90129c13df834fdcbf8d2b88dafcf2d>@@@Z 000000018001d710     libucrt:fflush.obj
 0001:0001c734       $unwind$??$?RV<lambda_886d6c58226a84441f68b9f2b8217b83>@@AEAV<lambda_ab61a845afdef5b7c387490eaf3616ee>@@V<lambda_f7f22ab5edc0698d5f6905b0d3f44752>@@@?$__crt_seh_guarded_call@X@@QEAAX$$QEAV<lambda_886d6c58226a84441f68b9f2b8217b83>@@AEAV<lambda_ab61a845afdef5b7c387490eaf3616ee>@@$$QEAV<lambda_f7f22ab5edc0698d5f6905b0d3f44752>@@@Z 000000018001d734     libucrt:fflush.obj
 0001:0001c75c       $unwind$??$?RV<lambda_410d79af7f07d98d83a3f525b3859a53>@@AEAV<lambda_3e16ef9562a7dcce91392c22ab16ea36>@@V<lambda_38119f0e861e05405d8a144b9b982f0a>@@@?$__crt_seh_guarded_call@X@@QEAAX$$QEAV<lambda_410d79af7f07d98d83a3f525b3859a53>@@AEAV<lambda_3e16ef9562a7dcce91392c22ab16ea36>@@$$QEAV<lambda_38119f0e861e05405d8a144b9b982f0a>@@@Z 000000018001d75c     libucrt:wsetlocale.obj
 0001:0001c784       $unwind$__acrt_update_thread_locale_data 000000018001d784     libucrt:locale_refcounting.obj
 0001:0001c7a8       $unwind$qsort              000000018001d7a8     libucrt:qsort.obj
 0001:0001c7c0       $chain$4$qsort             000000018001d7c0     libucrt:qsort.obj
 0001:0001c7e4       $chain$5$qsort             000000018001d7e4     libucrt:qsort.obj
 0001:0001c7f4       $unwind$strpbrk            000000018001d7f4     libucrt:strpbrk.obj
 0001:0001c804       $unwind$fallbackMethod     000000018001d804     libucrt:strpbrk.obj
 0001:0001c814       $unwind$_mbsdec_l          000000018001d814     libucrt:mbsdec.obj
 0001:0001c820       $unwind$__acrt_GetStringTypeA 000000018001d820     libucrt:getstringtypea.obj
 0001:0001c848       $unwind$__acrt_LCMapStringA 000000018001d848     libucrt:lcmapstringa.obj
 0001:0001c858       $unwind$?__acrt_LCMapStringA_stat@@YAHPEAU__crt_locale_pointers@@PEB_WKPEBDHPEADHHH@Z 000000018001d858     libucrt:lcmapstringa.obj
 0001:0001c880       $unwind$__acrt_lowio_destroy_handle_array 000000018001d880     libucrt:osfinfo.obj
 0001:0001c890       $unwind$__acrt_lowio_ensure_fh_exists 000000018001d890     libucrt:osfinfo.obj
 0001:0001c8bc       $unwind$_close             000000018001d8bc     libucrt:close.obj
 0001:0001c8bc       $unwind$_commit            000000018001d8bc     libucrt:commit.obj
 0001:0001c8c4       $unwind$??$?RV<lambda_a37b2b86f63e897a80ea819b0eb08c01>@@AEAV<lambda_38ce7e780aa69e748d6df282ebc68efe>@@V<lambda_99fb1378e971ab6e7edea83e3a7a83a2>@@@?$__crt_seh_guarded_call@H@@QEAAH$$QEAV<lambda_a37b2b86f63e897a80ea819b0eb08c01>@@AEAV<lambda_38ce7e780aa69e748d6df282ebc68efe>@@$$QEAV<lambda_99fb1378e971ab6e7edea83e3a7a83a2>@@@Z 000000018001d8c4     libucrt:commit.obj
 0001:0001c8e8       $unwind$_write             000000018001d8e8     libucrt:write.obj
 0001:0001c918       $unwind$_write_nolock      000000018001d918     libucrt:write.obj
 0001:0001c930       $unwind$?write_double_translated_ansi_nolock@@YA?AUwrite_result@?A0x17268360@@HQEBDI@Z 000000018001d930     libucrt:write.obj
 0001:0001c954       $unwind$?write_text_ansi_nolock@@YA?AUwrite_result@?A0x17268360@@HQEBDI@Z 000000018001d954     libucrt:write.obj
 0001:0001c954       $unwind$?write_text_utf16le_nolock@@YA?AUwrite_result@?A0x17268360@@HQEBDI@Z 000000018001d954     libucrt:write.obj
 0001:0001c974       $unwind$?write_text_utf8_nolock@@YA?AUwrite_result@?A0x17268360@@HQEBDI@Z 000000018001d974     libucrt:write.obj
 0001:0001c998       $unwind$_fcloseall         000000018001d998     libucrt:closeall.obj
 0001:0001c9bc       $unwind$?__mbrtowc_utf8@__crt_mbstring@@YA_KPEA_WPEBD_KPEAU_Mbstatet@@@Z 000000018001d9bc     libucrt:mbrtowc.obj
 0001:0001c9c4       $unwind$?__mbsrtowcs_utf8@__crt_mbstring@@YA_KPEA_WPEAPEBD_KPEAU_Mbstatet@@@Z 000000018001d9c4     libucrt:mbrtowc.obj
 0001:0001c9dc       $unwind$__acrt_locale_free_monetary 000000018001d9dc     libucrt:initmon.obj
 0001:0001c9e4       $unwind$__acrt_locale_free_time 000000018001d9e4     libucrt:inittime.obj
 0001:0001c9f4       $unwind$_putwch_nolock     000000018001d9f4     libucrt:putwch.obj
 0001:0001c9fc       $unwind$fclose             000000018001d9fc     libucrt:fclose.obj
 0001:0001ca20       $unwind$?__mbrtoc32_utf8@__crt_mbstring@@YA_KPEA_UPEBD_KPEAU_Mbstatet@@@Z 000000018001da20     libucrt:mbrtoc32.obj
 0001:0001ca40       $xdatasym                  000000018001da40     libucrt:log10.obj
 0001:0001ca4c       $unwind$??$?RV<lambda_751a882b2c74d4b022dec766aa51a29a>@@AEAV<lambda_628dfdc04ba53c8bfc02c9951375f3f5>@@V<lambda_f6c7be5f7998530c34de24c7437d6b54>@@@?$__crt_seh_guarded_call@H@@QEAAH$$QEAV<lambda_751a882b2c74d4b022dec766aa51a29a>@@AEAV<lambda_628dfdc04ba53c8bfc02c9951375f3f5>@@$$QEAV<lambda_f6c7be5f7998530c34de24c7437d6b54>@@@Z 000000018001da4c     libucrt:close.obj
 0001:0001ca70       $unwind$_call_matherr      000000018001da70     libucrt:libm_error.obj
 0001:0001ca78       $unwind$_handle_error      000000018001da78     libucrt:libm_error.obj
 0001:0001ca98       $unwind$__acrt_initialize_fma3 000000018001da98     libucrt:fma3_available.obj
 0001:0001caa0       $unwind$_log_special_common 000000018001daa0     libucrt:log_special.obj
 0001:0001cab0       $xdatasym                  000000018001dab0     libucrt:fpsr.obj
 0001:0001cab8       $unwind$_raise_exc_ex      000000018001dab8     libucrt:fpexcept.obj
 0001:0001cacc       $unwind$_ctrlfp            000000018001dacc     libucrt:fpctrl.obj
 0001:0001caf4       $unwind$_IsNonwritableInCurrentImage 000000018001daf4     LIBCMT:pesect.obj
 0001:0001cb18       $xdatasym                  000000018001db18     LIBCMT:amdsecgs.obj
 0001:0001cb1c       $unwind$__report_securityfailure 000000018001db1c     LIBCMT:gs_report.obj
 0001:0001cb24       $unwind$__report_gsfailure 000000018001db24     LIBCMT:gs_report.obj
 0001:0001cb2c       $unwind$capture_current_context 000000018001db2c     LIBCMT:gs_report.obj
 0001:0001cb38       $unwind$capture_previous_context 000000018001db38     LIBCMT:gs_report.obj
 0001:0001cc40       .edata                     000000018001dc40     TmpPanel.exp
 0001:0001cc68       rgpv                       000000018001dc68     TmpPanel.exp
 0001:0001cca4       rgszName                   000000018001dca4     TmpPanel.exp
 0001:0001cce0       rgwOrd                     000000018001dce0     TmpPanel.exp
 0001:0001ccfe       szName                     000000018001dcfe     TmpPanel.exp
 0001:0001cd0b       $N00001                    000000018001dd0b     TmpPanel.exp
 0001:0001cd14       $N00002                    000000018001dd14     TmpPanel.exp
 0001:0001cd20       $N00003                    000000018001dd20     TmpPanel.exp
 0001:0001cd2b       $N00004                    000000018001dd2b     TmpPanel.exp
 0001:0001cd34       $N00005                    000000018001dd34     TmpPanel.exp
 0001:0001cd41       $N00006                    000000018001dd41     TmpPanel.exp
 0001:0001cd50       $N00007                    000000018001dd50     TmpPanel.exp
 0001:0001cd62       $N00008                    000000018001dd62     TmpPanel.exp
 0001:0001cd71       $N00009                    000000018001dd71     TmpPanel.exp
 0001:0001cd77       $N00010                    000000018001dd77     TmpPanel.exp
 0001:0001cd8a       $N00011                    000000018001dd8a     TmpPanel.exp
 0001:0001cd9d       $N00012                    000000018001dd9d     TmpPanel.exp
 0001:0001cda7       $N00013                    000000018001dda7     TmpPanel.exp
 0001:0001cdb5       $N00014                    000000018001ddb5     TmpPanel.exp
 0001:0001cdc2       $N00015                    000000018001ddc2     TmpPanel.exp
 0002:00000000       ?FKeys@?1??GetOpenPanelInfo@TmpPanel@@QEAAXPEAUOpenPanelInfo@@@Z@4PAGA 000000018001e000     TmpClass.obj
 0002:00000018       ?kbt@?1??GetOpenPanelInfo@TmpPanel@@QEAAXPEAUOpenPanelInfo@@@Z@4UKeyBarTitles@@A 000000018001e018     TmpClass.obj
 0002:00000028       ?CRLF@?BB@??SaveListFile@TmpPanel@@AEAAXPEB_W@Z@4PEB_WEB 000000018001e028     TmpClass.obj
 0002:00000030       ?CRLF@?BD@??SaveListFile@TmpPanel@@AEAAXPEB_W@Z@4PEBDEB 000000018001e030     TmpClass.obj
 0002:00000070       ?__vcrt_flsindex@@3KA      000000018001e070     libvcruntime:per_thread_data.obj
 0002:00000090       ?__acrt_flsindex@@3KA      000000018001e090     libucrt:per_thread_data.obj
 0002:00000094       ?errno_no_memory@@3HA      000000018001e094     libucrt:errno.obj
 0002:00000098       ?doserrno_no_memory@@3KA   000000018001e098     libucrt:errno.obj
 0002:000002d0       _mbctypes                  000000018001e2d0     libucrt:mbctype.obj
 0002:000003e0       _mbcasemaps                000000018001e3e0     libucrt:mbctype.obj
 0002:000004e0       ?__rgctypeflag@@3PADA      000000018001e4e0     libucrt:mbctype.obj
 0002:000004f0       ?__rgcode_page_info@@3PAUcode_page_info@@A 000000018001e4f0     libucrt:mbctype.obj
 0002:00000a00       ?__dcrt_lowio_console_output_handle@@3PEAXEA 000000018001ea00     libucrt:initcon.obj
 0002:00000a10       ?dazSupported@?1??_ctrlfp@@9@9 000000018001ea10     libucrt:fpctrl.obj
 0002:00000e28       ?DiskMenuStrings@?4??GetPluginInfoW@@9@4PAPEB_WA 000000018001ee28     TmpPanel.obj
 0002:00000e30       ?PluginMenuStrings@?7??GetPluginInfoW@@9@4PAPEB_WA 000000018001ee30     TmpPanel.obj
 0002:00000e38       ?PluginCfgStrings@?1??GetPluginInfoW@@9@4PAPEB_WA 000000018001ee38     TmpPanel.obj
 0002:000014b0       ?Title@?1??GetOpenPanelInfo@TmpPanel@@QEAAXPEAUOpenPanelInfo@@@Z@4PA_WA 000000018001f4b0     TmpClass.obj
 0002:00001580       ?PanelModesArray@?1??GetOpenPanelInfo@TmpPanel@@QEAAXPEAUOpenPanelInfo@@@Z@4PAUPanelMode@@A 000000018001f580     TmpClass.obj
 0002:00001760       ?kbl@?1??GetOpenPanelInfo@TmpPanel@@QEAAXPEAUOpenPanelInfo@@@Z@4PAUKeyBarLabel@@A 000000018001f760     TmpClass.obj
 0002:000017c0       ?__proc_attached@@3HA      000000018001f7c0     LIBCMT:dll_dllmain.obj
 0002:00001800       ?is_initialized_as_dll@@3_NA 000000018001f800     LIBCMT:utility.obj
 0002:00001801       ?module_local_atexit_table_initialized@@3_NA 000000018001f801     LIBCMT:utility.obj
 0002:00001808       ?module_local_atexit_table@@3U_onexit_table_t@@A 000000018001f808     LIBCMT:utility.obj
 0002:00001820       ?module_local_at_quick_exit_table@@3U_onexit_table_t@@A 000000018001f820     LIBCMT:utility.obj
 0002:00001890       ?heap@@3V_HeapManager@@A   000000018001f890     libvcruntime:undname.obj
 0002:000018c0       ?__vcrt_startup_thread_ptd@@3U__vcrt_ptd@@A 000000018001f8c0     libvcruntime:per_thread_data.obj
 0002:00001940       __vcrt_lock_table          000000018001f940     libvcruntime:locks.obj
 0002:00001968       __vcrt_locks_initialized   000000018001f968     libvcruntime:locks.obj
 0002:00001970       ?module_handles@@3PAPEAUHINSTANCE__@@A 000000018001f970     libvcruntime:winapi_downlevel.obj
 0002:00001988       ?function_pointers@@3PAPEAXA 000000018001f988     libvcruntime:winapi_downlevel.obj
 0002:000019b0       ?__acrt_new_handler@@3V?$dual_state_global@P6AH_K@Z@__crt_state_management@@A 000000018001f9b0     libucrt:new_handler.obj
 0002:000019b8       ?c_termination_complete@@3JA 000000018001f9b8     libucrt:exit.obj
 0002:000019c0       ?thread_local_exit_callback_func@@3P6AXPEAXK0@ZEA 000000018001f9c0     libucrt:exit.obj
 0002:000019d0       ?program_name@?1???$common_configure_argv@D@@YAHW4_crt_argv_mode@@@Z@4PADA 000000018001f9d0     libucrt:argv_parsing.obj
 0002:00001b30       ?__acrt_lock_table@@3PAU_RTL_CRITICAL_SECTION@@A 000000018001fb30     libucrt:locks.obj
 0002:00001d60       ?__acrt_locks_initialized@@3IA 000000018001fd60     libucrt:locks.obj
 0002:00001d68       ?__acrt_invalid_parameter_handler@@3V?$dual_state_global@P6AXPEB_W00I_K@Z@__crt_state_management@@A 000000018001fd68     libucrt:invalid_parameter.obj
 0002:00001d88       ?fSystemSet@@3HA           000000018001fd88     libucrt:mbctype.obj
 0002:00001d8c       ?initialized@?1??__acrt_initialize_multibyte@@9@4_NA 000000018001fd8c     libucrt:mbctype.obj
 0002:00001dc0       ?module_handles@@3PAPEAUHINSTANCE__@@A 000000018001fdc0     libucrt:winapi_thunks.obj
 0002:00001e60       ?encoded_function_pointers@@3PAPEAXA 000000018001fe60     libucrt:winapi_thunks.obj
 0002:00002388       ?ctrlc_action@@3V?$dual_state_global@P6AXH@Z@__crt_state_management@@A 0000000180020388     libucrt:signal.obj
 0002:00002390       ?ctrlbreak_action@@3V?$dual_state_global@P6AXH@Z@__crt_state_management@@A 0000000180020390     libucrt:signal.obj
 0002:00002398       ?abort_action@@3V?$dual_state_global@P6AXH@Z@__crt_state_management@@A 0000000180020398     libucrt:signal.obj
 0002:000023a0       ?term_action@@3V?$dual_state_global@P6AXH@Z@__crt_state_management@@A 00000001800203a0     libucrt:signal.obj
 0002:000023a8       ?user_matherr@@3V?$dual_state_global@P6AHPEAU_exception@@@Z@__crt_state_management@@A 00000001800203a8     libucrt:matherr.obj
 0002:000023d8       ?internal_state@?1??_mbtowc_l@@9@4U_Mbstatet@@A 00000001800203d8     libucrt:mbtowc.obj
 0002:000023e4       ?__acrt_global_new_mode@@3V?$dual_state_global@J@__crt_state_management@@A 00000001800203e4     libucrt:new_mode.obj
 0002:000023f0       ?__acrt_app_type@@3W4_crt_app_type@@A 00000001800203f0     libucrt:report_runtime_error.obj
 0002:000023f8       ?internal_pst@?1??__mbrtoc32_utf8@__crt_mbstring@@YA_KPEA_UPEBD_KPEAU_Mbstatet@@@Z@4U3@A 00000001800203f8     libucrt:mbrtoc32.obj
 0002:00002410       GS_ExceptionRecord         0000000180020410     LIBCMT:gs_report.obj
 0002:000024b0       GS_ContextRecord           00000001800204b0     LIBCMT:gs_report.obj
 0003:0000000c       $pdata$AnalyseW            000000018002100c     TmpPanel.obj
 0003:00000018       $pdata$0$AnalyseW          0000000180021018     TmpPanel.obj
 0003:00000024       $pdata$1$AnalyseW          0000000180021024     TmpPanel.obj
 0003:00000030       $pdata$ClosePanelW         0000000180021030     TmpPanel.obj
 0003:0000003c       $pdata$ConfigureW          000000018002103c     TmpPanel.obj
 0003:00000048       $pdata$ExitFARW            0000000180021048     TmpPanel.obj
 0003:00000054       $pdata$GetFindDataW        0000000180021054     TmpPanel.obj
 0003:00000060       $pdata$GetGlobalInfoW      0000000180021060     TmpPanel.obj
 0003:0000006c       $pdata$GetPluginInfoW      000000018002106c     TmpPanel.obj
 0003:00000078       $pdata$OpenW               0000000180021078     TmpPanel.obj
 0003:00000084       $pdata$0$OpenW             0000000180021084     TmpPanel.obj
 0003:00000090       $pdata$3$OpenW             0000000180021090     TmpPanel.obj
 0003:0000009c       $pdata$4$OpenW             000000018002109c     TmpPanel.obj
 0003:000000a8       $pdata$5$OpenW             00000001800210a8     TmpPanel.obj
 0003:000000b4       $pdata$ProcessPanelEventW  00000001800210b4     TmpPanel.obj
 0003:000000c0       $pdata$ProcessPanelInputW  00000001800210c0     TmpPanel.obj
 0003:000000cc       $pdata$PutFilesW           00000001800210cc     TmpPanel.obj
 0003:000000d8       $pdata$SetDirectoryW       00000001800210d8     TmpPanel.obj
 0003:000000e4       $pdata$SetFindListW        00000001800210e4     TmpPanel.obj
 0003:000000f0       $pdata$SetStartupInfoW     00000001800210f0     TmpPanel.obj
 0003:000000fc       $pdata$?ProcessList@@YAXPEAXPEA_WH@Z 00000001800210fc     TmpPanel.obj
 0003:00000108       $pdata$?ShowMenuFromList@@YAXPEA_W@Z 0000000180021108     TmpPanel.obj
 0003:00000114       $pdata$1$?ShowMenuFromList@@YAXPEA_W@Z 0000000180021114     TmpPanel.obj
 0003:00000120       $pdata$3$?ShowMenuFromList@@YAXPEA_W@Z 0000000180021120     TmpPanel.obj
 0003:0000012c       $pdata$5$?ShowMenuFromList@@YAXPEA_W@Z 000000018002112c     TmpPanel.obj
 0003:00000138       $pdata$6$?ShowMenuFromList@@YAXPEA_W@Z 0000000180021138     TmpPanel.obj
 0003:00000144       $pdata$7$?ShowMenuFromList@@YAXPEA_W@Z 0000000180021144     TmpPanel.obj
 0003:00000150       $pdata$8$?ShowMenuFromList@@YAXPEA_W@Z 0000000180021150     TmpPanel.obj
 0003:0000015c       $pdata$?OpenPanelFromOutput@@YAPEAXPEA_W@Z 000000018002115c     TmpPanel.obj
 0003:00000168       $pdata$1$?OpenPanelFromOutput@@YAPEAXPEA_W@Z 0000000180021168     TmpPanel.obj
 0003:00000174       $pdata$2$?OpenPanelFromOutput@@YAPEAXPEA_W@Z 0000000180021174     TmpPanel.obj
 0003:00000180       $pdata$3$?OpenPanelFromOutput@@YAPEAXPEA_W@Z 0000000180021180     TmpPanel.obj
 0003:0000018c       $pdata$4$?OpenPanelFromOutput@@YAPEAXPEA_W@Z 000000018002118c     TmpPanel.obj
 0003:00000198       $pdata$?ReadFileLines@@YAXPEAXKPEAPEA_WPEA_WPEAI3@Z 0000000180021198     TmpPanel.obj
 0003:000001a4       $pdata$1$?ReadFileLines@@YAXPEAXKPEAPEA_WPEA_WPEAI3@Z 00000001800211a4     TmpPanel.obj
 0003:000001b0       $pdata$2$?ReadFileLines@@YAXPEAXKPEAPEA_WPEA_WPEAI3@Z 00000001800211b0     TmpPanel.obj
 0003:000001bc       $pdata$?ReadFileList@@YAXPEA_WPEAHPEAPEAPEA_W@Z 00000001800211bc     TmpPanel.obj
 0003:000001c8       $pdata$0$?ReadFileList@@YAXPEA_WPEAHPEAPEAPEA_W@Z 00000001800211c8     TmpPanel.obj
 0003:000001d4       $pdata$1$?ReadFileList@@YAXPEA_WPEAHPEAPEAPEA_W@Z 00000001800211d4     TmpPanel.obj
 0003:000001e0       $pdata$?SaveValue@PluginCheckBoxBinding@@UEAAXPEBUFarDialogItem@@H@Z 00000001800211e0     TmpCfg.obj
 0003:000001ec       $pdata$??_GPluginCheckBoxBinding@@UEAAPEAXI@Z 00000001800211ec     TmpCfg.obj
 0003:000001ec       $pdata$??_GPluginEditFieldBinding@@UEAAPEAXI@Z 00000001800211ec     TmpCfg.obj
 0003:000001f8       $pdata$?SaveValue@PluginEditFieldBinding@@UEAAXPEBUFarDialogItem@@H@Z 00000001800211f8     TmpCfg.obj
 0003:00000204       $pdata$?AddCheckbox@PluginDialogBuilder@@QEAAPEAUFarDialogItem@@HPEAHH_N@Z 0000000180021204     TmpCfg.obj
 0003:00000210       $pdata$?AddEditField@PluginDialogBuilder@@QEAAPEAUFarDialogItem@@PEA_WHHPEB_W_N@Z 0000000180021210     TmpCfg.obj
 0003:0000021c       $pdata$?EndColumns@PluginDialogBuilder@@QEAAXXZ 000000018002121c     TmpCfg.obj
 0003:00000228       $pdata$0$?EndColumns@PluginDialogBuilder@@QEAAXXZ 0000000180021228     TmpCfg.obj
 0003:00000234       $pdata$2$?EndColumns@PluginDialogBuilder@@QEAAXXZ 0000000180021234     TmpCfg.obj
 0003:00000240       $pdata$3$?EndColumns@PluginDialogBuilder@@QEAAXXZ 0000000180021240     TmpCfg.obj
 0003:0000024c       $pdata$4$?EndColumns@PluginDialogBuilder@@QEAAXXZ 000000018002124c     TmpCfg.obj
 0003:00000258       $pdata$?AddButtons@PluginDialogBuilder@@QEAAXHPEBHHH@Z 0000000180021258     TmpCfg.obj
 0003:00000264       $pdata$4$?AddButtons@PluginDialogBuilder@@QEAAXHPEBHHH@Z 0000000180021264     TmpCfg.obj
 0003:00000270       $pdata$5$?AddButtons@PluginDialogBuilder@@QEAAXHPEBHHH@Z 0000000180021270     TmpCfg.obj
 0003:0000027c       $pdata$?ShowDialogEx@PluginDialogBuilder@@QEAA_JXZ 000000018002127c     TmpCfg.obj
 0003:00000288       $pdata$4$?ShowDialogEx@PluginDialogBuilder@@QEAA_JXZ 0000000180021288     TmpCfg.obj
 0003:00000294       $pdata$6$?ShowDialogEx@PluginDialogBuilder@@QEAA_JXZ 0000000180021294     TmpCfg.obj
 0003:000002a0       $pdata$7$?ShowDialogEx@PluginDialogBuilder@@QEAA_JXZ 00000001800212a0     TmpCfg.obj
 0003:000002ac       $pdata$8$?ShowDialogEx@PluginDialogBuilder@@QEAA_JXZ 00000001800212ac     TmpCfg.obj
 0003:000002b8       $pdata$?AddDialogItem@PluginDialogBuilder@@AEAAPEAUFarDialogItem@@W4FARDIALOGITEMTYPES@@PEB_W@Z 00000001800212b8     TmpCfg.obj
 0003:000002c4       $pdata$0$?AddDialogItem@PluginDialogBuilder@@AEAAPEAUFarDialogItem@@W4FARDIALOGITEMTYPES@@PEB_W@Z 00000001800212c4     TmpCfg.obj
 0003:000002d0       $pdata$1$?AddDialogItem@PluginDialogBuilder@@AEAAPEAUFarDialogItem@@W4FARDIALOGITEMTYPES@@PEB_W@Z 00000001800212d0     TmpCfg.obj
 0003:000002dc       $pdata$2$?AddDialogItem@PluginDialogBuilder@@AEAAPEAUFarDialogItem@@W4FARDIALOGITEMTYPES@@PEB_W@Z 00000001800212dc     TmpCfg.obj
 0003:000002e8       $pdata$3$?AddDialogItem@PluginDialogBuilder@@AEAAPEAUFarDialogItem@@W4FARDIALOGITEMTYPES@@PEB_W@Z 00000001800212e8     TmpCfg.obj
 0003:000002f4       $pdata$?ItemWidth@PluginDialogBuilder@@CA_JAEBUFarDialogItem@@@Z 00000001800212f4     TmpCfg.obj
 0003:00000300       $pdata$?Config@@YAHXZ      0000000180021300     TmpCfg.obj
 0003:0000030c       $pdata$?GetOptions@@YAXXZ  000000018002130c     TmpCfg.obj
 0003:00000318       $pdata$?RemoveDups@TmpPanel@@AEAAXXZ 0000000180021318     TmpClass.obj
 0003:00000324       $pdata$1$?RemoveDups@TmpPanel@@AEAAXXZ 0000000180021324     TmpClass.obj
 0003:00000330       $pdata$2$?RemoveDups@TmpPanel@@AEAAXXZ 0000000180021330     TmpClass.obj
 0003:0000033c       $pdata$?RemoveEmptyItems@TmpPanel@@AEAAXXZ 000000018002133c     TmpClass.obj
 0003:00000348       $pdata$3$?RemoveEmptyItems@TmpPanel@@AEAAXXZ 0000000180021348     TmpClass.obj
 0003:00000354       $pdata$4$?RemoveEmptyItems@TmpPanel@@AEAAXXZ 0000000180021354     TmpClass.obj
 0003:00000360       $pdata$5$?RemoveEmptyItems@TmpPanel@@AEAAXXZ 0000000180021360     TmpClass.obj
 0003:0000036c       $pdata$6$?RemoveEmptyItems@TmpPanel@@AEAAXXZ 000000018002136c     TmpClass.obj
 0003:00000378       $pdata$?UpdateItems@TmpPanel@@AEAAXHH@Z 0000000180021378     TmpClass.obj
 0003:00000384       $pdata$2$?UpdateItems@TmpPanel@@AEAAXHH@Z 0000000180021384     TmpClass.obj
 0003:00000390       $pdata$3$?UpdateItems@TmpPanel@@AEAAXHH@Z 0000000180021390     TmpClass.obj
 0003:0000039c       $pdata$4$?UpdateItems@TmpPanel@@AEAAXHH@Z 000000018002139c     TmpClass.obj
 0003:000003a8       $pdata$5$?UpdateItems@TmpPanel@@AEAAXHH@Z 00000001800213a8     TmpClass.obj
 0003:000003b4       $pdata$?ProcessSaveListKey@TmpPanel@@AEAAXXZ 00000001800213b4     TmpClass.obj
 0003:000003c0       $pdata$4$?ProcessSaveListKey@TmpPanel@@AEAAXXZ 00000001800213c0     TmpClass.obj
 0003:000003cc       $pdata$5$?ProcessSaveListKey@TmpPanel@@AEAAXXZ 00000001800213cc     TmpClass.obj
 0003:000003d8       $pdata$6$?ProcessSaveListKey@TmpPanel@@AEAAXXZ 00000001800213d8     TmpClass.obj
 0003:000003e4       $pdata$?SwitchToPanel@TmpPanel@@AEAAXH@Z 00000001800213e4     TmpClass.obj
 0003:000003f0       $pdata$0$?SwitchToPanel@TmpPanel@@AEAAXH@Z 00000001800213f0     TmpClass.obj
 0003:000003fc       $pdata$1$?SwitchToPanel@TmpPanel@@AEAAXH@Z 00000001800213fc     TmpClass.obj
 0003:00000408       $pdata$?SaveListFile@TmpPanel@@AEAAXPEB_W@Z 0000000180021408     TmpClass.obj
 0003:00000414       $pdata$1$?SaveListFile@TmpPanel@@AEAAXPEB_W@Z 0000000180021414     TmpClass.obj
 0003:00000420       $pdata$5$?SaveListFile@TmpPanel@@AEAAXPEB_W@Z 0000000180021420     TmpClass.obj
 0003:0000042c       $pdata$6$?SaveListFile@TmpPanel@@AEAAXPEB_W@Z 000000018002142c     TmpClass.obj
 0003:00000438       $pdata$7$?SaveListFile@TmpPanel@@AEAAXPEB_W@Z 0000000180021438     TmpClass.obj
 0003:00000444       $pdata$?IsCurrentFileCorrect@TmpPanel@@AEAA_NPEAPEA_W@Z 0000000180021444     TmpClass.obj
 0003:00000450       $pdata$??0TmpPanel@@QEAA@PEB_W@Z 0000000180021450     TmpClass.obj
 0003:0000045c       $pdata$??1TmpPanel@@QEAA@XZ 000000018002145c     TmpClass.obj
 0003:00000468       $pdata$?GetFindData@TmpPanel@@QEAAHPEAPEAUPluginPanelItem@@PEA_K_K@Z 0000000180021468     TmpClass.obj
 0003:00000474       $pdata$?GetOpenPanelInfo@TmpPanel@@QEAAXPEAUOpenPanelInfo@@@Z 0000000180021474     TmpClass.obj
 0003:00000480       $pdata$0$?GetOpenPanelInfo@TmpPanel@@QEAAXPEAUOpenPanelInfo@@@Z 0000000180021480     TmpClass.obj
 0003:0000048c       $pdata$1$?GetOpenPanelInfo@TmpPanel@@QEAAXPEAUOpenPanelInfo@@@Z 000000018002148c     TmpClass.obj
 0003:00000498       $pdata$?SetDirectory@TmpPanel@@QEAAHPEB_W_K@Z 0000000180021498     TmpClass.obj
 0003:000004a4       $pdata$?PutFiles@TmpPanel@@QEAAHPEAUPluginPanelItem@@_KHPEB_W_K@Z 00000001800214a4     TmpClass.obj
 0003:000004b0       $pdata$?BeginPutFiles@TmpPanel@@QEAAPEAXXZ 00000001800214b0     TmpClass.obj
 0003:000004bc       $pdata$?CommitPutFiles@TmpPanel@@QEAAXPEAXH@Z 00000001800214bc     TmpClass.obj
 0003:000004c8       $pdata$?PutDirectoryContents@TmpPanel@@QEAAHPEB_W@Z 00000001800214c8     TmpClass.obj
 0003:000004d4       $pdata$0$?PutDirectoryContents@TmpPanel@@QEAAHPEB_W@Z 00000001800214d4     TmpClass.obj
 0003:000004e0       $pdata$1$?PutDirectoryContents@TmpPanel@@QEAAHPEB_W@Z 00000001800214e0     TmpClass.obj
 0003:000004ec       $pdata$2$?PutDirectoryContents@TmpPanel@@QEAAHPEB_W@Z 00000001800214ec     TmpClass.obj
 0003:000004f8       $pdata$3$?PutDirectoryContents@TmpPanel@@QEAAHPEB_W@Z 00000001800214f8     TmpClass.obj
 0003:00000504       $pdata$?PutOneFile@TmpPanel@@QEAAHPEB_W@Z 0000000180021504     TmpClass.obj
 0003:00000510       $pdata$0$?PutOneFile@TmpPanel@@QEAAHPEB_W@Z 0000000180021510     TmpClass.obj
 0003:0000051c       $pdata$2$?PutOneFile@TmpPanel@@QEAAHPEB_W@Z 000000018002151c     TmpClass.obj
 0003:00000528       $pdata$?SetFindList@TmpPanel@@QEAAHPEBUPluginPanelItem@@_K@Z 0000000180021528     TmpClass.obj
 0003:00000534       $pdata$0$?SetFindList@TmpPanel@@QEAAHPEBUPluginPanelItem@@_K@Z 0000000180021534     TmpClass.obj
 0003:00000540       $pdata$1$?SetFindList@TmpPanel@@QEAAHPEBUPluginPanelItem@@_K@Z 0000000180021540     TmpClass.obj
 0003:0000054c       $pdata$?ProcessEvent@TmpPanel@@QEAAH_JPEAX@Z 000000018002154c     TmpClass.obj
 0003:00000558       $pdata$1$?ProcessEvent@TmpPanel@@QEAAH_JPEAX@Z 0000000180021558     TmpClass.obj
 0003:00000564       $pdata$2$?ProcessEvent@TmpPanel@@QEAAH_JPEAX@Z 0000000180021564     TmpClass.obj
 0003:00000570       $pdata$3$?ProcessEvent@TmpPanel@@QEAAH_JPEAX@Z 0000000180021570     TmpClass.obj
 0003:0000057c       $pdata$4$?ProcessEvent@TmpPanel@@QEAAH_JPEAX@Z 000000018002157c     TmpClass.obj
 0003:00000588       $pdata$?ProcessKey@TmpPanel@@QEAAHPEBU_INPUT_RECORD@@@Z 0000000180021588     TmpClass.obj
 0003:00000594       $pdata$0$?ProcessKey@TmpPanel@@QEAAHPEBU_INPUT_RECORD@@@Z 0000000180021594     TmpClass.obj
 0003:000005a0       $pdata$1$?ProcessKey@TmpPanel@@QEAAHPEBU_INPUT_RECORD@@@Z 00000001800215a0     TmpClass.obj
 0003:000005ac       $pdata$?GetFileInfoAndValidate@TmpPanel@@SA_NPEB_WPEAUPluginPanelItem@@H@Z 00000001800215ac     TmpClass.obj
 0003:000005b8       $pdata$?Inflate@SimpleString@@QEAAX_K@Z 00000001800215b8     TmpClass.obj
 0003:000005c4       $pdata$?Replace@SimpleString@@QEAAAEAV1@_K0PEB_W0@Z 00000001800215c4     TmpClass.obj
 0003:000005d0       $pdata$1$?Replace@SimpleString@@QEAAAEAV1@_K0PEB_W0@Z 00000001800215d0     TmpClass.obj
 0003:000005dc       $pdata$2$?Replace@SimpleString@@QEAAAEAV1@_K0PEB_W0@Z 00000001800215dc     TmpClass.obj
 0003:000005e8       $pdata$3$?Replace@SimpleString@@QEAAAEAV1@_K0PEB_W0@Z 00000001800215e8     TmpClass.obj
 0003:000005f4       $pdata$4$?Replace@SimpleString@@QEAAAEAV1@_K0PEB_W0@Z 00000001800215f4     TmpClass.obj
 0003:00000600       $pdata$?SortListCmp@@YAHPEBX0PEAX@Z 0000000180021600     TmpClass.obj
 0003:0000060c       $pdata$?GoToFile@@YAXPEB_WH@Z 000000018002160c     TmpMix.obj
 0003:00000618       $pdata$?FreePanelItems@@YAXPEAUPluginPanelItem@@_K@Z 0000000180021618     TmpMix.obj
 0003:00000624       $pdata$0$?FreePanelItems@@YAXPEAUPluginPanelItem@@_K@Z 0000000180021624     TmpMix.obj
 0003:00000630       $pdata$1$?FreePanelItems@@YAXPEAUPluginPanelItem@@_K@Z 0000000180021630     TmpMix.obj
 0003:0000063c       $pdata$?ParseParam@@YAPEA_WAEAPEA_W@Z 000000018002163c     TmpMix.obj
 0003:00000648       $pdata$?WFD2FFD@@YAXAEAU_WIN32_FIND_DATAW@@AEAUPluginPanelItem@@@Z 0000000180021648     TmpMix.obj
 0003:00000654       $pdata$?IsTextUTF8@@YA_NPEBD_K@Z 0000000180021654     TmpMix.obj
 0003:00000660       $pdata$?Grow@StrBuf@@QEAAX_K@Z 0000000180021660     TmpMix.obj
 0003:0000066c       $pdata$?FormNtPath@@YAPEA_WPEB_WAEAVStrBuf@@@Z 000000018002166c     TmpMix.obj
 0003:00000678       $pdata$1$?FormNtPath@@YAPEA_WPEB_WAEAVStrBuf@@@Z 0000000180021678     TmpMix.obj
 0003:00000684       $pdata$2$?FormNtPath@@YAPEA_WPEB_WAEAVStrBuf@@@Z 0000000180021684     TmpMix.obj
 0003:00000690       $pdata$?GetFullPath@@YAPEA_WPEB_WAEAVStrBuf@@@Z 0000000180021690     TmpMix.obj
 0003:0000069c       $pdata$?ExpandEnvStrs@@YAPEA_WPEB_WAEAVStrBuf@@@Z 000000018002169c     TmpMix.obj
 0003:000006a8       $pdata$?FindListFile@@YA_NPEB_WAEAVStrBuf@@@Z 00000001800216a8     TmpMix.obj
 0003:000006b4       $pdata$??2@YAPEAX_K@Z      00000001800216b4     LIBCMT:new_scalar.obj
 0003:000006c0       $pdata$?dllmain_crt_process_attach@@YAHQEAUHINSTANCE__@@QEAX@Z 00000001800216c0     LIBCMT:dll_dllmain.obj
 0003:000006cc       $pdata$?fin$0@?0??dllmain_crt_process_attach@@YAHQEAUHINSTANCE__@@QEAX@Z@4HA 00000001800216cc     LIBCMT:dll_dllmain.obj
 0003:000006d8       $pdata$?dllmain_crt_process_detach@@YAH_N@Z 00000001800216d8     LIBCMT:dll_dllmain.obj
 0003:000006e4       $pdata$?fin$0@?0??dllmain_crt_process_detach@@YAH_N@Z@4HA 00000001800216e4     LIBCMT:dll_dllmain.obj
 0003:000006f0       $pdata$?fin$1@?0??dllmain_crt_process_detach@@YAH_N@Z@4HA 00000001800216f0     LIBCMT:dll_dllmain.obj
 0003:000006fc       $pdata$?dllmain_crt_dispatch@@YAHQEAUHINSTANCE__@@KQEAX@Z 00000001800216fc     LIBCMT:dll_dllmain.obj
 0003:00000708       $pdata$?dllmain_dispatch@@YAHQEAUHINSTANCE__@@KQEAX@Z 0000000180021708     LIBCMT:dll_dllmain.obj
 0003:00000714       $pdata$?filt$0@?0??dllmain_dispatch@@YAHQEAUHINSTANCE__@@KQEAX@Z@4HA 0000000180021714     LIBCMT:dll_dllmain.obj
 0003:00000720       $pdata$_DllMainCRTStartup  0000000180021720     LIBCMT:dll_dllmain.obj
 0003:0000072c       $pdata$??0exception@std@@QEAA@AEBV01@@Z 000000018002172c     LIBCMT:throw_bad_alloc.obj
 0003:00000738       $pdata$??_Gbad_alloc@std@@UEAAPEAXI@Z 0000000180021738     LIBCMT:throw_bad_alloc.obj
 0003:00000738       $pdata$??_Gbad_array_new_length@std@@UEAAPEAXI@Z 0000000180021738     LIBCMT:throw_bad_alloc.obj
 0003:00000738       $pdata$??_Gexception@std@@UEAAPEAXI@Z 0000000180021738     LIBCMT:throw_bad_alloc.obj
 0003:00000744       $pdata$??0bad_alloc@std@@QEAA@AEBV01@@Z 0000000180021744     LIBCMT:throw_bad_alloc.obj
 0003:00000750       $pdata$??0bad_array_new_length@std@@QEAA@AEBV01@@Z 0000000180021750     LIBCMT:throw_bad_alloc.obj
 0003:0000075c       $pdata$?__scrt_throw_std_bad_alloc@@YAXXZ 000000018002175c     LIBCMT:throw_bad_alloc.obj
 0003:00000768       $pdata$?__scrt_throw_std_bad_array_new_length@@YAXXZ 0000000180021768     LIBCMT:throw_bad_alloc.obj
 0003:00000774       $pdata$__security_init_cookie 0000000180021774     LIBCMT:gs_support.obj
 0003:00000780       $pdata$__scrt_initialize_default_local_stdio_options 0000000180021780     LIBCMT:default_local_stdio_options.obj
 0003:0000078c       $pdata$__scrt_is_nonwritable_in_current_image 000000018002178c     LIBCMT:utility.obj
 0003:00000798       $pdata$__scrt_is_nonwritable_in_current_image$filt$0 0000000180021798     LIBCMT:utility.obj
 0003:000007a4       $pdata$__scrt_acquire_startup_lock 00000001800217a4     LIBCMT:utility.obj
 0003:000007b0       $pdata$__scrt_release_startup_lock 00000001800217b0     LIBCMT:utility.obj
 0003:000007bc       $pdata$__scrt_initialize_crt 00000001800217bc     LIBCMT:utility.obj
 0003:000007c8       $pdata$__scrt_uninitialize_crt 00000001800217c8     LIBCMT:utility.obj
 0003:000007d4       $pdata$__scrt_initialize_onexit_tables 00000001800217d4     LIBCMT:utility.obj
 0003:000007e0       $pdata$__scrt_dllmain_exception_filter 00000001800217e0     LIBCMT:utility.obj
 0003:000007ec       $pdata$__scrt_dllmain_before_initialize_c 00000001800217ec     LIBCMT:utility.obj
 0003:000007f8       $pdata$__scrt_dllmain_after_initialize_c 00000001800217f8     LIBCMT:utility.obj
 0003:00000804       $pdata$__scrt_dllmain_uninitialize_c 0000000180021804     LIBCMT:utility.obj
 0003:00000810       $pdata$__scrt_dllmain_uninitialize_critical 0000000180021810     LIBCMT:utility.obj
 0003:0000081c       $pdata$__scrt_dllmain_crt_thread_attach 000000018002181c     LIBCMT:utility.obj
 0003:00000828       $pdata$__scrt_dllmain_crt_thread_detach 0000000180021828     LIBCMT:utility.obj
 0003:00000834       $pdata$__scrt_fastfail     0000000180021834     LIBCMT:utility_desktop.obj
 0003:00000840       $pdata$_RTC_Initialize     0000000180021840     LIBCMT:initsect.obj
 0003:0000084c       $pdata$_RTC_Terminate      000000018002184c     LIBCMT:initsect.obj
 0003:00000858       $pdata$??_Gtype_info@@UEAAPEAXI@Z 0000000180021858     LIBCMT:std_type_info_static.obj
 0003:00000864       $pdata$__isa_available_init 0000000180021864     LIBCMT:cpu_disp.obj
 0003:000008b8       $pdata$__C_specific_handler 00000001800218b8     libvcruntime:riscchandler.obj
 0003:000008c4       $pdata$__std_exception_copy 00000001800218c4     libvcruntime:std_exception.obj
 0003:000008d0       $pdata$__std_exception_destroy 00000001800218d0     libvcruntime:std_exception.obj
 0003:000008dc       $pdata$_CxxThrowException  00000001800218dc     libvcruntime:throw.obj
 0003:000008e8       $pdata$__std_type_info_destroy_list 00000001800218e8     libvcruntime:std_type_info.obj
 0003:000008f4       $pdata$__vcrt_initialize   00000001800218f4     libvcruntime:initialization.obj
 0003:00000900       $pdata$__vcrt_uninitialize 0000000180021900     libvcruntime:initialization.obj
 0003:0000090c       $pdata$__vcrt_uninitialize_critical 000000018002190c     libvcruntime:initialization.obj
 0003:00000918       $pdata$__vcrt_thread_attach 0000000180021918     libvcruntime:initialization.obj
 0003:00000924       $pdata$__vcrt_thread_detach 0000000180021924     libvcruntime:initialization.obj
 0003:00000930       $pdata$__DestructExceptionObject 0000000180021930     libvcruntime:ehhelpers.obj
 0003:0000093c       $pdata$__DestructExceptionObject$filt$0 000000018002193c     libvcruntime:ehhelpers.obj
 0003:0000096c       $pdata$__vcrt_initialize_ptd 000000018002196c     libvcruntime:per_thread_data.obj
 0003:00000978       $pdata$__vcrt_uninitialize_ptd 0000000180021978     libvcruntime:per_thread_data.obj
 0003:00000984       $pdata$__vcrt_getptd       0000000180021984     libvcruntime:per_thread_data.obj
 0003:00000990       $pdata$__vcrt_getptd_noexit 0000000180021990     libvcruntime:per_thread_data.obj
 0003:0000099c       $pdata$__vcrt_freeptd      000000018002199c     libvcruntime:per_thread_data.obj
 0003:000009a8       $pdata$__vcrt_freefls      00000001800219a8     libvcruntime:per_thread_data.obj
 0003:000009b4       $pdata$__vcrt_initialize_locks 00000001800219b4     libvcruntime:locks.obj
 0003:000009c0       $pdata$__vcrt_uninitialize_locks 00000001800219c0     libvcruntime:locks.obj
 0003:000009cc       $pdata$__vcrt_FlsAlloc     00000001800219cc     libvcruntime:winapi_downlevel.obj
 0003:000009d8       $pdata$__vcrt_FlsFree      00000001800219d8     libvcruntime:winapi_downlevel.obj
 0003:000009e4       $pdata$__vcrt_FlsGetValue  00000001800219e4     libvcruntime:winapi_downlevel.obj
 0003:000009f0       $pdata$__vcrt_FlsSetValue  00000001800219f0     libvcruntime:winapi_downlevel.obj
 0003:000009fc       $pdata$__vcrt_InitializeCriticalSectionEx 00000001800219fc     libvcruntime:winapi_downlevel.obj
 0003:00000a08       $pdata$?try_get_function@@YAPEAXW4function_id@?A0x81a78551@@QEBDQEBW4module_id@2@2@Z 0000000180021a08     libvcruntime:winapi_downlevel.obj
 0003:00000a44       $pdata$_callnewh           0000000180021a44     libucrt:new_handler.obj
 0003:00000a50       $pdata$_query_new_handler  0000000180021a50     libucrt:new_handler.obj
 0003:00000a5c       $pdata$_query_new_handler$fin$0 0000000180021a5c     libucrt:new_handler.obj
 0003:00000a68       $pdata$_initterm           0000000180021a68     libucrt:initterm.obj
 0003:00000a74       $pdata$_initterm_e         0000000180021a74     libucrt:initterm.obj
 0003:00000a80       $pdata$_seh_filter_exe     0000000180021a80     libucrt:exception_filter.obj
 0003:00000a8c       $pdata$?try_cor_exit_process@@YAXI@Z 0000000180021a8c     libucrt:exit.obj
 0003:00000a98       $pdata$?exit_or_terminate_process@@YAXI@Z 0000000180021a98     libucrt:exit.obj
 0003:00000aa4       $pdata$?common_exit@@YAXHW4_crt_exit_cleanup_mode@@W4_crt_exit_return_mode@@@Z 0000000180021aa4     libucrt:exit.obj
 0003:00000ab0       $pdata$??R<lambda_6e4b09c48022b2350581041d5f6b0c4c>@@QEBA@XZ 0000000180021ab0     libucrt:exit.obj
 0003:00000abc       $pdata$?filt$0@?0???R<lambda_6e4b09c48022b2350581041d5f6b0c4c>@@QEBA@XZ@4HA 0000000180021abc     libucrt:exit.obj
 0003:00000ac8       $pdata$??$?RV<lambda_d80eeec6fff315bfe5c115232f3240e3>@@AEAV<lambda_6e4b09c48022b2350581041d5f6b0c4c>@@V<lambda_2358e3775559c9db80273638284d5e45>@@@?$__crt_seh_guarded_call@X@@QEAAX$$QEAV<lambda_d80eeec6fff315bfe5c115232f3240e3>@@AEAV<lambda_6e4b09c48022b2350581041d5f6b0c4c>@@$$QEAV<lambda_2358e3775559c9db80273638284d5e45>@@@Z 0000000180021ac8     libucrt:exit.obj
 0003:00000ad4       $pdata$?fin$0@?0???$?RV<lambda_0ae27a3a962d80f24befdcbee591983d>@@AEAV<lambda_8d0ee55de4b1038c4002e0adecdf1839>@@V<lambda_dc504788e8f1664fe9b84e20bfb512f2>@@@?$__crt_seh_guarded_call@X@@QEAAX$$QEAV<lambda_0ae27a3a962d80f24befdcbee591983d>@@AEAV<lambda_8d0ee55de4b1038c4002e0adecdf1839>@@$$QEAV<lambda_dc504788e8f1664fe9b84e20bfb512f2>@@@Z@4HA 0000000180021ad4     libucrt:per_thread_data.obj
 0003:00000ad4       $pdata$?fin$0@?0???$?RV<lambda_2d41944a1d46af3157314b8a01080d33>@@AEAV<lambda_8f455de75cd7d7f24b4096f044d8b9e6>@@V<lambda_aa500f224e6afead328df44964fe2772>@@@?$__crt_seh_guarded_call@X@@QEAAX$$QEAV<lambda_2d41944a1d46af3157314b8a01080d33>@@AEAV<lambda_8f455de75cd7d7f24b4096f044d8b9e6>@@$$QEAV<lambda_aa500f224e6afead328df44964fe2772>@@@Z@4HA 0000000180021ad4     libucrt:per_thread_data.obj
 0003:00000ad4       $pdata$?fin$0@?0???$?RV<lambda_aa87e3671a710a21b5dc78c0bdf72e11>@@AEAV<lambda_92619d2358a28f41a33ba319515a20b9>@@V<lambda_6992ecaafeb10aed2b74cb1fae11a551>@@@?$__crt_seh_guarded_call@X@@QEAAX$$QEAV<lambda_aa87e3671a710a21b5dc78c0bdf72e11>@@AEAV<lambda_92619d2358a28f41a33ba319515a20b9>@@$$QEAV<lambda_6992ecaafeb10aed2b74cb1fae11a551>@@@Z@4HA 0000000180021ad4     libucrt:per_thread_data.obj
 0003:00000ad4       $pdata$?fin$0@?0???$?RV<lambda_f2e299630e499de9f9a165e60fcd3db5>@@AEAV<lambda_2ae9d31cdba2644fcbeaf08da7c24588>@@V<lambda_40d01ff24d0e7b3814fdbdcee8eab3c7>@@@?$__crt_seh_guarded_call@X@@QEAAX$$QEAV<lambda_f2e299630e499de9f9a165e60fcd3db5>@@AEAV<lambda_2ae9d31cdba2644fcbeaf08da7c24588>@@$$QEAV<lambda_40d01ff24d0e7b3814fdbdcee8eab3c7>@@@Z@4HA 0000000180021ad4     libucrt:per_thread_data.obj
 0003:00000ad4       $pdata$?fin$0@?0???$?RV<lambda_efdfa57d1f175319df784efa44bb7b81>@@AEAV<lambda_5f0a4c1567f8adc6734073e5d1e1b35c>@@V<lambda_2e8a7d3640ea6ccb4c2413664c2db6fd>@@@?$__crt_seh_guarded_call@X@@QEAAX$$QEAV<lambda_efdfa57d1f175319df784efa44bb7b81>@@AEAV<lambda_5f0a4c1567f8adc6734073e5d1e1b35c>@@$$QEAV<lambda_2e8a7d3640ea6ccb4c2413664c2db6fd>@@@Z@4HA 0000000180021ad4     libucrt:mbctype.obj
 0003:00000ad4       $pdata$?fin$0@?0???$?RV<lambda_450d765d439847d4c735a33c368b5fc0>@@AEAV<lambda_44731a7d0e6d81c3e6aa82d741081786>@@V<lambda_601a2a7da3b7a96e9554ac7215c4b07c>@@@?$__crt_seh_guarded_call@P6AXH@Z@@QEAAP6AXH@Z$$QEAV<lambda_450d765d439847d4c735a33c368b5fc0>@@AEAV<lambda_44731a7d0e6d81c3e6aa82d741081786>@@$$QEAV<lambda_601a2a7da3b7a96e9554ac7215c4b07c>@@@Z@4HA 0000000180021ad4     libucrt:signal.obj
 0003:00000ad4       $pdata$?fin$0@?0???$?RV<lambda_d80eeec6fff315bfe5c115232f3240e3>@@AEAV<lambda_6e4b09c48022b2350581041d5f6b0c4c>@@V<lambda_2358e3775559c9db80273638284d5e45>@@@?$__crt_seh_guarded_call@X@@QEAAX$$QEAV<lambda_d80eeec6fff315bfe5c115232f3240e3>@@AEAV<lambda_6e4b09c48022b2350581041d5f6b0c4c>@@$$QEAV<lambda_2358e3775559c9db80273638284d5e45>@@@Z@4HA 0000000180021ad4     libucrt:exit.obj
 0003:00000ad4       $pdata$?fin$0@?0???$?RV<lambda_7777bce6b2f8c936911f934f8298dc43>@@AEAV<lambda_f03950bc5685219e0bcd2087efbe011e>@@V<lambda_3883c3dff614d5e0c5f61bb1ac94921c>@@@?$__crt_seh_guarded_call@H@@QEAAH$$QEAV<lambda_7777bce6b2f8c936911f934f8298dc43>@@AEAV<lambda_f03950bc5685219e0bcd2087efbe011e>@@$$QEAV<lambda_3883c3dff614d5e0c5f61bb1ac94921c>@@@Z@4HA 0000000180021ad4     libucrt:onexit.obj
 0003:00000ae0       $pdata$_configure_narrow_argv 0000000180021ae0     libucrt:argv_parsing.obj
 0003:00000aec       $pdata$__acrt_allocate_buffer_for_argv 0000000180021aec     libucrt:argv_parsing.obj
 0003:00000af8       $pdata$??$parse_command_line@D@@YAXPEADPEAPEAD0PEA_K2@Z 0000000180021af8     libucrt:argv_parsing.obj
 0003:00000b04       $pdata$__dcrt_uninitialize_environments_nolock 0000000180021b04     libucrt:environment_initialization.obj
 0003:00000b10       $pdata$??$common_initialize_environment_nolock@D@@YAHXZ 0000000180021b10     libucrt:environment_initialization.obj
 0003:00000b1c       $pdata$??$uninitialize_environment_internal@D@@YAXAEAPEAPEAD@Z 0000000180021b1c     libucrt:environment_initialization.obj
 0003:00000b28       $pdata$??$uninitialize_environment_internal@_W@@YAXAEAPEAPEA_W@Z 0000000180021b28     libucrt:environment_initialization.obj
 0003:00000b34       $pdata$??$free_environment@D@@YAXQEAPEAD@Z 0000000180021b34     libucrt:environment_initialization.obj
 0003:00000b34       $pdata$??$free_environment@_W@@YAXQEAPEA_W@Z 0000000180021b34     libucrt:environment_initialization.obj
 0003:00000b40       $pdata$??$create_environment@D@@YAQEAPEADQEAD@Z 0000000180021b40     libucrt:environment_initialization.obj
 0003:00000b4c       $pdata$_execute_onexit_table 0000000180021b4c     libucrt:onexit.obj
 0003:00000b58       $pdata$??R<lambda_f03950bc5685219e0bcd2087efbe011e>@@QEBAHXZ 0000000180021b58     libucrt:onexit.obj
 0003:00000b64       $pdata$??$?RV<lambda_7777bce6b2f8c936911f934f8298dc43>@@AEAV<lambda_f03950bc5685219e0bcd2087efbe011e>@@V<lambda_3883c3dff614d5e0c5f61bb1ac94921c>@@@?$__crt_seh_guarded_call@H@@QEAAH$$QEAV<lambda_7777bce6b2f8c936911f934f8298dc43>@@AEAV<lambda_f03950bc5685219e0bcd2087efbe011e>@@$$QEAV<lambda_3883c3dff614d5e0c5f61bb1ac94921c>@@@Z 0000000180021b64     libucrt:onexit.obj
 0003:00000b70       $pdata$__acrt_uninitialize 0000000180021b70     libucrt:initialization.obj
 0003:00000b7c       $pdata$__acrt_uninitialize_critical 0000000180021b7c     libucrt:initialization.obj
 0003:00000b88       $pdata$__acrt_thread_attach 0000000180021b88     libucrt:initialization.obj
 0003:00000b94       $pdata$__acrt_thread_detach 0000000180021b94     libucrt:initialization.obj
 0003:00000ba0       $pdata$initialize_c        0000000180021ba0     libucrt:initialization.obj
 0003:00000bac       $pdata$uninitialize_environment 0000000180021bac     libucrt:initialization.obj
 0003:00000bb8       $pdata$initialize_pointers 0000000180021bb8     libucrt:initialization.obj
 0003:00000bc4       $pdata$uninitialize_allocated_memory 0000000180021bc4     libucrt:initialization.obj
 0003:00000bd0       $pdata$uninitialize_allocated_io_buffers 0000000180021bd0     libucrt:initialization.obj
 0003:00000bdc       $pdata$terminate           0000000180021bdc     libucrt:terminate.obj
 0003:00000be8       $pdata$_wcsdup             0000000180021be8     libucrt:wcsdup.obj
 0003:00000bf4       $pdata$abort               0000000180021bf4     libucrt:abort.obj
 0003:00000c00       $pdata$strcpy_s            0000000180021c00     libucrt:strcpy_s.obj
 0003:00000c0c       $pdata$??0_LocaleUpdate@@QEAA@QEAU__crt_locale_pointers@@@Z 0000000180021c0c     libucrt:output.obj
 0003:00000c24       $pdata$_calloc_base        0000000180021c24     libucrt:calloc_base.obj
 0003:00000c30       $pdata$_free_base          0000000180021c30     libucrt:free_base.obj
 0003:00000c3c       $pdata$_malloc_base        0000000180021c3c     libucrt:malloc_base.obj
 0003:00000c48       $pdata$_realloc_base       0000000180021c48     libucrt:realloc_base.obj
 0003:00000c54       $pdata$__acrt_initialize_locks 0000000180021c54     libucrt:locks.obj
 0003:00000c60       $pdata$__acrt_uninitialize_locks 0000000180021c60     libucrt:locks.obj
 0003:00000c6c       $pdata$__acrt_initialize_ptd 0000000180021c6c     libucrt:per_thread_data.obj
 0003:00000c78       $pdata$__acrt_uninitialize_ptd 0000000180021c78     libucrt:per_thread_data.obj
 0003:00000c84       $pdata$__acrt_getptd       0000000180021c84     libucrt:per_thread_data.obj
 0003:00000c90       $pdata$__acrt_getptd_head  0000000180021c90     libucrt:per_thread_data.obj
 0003:00000c9c       $pdata$__acrt_getptd_noexit 0000000180021c9c     libucrt:per_thread_data.obj
 0003:00000ca8       $pdata$__acrt_freeptd      0000000180021ca8     libucrt:per_thread_data.obj
 0003:00000cb4       $pdata$?destroy_fls@@YAXPEAX@Z 0000000180021cb4     libucrt:per_thread_data.obj
 0003:00000cc0       $pdata$?replace_current_thread_locale_nolock@@YAXQEAU__acrt_ptd@@QEAU__crt_locale_data@@@Z 0000000180021cc0     libucrt:per_thread_data.obj
 0003:00000ccc       $pdata$?construct_ptd_array@@YAXQEAU__acrt_ptd@@@Z 0000000180021ccc     libucrt:per_thread_data.obj
 0003:00000cd8       $pdata$?destroy_ptd_array@@YAXQEAU__acrt_ptd@@@Z 0000000180021cd8     libucrt:per_thread_data.obj
 0003:00000ce4       $pdata$??$?RV<lambda_0ae27a3a962d80f24befdcbee591983d>@@AEAV<lambda_8d0ee55de4b1038c4002e0adecdf1839>@@V<lambda_dc504788e8f1664fe9b84e20bfb512f2>@@@?$__crt_seh_guarded_call@X@@QEAAX$$QEAV<lambda_0ae27a3a962d80f24befdcbee591983d>@@AEAV<lambda_8d0ee55de4b1038c4002e0adecdf1839>@@$$QEAV<lambda_dc504788e8f1664fe9b84e20bfb512f2>@@@Z 0000000180021ce4     libucrt:per_thread_data.obj
 0003:00000cf0       $pdata$??$?RV<lambda_aa87e3671a710a21b5dc78c0bdf72e11>@@AEAV<lambda_92619d2358a28f41a33ba319515a20b9>@@V<lambda_6992ecaafeb10aed2b74cb1fae11a551>@@@?$__crt_seh_guarded_call@X@@QEAAX$$QEAV<lambda_aa87e3671a710a21b5dc78c0bdf72e11>@@AEAV<lambda_92619d2358a28f41a33ba319515a20b9>@@$$QEAV<lambda_6992ecaafeb10aed2b74cb1fae11a551>@@@Z 0000000180021cf0     libucrt:per_thread_data.obj
 0003:00000cfc       $pdata$??$?RV<lambda_f2e299630e499de9f9a165e60fcd3db5>@@AEAV<lambda_2ae9d31cdba2644fcbeaf08da7c24588>@@V<lambda_40d01ff24d0e7b3814fdbdcee8eab3c7>@@@?$__crt_seh_guarded_call@X@@QEAAX$$QEAV<lambda_f2e299630e499de9f9a165e60fcd3db5>@@AEAV<lambda_2ae9d31cdba2644fcbeaf08da7c24588>@@$$QEAV<lambda_40d01ff24d0e7b3814fdbdcee8eab3c7>@@@Z 0000000180021cfc     libucrt:per_thread_data.obj
 0003:00000d08       $pdata$??$?RV<lambda_2d41944a1d46af3157314b8a01080d33>@@AEAV<lambda_8f455de75cd7d7f24b4096f044d8b9e6>@@V<lambda_aa500f224e6afead328df44964fe2772>@@@?$__crt_seh_guarded_call@X@@QEAAX$$QEAV<lambda_2d41944a1d46af3157314b8a01080d33>@@AEAV<lambda_8f455de75cd7d7f24b4096f044d8b9e6>@@$$QEAV<lambda_aa500f224e6afead328df44964fe2772>@@@Z 0000000180021d08     libucrt:per_thread_data.obj
 0003:00000d14       $pdata$__acrt_get_process_end_policy 0000000180021d14     libucrt:win_policies.obj
 0003:00000d20       $pdata$_invalid_parameter_noinfo 0000000180021d20     libucrt:invalid_parameter.obj
 0003:00000d2c       $pdata$_invoke_watson      0000000180021d2c     libucrt:invalid_parameter.obj
 0003:00000d38       $pdata$__acrt_call_reportfault 0000000180021d38     libucrt:invalid_parameter.obj
 0003:00000d44       $pdata$_invalid_parameter  0000000180021d44     libucrt:invalid_parameter.obj
 0003:00000d50       $pdata$_errno              0000000180021d50     libucrt:errno.obj
 0003:00000d5c       $pdata$__doserrno          0000000180021d5c     libucrt:errno.obj
 0003:00000d68       $pdata$__acrt_errno_map_os_error 0000000180021d68     libucrt:errno.obj
 0003:00000d74       $pdata$??$__acrt_mbs_to_wcs_cp@U__crt_win32_buffer_internal_dynamic_resizing@@@@YAHQEBDAEAV?$__crt_win32_buffer@_WU__crt_win32_buffer_internal_dynamic_resizing@@@@I@Z 0000000180021d74     libucrt:argv_wildcards.obj
 0003:00000d80       $pdata$??$__acrt_wcs_to_mbs_cp@U__crt_win32_buffer_internal_dynamic_resizing@@@@YAHQEB_WAEAV?$__crt_win32_buffer@DU__crt_win32_buffer_internal_dynamic_resizing@@@@I@Z 0000000180021d80     libucrt:argv_wildcards.obj
 0003:00000d8c       $pdata$??$common_expand_argv_wildcards@D@@YAHQEAPEADQEAPEAPEAD@Z 0000000180021d8c     libucrt:argv_wildcards.obj
 0003:00000d98       $pdata$??$copy_and_add_argument_to_buffer@D@@YAHQEBD0_KAEAV?$argument_list@D@?A0x5f5c8891@@@Z 0000000180021d98     libucrt:argv_wildcards.obj
 0003:00000da4       $pdata$??$expand_argument_wildcards@D@@YAHQEAD0AEAV?$argument_list@D@?A0x5f5c8891@@@Z 0000000180021da4     libucrt:argv_wildcards.obj
 0003:00000db0       $pdata$__acrt_GetModuleFileNameA 0000000180021db0     libucrt:getmodulefilenamea.obj
 0003:00000dbc       $pdata$??$__acrt_wcs_to_mbs_cp@U__crt_win32_buffer_no_resizing@@@@YAHQEB_WAEAV?$__crt_win32_buffer@DU__crt_win32_buffer_no_resizing@@@@I@Z 0000000180021dbc     libucrt:getmodulefilenamea.obj
 0003:00000dc8       $pdata$__acrt_update_thread_multibyte_data 0000000180021dc8     libucrt:mbctype.obj
 0003:00000dd4       $pdata$__acrt_initialize_multibyte 0000000180021dd4     libucrt:mbctype.obj
 0003:00000de0       $pdata$_setmbcp_nolock     0000000180021de0     libucrt:mbctype.obj
 0003:00000dec       $pdata$?getSystemCP@@YAHH@Z 0000000180021dec     libucrt:mbctype.obj
 0003:00000df8       $pdata$?setSBCS@@YAXPEAU__crt_multibyte_data@@@Z 0000000180021df8     libucrt:mbctype.obj
 0003:00000e04       $pdata$?update_thread_multibyte_data_internal@@YAPEAU__crt_multibyte_data@@QEAU__acrt_ptd@@QEAPEAU1@@Z 0000000180021e04     libucrt:mbctype.obj
 0003:00000e10       $pdata$?fin$0@?0??update_thread_multibyte_data_internal@@YAPEAU__crt_multibyte_data@@QEAU__acrt_ptd@@QEAPEAU1@@Z@4HA 0000000180021e10     libucrt:mbctype.obj
 0003:00000e1c       $pdata$?setmbcp_internal@@YAHH_NQEAU__acrt_ptd@@QEAPEAU__crt_multibyte_data@@@Z 0000000180021e1c     libucrt:mbctype.obj
 0003:00000e28       $pdata$?setSBUpLow@@YAXPEAU__crt_multibyte_data@@@Z 0000000180021e28     libucrt:mbctype.obj
 0003:00000e34       $pdata$??$?RV<lambda_efdfa57d1f175319df784efa44bb7b81>@@AEAV<lambda_5f0a4c1567f8adc6734073e5d1e1b35c>@@V<lambda_2e8a7d3640ea6ccb4c2413664c2db6fd>@@@?$__crt_seh_guarded_call@X@@QEAAX$$QEAV<lambda_efdfa57d1f175319df784efa44bb7b81>@@AEAV<lambda_5f0a4c1567f8adc6734073e5d1e1b35c>@@$$QEAV<lambda_2e8a7d3640ea6ccb4c2413664c2db6fd>@@@Z 0000000180021e34     libucrt:mbctype.obj
 0003:00000e40       $pdata$?x_ismbbtype_l@@YAHPEAU__crt_locale_pointers@@IHH@Z 0000000180021e40     libucrt:ismbbyte.obj
 0003:00000e4c       $pdata$__acrt_initialize_command_line 0000000180021e4c     libucrt:argv_data.obj
 0003:00000e58       $pdata$wcscpy_s            0000000180021e58     libucrt:wcscpy_s.obj
 0003:00000e64       $pdata$__acrt_WideCharToMultiByte 0000000180021e64     libucrt:widechartomultibyte.obj
 0003:00000e70       $pdata$__dcrt_get_narrow_environment_from_os 0000000180021e70     libucrt:get_environment_from_os.obj
 0003:00000e7c       $pdata$_recalloc_base      0000000180021e7c     libucrt:recalloc.obj
 0003:00000e88       $pdata$__acrt_initialize_winapi_thunks 0000000180021e88     libucrt:winapi_thunks.obj
 0003:00000e94       $pdata$__acrt_uninitialize_winapi_thunks 0000000180021e94     libucrt:winapi_thunks.obj
 0003:00000ea0       $pdata$__acrt_AreFileApisANSI 0000000180021ea0     libucrt:winapi_thunks.obj
 0003:00000eac       $pdata$__acrt_FlsAlloc     0000000180021eac     libucrt:winapi_thunks.obj
 0003:00000eb8       $pdata$__acrt_FlsFree      0000000180021eb8     libucrt:winapi_thunks.obj
 0003:00000ec4       $pdata$__acrt_FlsGetValue  0000000180021ec4     libucrt:winapi_thunks.obj
 0003:00000ed0       $pdata$__acrt_FlsSetValue  0000000180021ed0     libucrt:winapi_thunks.obj
 0003:00000edc       $pdata$__acrt_InitializeCriticalSectionEx 0000000180021edc     libucrt:winapi_thunks.obj
 0003:00000ee8       $pdata$__acrt_LCMapStringEx 0000000180021ee8     libucrt:winapi_thunks.obj
 0003:00000ef4       $pdata$__acrt_LocaleNameToLCID 0000000180021ef4     libucrt:winapi_thunks.obj
 0003:00000f00       $pdata$__acrt_AppPolicyGetProcessTerminationMethodInternal 0000000180021f00     libucrt:winapi_thunks.obj
 0003:00000f0c       $pdata$?try_get_function@@YAPEAXW4function_id@?A0x391cf84c@@QEBDQEBW4module_id@2@2@Z 0000000180021f0c     libucrt:winapi_thunks.obj
 0003:00000f18       $pdata$__acrt_initialize_heap 0000000180021f18     libucrt:heap_handle.obj
 0003:00000f24       $pdata$__acrt_initialize_lowio 0000000180021f24     libucrt:ioinit.obj
 0003:00000f30       $pdata$__acrt_initialize_lowio$fin$0 0000000180021f30     libucrt:ioinit.obj
 0003:00000f30       $pdata$__acrt_lowio_ensure_fh_exists$fin$0 0000000180021f30     libucrt:osfinfo.obj
 0003:00000f3c       $pdata$__acrt_uninitialize_lowio 0000000180021f3c     libucrt:ioinit.obj
 0003:00000f48       $pdata$?initialize_inherited_file_handles_nolock@@YAXXZ 0000000180021f48     libucrt:ioinit.obj
 0003:00000f54       $pdata$?initialize_stdio_handles_nolock@@YAXXZ 0000000180021f54     libucrt:ioinit.obj
 0003:00000f60       $pdata$__acrt_execute_initializers 0000000180021f60     libucrt:shared_initialization.obj
 0003:00000f6c       $pdata$__acrt_execute_uninitializers 0000000180021f6c     libucrt:shared_initialization.obj
 0003:00000f78       $pdata$__acrt_get_sigabrt_handler 0000000180021f78     libucrt:signal.obj
 0003:00000f84       $pdata$raise               0000000180021f84     libucrt:signal.obj
 0003:00000f90       $pdata$raise$fin$0         0000000180021f90     libucrt:signal.obj
 0003:00000f9c       $pdata$??$?RV<lambda_450d765d439847d4c735a33c368b5fc0>@@AEAV<lambda_44731a7d0e6d81c3e6aa82d741081786>@@V<lambda_601a2a7da3b7a96e9554ac7215c4b07c>@@@?$__crt_seh_guarded_call@P6AXH@Z@@QEAAP6AXH@Z$$QEAV<lambda_450d765d439847d4c735a33c368b5fc0>@@AEAV<lambda_44731a7d0e6d81c3e6aa82d741081786>@@$$QEAV<lambda_601a2a7da3b7a96e9554ac7215c4b07c>@@@Z 0000000180021f9c     libucrt:signal.obj
 0003:00000fa8       $pdata$_fflush_nolock      0000000180021fa8     libucrt:fflush.obj
 0003:00000fb4       $pdata$__acrt_stdio_flush_nolock 0000000180021fb4     libucrt:fflush.obj
 0003:00000fc0       $pdata$?common_flush_all@@YAH_N@Z 0000000180021fc0     libucrt:fflush.obj
 0003:00000fcc       $pdata$??$?RV<lambda_842d9ff0dc9ef11c61343bbaebe7f885>@@AEAV<lambda_c5860995281e5c4ce005b3de8f5874ee>@@V<lambda_d90129c13df834fdcbf8d2b88dafcf2d>@@@?$__crt_seh_guarded_call@X@@QEAAX$$QEAV<lambda_842d9ff0dc9ef11c61343bbaebe7f885>@@AEAV<lambda_c5860995281e5c4ce005b3de8f5874ee>@@$$QEAV<lambda_d90129c13df834fdcbf8d2b88dafcf2d>@@@Z 0000000180021fcc     libucrt:fflush.obj
 0003:00000fd8       $pdata$?fin$0@?0???$?RV<lambda_842d9ff0dc9ef11c61343bbaebe7f885>@@AEAV<lambda_c5860995281e5c4ce005b3de8f5874ee>@@V<lambda_d90129c13df834fdcbf8d2b88dafcf2d>@@@?$__crt_seh_guarded_call@X@@QEAAX$$QEAV<lambda_842d9ff0dc9ef11c61343bbaebe7f885>@@AEAV<lambda_c5860995281e5c4ce005b3de8f5874ee>@@$$QEAV<lambda_d90129c13df834fdcbf8d2b88dafcf2d>@@@Z@4HA 0000000180021fd8     libucrt:fflush.obj
 0003:00000fe4       $pdata$??$?RV<lambda_886d6c58226a84441f68b9f2b8217b83>@@AEAV<lambda_ab61a845afdef5b7c387490eaf3616ee>@@V<lambda_f7f22ab5edc0698d5f6905b0d3f44752>@@@?$__crt_seh_guarded_call@X@@QEAAX$$QEAV<lambda_886d6c58226a84441f68b9f2b8217b83>@@AEAV<lambda_ab61a845afdef5b7c387490eaf3616ee>@@$$QEAV<lambda_f7f22ab5edc0698d5f6905b0d3f44752>@@@Z 0000000180021fe4     libucrt:fflush.obj
 0003:00000ff0       $pdata$?fin$0@?0???$?RV<lambda_886d6c58226a84441f68b9f2b8217b83>@@AEAV<lambda_ab61a845afdef5b7c387490eaf3616ee>@@V<lambda_f7f22ab5edc0698d5f6905b0d3f44752>@@@?$__crt_seh_guarded_call@X@@QEAAX$$QEAV<lambda_886d6c58226a84441f68b9f2b8217b83>@@AEAV<lambda_ab61a845afdef5b7c387490eaf3616ee>@@$$QEAV<lambda_f7f22ab5edc0698d5f6905b0d3f44752>@@@Z@4HA 0000000180021ff0     libucrt:fflush.obj
 0003:00000ffc       $pdata$__acrt_initialize_stdio 0000000180021ffc     libucrt:_file.obj
 0003:00001008       $pdata$__acrt_uninitialize_stdio 0000000180022008     libucrt:_file.obj
 0003:00001014       $pdata$_mbtowc_l           0000000180022014     libucrt:mbtowc.obj
 0003:00001020       $pdata$__acrt_update_locale_info 0000000180022020     libucrt:locale_update.obj
 0003:0000102c       $pdata$__acrt_update_multibyte_info 000000018002202c     libucrt:locale_update.obj
 0003:00001038       $pdata$_fileno             0000000180022038     libucrt:fileno.obj
 0003:00001044       $pdata$__acrt_uninitialize_locale 0000000180022044     libucrt:wsetlocale.obj
 0003:00001050       $pdata$??$?RV<lambda_410d79af7f07d98d83a3f525b3859a53>@@AEAV<lambda_3e16ef9562a7dcce91392c22ab16ea36>@@V<lambda_38119f0e861e05405d8a144b9b982f0a>@@@?$__crt_seh_guarded_call@X@@QEAAX$$QEAV<lambda_410d79af7f07d98d83a3f525b3859a53>@@AEAV<lambda_3e16ef9562a7dcce91392c22ab16ea36>@@$$QEAV<lambda_38119f0e861e05405d8a144b9b982f0a>@@@Z 0000000180022050     libucrt:wsetlocale.obj
 0003:0000105c       $pdata$?fin$0@?0???$?RV<lambda_410d79af7f07d98d83a3f525b3859a53>@@AEAV<lambda_3e16ef9562a7dcce91392c22ab16ea36>@@V<lambda_38119f0e861e05405d8a144b9b982f0a>@@@?$__crt_seh_guarded_call@X@@QEAAX$$QEAV<lambda_410d79af7f07d98d83a3f525b3859a53>@@AEAV<lambda_3e16ef9562a7dcce91392c22ab16ea36>@@$$QEAV<lambda_38119f0e861e05405d8a144b9b982f0a>@@@Z@4HA 000000018002205c     libucrt:wsetlocale.obj
 0003:00001068       $pdata$__pctype_func       0000000180022068     libucrt:ctype.obj
 0003:00001074       $pdata$__acrt_release_locale_ref 0000000180022074     libucrt:locale_refcounting.obj
 0003:00001080       $pdata$__acrt_free_locale  0000000180022080     libucrt:locale_refcounting.obj
 0003:0000108c       $pdata$__acrt_locale_free_lc_time_if_unreferenced 000000018002208c     libucrt:locale_refcounting.obj
 0003:00001098       $pdata$__acrt_update_thread_locale_data 0000000180022098     libucrt:locale_refcounting.obj
 0003:000010a4       $pdata$__acrt_update_thread_locale_data$fin$0 00000001800220a4     libucrt:locale_refcounting.obj
 0003:000010b0       $pdata$_updatetlocinfoEx_nolock 00000001800220b0     libucrt:locale_refcounting.obj
 0003:000010bc       $pdata$qsort               00000001800220bc     libucrt:qsort.obj
 0003:000010c8       $pdata$4$qsort             00000001800220c8     libucrt:qsort.obj
 0003:000010d4       $pdata$5$qsort             00000001800220d4     libucrt:qsort.obj
 0003:000010e0       $pdata$strncpy_s           00000001800220e0     libucrt:strncpy_s.obj
 0003:000010ec       $pdata$strpbrk             00000001800220ec     libucrt:strpbrk.obj
 0003:000010f8       $pdata$fallbackMethod      00000001800220f8     libucrt:strpbrk.obj
 0003:00001104       $pdata$_mbsdec_l           0000000180022104     libucrt:mbsdec.obj
 0003:00001110       $pdata$__acrt_GetStringTypeA 0000000180022110     libucrt:getstringtypea.obj
 0003:0000111c       $pdata$__acrt_LCMapStringA 000000018002211c     libucrt:lcmapstringa.obj
 0003:00001128       $pdata$?__acrt_LCMapStringA_stat@@YAHPEAU__crt_locale_pointers@@PEB_WKPEBDHPEADHHH@Z 0000000180022128     libucrt:lcmapstringa.obj
 0003:00001134       $pdata$?initialize_multibyte@@YAHXZ 0000000180022134     libucrt:multibyte_initializer.obj
 0003:00001140       $pdata$_msize_base         0000000180022140     libucrt:msize.obj
 0003:0000114c       $pdata$__acrt_DownlevelLocaleNameToLCID 000000018002214c     libucrt:lcidtoname_downlevel.obj
 0003:00001158       $pdata$_get_osfhandle      0000000180022158     libucrt:osfinfo.obj
 0003:00001164       $pdata$_free_osfhnd        0000000180022164     libucrt:osfinfo.obj
 0003:00001170       $pdata$__acrt_lowio_create_handle_array 0000000180022170     libucrt:osfinfo.obj
 0003:0000117c       $pdata$__acrt_lowio_destroy_handle_array 000000018002217c     libucrt:osfinfo.obj
 0003:00001188       $pdata$__acrt_lowio_ensure_fh_exists 0000000180022188     libucrt:osfinfo.obj
 0003:00001194       $pdata$_commit             0000000180022194     libucrt:commit.obj
 0003:000011a0       $pdata$??$?RV<lambda_a37b2b86f63e897a80ea819b0eb08c01>@@AEAV<lambda_38ce7e780aa69e748d6df282ebc68efe>@@V<lambda_99fb1378e971ab6e7edea83e3a7a83a2>@@@?$__crt_seh_guarded_call@H@@QEAAH$$QEAV<lambda_a37b2b86f63e897a80ea819b0eb08c01>@@AEAV<lambda_38ce7e780aa69e748d6df282ebc68efe>@@$$QEAV<lambda_99fb1378e971ab6e7edea83e3a7a83a2>@@@Z 00000001800221a0     libucrt:commit.obj
 0003:000011ac       $pdata$?fin$0@?0???$?RV<lambda_751a882b2c74d4b022dec766aa51a29a>@@AEAV<lambda_628dfdc04ba53c8bfc02c9951375f3f5>@@V<lambda_f6c7be5f7998530c34de24c7437d6b54>@@@?$__crt_seh_guarded_call@H@@QEAAH$$QEAV<lambda_751a882b2c74d4b022dec766aa51a29a>@@AEAV<lambda_628dfdc04ba53c8bfc02c9951375f3f5>@@$$QEAV<lambda_f6c7be5f7998530c34de24c7437d6b54>@@@Z@4HA 00000001800221ac     libucrt:close.obj
 0003:000011ac       $pdata$?fin$0@?0???$?RV<lambda_a37b2b86f63e897a80ea819b0eb08c01>@@AEAV<lambda_38ce7e780aa69e748d6df282ebc68efe>@@V<lambda_99fb1378e971ab6e7edea83e3a7a83a2>@@@?$__crt_seh_guarded_call@H@@QEAAH$$QEAV<lambda_a37b2b86f63e897a80ea819b0eb08c01>@@AEAV<lambda_38ce7e780aa69e748d6df282ebc68efe>@@$$QEAV<lambda_99fb1378e971ab6e7edea83e3a7a83a2>@@@Z@4HA 00000001800221ac     libucrt:commit.obj
 0003:000011b8       $pdata$_write              00000001800221b8     libucrt:write.obj
 0003:000011c4       $pdata$_write$fin$0        00000001800221c4     libucrt:write.obj
 0003:000011d0       $pdata$_write_nolock       00000001800221d0     libucrt:write.obj
 0003:000011dc       $pdata$?write_double_translated_ansi_nolock@@YA?AUwrite_result@?A0x17268360@@HQEBDI@Z 00000001800221dc     libucrt:write.obj
 0003:000011e8       $pdata$?write_text_ansi_nolock@@YA?AUwrite_result@?A0x17268360@@HQEBDI@Z 00000001800221e8     libucrt:write.obj
 0003:000011f4       $pdata$?write_text_utf16le_nolock@@YA?AUwrite_result@?A0x17268360@@HQEBDI@Z 00000001800221f4     libucrt:write.obj
 0003:00001200       $pdata$?write_text_utf8_nolock@@YA?AUwrite_result@?A0x17268360@@HQEBDI@Z 0000000180022200     libucrt:write.obj
 0003:0000120c       $pdata$_fcloseall          000000018002220c     libucrt:closeall.obj
 0003:00001218       $pdata$_fcloseall$fin$0    0000000180022218     libucrt:closeall.obj
 0003:00001224       $pdata$__acrt_stdio_free_buffer_nolock 0000000180022224     libucrt:_freebuf.obj
 0003:00001230       $pdata$_isatty             0000000180022230     libucrt:isatty.obj
 0003:0000123c       $pdata$_isleadbyte_l       000000018002223c     libucrt:_wctype.obj
 0003:00001248       $pdata$?__mbrtowc_utf8@__crt_mbstring@@YA_KPEA_WPEBD_KPEAU_Mbstatet@@@Z 0000000180022248     libucrt:mbrtowc.obj
 0003:00001254       $pdata$?__mbsrtowcs_utf8@__crt_mbstring@@YA_KPEA_WPEAPEBD_KPEAU_Mbstatet@@@Z 0000000180022254     libucrt:mbrtowc.obj
 0003:00001260       $pdata$__acrt_locale_free_monetary 0000000180022260     libucrt:initmon.obj
 0003:0000126c       $pdata$__acrt_locale_free_numeric 000000018002226c     libucrt:initnum.obj
 0003:00001278       $pdata$__acrt_locale_free_time 0000000180022278     libucrt:inittime.obj
 0003:00001284       $pdata$?free_crt_array_internal@@YAXQEAPEBX_K@Z 0000000180022284     libucrt:inittime.obj
 0003:00001290       $pdata$??$common_lseek_nolock@_J@@YA_JH_JH@Z 0000000180022290     libucrt:lseek.obj
 0003:0000129c       $pdata$_putwch_nolock      000000018002229c     libucrt:putwch.obj
 0003:000012a8       $pdata$fclose              00000001800222a8     libucrt:fclose.obj
 0003:000012b4       $pdata$fclose$fin$0        00000001800222b4     libucrt:fclose.obj
 0003:000012c0       $pdata$_fclose_nolock      00000001800222c0     libucrt:fclose.obj
 0003:000012cc       $pdata$?__mbrtoc32_utf8@__crt_mbstring@@YA_KPEA_UPEBD_KPEAU_Mbstatet@@@Z 00000001800222cc     libucrt:mbrtoc32.obj
 0003:000012e4       $pdata$__dcrt_lowio_ensure_console_output_initialized 00000001800222e4     libucrt:initcon.obj
 0003:000012f0       $pdata$__dcrt_write_console 00000001800222f0     libucrt:initcon.obj
 0003:000012fc       $pdata$__dcrt_terminate_console_output 00000001800222fc     libucrt:initcon.obj
 0003:00001308       $pdata$_close              0000000180022308     libucrt:close.obj
 0003:00001314       $pdata$_close_nolock       0000000180022314     libucrt:close.obj
 0003:00001320       $pdata$??$?RV<lambda_751a882b2c74d4b022dec766aa51a29a>@@AEAV<lambda_628dfdc04ba53c8bfc02c9951375f3f5>@@V<lambda_f6c7be5f7998530c34de24c7437d6b54>@@@?$__crt_seh_guarded_call@H@@QEAAH$$QEAV<lambda_751a882b2c74d4b022dec766aa51a29a>@@AEAV<lambda_628dfdc04ba53c8bfc02c9951375f3f5>@@$$QEAV<lambda_f6c7be5f7998530c34de24c7437d6b54>@@@Z 0000000180022320     libucrt:close.obj
 0003:0000132c       $pdata$_call_matherr       000000018002232c     libucrt:libm_error.obj
 0003:00001338       $pdata$_exception_enabled  0000000180022338     libucrt:libm_error.obj
 0003:00001344       $pdata$_handle_error       0000000180022344     libucrt:libm_error.obj
 0003:00001350       $pdata$__acrt_initialize_fma3 0000000180022350     libucrt:fma3_available.obj
 0003:0000135c       $pdata$_log_special_common 000000018002235c     libucrt:log_special.obj
 0003:00001368       $pdata$_log10_special      0000000180022368     libucrt:log_special.obj
 0003:00001380       $pdata$_set_errno_from_matherr 0000000180022380     libucrt:fpexcept.obj
 0003:0000138c       $pdata$_raise_exc          000000018002238c     libucrt:fpexcept.obj
 0003:00001398       $pdata$_raise_exc_ex       0000000180022398     libucrt:fpexcept.obj
 0003:000013a4       $pdata$_clrfp              00000001800223a4     libucrt:fpctrl.obj
 0003:000013b0       $pdata$_ctrlfp             00000001800223b0     libucrt:fpctrl.obj
 0003:000013bc       $pdata$_ctrlfp$filt$0      00000001800223bc     libucrt:fpctrl.obj
 0003:000013c8       $pdata$_statfp             00000001800223c8     libucrt:fpctrl.obj
 0003:000013d4       $pdata$_set_statfp         00000001800223d4     libucrt:fpctrl.obj
 0003:000013e0       $pdata$_IsNonwritableInCurrentImage 00000001800223e0     LIBCMT:pesect.obj
 0003:000013ec       $pdata$_IsNonwritableInCurrentImage$filt$0 00000001800223ec     LIBCMT:pesect.obj
 0003:000013f8       $pdata$__GSHandlerCheckCommon 00000001800223f8     LIBCMT:gshandler.obj
 0003:00001404       $pdata$__GSHandlerCheck    0000000180022404     LIBCMT:gshandler.obj
 0003:0000141c       $pdata$__report_securityfailure 000000018002241c     LIBCMT:gs_report.obj
 0003:00001428       $pdata$__report_rangecheckfailure 0000000180022428     LIBCMT:gs_report.obj
 0003:00001434       $pdata$__report_gsfailure  0000000180022434     LIBCMT:gs_report.obj
 0003:00001440       $pdata$capture_current_context 0000000180022440     LIBCMT:gs_report.obj
 0003:0000144c       $pdata$capture_previous_context 000000018002244c     LIBCMT:gs_report.obj
 0003:00001458       $pdata$__raise_securityfailure 0000000180022458     LIBCMT:gs_report.obj
 0004:000007ec       .idata$6                   00000001800237ec     kernel32:KERNEL32.dll
 0004:0000080a       .idata$6                   000000018002380a     advapi32:ADVAPI32.dll
 0004:00000828       .idata$6                   0000000180023828     shell32:SHELL32.dll
 0005:00000000       MoveSmall                  0000000180024000     libvcruntime:memcpy.obj
 0005:00000050       MsetTab                    0000000180024050     libvcruntime:memset.obj
 0006:00000060       $R000000                   0000000180025060     TmpPanel.res
