 arclite

 Timestamp is 604923c8 (Wed Mar 10 19:53:44 2021)

 Preferred load address is 0000000180000000

 Start         Length     Name                   Class
 0001:00000000 000005a0H .text$di                CODE
 0001:000005a0 000b4a10H .text$mn                CODE
 0001:000b4fb0 00000020H .text$mn$00             CODE
 0001:000b4fd0 000092e0H .text$x                 CODE
 0001:000be2b0 00000888H .text$yd                CODE
 0002:00000000 000004b0H .idata$5                DATA
 0002:000004b0 00000010H .00cfg                  DATA
 0002:000004c0 00000008H .CRT$XCA                DATA
 0002:000004c8 00000018H .CRT$XCC                DATA
 0002:000004e0 00000010H .CRT$XCL                DATA
 0002:000004f0 00000090H .CRT$XCU                DATA
 0002:00000580 00000008H .CRT$XCZ                DATA
 0002:00000588 00000008H .CRT$XIA                DATA
 0002:00000590 00000028H .CRT$XIC                DATA
 0002:000005b8 00000008H .CRT$XIZ                DATA
 0002:000005c0 00000008H .CRT$XPA                DATA
 0002:000005c8 00000010H .CRT$XPX                DATA
 0002:000005d8 00000008H .CRT$XPXA               DATA
 0002:000005e0 00000008H .CRT$XPZ                DATA
 0002:000005e8 00000008H .CRT$XTA                DATA
 0002:000005f0 00000010H .CRT$XTZ                DATA
 0002:000005f8 00000000H .gfids$y                DATA
 0002:00000600 00013c00H .rdata                  DATA
 0002:00014200 0000411cH .rdata$r                DATA
 0002:0001831c 0000032cH .rdata$zzzdbg           DATA
 0002:00018648 00000008H .rtc$IAA                DATA
 0002:00018650 00000008H .rtc$IZZ                DATA
 0002:00018658 00000008H .rtc$TAA                DATA
 0002:00018660 00000010H .rtc$TZZ                DATA
 0002:00018670 0000e138H .xdata                  DATA
 0002:000267a8 000005a8H .xdata$x                DATA
 0002:00026d50 000001ecH .edata                  DATA
 0002:00026f3c 00000078H .idata$2                DATA
 0002:00026fb4 00000014H .idata$3                DATA
 0002:00026fc8 000004b0H .idata$4                DATA
 0002:00027478 00000ab0H .idata$6                DATA
 0003:00000000 00001250H .data                   DATA
 0003:00001250 00001640H .data$r                 DATA
 0003:00002890 00002414H .bss                    DATA
 0004:00000000 000064ecH .pdata                  DATA
 0005:00000000 00000094H _RDATA                  DATA
 0006:00000000 00000060H .rsrc$01                DATA
 0006:00000060 000002a0H .rsrc$02                DATA

  Address         Publics by Value              Rva+Base               Lib:Object

 0000:00000000       __hybrid_code_map_count    0000000000000000     <absolute>
 0000:00000000       __hybrid_code_map          0000000000000000     <absolute>
 0000:00000000       __guard_iat_count          0000000000000000     <absolute>
 0000:00000000       __guard_longjmp_count      0000000000000000     <absolute>
 0000:00000000       __volatile_metadata        0000000000000000     <absolute>
 0000:00000000       __guard_longjmp_table      0000000000000000     <absolute>
 0000:00000000       __guard_iat_table          0000000000000000     <absolute>
 0000:00000000       __guard_fids_count         0000000000000000     <absolute>
 0000:00000000       ___safe_se_handler_count   0000000000000000     <absolute>
 0000:00000000       __enclave_config           0000000000000000     <absolute>
 0000:00000000       __AbsoluteZero             0000000000000000     <absolute>
 0000:00000000       ___safe_se_handler_table   0000000000000000     <absolute>
 0000:00000000       __guard_fids_table         0000000000000000     <absolute>
 0000:00000000       __hybrid_auxiliary_iat     0000000000000000     <absolute>
 0000:00000000       __dynamic_value_reloc_table 0000000000000000     <absolute>
 0000:00000100       __guard_flags              0000000000000100     <absolute>
 0000:00000000       __ImageBase                0000000180000000     <linker-defined>
 0001:000005a0       ??0Error@@QEAA@JPEBDH@Z    00000001800015a0 f i archive.obj
 0001:00000640       ??0Error@@QEAA@AEBV?$basic_string@_WU?$char_traits@_W@std@@V?$allocator@_W@2@@std@@PEBDH@Z 0000000180001640 f i archive.obj
 0001:000007a0       ??1ComBase@@UEAA@XZ        00000001800017a0 f i archive.obj
 0001:000007b0       ??_GComBase@@UEAAPEAXI@Z   00000001800017b0 f i archive.obj
 0001:000007b0       ??_EComBase@@UEAAPEAXI@Z   00000001800017b0 f i * CIL library *:* CIL module *
 0001:000007e0       ??1PropVariant@@QEAA@XZ    00000001800017e0 f i archive.obj
 0001:00000830       ??4PropVariant@@QEAAAEAV0@_N@Z 0000000180001830 f i archive.obj
 0001:000008b0       ?get_uint@PropVariant@@QEBA_KXZ 00000001800018b0 f i archive.obj
 0001:00000930       ?get_size@PropVariant@@QEBA_KXZ 0000000180001930 f i archive.obj
 0001:000009d0       ?get_str@PropVariant@@QEBA?AV?$basic_string@_WU?$char_traits@_W@std@@V?$allocator@_W@2@@std@@XZ 00000001800019d0 f i archive.obj
 0001:00000a90       ??1Error@@QEAA@XZ          0000000180001a90 f i archive.obj
 0001:00000af0       ??0Error@@QEAA@AEBU0@@Z    0000000180001af0 f i archive.obj
 0001:00000b80       ??0ArcFormat@@QEAA@XZ      0000000180001b80 f i archive.obj
 0001:00000c40       ??1?$map@V?$basic_string@_WU?$char_traits@_W@std@@V?$allocator@_W@2@@std@@V12@U?$less@V?$basic_string@_WU?$char_traits@_W@std@@V?$allocator@_W@2@@std@@@2@V?$allocator@U?$pair@$$CBV?$basic_string@_WU?$char_traits@_W@std@@V?$allocator@_W@2@@std@@V12@@std@@@2@@std@@QEAA@XZ 0000000180001c40 f i archive.obj
 0001:00000c70       ?arc_name@Archive@@QEBA?AV?$basic_string@_WU?$char_traits@_W@std@@V?$allocator@_W@2@@std@@XZ 0000000180001c70 f i archive.obj
 0001:00000d20       ?get_bool_prop@ArcLib@@QEBAJIKAEA_N@Z 0000000180001d20 f   archive.obj
 0001:00000df0       ?get_uint_prop@ArcLib@@QEBAJIKAEAI@Z 0000000180001df0 f   archive.obj
 0001:00000f30       ?get_string_prop@ArcLib@@QEBAJIKAEAV?$basic_string@_WU?$char_traits@_W@std@@V?$allocator@_W@2@@std@@@Z 0000000180001f30 f   archive.obj
 0001:000010f0       ?get_bytes_prop@ArcLib@@QEBAJIKAEAV?$vector@EV?$allocator@E@std@@@std@@@Z 00000001800020f0 f   archive.obj
 0001:000011d0       ?get_arc_types@ArcFormats@@QEBA?AV?$list@V?$vector@EV?$allocator@E@std@@@std@@V?$allocator@V?$vector@EV?$allocator@E@std@@@std@@@2@@std@@XZ 00000001800021d0 f   archive.obj
 0001:00001320       ?find_by_name@ArcFormats@@QEBA?AV?$list@V?$vector@EV?$allocator@E@std@@@std@@V?$allocator@V?$vector@EV?$allocator@E@std@@@std@@@2@@std@@AEBV?$basic_string@_WU?$char_traits@_W@std@@V?$allocator@_W@2@@3@@Z 0000000180002320 f   archive.obj
 0001:00001620       ?find_by_ext@ArcFormats@@QEBA?AV?$list@V?$vector@EV?$allocator@E@std@@@std@@V?$allocator@V?$vector@EV?$allocator@E@std@@@std@@@2@@std@@AEBV?$basic_string@_WU?$char_traits@_W@std@@V?$allocator@_W@2@@3@@Z 0000000180002620 f   archive.obj
 0001:000019d0       ?find_by_name@SfxModules@@QEBA_KAEBV?$basic_string@_WU?$char_traits@_W@std@@V?$allocator@_W@2@@std@@@Z 00000001800029d0 f   archive.obj
 0001:00001cd0       ?to_string@ArcChain@@QEBA?AV?$basic_string@_WU?$char_traits@_W@std@@V?$allocator@_W@2@@std@@XZ 0000000180002cd0 f   archive.obj
 0001:00002170       ??0MyCompressCodecsInfo@@QEAA@AEBV?$vector@UArcLib@@V?$allocator@UArcLib@@@std@@@std@@AEBV?$vector@UCDllCodecInfo@@V?$allocator@UCDllCodecInfo@@@std@@@2@AEBV?$vector@UCDllHasherInfo@@V?$allocator@UCDllHasherInfo@@@std@@@2@_K@Z 0000000180003170 f i archive.obj
 0001:00002600       ?QueryInterface@MyCompressCodecsInfo@@UEAAJAEBU_GUID@@PEAPEAX@Z 0000000180003600 f i archive.obj
 0001:000026b0       ?AddRef@ArchiveTester@@UEAAKXZ 00000001800036b0 f i test.obj
 0001:000026b0       ?AddRef@MyCompressCodecsInfo@@UEAAKXZ 00000001800036b0 f i archive.obj
 0001:000026b0       ?AddRef@FileReadStream@@UEAAKXZ 00000001800036b0 f i update.obj
 0001:000026b0       ?AddRef@ArchiveExtractor@@UEAAKXZ 00000001800036b0 f i extract.obj
 0001:000026b0       ?AddRef@ArchiveUpdater@@UEAAKXZ 00000001800036b0 f i update.obj
 0001:000026c0       ?Release@ArchiveUpdater@@UEAAKXZ 00000001800036c0 f i update.obj
 0001:000026c0       ?Release@ArchiveTester@@UEAAKXZ 00000001800036c0 f i test.obj
 0001:000026c0       ?Release@FileReadStream@@UEAAKXZ 00000001800036c0 f i update.obj
 0001:000026c0       ?Release@MyCompressCodecsInfo@@UEAAKXZ 00000001800036c0 f i archive.obj
 0001:000026c0       ?Release@ArchiveExtractor@@UEAAKXZ 00000001800036c0 f i extract.obj
 0001:000026f0       ?GetNumHashers@MyCompressCodecsInfo@@UEAAIXZ 00000001800036f0 f i archive.obj
 0001:00002700       ?GetHasherProp@MyCompressCodecsInfo@@UEAAJIKPEAUtagPROPVARIANT@@@Z 0000000180003700 f i archive.obj
 0001:00002730       ?CreateHasher@MyCompressCodecsInfo@@UEAAJIPEAPEAUIHasher@@@Z 0000000180003730 f i archive.obj
 0001:00002760       ?GetNumMethods@MyCompressCodecsInfo@@UEAAJPEAI@Z 0000000180003760 f i archive.obj
 0001:00002780       ?GetProperty@MyCompressCodecsInfo@@UEAAJIKPEAUtagPROPVARIANT@@@Z 0000000180003780 f i archive.obj
 0001:00002870       ?CreateDecoder@MyCompressCodecsInfo@@UEAAJIPEBU_GUID@@PEAPEAX@Z 0000000180003870 f i archive.obj
 0001:000028c0       ?CreateEncoder@MyCompressCodecsInfo@@UEAAJIPEBU_GUID@@PEAPEAX@Z 00000001800038c0 f i archive.obj
 0001:00002910       ??_GMyCompressCodecsInfo@@UEAAPEAXI@Z 0000000180003910 f i archive.obj
 0001:00002910       ??_EMyCompressCodecsInfo@@UEAAPEAXI@Z 0000000180003910 f i * CIL library *:* CIL module *
 0001:000029d0       ??1CDllCodecInfo@@QEAA@XZ  00000001800039d0 f i archive.obj
 0001:00002a40       ?get@ArcAPI@@CAPEAV1@XZ    0000000180003a40 f   archive.obj
 0001:00002b20       ?load_libs@ArcAPI@@AEAAXAEBV?$basic_string@_WU?$char_traits@_W@std@@V?$allocator@_W@2@@std@@@Z 0000000180003b20 f   archive.obj
 0001:000032d0       ??1ArcLib@@QEAA@XZ         00000001800042d0 f i archive.obj
 0001:00003360       ?load_codecs@ArcAPI@@AEAAXAEBV?$basic_string@_WU?$char_traits@_W@std@@V?$allocator@_W@2@@std@@@Z 0000000180004360 f   archive.obj
 0001:00004100       ?find@@YAPEBUSfxModuleInfo@@AEBV?$basic_string@_WU?$char_traits@_W@std@@V?$allocator@_W@2@@std@@@Z 0000000180005100 f   archive.obj
 0001:000044e0       ?description@SfxModule@@QEBA?AV?$basic_string@_WU?$char_traits@_W@std@@V?$allocator@_W@2@@std@@XZ 00000001800054e0 f   archive.obj
 0001:00004940       ?find_sfx_modules@ArcAPI@@AEAAXAEBV?$basic_string@_WU?$char_traits@_W@std@@V?$allocator@_W@2@@std@@@Z 0000000180005940 f   archive.obj
 0001:00005080       ??1IdLang@@QEAA@XZ         0000000180006080 f i rsrc.obj
 0001:00005080       ?_Tidy_deallocate@?$basic_string@_WU?$char_traits@_W@std@@V?$allocator@_W@2@@std@@AEAAXXZ 0000000180006080 f i archive.obj
 0001:00005080       ??1FileIndexInfo@@QEAA@XZ  0000000180006080 f i update.obj
 0001:00005080       ??1?$basic_string@_WU?$char_traits@_W@std@@V?$allocator@_W@2@@std@@QEAA@XZ 0000000180006080 f i archive.obj
 0001:00005080       ??1RsrcId@@QEAA@XZ         0000000180006080 f i rsrc.obj
 0001:00005080       ??1SfxModule@@QEAA@XZ      0000000180006080 f i archive.obj
 0001:00005080       ??1CacheRecord@FileWriteCache@@QEAA@XZ 0000000180006080 f i extract.obj
 0001:00005300       ?load@ArcAPI@@AEAAXXZ      0000000180006300 f   archive.obj
 0001:00007310       ??1ArcFormat@@QEAA@XZ      0000000180008310 f i archive.obj
 0001:00007420       ??_GArcAPI@@AEAAPEAXI@Z    0000000180008420 f i archive.obj
 0001:00007570       ?get_default_name@Archive@@AEBA?AV?$basic_string@_WU?$char_traits@_W@std@@V?$allocator@_W@2@@std@@XZ 0000000180008570 f   archive.obj
 0001:00007c30       ?get_temp_file_name@Archive@@AEBA?AV?$basic_string@_WU?$char_traits@_W@std@@V?$allocator@_W@2@@std@@XZ 0000000180008c30 f   archive.obj
 0001:00007f70       ?make_index@Archive@@QEAAXXZ 0000000180008f70 f   archive.obj
 0001:00009320       ??1?$map@IIU?$less@I@std@@V?$allocator@U?$pair@$$CBII@std@@@2@@std@@QEAA@XZ 000000018000a320 f i archive.obj
 0001:00009420       ??1ArcFileInfo@@QEAA@XZ    000000018000a420 f i archive.obj
 0001:00009490       ??1?$stack@IV?$deque@IV?$allocator@I@std@@@std@@@std@@QEAA@XZ 000000018000a490 f i archive.obj
 0001:000094a0       ?find_dir@Archive@@QEAAIAEBV?$basic_string@_WU?$char_traits@_W@std@@V?$allocator@_W@2@@std@@@Z 000000018000a4a0 f   archive.obj
 0001:00009870       ?get_dir_list@Archive@@QEAA?AU?$pair@V?$_Vector_const_iterator@V?$_Vector_val@U?$_Simple_types@I@std@@@std@@@std@@V12@@std@@I@Z 000000018000a870 f   archive.obj
 0001:00009930       ?get_path@Archive@@QEAA?AV?$basic_string@_WU?$char_traits@_W@std@@V?$allocator@_W@2@@std@@I@Z 000000018000a930 f   archive.obj
 0001:00009a80       ?get_file_info@Archive@@QEAA?AUFindData@@I@Z 000000018000aa80 f   archive.obj
 0001:00009b70       ?get_attr@Archive@@QEBAKI@Z 000000018000ab70 f   archive.obj
 0001:00009cd0       ?get_size@Archive@@QEBA_KI@Z 000000018000acd0 f   archive.obj
 0001:00009db0       ?get_ctime@Archive@@QEBA?AU_FILETIME@@I@Z 000000018000adb0 f   archive.obj
 0001:00009ec0       ?get_mtime@Archive@@QEBA?AU_FILETIME@@I@Z 000000018000aec0 f   archive.obj
 0001:00009fd0       ?get_atime@Archive@@QEBA?AU_FILETIME@@I@Z 000000018000afd0 f   archive.obj
 0001:0000a0e0       ?get_anti@Archive@@QEBA_NI@Z 000000018000b0e0 f   archive.obj
 0001:0000a190       ?read_open_results@Archive@@QEAAXXZ 000000018000b190 f   archive.obj
 0001:0000afb0       ??1?$deque@IV?$allocator@I@std@@@std@@QEAA@XZ 000000018000bfb0 f i archive.obj
 0001:0000b080       ??A?$map@IIU?$less@I@std@@V?$allocator@U?$pair@$$CBII@std@@@2@@std@@QEAAAEAIAEBI@Z 000000018000c080 f i archive.obj
 0001:0000b180       ??1?$Buffer@UFarList@@@@QEAA@XZ 000000018000c180 f i farutils.obj
 0001:0000b180       ??1?$Buffer@D@@QEAA@XZ     000000018000c180 f i archive.obj
 0001:0000b180       ??1?$Buffer@UFarListItem@@@@QEAA@XZ 000000018000c180 f i farutils.obj
 0001:0000b180       ??1?$Buffer@UFarDialogItem@@@@QEAA@XZ 000000018000c180 f i farutils.obj
 0001:0000b180       ??1?$Buffer@E@@QEAA@XZ     000000018000c180 f i plugin.obj
 0001:0000b180       ??1?$Buffer@_W@@QEAA@XZ    000000018000c180 f i farutils.obj
 0001:0000b190       ?reserve@?$vector@UArcFileInfo@@V?$allocator@UArcFileInfo@@@std@@@std@@QEAAX_K@Z 000000018000c190 f i archive.obj
 0001:0000b1e0       ?push_back@?$vector@UArcFileInfo@@V?$allocator@UArcFileInfo@@@std@@@std@@QEAAXAEBUArcFileInfo@@@Z 000000018000c1e0 f i archive.obj
 0001:0000b250       ??1?$vector@UCDllHasherInfo@@V?$allocator@UCDllHasherInfo@@@std@@@std@@QEAA@XZ 000000018000c250 f i archive.obj
 0001:0000b250       ??1?$vector@_KV?$allocator@_K@std@@@std@@QEAA@XZ 000000018000c250 f i ui.obj
 0001:0000b250       ??1?$vector@PEB_WV?$allocator@PEB_W@std@@@std@@QEAA@XZ 000000018000c250 f i update.obj
 0001:0000b2b0       ??1?$vector@UCDllCodecInfo@@V?$allocator@UCDllCodecInfo@@@std@@@std@@QEAA@XZ 000000018000c2b0 f i archive.obj
 0001:0000b330       ??1?$vector@UArcLib@@V?$allocator@UArcLib@@@std@@@std@@QEAA@XZ 000000018000c330 f i archive.obj
 0001:0000b3e0       ?_Tidy@?$vector@V?$basic_string@_WU?$char_traits@_W@std@@V?$allocator@_W@2@@std@@V?$allocator@V?$basic_string@_WU?$char_traits@_W@std@@V?$allocator@_W@2@@std@@@2@@std@@AEAAXXZ 000000018000c3e0 f i plugin.obj
 0001:0000b3e0       ??1?$vector@USfxModule@@V?$allocator@USfxModule@@@std@@@std@@QEAA@XZ 000000018000c3e0 f i archive.obj
 0001:0000b450       ?at@?$map@V?$vector@EV?$allocator@E@std@@@std@@UArcFormat@@U?$less@V?$vector@EV?$allocator@E@std@@@std@@@2@V?$allocator@U?$pair@$$CBV?$vector@EV?$allocator@E@std@@@std@@UArcFormat@@@std@@@2@@std@@QEBAAEBUArcFormat@@AEBV?$vector@EV?$allocator@E@std@@@2@@Z 000000018000c450 f i archive.obj
 0001:0000b520       ??1?$vector@V?$vector@EV?$allocator@E@std@@@std@@V?$allocator@V?$vector@EV?$allocator@E@std@@@std@@@2@@std@@QEAA@XZ 000000018000c520 f i archive.obj
 0001:0000b530       ??A?$map@V?$basic_string@_WU?$char_traits@_W@std@@V?$allocator@_W@2@@std@@V12@U?$less@V?$basic_string@_WU?$char_traits@_W@std@@V?$allocator@_W@2@@std@@@2@V?$allocator@U?$pair@$$CBV?$basic_string@_WU?$char_traits@_W@std@@V?$allocator@_W@2@@std@@V12@@std@@@2@@std@@QEAAAEAV?$basic_string@_WU?$char_traits@_W@std@@V?$allocator@_W@2@@1@$$QEAV21@@Z 000000018000c530 f i archive.obj
 0001:0000b680       ??4?$vector@EV?$allocator@E@std@@@std@@QEAAAEAV01@AEBV01@@Z 000000018000c680 f i archive.obj
 0001:0000b6f0       ??1VersionEncoder@@QEAA@XZ 000000018000c6f0 f i rsrc.obj
 0001:0000b6f0       ??1?$vector@EV?$allocator@E@std@@@std@@QEAA@XZ 000000018000c6f0 f i archive.obj
 0001:0000b6f0       ??1ArcEntry@@QEAA@XZ       000000018000c6f0 f i plugin.obj
 0001:0000b750       ??0?$vector@EV?$allocator@E@std@@@std@@QEAA@AEBV01@@Z 000000018000c750 f i archive.obj
 0001:0000b7d0       ??1?$list@V?$vector@EV?$allocator@E@std@@@std@@V?$allocator@V?$vector@EV?$allocator@E@std@@@std@@@2@@std@@QEAA@XZ 000000018000c7d0 f i archive.obj
 0001:0000b800       ??1?$list@V?$basic_string@_WU?$char_traits@_W@std@@V?$allocator@_W@2@@std@@V?$allocator@V?$basic_string@_WU?$char_traits@_W@std@@V?$allocator@_W@2@@std@@@2@@std@@QEAA@XZ 000000018000c800 f i archive.obj
 0001:0000b830       ??0?$list@V?$basic_string@_WU?$char_traits@_W@std@@V?$allocator@_W@2@@std@@V?$allocator@V?$basic_string@_WU?$char_traits@_W@std@@V?$allocator@_W@2@@std@@@2@@std@@QEAA@V?$initializer_list@V?$basic_string@_WU?$char_traits@_W@std@@V?$allocator@_W@2@@std@@@1@@Z 000000018000c830 f i archive.obj
 0001:0000b9d0       ?push_back@?$list@V?$basic_string@_WU?$char_traits@_W@std@@V?$allocator@_W@2@@std@@V?$allocator@V?$basic_string@_WU?$char_traits@_W@std@@V?$allocator@_W@2@@std@@@2@@std@@QEAAX$$QEAV?$basic_string@_WU?$char_traits@_W@std@@V?$allocator@_W@2@@2@@Z 000000018000c9d0 f i archive.obj
 0001:0000ba80       ?empty@?$basic_string@_WU?$char_traits@_W@std@@V?$allocator@_W@2@@std@@QEBA_NXZ 000000018000ca80 f i archive.obj
 0001:0000ba90       ??A?$basic_string@_WU?$char_traits@_W@std@@V?$allocator@_W@2@@std@@QEBAAEB_W_K@Z 000000018000ca90 f i archive.obj
 0001:0000ba90       ??A?$basic_string@_WU?$char_traits@_W@std@@V?$allocator@_W@2@@std@@QEAAAEA_W_K@Z 000000018000ca90 f i archive.obj
 0001:0000bab0       ?clear@?$basic_string@_WU?$char_traits@_W@std@@V?$allocator@_W@2@@std@@QEAAXXZ 000000018000cab0 f i archive.obj
 0001:0000bad0       ?insert@?$basic_string@_WU?$char_traits@_W@std@@V?$allocator@_W@2@@std@@QEAAAEAV12@_K0_W@Z 000000018000cad0 f i archive.obj
 0001:0000bba0       ??4?$basic_string@_WU?$char_traits@_W@std@@V?$allocator@_W@2@@std@@QEAAAEAV01@AEBV01@@Z 000000018000cba0 f i archive.obj
 0001:0000bbd0       ??4?$basic_string@_WU?$char_traits@_W@std@@V?$allocator@_W@2@@std@@QEAAAEAV01@$$QEAV01@@Z 000000018000cbd0 f i archive.obj
 0001:0000bc70       ??0?$basic_string@_WU?$char_traits@_W@std@@V?$allocator@_W@2@@std@@QEAA@QEB_W@Z 000000018000cc70 f i archive.obj
 0001:0000bcb0       ??0?$basic_string@_WU?$char_traits@_W@std@@V?$allocator@_W@2@@std@@QEAA@XZ 000000018000ccb0 f i archive.obj
 0001:0000bcd0       ??0?$basic_string@_WU?$char_traits@_W@std@@V?$allocator@_W@2@@std@@QEAA@AEBV01@@Z 000000018000ccd0 f i archive.obj
 0001:0000bd70       ??1?$_Tidy_guard@V?$vector@EV?$allocator@E@std@@@std@@@std@@QEAA@XZ 000000018000cd70 f i archive.obj
 0001:0000bdd0       ?_Xlength@?$vector@USigData@@V?$allocator@USigData@@@std@@@std@@CAXXZ 000000018000cdd0 f i open.obj
 0001:0000bdd0       ?_Xlength@?$vector@UCDllCodecInfo@@V?$allocator@UCDllCodecInfo@@@std@@@std@@CAXXZ 000000018000cdd0 f i archive.obj
 0001:0000bdd0       ?_Xlength@?$vector@UFarMenuItem@@V?$allocator@UFarMenuItem@@@std@@@std@@CAXXZ 000000018000cdd0 f i farutils.obj
 0001:0000bdd0       ?_Xlength@?$vector@V?$shared_ptr@VArchive@@@std@@V?$allocator@V?$shared_ptr@VArchive@@@std@@@2@@std@@CAXXZ 000000018000cdd0 f i open.obj
 0001:0000bdd0       ?_Xlength@?$vector@UExternalCodec@@V?$allocator@UExternalCodec@@@std@@@std@@CAXXZ 000000018000cdd0 f i options.obj
 0001:0000bdd0       ?_Xlength@?$vector@UCDllHasherInfo@@V?$allocator@UCDllHasherInfo@@@std@@@std@@CAXXZ 000000018000cdd0 f i archive.obj
 0001:0000bdd0       ?_Xlength@?$vector@UArcFileInfo@@V?$allocator@UArcFileInfo@@@std@@@std@@CAXXZ 000000018000cdd0 f i archive.obj
 0001:0000bdd0       ?_Xlength@?$vector@UStrPos@@V?$allocator@UStrPos@@@std@@@std@@CAXXZ 000000018000cdd0 f i msearch.obj
 0001:0000bdd0       ?_Xlength@?$vector@V?$vector@EV?$allocator@E@std@@@std@@V?$allocator@V?$vector@EV?$allocator@E@std@@@std@@@2@@std@@CAXXZ 000000018000cdd0 f i archive.obj
 0001:0000bdd0       ?_Xlength@?$vector@UUpdateProfile@@V?$allocator@UUpdateProfile@@@std@@@std@@CAXXZ 000000018000cdd0 f i options.obj
 0001:0000bdd0       ?_Xlength@?$vector@USfxModule@@V?$allocator@USfxModule@@@std@@@std@@CAXXZ 000000018000cdd0 f i archive.obj
 0001:0000bdd0       ?_Xlength@?$vector@IV?$allocator@I@std@@@std@@CAXXZ 000000018000cdd0 f i archive.obj
 0001:0000bdd0       ?_Xlength@?$vector@UDialogItem@Far@@V?$allocator@UDialogItem@Far@@@std@@@std@@CAXXZ 000000018000cdd0 f i farutils.obj
 0001:0000bdd0       ?_Xlength@?$vector@UFarListItem@@V?$allocator@UFarListItem@@@std@@@std@@CAXXZ 000000018000cdd0 f i ui.obj
 0001:0000bdd0       ?_Xlength@?$vector@UInfoPanelLine@@V?$allocator@UInfoPanelLine@@@std@@@std@@CAXXZ 000000018000cdd0 f i plugin.obj
 0001:0000bdd0       ?_Xlength@?$vector@VPropVariant@@V?$allocator@VPropVariant@@@std@@@std@@CAXXZ 000000018000cdd0 f i update.obj
 0001:0000bdd0       ?_Xlength@?$vector@USfxProfile@@V?$allocator@USfxProfile@@@std@@@std@@CAXXZ 000000018000cdd0 f i sfx.obj
 0001:0000bdd0       ?_Xlength@?$vector@V?$basic_string@_WU?$char_traits@_W@std@@V?$allocator@_W@2@@std@@V?$allocator@V?$basic_string@_WU?$char_traits@_W@std@@V?$allocator@_W@2@@std@@@2@@std@@CAXXZ 000000018000cdd0 f i plugin.obj
 0001:0000bdd0       ?_Xlength@?$vector@UArcLib@@V?$allocator@UArcLib@@@std@@@std@@CAXXZ 000000018000cdd0 f i archive.obj
 0001:0000bdd0       ?_Xlength@?$vector@PEB_WV?$allocator@PEB_W@std@@@std@@CAXXZ 000000018000cdd0 f i update.obj
 0001:0000bdd0       ?_Xlength@?$vector@_KV?$allocator@_K@std@@@std@@CAXXZ 000000018000cdd0 f i ui.obj
 0001:0000bdd0       ?_Xlength@?$vector@EV?$allocator@E@std@@@std@@CAXXZ 000000018000cdd0 f i archive.obj
 0001:0000bdf0       ?_Destroy@?$vector@UArcFileInfo@@V?$allocator@UArcFileInfo@@@std@@@std@@AEAAXPEAUArcFileInfo@@0@Z 000000018000cdf0 f i archive.obj
 0001:0000be00       ?_Reallocate_exactly@?$vector@UArcFileInfo@@V?$allocator@UArcFileInfo@@@std@@@std@@AEAAX_K@Z 000000018000ce00 f i archive.obj
 0001:0000be70       ?_Reallocate_exactly@?$vector@IV?$allocator@I@std@@@std@@AEAAX_K@Z 000000018000ce70 f i archive.obj
 0001:0000bee0       ?_Tidy@?$vector@V?$vector@EV?$allocator@E@std@@@std@@V?$allocator@V?$vector@EV?$allocator@E@std@@@std@@@2@@std@@AEAAXXZ 000000018000cee0 f i archive.obj
 0001:0000bf60       ?_Destroy@?$vector@V?$vector@EV?$allocator@E@std@@@std@@V?$allocator@V?$vector@EV?$allocator@E@std@@@std@@@2@@std@@AEAAXPEAV?$vector@EV?$allocator@E@std@@@2@0@Z 000000018000cf60 f i archive.obj
 0001:0000bf70       ?setbuf@?$basic_streambuf@_WU?$char_traits@_W@std@@@std@@MEAAPEAV12@PEA_W_J@Z 000000018000cf70 f i ui.obj
 0001:0000bf70       ?_Getal@?$_Tree@V?$_Tmap_traits@V?$basic_string@_WU?$char_traits@_W@std@@V?$allocator@_W@2@@std@@V12@U?$less@V?$basic_string@_WU?$char_traits@_W@std@@V?$allocator@_W@2@@std@@@2@V?$allocator@U?$pair@$$CBV?$basic_string@_WU?$char_traits@_W@std@@V?$allocator@_W@2@@std@@V12@@std@@@2@$0A@@std@@@std@@IEAAAEAV?$allocator@U?$_Tree_node@U?$pair@$$CBV?$basic_string@_WU?$char_traits@_W@std@@V?$allocator@_W@2@@std@@V12@@std@@PEAX@std@@@2@XZ 000000018000cf70 f i archive.obj
 0001:0000bf70       ?_Getal@?$_Tree@V?$_Tset_traits@V?$basic_string@_WU?$char_traits@_W@std@@V?$allocator@_W@2@@std@@U?$less@V?$basic_string@_WU?$char_traits@_W@std@@V?$allocator@_W@2@@std@@@2@V?$allocator@V?$basic_string@_WU?$char_traits@_W@std@@V?$allocator@_W@2@@std@@@2@$0A@@std@@@std@@IEAAAEAV?$allocator@U?$_Tree_node@V?$basic_string@_WU?$char_traits@_W@std@@V?$allocator@_W@2@@std@@PEAX@std@@@2@XZ 000000018000cf70 f i plugin.obj
 0001:0000bf80       ?_Buy_raw@?$vector@EV?$allocator@E@std@@@std@@AEAAX_K@Z 000000018000cf80 f i archive.obj
 0001:0000c000       ?replace@?$basic_string@_WU?$char_traits@_W@std@@V?$allocator@_W@2@@std@@QEAAAEAV12@_K_KQEB_W0@Z 000000018000d000 f i archive.obj
 0001:0000c1d0       ?insert@?$basic_string@_WU?$char_traits@_W@std@@V?$allocator@_W@2@@std@@QEAAAEAV12@_KQEB_W0@Z 000000018000d1d0 f i archive.obj
 0001:0000c3a0       ?assign@?$basic_string@_WU?$char_traits@_W@std@@V?$allocator@_W@2@@std@@QEAAAEAV12@QEB_W@Z 000000018000d3a0 f i archive.obj
 0001:0000c3c0       ?append@?$basic_string@_WU?$char_traits@_W@std@@V?$allocator@_W@2@@std@@QEAAAEAV12@QEB_W_K@Z 000000018000d3c0 f i archive.obj
 0001:0000c540       ?_Change_array@?$vector@UArcFileInfo@@V?$allocator@UArcFileInfo@@@std@@@std@@AEAAXQEAUArcFileInfo@@_K1@Z 000000018000d540 f i archive.obj
 0001:0000c600       ?allocate@?$allocator@UArcFileInfo@@@std@@QEAAPEAUArcFileInfo@@_K@Z 000000018000d600 f i archive.obj
 0001:0000c600       ?allocate@?$allocator@UFarMenuItem@@@std@@QEAAPEAUFarMenuItem@@_K@Z 000000018000d600 f i farutils.obj
 0001:0000c670       ?deallocate@?$allocator@UArcFileInfo@@@std@@QEAAXQEAUArcFileInfo@@_K@Z 000000018000d670 f i archive.obj
 0001:0000c6c0       ?_Change_array@?$vector@IV?$allocator@I@std@@@std@@AEAAXQEAI_K1@Z 000000018000d6c0 f i archive.obj
 0001:0000c750       ?allocate@?$allocator@I@std@@QEAAPEAI_K@Z 000000018000d750 f i archive.obj
 0001:0000c7c0       ?_Destroy@?$vector@UCDllCodecInfo@@V?$allocator@UCDllCodecInfo@@@std@@@std@@AEAAXPEAUCDllCodecInfo@@0@Z 000000018000d7c0 f i archive.obj
 0001:0000c7d0       ?deallocate@?$allocator@UCDllCodecInfo@@@std@@QEAAXQEAUCDllCodecInfo@@_K@Z 000000018000d7d0 f i archive.obj
 0001:0000c820       ?_Destroy@?$vector@UArcLib@@V?$allocator@UArcLib@@@std@@@std@@AEAAXPEAUArcLib@@0@Z 000000018000d820 f i archive.obj
 0001:0000c860       ?deallocate@?$allocator@UArcLib@@@std@@QEAAXQEAUArcLib@@_K@Z 000000018000d860 f i archive.obj
 0001:0000c8b0       ?_Destroy@?$vector@V?$basic_string@_WU?$char_traits@_W@std@@V?$allocator@_W@2@@std@@V?$allocator@V?$basic_string@_WU?$char_traits@_W@std@@V?$allocator@_W@2@@std@@@2@@std@@AEAAXPEAV?$basic_string@_WU?$char_traits@_W@std@@V?$allocator@_W@2@@2@0@Z 000000018000d8b0 f i plugin.obj
 0001:0000c8b0       ?_Destroy@?$vector@USfxModule@@V?$allocator@USfxModule@@@std@@@std@@AEAAXPEAUSfxModule@@0@Z 000000018000d8b0 f i archive.obj
 0001:0000c8c0       ?deallocate@?$allocator@USfxModule@@@std@@QEAAXQEAUSfxModule@@_K@Z 000000018000d8c0 f i archive.obj
 0001:0000c8c0       ?deallocate@?$allocator@V?$basic_string@_WU?$char_traits@_W@std@@V?$allocator@_W@2@@std@@@std@@QEAAXQEAV?$basic_string@_WU?$char_traits@_W@std@@V?$allocator@_W@2@@2@_K@Z 000000018000d8c0 f i plugin.obj
 0001:0000c910       ?allocate@?$allocator@E@std@@QEAAPEAE_K@Z 000000018000d910 f i archive.obj
 0001:0000c970       ?deallocate@?$allocator@VPropVariant@@@std@@QEAAXQEAVPropVariant@@_K@Z 000000018000d970 f i update.obj
 0001:0000c970       ?deallocate@?$allocator@V?$vector@EV?$allocator@E@std@@@std@@@std@@QEAAXQEAV?$vector@EV?$allocator@E@std@@@2@_K@Z 000000018000d970 f i archive.obj
 0001:0000c9c0       ?_Xran@?$_String_val@U?$_Simple_types@_W@std@@@std@@SAXXZ 000000018000d9c0 f i archive.obj
 0001:0000c9e0       ??$_Emplace@AEBV?$basic_string@_WU?$char_traits@_W@std@@V?$allocator@_W@2@@std@@@?$list@V?$basic_string@_WU?$char_traits@_W@std@@V?$allocator@_W@2@@std@@V?$allocator@V?$basic_string@_WU?$char_traits@_W@std@@V?$allocator@_W@2@@std@@@2@@std@@QEAAPEAU?$_List_node@V?$basic_string@_WU?$char_traits@_W@std@@V?$allocator@_W@2@@std@@PEAX@1@QEAU21@AEBV?$basic_string@_WU?$char_traits@_W@std@@V?$allocator@_W@2@@1@@Z 000000018000d9e0 f i archive.obj
 0001:0000ca80       ??$assign@PEAEX@?$vector@EV?$allocator@E@std@@@std@@QEAAXPEAE0@Z 000000018000da80 f i archive.obj
 0001:0000caf0       ??$?8_WU?$char_traits@_W@std@@V?$allocator@_W@1@@std@@YA_NAEBV?$basic_string@_WU?$char_traits@_W@std@@V?$allocator@_W@2@@0@0@Z 000000018000daf0 f i archive.obj
 0001:0000cb60       ??$?H_WU?$char_traits@_W@std@@V?$allocator@_W@1@@std@@YA?AV?$basic_string@_WU?$char_traits@_W@std@@V?$allocator@_W@2@@0@AEBV10@QEB_W@Z 000000018000db60 f i archive.obj
 0001:0000cc20       ??$?H_WU?$char_traits@_W@std@@V?$allocator@_W@1@@std@@YA?AV?$basic_string@_WU?$char_traits@_W@std@@V?$allocator@_W@2@@0@$$QEAV10@QEB_W@Z 000000018000dc20 f i archive.obj
 0001:0000cc90       ??$?9_WU?$char_traits@_W@std@@V?$allocator@_W@1@@std@@YA_NAEBV?$basic_string@_WU?$char_traits@_W@std@@V?$allocator@_W@2@@0@0@Z 000000018000dc90 f i archive.obj
 0001:0000cd00       ??$?H_WU?$char_traits@_W@std@@V?$allocator@_W@1@@std@@YA?AV?$basic_string@_WU?$char_traits@_W@std@@V?$allocator@_W@2@@0@$$QEAV10@0@Z 000000018000dd00 f i archive.obj
 0001:0000d240       ??$_Emplace_reallocate@AEBUArcFileInfo@@@?$vector@UArcFileInfo@@V?$allocator@UArcFileInfo@@@std@@@std@@QEAAPEAUArcFileInfo@@QEAU2@AEBU2@@Z 000000018000e240 f i archive.obj
 0001:0000d3a0       ??$_Emplace_reallocate@AEBI@?$vector@IV?$allocator@I@std@@@std@@QEAAPEAIQEAIAEBI@Z 000000018000e3a0 f i archive.obj
 0001:0000d3a0       ??$_Emplace_reallocate@I@?$vector@IV?$allocator@I@std@@@std@@QEAAPEAIQEAI$$QEAI@Z 000000018000e3a0 f i plugin.obj
 0001:0000d4a0       ??$_Emplace_reallocate@AEBUCDllHasherInfo@@@?$vector@UCDllHasherInfo@@V?$allocator@UCDllHasherInfo@@@std@@@std@@QEAAPEAUCDllHasherInfo@@QEAU2@AEBU2@@Z 000000018000e4a0 f i archive.obj
 0001:0000d640       ??$_Emplace_reallocate@AEBUCDllCodecInfo@@@?$vector@UCDllCodecInfo@@V?$allocator@UCDllCodecInfo@@@std@@@std@@QEAAPEAUCDllCodecInfo@@QEAU2@AEBU2@@Z 000000018000e640 f i archive.obj
 0001:0000d890       ??$_Emplace_reallocate@AEBUArcLib@@@?$vector@UArcLib@@V?$allocator@UArcLib@@@std@@@std@@QEAAPEAUArcLib@@QEAU2@AEBU2@@Z 000000018000e890 f i archive.obj
 0001:0000db00       ??$_Emplace_reallocate@AEBUSfxModule@@@?$vector@USfxModule@@V?$allocator@USfxModule@@@std@@@std@@QEAAPEAUSfxModule@@QEAU2@AEBU2@@Z 000000018000eb00 f i archive.obj
 0001:0000dd90       ??$_Try_emplace@AEBV?$vector@EV?$allocator@E@std@@@std@@$$V@?$map@V?$vector@EV?$allocator@E@std@@@std@@UArcFormat@@U?$less@V?$vector@EV?$allocator@E@std@@@std@@@2@V?$allocator@U?$pair@$$CBV?$vector@EV?$allocator@E@std@@@std@@UArcFormat@@@std@@@2@@std@@AEAA?AU?$pair@PEAU?$_Tree_node@U?$pair@$$CBV?$vector@EV?$allocator@E@std@@@std@@UArcFormat@@@std@@PEAX@std@@_N@1@AEBV?$vector@EV?$allocator@E@std@@@1@@Z 000000018000ed90 f i archive.obj
 0001:0000df30       ??$_Find@V?$vector@EV?$allocator@E@std@@@std@@@?$_Tree@V?$_Tmap_traits@V?$vector@EV?$allocator@E@std@@@std@@UArcFormat@@U?$less@V?$vector@EV?$allocator@E@std@@@std@@@2@V?$allocator@U?$pair@$$CBV?$vector@EV?$allocator@E@std@@@std@@UArcFormat@@@std@@@2@$0A@@std@@@std@@AEBAPEAU?$_Tree_node@U?$pair@$$CBV?$vector@EV?$allocator@E@std@@@std@@UArcFormat@@@std@@PEAX@1@AEBV?$vector@EV?$allocator@E@std@@@1@@Z 000000018000ef30 f i archive.obj
 0001:0000e010       ??$_Emplace_reallocate@AEBV?$vector@EV?$allocator@E@std@@@std@@@?$vector@V?$vector@EV?$allocator@E@std@@@std@@V?$allocator@V?$vector@EV?$allocator@E@std@@@std@@@2@@std@@QEAAPEAV?$vector@EV?$allocator@E@std@@@1@QEAV21@AEBV21@@Z 000000018000f010 f i archive.obj
 0001:0000e200       ??$_Construct_range_unchecked@V?$_List_unchecked_const_iterator@V?$_List_val@U?$_List_simple_types@V?$basic_string@_WU?$char_traits@_W@std@@V?$allocator@_W@2@@std@@@std@@@std@@U_Iterator_base0@2@@std@@@?$list@V?$basic_string@_WU?$char_traits@_W@std@@V?$allocator@_W@2@@std@@V?$allocator@V?$basic_string@_WU?$char_traits@_W@std@@V?$allocator@_W@2@@std@@@2@@std@@AEAAXV?$_List_unchecked_const_iterator@V?$_List_val@U?$_List_simple_types@V?$basic_string@_WU?$char_traits@_W@std@@V?$allocator@_W@2@@std@@@std@@@std@@U_Iterator_base0@2@@1@0@Z 000000018000f200 f i archive.obj
 0001:0000e3a0       ??$_Reallocate_grow_by@V<lambda_1>@?1??insert@?$basic_string@_WU?$char_traits@_W@std@@V?$allocator@_W@2@@std@@QEAAAEAV34@_K0_W@Z@_K_K_W@?$basic_string@_WU?$char_traits@_W@std@@V?$allocator@_W@2@@std@@AEAAAEAV01@_KV<lambda_1>@?1??insert@01@QEAAAEAV01@00_W@Z@_K3_W@Z 000000018000f3a0 f i archive.obj
 0001:0000e520       ??$_Destroy_range@V?$allocator@UArcFileInfo@@@std@@@std@@YAXPEAUArcFileInfo@@QEAU1@AEAV?$allocator@UArcFileInfo@@@0@@Z 000000018000f520 f i archive.obj
 0001:0000e5b0       ??$_Destroy_range@V?$allocator@V?$vector@EV?$allocator@E@std@@@std@@@std@@@std@@YAXPEAV?$vector@EV?$allocator@E@std@@@0@QEAV10@AEAV?$allocator@V?$vector@EV?$allocator@E@std@@@std@@@0@@Z 000000018000f5b0 f i archive.obj
 0001:0000e630       ??$_Free_non_head@V?$allocator@U?$_List_node@V?$vector@EV?$allocator@E@std@@@std@@PEAX@std@@@std@@@?$_List_node@V?$vector@EV?$allocator@E@std@@@std@@PEAX@std@@SAXAEAV?$allocator@U?$_List_node@V?$vector@EV?$allocator@E@std@@@std@@PEAX@std@@@1@PEAU01@@Z 000000018000f630 f i archive.obj
 0001:0000e6c0       ??$_Free_non_head@V?$allocator@U?$_List_node@V?$basic_string@_WU?$char_traits@_W@std@@V?$allocator@_W@2@@std@@PEAX@std@@@std@@@?$_List_node@V?$basic_string@_WU?$char_traits@_W@std@@V?$allocator@_W@2@@std@@PEAX@std@@SAXAEAV?$allocator@U?$_List_node@V?$basic_string@_WU?$char_traits@_W@std@@V?$allocator@_W@2@@std@@PEAX@std@@@1@PEAU01@@Z 000000018000f6c0 f i archive.obj
 0001:0000e760       ??$_Reallocate_grow_by@V<lambda_1>@?1??replace@?$basic_string@_WU?$char_traits@_W@std@@V?$allocator@_W@2@@std@@QEAAAEAV34@_K_KQEB_W0@Z@_K_KPEB_W_K@?$basic_string@_WU?$char_traits@_W@std@@V?$allocator@_W@2@@std@@AEAAAEAV01@_KV<lambda_1>@?1??replace@01@QEAAAEAV01@0_KQEB_W0@Z@11PEB_W1@Z 000000018000f760 f i archive.obj
 0001:0000e8f0       ??$_Destroy_range@V?$allocator@UCDllCodecInfo@@@std@@@std@@YAXPEAUCDllCodecInfo@@QEAU1@AEAV?$allocator@UCDllCodecInfo@@@0@@Z 000000018000f8f0 f i archive.obj
 0001:0000e980       ??$_Destroy_range@V?$allocator@USfxModule@@@std@@@std@@YAXPEAUSfxModule@@QEAU1@AEAV?$allocator@USfxModule@@@0@@Z 000000018000f980 f i archive.obj
 0001:0000e980       ??$_Destroy_range@V?$allocator@V?$basic_string@_WU?$char_traits@_W@std@@V?$allocator@_W@2@@std@@@std@@@std@@YAXPEAV?$basic_string@_WU?$char_traits@_W@std@@V?$allocator@_W@2@@0@QEAV10@AEAV?$allocator@V?$basic_string@_WU?$char_traits@_W@std@@V?$allocator@_W@2@@std@@@0@@Z 000000018000f980 f i plugin.obj
 0001:0000ea10       ??$_Copy@U_Copy_tag@?$_Tree@V?$_Tmap_traits@V?$basic_string@_WU?$char_traits@_W@std@@V?$allocator@_W@2@@std@@V12@U?$less@V?$basic_string@_WU?$char_traits@_W@std@@V?$allocator@_W@2@@std@@@2@V?$allocator@U?$pair@$$CBV?$basic_string@_WU?$char_traits@_W@std@@V?$allocator@_W@2@@std@@V12@@std@@@2@$0A@@std@@@std@@@?$_Tree@V?$_Tmap_traits@V?$basic_string@_WU?$char_traits@_W@std@@V?$allocator@_W@2@@std@@V12@U?$less@V?$basic_string@_WU?$char_traits@_W@std@@V?$allocator@_W@2@@std@@@2@V?$allocator@U?$pair@$$CBV?$basic_string@_WU?$char_traits@_W@std@@V?$allocator@_W@2@@std@@V12@@std@@@2@$0A@@std@@@std@@IEAAXAEBV01@U_Copy_tag@01@@Z 000000018000fa10 f i archive.obj
 0001:0000eac0       ??$_Uninitialized_move@PEAUArcFileInfo@@V?$allocator@UArcFileInfo@@@std@@@std@@YAPEAUArcFileInfo@@QEAU1@0PEAU1@AEAV?$allocator@UArcFileInfo@@@0@@Z 000000018000fac0 f i archive.obj
 0001:0000eb50       ??$_Erase_tree_and_orphan@V?$allocator@U?$_Tree_node@U?$pair@$$CBV?$basic_string@_WU?$char_traits@_W@std@@V?$allocator@_W@2@@std@@V12@@std@@PEAX@std@@@std@@@?$_Tree_val@U?$_Tree_simple_types@U?$pair@$$CBV?$basic_string@_WU?$char_traits@_W@std@@V?$allocator@_W@2@@std@@V12@@std@@@std@@@std@@QEAAXAEAV?$allocator@U?$_Tree_node@U?$pair@$$CBV?$basic_string@_WU?$char_traits@_W@std@@V?$allocator@_W@2@@std@@V12@@std@@PEAX@std@@@1@PEAU?$_Tree_node@U?$pair@$$CBV?$basic_string@_WU?$char_traits@_W@std@@V?$allocator@_W@2@@std@@V12@@std@@PEAX@1@@Z 000000018000fb50 f i archive.obj
 0001:0000eb50       ??$_Erase_tree@V?$allocator@U?$_Tree_node@U?$pair@$$CBV?$basic_string@_WU?$char_traits@_W@std@@V?$allocator@_W@2@@std@@V12@@std@@PEAX@std@@@std@@@?$_Tree_val@U?$_Tree_simple_types@U?$pair@$$CBV?$basic_string@_WU?$char_traits@_W@std@@V?$allocator@_W@2@@std@@V12@@std@@@std@@@std@@QEAAXAEAV?$allocator@U?$_Tree_node@U?$pair@$$CBV?$basic_string@_WU?$char_traits@_W@std@@V?$allocator@_W@2@@std@@V12@@std@@PEAX@std@@@1@PEAU?$_Tree_node@U?$pair@$$CBV?$basic_string@_WU?$char_traits@_W@std@@V?$allocator@_W@2@@std@@V12@@std@@PEAX@1@@Z 000000018000fb50 f i archive.obj
 0001:0000ebd0       ??0ArcLib@@QEAA@AEBU0@@Z   000000018000fbd0 f i archive.obj
 0001:0000ec80       ??1?$_List_node_insert_op@V?$allocator@U?$_List_node@V?$basic_string@_WU?$char_traits@_W@std@@V?$allocator@_W@2@@std@@PEAX@std@@@std@@@std@@QEAA@XZ 000000018000fc80 f i archive.obj
 0001:0000ed30       ?_Growmap@?$deque@IV?$allocator@I@std@@@std@@AEAAX_K@Z 000000018000fd30 f i archive.obj
 0001:0000ef10       ?_Insert_node@?$_Tree_val@U?$_Tree_simple_types@U?$pair@$$CB_J_K@std@@@std@@@std@@QEAAPEAU?$_Tree_node@U?$pair@$$CB_J_K@std@@PEAX@2@U?$_Tree_id@PEAU?$_Tree_node@U?$pair@$$CB_J_K@std@@PEAX@std@@@2@QEAU32@@Z 000000018000ff10 f i ui.obj
 0001:0000ef10       ?_Insert_node@?$_Tree_val@U?$_Tree_simple_types@I@std@@@std@@QEAAPEAU?$_Tree_node@IPEAX@2@U?$_Tree_id@PEAU?$_Tree_node@IPEAX@std@@@2@QEAU32@@Z 000000018000ff10 f i extract.obj
 0001:0000ef10       ?_Insert_node@?$_Tree_val@U?$_Tree_simple_types@U?$pair@$$CBV?$vector@EV?$allocator@E@std@@@std@@UArcFormat@@@std@@@std@@@std@@QEAAPEAU?$_Tree_node@U?$pair@$$CBV?$vector@EV?$allocator@E@std@@@std@@UArcFormat@@@std@@PEAX@2@U?$_Tree_id@PEAU?$_Tree_node@U?$pair@$$CBV?$vector@EV?$allocator@E@std@@@std@@UArcFormat@@@std@@PEAX@std@@@2@QEAU32@@Z 000000018000ff10 f i archive.obj
 0001:0000ef10       ?_Insert_node@?$_Tree_val@U?$_Tree_simple_types@U?$pair@$$CBV?$basic_string@_WU?$char_traits@_W@std@@V?$allocator@_W@2@@std@@V12@@std@@@std@@@std@@QEAAPEAU?$_Tree_node@U?$pair@$$CBV?$basic_string@_WU?$char_traits@_W@std@@V?$allocator@_W@2@@std@@V12@@std@@PEAX@2@U?$_Tree_id@PEAU?$_Tree_node@U?$pair@$$CBV?$basic_string@_WU?$char_traits@_W@std@@V?$allocator@_W@2@@std@@V12@@std@@PEAX@std@@@2@QEAU32@@Z 000000018000ff10 f i archive.obj
 0001:0000ef10       ?_Insert_node@?$_Tree_val@U?$_Tree_simple_types@U?$pair@$$CBII@std@@@std@@@std@@QEAAPEAU?$_Tree_node@U?$pair@$$CBII@std@@PEAX@2@U?$_Tree_id@PEAU?$_Tree_node@U?$pair@$$CBII@std@@PEAX@std@@@2@QEAU32@@Z 000000018000ff10 f i archive.obj
 0001:0000ef10       ?_Insert_node@?$_Tree_val@U?$_Tree_simple_types@V?$basic_string@_WU?$char_traits@_W@std@@V?$allocator@_W@2@@std@@@std@@@std@@QEAAPEAU?$_Tree_node@V?$basic_string@_WU?$char_traits@_W@std@@V?$allocator@_W@2@@std@@PEAX@2@U?$_Tree_id@PEAU?$_Tree_node@V?$basic_string@_WU?$char_traits@_W@std@@V?$allocator@_W@2@@std@@PEAX@std@@@2@QEAU32@@Z 000000018000ff10 f i plugin.obj
 0001:0000ef10       ?_Insert_node@?$_Tree_val@U?$_Tree_simple_types@U?$pair@$$CBIUFileIndexInfo@@@std@@@std@@@std@@QEAAPEAU?$_Tree_node@U?$pair@$$CBIUFileIndexInfo@@@std@@PEAX@2@U?$_Tree_id@PEAU?$_Tree_node@U?$pair@$$CBIUFileIndexInfo@@@std@@PEAX@std@@@2@QEAU32@@Z 000000018000ff10 f i update.obj
 0001:0000ef10       ?_Insert_node@?$_Tree_val@U?$_Tree_simple_types@V?$vector@EV?$allocator@E@std@@@std@@@std@@@std@@QEAAPEAU?$_Tree_node@V?$vector@EV?$allocator@E@std@@@std@@PEAX@2@U?$_Tree_id@PEAU?$_Tree_node@V?$vector@EV?$allocator@E@std@@@std@@PEAX@std@@@2@QEAU32@@Z 000000018000ff10 f i open.obj
 0001:0000f190       ?_Umove@?$vector@UArcLib@@V?$allocator@UArcLib@@@std@@@std@@AEAAPEAUArcLib@@PEAU3@00@Z 0000000180010190 f i archive.obj
 0001:0000f2b0       ??R?$less@V?$vector@EV?$allocator@E@std@@@std@@@std@@QEBA_NAEBV?$vector@EV?$allocator@E@std@@@1@0@Z 00000001800102b0 f i archive.obj
 0001:0000f310       ?_Umove@?$vector@V?$vector@EV?$allocator@E@std@@@std@@V?$allocator@V?$vector@EV?$allocator@E@std@@@std@@@2@@std@@AEAAPEAV?$vector@EV?$allocator@E@std@@@2@PEAV32@00@Z 0000000180010310 f i archive.obj
 0001:0000f380       ?allocate@?$allocator@V?$vector@EV?$allocator@E@std@@@std@@@std@@QEAAPEAV?$vector@EV?$allocator@E@std@@@2@_K@Z 0000000180010380 f i archive.obj
 0001:0000f380       ?allocate@?$allocator@UInfoPanelLine@@@std@@QEAAPEAUInfoPanelLine@@_K@Z 0000000180010380 f i plugin.obj
 0001:0000f400       ?_Equal@?$basic_string@_WU?$char_traits@_W@std@@V?$allocator@_W@2@@std@@QEBA_NQEB_W@Z 0000000180010400 f i archive.obj
 0001:0000f470       ?reserve@?$basic_string@_WU?$char_traits@_W@std@@V?$allocator@_W@2@@std@@QEAAX_K@Z 0000000180010470 f i archive.obj
 0001:0000f5b0       ??1?$_Tree_temp_node_alloc@V?$allocator@U?$_Tree_node@U?$pair@$$CBV?$vector@EV?$allocator@E@std@@@std@@UArcFormat@@@std@@PEAX@std@@@std@@@std@@QEAA@XZ 00000001800105b0 f i archive.obj
 0001:0000f5b0       ??1?$_Alloc_construct_ptr@V?$allocator@U?$_Tree_node@U?$pair@$$CBV?$vector@EV?$allocator@E@std@@@std@@UArcFormat@@@std@@PEAX@std@@@std@@@std@@QEAA@XZ 00000001800105b0 f i archive.obj
 0001:0000f5d0       ??1?$_Alloc_construct_ptr@V?$allocator@U?$_Tree_node@U?$pair@$$CBII@std@@PEAX@std@@@std@@@std@@QEAA@XZ 00000001800105d0 f i archive.obj
 0001:0000f5d0       ??1?$_Alloc_construct_ptr@V?$allocator@U?$_List_node@V?$vector@EV?$allocator@E@std@@@std@@PEAX@std@@@std@@@std@@QEAA@XZ 00000001800105d0 f i archive.obj
 0001:0000f5f0       ??1?$_Alloc_construct_ptr@V?$allocator@U?$_Tree_node@U?$pair@$$CBV?$basic_string@_WU?$char_traits@_W@std@@V?$allocator@_W@2@@std@@V12@@std@@PEAX@std@@@std@@@std@@QEAA@XZ 00000001800105f0 f i archive.obj
 0001:0000f610       ??1?$_Alloc_construct_ptr@V?$allocator@U?$_List_node@V?$basic_string@_WU?$char_traits@_W@std@@V?$allocator@_W@2@@std@@PEAX@std@@@std@@@std@@QEAA@XZ 0000000180010610 f i archive.obj
 0001:0000f610       ??1?$_Alloc_construct_ptr@V?$allocator@U?$_Tree_node@U?$pair@$$CB_J_K@std@@PEAX@std@@@std@@@std@@QEAA@XZ 0000000180010610 f i ui.obj
 0001:0000f610       ??1?$_Alloc_construct_ptr@V?$allocator@U?$_List_node@UArcEntry@@PEAX@std@@@std@@@std@@QEAA@XZ 0000000180010610 f i open.obj
 0001:0000f610       ??1?$_Alloc_construct_ptr@V?$allocator@U?$_List_node@UIconImage@@PEAX@std@@@std@@@std@@QEAA@XZ 0000000180010610 f i rsrc.obj
 0001:0000f630       ?_Xlen@?$deque@IV?$allocator@I@std@@@std@@AEBAXXZ 0000000180010630 f i archive.obj
 0001:0000f650       ?_Become_small@?$basic_string@_WU?$char_traits@_W@std@@V?$allocator@_W@2@@std@@AEAAXXZ 0000000180010650 f i archive.obj
 0001:0000fcd0       ??$_Erase_tree@V?$allocator@U?$_Tree_node@U?$pair@$$CBII@std@@PEAX@std@@@std@@@?$_Tree_val@U?$_Tree_simple_types@U?$pair@$$CBII@std@@@std@@@std@@QEAAXAEAV?$allocator@U?$_Tree_node@U?$pair@$$CBII@std@@PEAX@std@@@1@PEAU?$_Tree_node@U?$pair@$$CBII@std@@PEAX@1@@Z 0000000180010cd0 f i archive.obj
 0001:0000fd30       ??$_Erase_tree@V?$allocator@U?$_Tree_node@U?$pair@$$CBV?$vector@EV?$allocator@E@std@@@std@@UArcFormat@@@std@@PEAX@std@@@std@@@?$_Tree_val@U?$_Tree_simple_types@U?$pair@$$CBV?$vector@EV?$allocator@E@std@@@std@@UArcFormat@@@std@@@std@@@std@@QEAAXAEAV?$allocator@U?$_Tree_node@U?$pair@$$CBV?$vector@EV?$allocator@E@std@@@std@@UArcFormat@@@std@@PEAX@std@@@1@PEAU?$_Tree_node@U?$pair@$$CBV?$vector@EV?$allocator@E@std@@@std@@UArcFormat@@@std@@PEAX@1@@Z 0000000180010d30 f i archive.obj
 0001:0000fe00       ??$_Assign_range@PEAV?$vector@EV?$allocator@E@std@@@std@@@?$vector@V?$vector@EV?$allocator@E@std@@@std@@V?$allocator@V?$vector@EV?$allocator@E@std@@@std@@@2@@std@@AEAAXPEAV?$vector@EV?$allocator@E@std@@@1@0Uforward_iterator_tag@1@@Z 0000000180010e00 f i archive.obj
 0001:0000ffc0       ??$_Freenode@V?$allocator@U?$_List_node@V?$basic_string@_WU?$char_traits@_W@std@@V?$allocator@_W@2@@std@@PEAX@std@@@std@@@?$_List_node@V?$basic_string@_WU?$char_traits@_W@std@@V?$allocator@_W@2@@std@@PEAX@std@@SAXAEAV?$allocator@U?$_List_node@V?$basic_string@_WU?$char_traits@_W@std@@V?$allocator@_W@2@@std@@PEAX@std@@@1@PEAU01@@Z 0000000180010fc0 f i archive.obj
 0001:00010030       ??$_Assign_cast@AEAV?$basic_string@_WU?$char_traits@_W@std@@V?$allocator@_W@2@@std@@V?$_List_unchecked_const_iterator@V?$_List_val@U?$_List_simple_types@V?$basic_string@_WU?$char_traits@_W@std@@V?$allocator@_W@2@@std@@@std@@@std@@U_Iterator_base0@2@@2@@?$list@V?$basic_string@_WU?$char_traits@_W@std@@V?$allocator@_W@2@@std@@V?$allocator@V?$basic_string@_WU?$char_traits@_W@std@@V?$allocator@_W@2@@std@@@2@@std@@AEAAXV?$_List_unchecked_const_iterator@V?$_List_val@U?$_List_simple_types@V?$basic_string@_WU?$char_traits@_W@std@@V?$allocator@_W@2@@std@@@std@@@std@@U_Iterator_base0@2@@1@V21@@Z 0000000180011030 f i archive.obj
 0001:000101f0       ??$_Copy_nodes@U_Copy_tag@?$_Tree@V?$_Tmap_traits@V?$basic_string@_WU?$char_traits@_W@std@@V?$allocator@_W@2@@std@@V12@U?$less@V?$basic_string@_WU?$char_traits@_W@std@@V?$allocator@_W@2@@std@@@2@V?$allocator@U?$pair@$$CBV?$basic_string@_WU?$char_traits@_W@std@@V?$allocator@_W@2@@std@@V12@@std@@@2@$0A@@std@@@std@@@?$_Tree@V?$_Tmap_traits@V?$basic_string@_WU?$char_traits@_W@std@@V?$allocator@_W@2@@std@@V12@U?$less@V?$basic_string@_WU?$char_traits@_W@std@@V?$allocator@_W@2@@std@@@2@V?$allocator@U?$pair@$$CBV?$basic_string@_WU?$char_traits@_W@std@@V?$allocator@_W@2@@std@@V12@@std@@@2@$0A@@std@@@std@@IEAAPEAU?$_Tree_node@U?$pair@$$CBV?$basic_string@_WU?$char_traits@_W@std@@V?$allocator@_W@2@@std@@V12@@std@@PEAX@1@PEAU21@0U_Copy_tag@01@@Z 00000001800111f0 f i archive.obj
 0001:000102e0       ??$_Uninitialized_move@PEAUCDllCodecInfo@@V?$allocator@UCDllCodecInfo@@@std@@@std@@YAPEAUCDllCodecInfo@@QEAU1@0PEAU1@AEAV?$allocator@UCDllCodecInfo@@@0@@Z 00000001800112e0 f i archive.obj
 0001:000103c0       ??_G?$vector@EV?$allocator@E@std@@@std@@QEAAPEAXI@Z 00000001800113c0 f i archive.obj
 0001:00010420       ??_G?$basic_string@_WU?$char_traits@_W@std@@V?$allocator@_W@2@@std@@QEAAPEAXI@Z 0000000180011420 f i archive.obj
 0001:00010490       ??1?$pair@V?$basic_string@_WU?$char_traits@_W@std@@V?$allocator@_W@2@@std@@V12@@std@@QEAA@XZ 0000000180011490 f i rsrc.obj
 0001:00010490       ??1Param@@QEAA@XZ          0000000180011490 f i cmdline.obj
 0001:00010490       ??1?$pair@$$CBV?$basic_string@_WU?$char_traits@_W@std@@V?$allocator@_W@2@@std@@V12@@std@@QEAA@XZ 0000000180011490 f i archive.obj
 0001:00010490       ??1Attr@@QEAA@XZ           0000000180011490 f i plugin.obj
 0001:00010550       ??1?$_Uninitialized_backout_al@V?$allocator@V?$vector@EV?$allocator@E@std@@@std@@@std@@@std@@QEAA@XZ 0000000180011550 f i archive.obj
 0001:00010560       ??1?$_Uninitialized_backout_al@V?$allocator@UArcLib@@@std@@@std@@QEAA@XZ 0000000180011560 f i archive.obj
 0001:00010820       ?_Clear_and_reserve_geometric@?$vector@EV?$allocator@E@std@@@std@@AEAAX_K@Z 0000000180011820 f i archive.obj
 0001:000108c0       ?_Unchecked_erase@?$list@V?$basic_string@_WU?$char_traits@_W@std@@V?$allocator@_W@2@@std@@V?$allocator@V?$basic_string@_WU?$char_traits@_W@std@@V?$allocator@_W@2@@std@@@2@@std@@AEAAPEAU?$_List_node@V?$basic_string@_WU?$char_traits@_W@std@@V?$allocator@_W@2@@std@@PEAX@2@PEAU32@QEAU32@@Z 00000001800118c0 f i archive.obj
 0001:00010990       ??1?$_Alloc_construct_ptr@V?$allocator@U?$_List_node@UCacheRecord@FileWriteCache@@PEAX@std@@@std@@@std@@QEAA@XZ 0000000180011990 f   extract.obj
 0001:00011c90       ??$_Copy_unchecked@PEAV?$vector@EV?$allocator@E@std@@@std@@PEAV12@@std@@YAPEAV?$vector@EV?$allocator@E@std@@@0@PEAV10@00@Z 0000000180012c90 f i archive.obj
 0001:00011d20       ??$?M_WU?$char_traits@_W@std@@V?$allocator@_W@1@@std@@YA_NAEBV?$basic_string@_WU?$char_traits@_W@std@@V?$allocator@_W@2@@0@0@Z 0000000180012d20 f i archive.obj
 0001:00012380       ??$swap@UCDllCodecInfo@@X@std@@YAXAEAUCDllCodecInfo@@0@Z 0000000180013380 f i archive.obj
 0001:00012738       ?QueryInterface@MyCompressCodecsInfo@@WBA@EAAJAEBU_GUID@@PEAPEAX@Z 0000000180013738 f i archive.obj
 0001:00012744       ?AddRef@FileReadStream@@WBA@EAAKXZ 0000000180013744 f i update.obj
 0001:00012744       ?AddRef@ArchiveUpdater@@WBA@EAAKXZ 0000000180013744 f i update.obj
 0001:00012744       ?AddRef@MyCompressCodecsInfo@@WBA@EAAKXZ 0000000180013744 f i archive.obj
 0001:00012744       ?AddRef@ArchiveTester@@WBA@EAAKXZ 0000000180013744 f i test.obj
 0001:00012744       ?AddRef@ArchiveExtractor@@WBA@EAAKXZ 0000000180013744 f i extract.obj
 0001:00012750       ?Release@ArchiveTester@@W7EAAKXZ 0000000180013750 f i test.obj
 0001:00012750       ?Release@FileReadStream@@W7EAAKXZ 0000000180013750 f i update.obj
 0001:00012750       ?Release@ArchiveUpdater@@W7EAAKXZ 0000000180013750 f i update.obj
 0001:00012750       ?Release@MyCompressCodecsInfo@@W7EAAKXZ 0000000180013750 f i archive.obj
 0001:00012750       ?Release@ArchiveExtractor@@W7EAAKXZ 0000000180013750 f i extract.obj
 0001:0001275c       ??_EMyCompressCodecsInfo@@WBA@EAAPEAXI@Z 000000018001375c f i archive.obj
 0001:00012768       ?Release@ArchiveUpdater@@WBA@EAAKXZ 0000000180013768 f i update.obj
 0001:00012768       ?Release@ArchiveExtractor@@WBA@EAAKXZ 0000000180013768 f i extract.obj
 0001:00012768       ?Release@ArchiveTester@@WBA@EAAKXZ 0000000180013768 f i test.obj
 0001:00012768       ?Release@FileReadStream@@WBA@EAAKXZ 0000000180013768 f i update.obj
 0001:00012768       ?Release@MyCompressCodecsInfo@@WBA@EAAKXZ 0000000180013768 f i archive.obj
 0001:00012774       ?QueryInterface@MyCompressCodecsInfo@@W7EAAJAEBU_GUID@@PEAPEAX@Z 0000000180013774 f i archive.obj
 0001:00012780       ?AddRef@MyCompressCodecsInfo@@W7EAAKXZ 0000000180013780 f i archive.obj
 0001:00012780       ?AddRef@FileReadStream@@W7EAAKXZ 0000000180013780 f i update.obj
 0001:00012780       ?AddRef@ArchiveTester@@W7EAAKXZ 0000000180013780 f i test.obj
 0001:00012780       ?AddRef@ArchiveUpdater@@W7EAAKXZ 0000000180013780 f i update.obj
 0001:00012780       ?AddRef@ArchiveExtractor@@W7EAAKXZ 0000000180013780 f i extract.obj
 0001:00012790       ?_Throw_tree_length_error@std@@YAXXZ 0000000180013790 f i archive.obj
 0001:000127b0       ?c_str@?$basic_string@_WU?$char_traits@_W@std@@V?$allocator@_W@2@@std@@QEBAPEB_WXZ 00000001800137b0 f i archive.obj
 0001:000127c0       ?_Xlen@?$basic_string@_WU?$char_traits@_W@std@@V?$allocator@_W@2@@std@@CAXXZ 00000001800137c0 f i archive.obj
 0001:000127c0       ?_Xlen@?$basic_string@DU?$char_traits@D@std@@V?$allocator@D@2@@std@@CAXXZ 00000001800137c0 f i archive.obj
 0001:000127e0       ?allocate@?$allocator@_W@std@@QEAAPEA_W_K@Z 00000001800137e0 f i archive.obj
 0001:00012850       ?assign@?$basic_string@_WU?$char_traits@_W@std@@V?$allocator@_W@2@@std@@QEAAAEAV12@QEB_W_K@Z 0000000180013850 f i archive.obj
 0001:00012980       ??1?$basic_string@DU?$char_traits@D@std@@V?$allocator@D@2@@std@@QEAA@XZ 0000000180013980 f i archive.obj
 0001:000129e0       ??0bad_array_new_length@std@@QEAA@XZ 00000001800139e0 f i archive.obj
 0001:00012a10       ??1failure@ios_base@std@@UEAA@XZ 0000000180013a10 f i ui.obj
 0001:00012a10       ??1runtime_error@std@@UEAA@XZ 0000000180013a10 f i ui.obj
 0001:00012a10       ??1bad_typeid@std@@UEAA@XZ 0000000180013a10 f i libvcruntime:rtti.obj
 0001:00012a10       ??1bad_exception@std@@UEAA@XZ 0000000180013a10 f i libvcruntime:frame.obj
 0001:00012a10       ??1bad_weak_ptr@std@@UEAA@XZ 0000000180013a10 f i extract.obj
 0001:00012a10       ??1__non_rtti_object@std@@UEAA@XZ 0000000180013a10 f i libvcruntime:rtti.obj
 0001:00012a10       ??1bad_alloc@std@@UEAA@XZ  0000000180013a10 f i archive.obj
 0001:00012a10       ??1length_error@std@@UEAA@XZ 0000000180013a10 f i libcpmt:xthrow.obj
 0001:00012a10       ??1bad_cast@std@@UEAA@XZ   0000000180013a10 f i ui.obj
 0001:00012a10       ??1out_of_range@std@@UEAA@XZ 0000000180013a10 f i libcpmt:xthrow.obj
 0001:00012a10       ??1bad_array_new_length@std@@UEAA@XZ 0000000180013a10 f i archive.obj
 0001:00012a30       ??_Ebad_exception@std@@UEAAPEAXI@Z 0000000180013a30 f i libvcruntime:frame.obj
 0001:00012a30       ??_Eout_of_range@std@@UEAAPEAXI@Z 0000000180013a30 f i libcpmt:xthrow.obj
 0001:00012a30       ??_Ebad_cast@std@@UEAAPEAXI@Z 0000000180013a30 f i * CIL library *:* CIL module *
 0001:00012a30       ??_Gbad_alloc@std@@UEAAPEAXI@Z 0000000180013a30 f i archive.obj
 0001:00012a30       ??_Gbad_exception@std@@UEAAPEAXI@Z 0000000180013a30 f i libvcruntime:frame.obj
 0001:00012a30       ??_Ebad_alloc@std@@UEAAPEAXI@Z 0000000180013a30 f i * CIL library *:* CIL module *
 0001:00012a30       ??_Eexception@std@@UEAAPEAXI@Z 0000000180013a30 f i * CIL library *:* CIL module *
 0001:00012a30       ??_Gout_of_range@std@@UEAAPEAXI@Z 0000000180013a30 f i libcpmt:xthrow.obj
 0001:00012a30       ??_Ebad_typeid@std@@UEAAPEAXI@Z 0000000180013a30 f i libvcruntime:rtti.obj
 0001:00012a30       ??_Ebad_weak_ptr@std@@UEAAPEAXI@Z 0000000180013a30 f i * CIL library *:* CIL module *
 0001:00012a30       ??_Gruntime_error@std@@UEAAPEAXI@Z 0000000180013a30 f i ui.obj
 0001:00012a30       ??_Gbad_cast@std@@UEAAPEAXI@Z 0000000180013a30 f i ui.obj
 0001:00012a30       ??_Elogic_error@std@@UEAAPEAXI@Z 0000000180013a30 f i libcpmt:xthrow.obj
 0001:00012a30       ??_Eruntime_error@std@@UEAAPEAXI@Z 0000000180013a30 f i * CIL library *:* CIL module *
 0001:00012a30       ??_Gexception@std@@UEAAPEAXI@Z 0000000180013a30 f i archive.obj
 0001:00012a30       ??_G__non_rtti_object@std@@UEAAPEAXI@Z 0000000180013a30 f i libvcruntime:rtti.obj
 0001:00012a30       ??_Elength_error@std@@UEAAPEAXI@Z 0000000180013a30 f i libcpmt:xthrow.obj
 0001:00012a30       ??_Glogic_error@std@@UEAAPEAXI@Z 0000000180013a30 f i libcpmt:xthrow.obj
 0001:00012a30       ??_Gbad_typeid@std@@UEAAPEAXI@Z 0000000180013a30 f i libvcruntime:rtti.obj
 0001:00012a30       ??_Ebad_array_new_length@std@@UEAAPEAXI@Z 0000000180013a30 f i * CIL library *:* CIL module *
 0001:00012a30       ??_E__non_rtti_object@std@@UEAAPEAXI@Z 0000000180013a30 f i libvcruntime:rtti.obj
 0001:00012a30       ??_Gbad_array_new_length@std@@UEAAPEAXI@Z 0000000180013a30 f i archive.obj
 0001:00012a30       ??_Gbad_weak_ptr@std@@UEAAPEAXI@Z 0000000180013a30 f i extract.obj
 0001:00012a30       ??_Glength_error@std@@UEAAPEAXI@Z 0000000180013a30 f i libcpmt:xthrow.obj
 0001:00012a80       ??0bad_array_new_length@std@@QEAA@AEBV01@@Z 0000000180013a80 f i archive.obj
 0001:00012ac0       ??0bad_alloc@std@@QEAA@AEBV01@@Z 0000000180013ac0 f i archive.obj
 0001:00012b00       ??0exception@std@@QEAA@AEBV01@@Z 0000000180013b00 f i archive.obj
 0001:00012b40       ?__scrt_throw_std_bad_array_new_length@@YAXXZ 0000000180013b40 f i LIBCMT:throw_bad_alloc.obj
 0001:00012b40       ?_Throw_bad_array_new_length@std@@YAXXZ 0000000180013b40 f i archive.obj
 0001:00012b60       ??$_Allocate@$0BA@U_Default_allocate_traits@std@@$0A@@std@@YAPEAX_K@Z 0000000180013b60 f i archive.obj
 0001:00012bc0       ?assign@?$basic_string@DU?$char_traits@D@std@@V?$allocator@D@2@@std@@QEAAAEAV12@QEBD_K@Z 0000000180013bc0 f i archive.obj
 0001:00012d20       ?what@exception@std@@UEBAPEBDXZ 0000000180013d20 f i archive.obj
 0001:00012d40       ?deallocate@?$allocator@_W@std@@QEAAXQEA_W_K@Z 0000000180013d40 f i archive.obj
 0001:00012d80       ??0Error@@QEAA@XZ          0000000180013d80 f i plugin.obj
 0001:00012e10       ??0Error@@QEAA@AEBV?$basic_string@_WU?$char_traits@_W@std@@V?$allocator@_W@2@@std@@0PEBDH@Z 0000000180013e10 f i plugin.obj
 0001:00012fe0       ??0Error@@QEAA@AEBVexception@std@@@Z 0000000180013fe0 f i plugin.obj
 0001:000133c0       ?Append@Error@@QEAAXAEBU1@@Z 00000001800143c0 f i plugin.obj
 0001:000134d0       ??1CriticalSectionLock@@QEAA@XZ 00000001800144d0 f i plugin.obj
 0001:000134f0       ?is_single_file_format@ArcAPI@@SA_NAEBV?$vector@EV?$allocator@E@std@@@std@@@Z 00000001800144f0 f i plugin.obj
 0001:000135c0       ?updatable@Archive@@QEBA_NXZ 00000001800145c0 f i plugin.obj
 0001:00013610       ??0Archive@@QEAA@XZ        0000000180014610 f i plugin.obj
 0001:00013790       ??1?$enable_shared_from_this@VArchive@@@std@@IEAA@XZ 0000000180014790 f i plugin.obj
 0001:000137e0       ??1?$set@V?$basic_string@_WU?$char_traits@_W@std@@V?$allocator@_W@2@@std@@U?$less@V?$basic_string@_WU?$char_traits@_W@std@@V?$allocator@_W@2@@std@@@2@V?$allocator@V?$basic_string@_WU?$char_traits@_W@std@@V?$allocator@_W@2@@std@@@2@@std@@QEAA@XZ 00000001800147e0 f i plugin.obj
 0001:000137e0       ??1?$set@V?$basic_string@_WU?$char_traits@_W@std@@V?$allocator@_W@2@@std@@UItemCompare@?1??show@MultiSelectDialog@@QEAA_NXZ@V?$allocator@V?$basic_string@_WU?$char_traits@_W@std@@V?$allocator@_W@2@@std@@@2@@std@@QEAA@XZ 00000001800147e0 f i ui.obj
 0001:00013810       ??1ArcChain@@QEAA@XZ       0000000180014810 f i plugin.obj
 0001:00013820       ??0Plugin@@QEAA@_N@Z       0000000180014820 f i plugin.obj
 0001:000138f0       ?open@Plugin@@SAPEAV1@AEBV?$vector@V?$shared_ptr@VArchive@@@std@@V?$allocator@V?$shared_ptr@VArchive@@@std@@@2@@std@@_N@Z 00000001800148f0 f i plugin.obj
 0001:00013d20       ?info@Plugin@@QEAAXPEAUOpenPanelInfo@@@Z 0000000180014d20 f i plugin.obj
 0001:00014380       ?set_dir@Plugin@@QEAAXAEBV?$basic_string@_WU?$char_traits@_W@std@@V?$allocator@_W@2@@std@@@Z 0000000180015380 f i plugin.obj
 0001:00014880       ??R<lambda_1>@?1??list@Plugin@@QEAAXPEAPEAUPluginPanelItem@@PEA_K@Z@QEBAXI@Z 0000000180015880 f i plugin.obj
 0001:00014c50       ?get_separate_dir_path@Plugin@@SA?AV?$basic_string@_WU?$char_traits@_W@std@@V?$allocator@_W@2@@std@@AEBV23@0@Z 0000000180015c50 f i plugin.obj
 0001:00014f60       ?extract@Plugin@@QEAAXAEBVPluginPanelItemAccessor@1@AEAV?$basic_string@_WU?$char_traits@_W@std@@V?$allocator@_W@2@@std@@_N_K@Z 0000000180015f60 f i plugin.obj
 0001:00015df0       ??R<lambda_1>@?1??extract@Plugin@@QEAAXAEBVPluginPanelItemAccessor@2@AEAV?$basic_string@_WU?$char_traits@_W@std@@V?$allocator@_W@2@@std@@_N_K@Z@QEBAXXZ 0000000180016df0 f i plugin.obj
 0001:00015f20       ?get@PluginPanelItems@?1??get_files@Plugin@@QEAAXPEBUPluginPanelItem@@_JHPEAPEB_W_K@Z@UEBAPEBU4@3@Z 0000000180016f20 f i plugin.obj
 0001:00015f30       ?size@PluginPanelItems@?1??get_files@Plugin@@QEAAXPEBUPluginPanelItem@@_JHPEAPEB_W_K@Z@UEBA_KXZ 0000000180016f30 f i plugin.obj
 0001:00015f40       ?get@PluginPanelItems@?1??extract@Plugin@@QEAAXXZ@UEBAPEBUPluginPanelItem@@_K@Z 0000000180016f40 f i plugin.obj
 0001:00015f70       ?size@PluginPanelItems@?1??extract@Plugin@@QEAAXXZ@UEBA_KXZ 0000000180016f70 f i plugin.obj
 0001:00015f80       ?extract@Plugin@@SAXAEBV?$vector@V?$basic_string@_WU?$char_traits@_W@std@@V?$allocator@_W@2@@std@@V?$allocator@V?$basic_string@_WU?$char_traits@_W@std@@V?$allocator@_W@2@@std@@@2@@std@@UExtractOptions@@@Z 0000000180016f80 f i plugin.obj
 0001:000170a0       ?bulk_extract@Plugin@@SAXAEBV?$vector@V?$basic_string@_WU?$char_traits@_W@std@@V?$allocator@_W@2@@std@@V?$allocator@V?$basic_string@_WU?$char_traits@_W@std@@V?$allocator@_W@2@@std@@@2@@std@@@Z 00000001800180a0 f i plugin.obj
 0001:000175e0       ?cmdline_extract@Plugin@@SAXAEBUExtractCommand@@@Z 00000001800185e0 f i plugin.obj
 0001:00017ae0       ?delete_items@Plugin@@SAXAEBV?$basic_string@_WU?$char_traits@_W@std@@V?$allocator@_W@2@@std@@AEBUExtractOptions@@AEBV?$vector@V?$basic_string@_WU?$char_traits@_W@std@@V?$allocator@_W@2@@std@@V?$allocator@V?$basic_string@_WU?$char_traits@_W@std@@V?$allocator@_W@2@@std@@@2@@3@@Z 0000000180018ae0 f i plugin.obj
 0001:00018020       ?extract_items@Plugin@@SAXAEBV?$basic_string@_WU?$char_traits@_W@std@@V?$allocator@_W@2@@std@@AEBUExtractOptions@@AEBV?$vector@V?$basic_string@_WU?$char_traits@_W@std@@V?$allocator@_W@2@@std@@V?$allocator@V?$basic_string@_WU?$char_traits@_W@std@@V?$allocator@_W@2@@std@@@2@@3@@Z 0000000180019020 f i plugin.obj
 0001:00018780       ?cmdline_extract@Plugin@@SAXAEBUExtractItemsCommand@@@Z 0000000180019780 f i plugin.obj
 0001:00018b40       ?cmdline_delete@Plugin@@SAXAEBUExtractItemsCommand@@@Z 0000000180019b40 f i plugin.obj
 0001:00018c50       ?test_files@Plugin@@QEAAXPEAUPluginPanelItem@@_J_K@Z 0000000180019c50 f i plugin.obj
 0001:00019450       ?bulk_test@Plugin@@SAXAEBV?$vector@V?$basic_string@_WU?$char_traits@_W@std@@V?$allocator@_W@2@@std@@V?$allocator@V?$basic_string@_WU?$char_traits@_W@std@@V?$allocator@_W@2@@std@@@2@@std@@@Z 000000018001a450 f i plugin.obj
 0001:0001a1a0       ?cmdline_test@Plugin@@SAXAEBUTestCommand@@@Z 000000018001b1a0 f i plugin.obj
 0001:0001a3c0       ?put_files@Plugin@@QEAAXPEBUPluginPanelItem@@_JHPEB_W_K@Z 000000018001b3c0 f i plugin.obj
 0001:0001c210       ?create_archive@Plugin@@SAXXZ 000000018001d210 f i plugin.obj
 0001:0001d2d0       ?cmdline_update@Plugin@@SAXAEBUUpdateCommand@@@Z 000000018001e2d0 f i plugin.obj
 0001:0001e390       ??R<lambda_3>@?1??cmdline_update@Plugin@@SAXAEBUUpdateCommand@@@Z@QEBAXAEBV?$basic_string@_WU?$char_traits@_W@std@@V?$allocator@_W@2@@std@@@Z 000000018001f390 f i plugin.obj
 0001:0001e780       ?delete_files@Plugin@@QEAAXPEBUPluginPanelItem@@_J_K@Z 000000018001f780 f i plugin.obj
 0001:0001ec50       ?create_dir@Plugin@@QEAAXPEAPEB_W_K@Z 000000018001fc50 f i plugin.obj
 0001:0001ef30       ?show_attr@Plugin@@QEAAXXZ 000000018001ff30 f i plugin.obj
 0001:0001f280       ??1?$vector@V?$basic_string@_WU?$char_traits@_W@std@@V?$allocator@_W@2@@std@@V?$allocator@V?$basic_string@_WU?$char_traits@_W@std@@V?$allocator@_W@2@@std@@@2@@std@@QEAA@XZ 0000000180020280 f i plugin.obj
 0001:0001f280       ??1MenuItems@Far@@QEAA@XZ  0000000180020280 f i plugin.obj
 0001:0001f280       ??1TestCommand@@QEAA@XZ    0000000180020280 f i plugin.obj
 0001:0001f290       ??1ExtractOptions@@QEAA@XZ 0000000180020290 f i plugin.obj
 0001:0001f350       ??1PluginPanelItems@?1??extract@Plugin@@QEAAXXZ@QEAA@XZ 0000000180020350 f i plugin.obj
 0001:0001f360       ??1OpenOptions@@QEAA@XZ    0000000180020360 f i plugin.obj
 0001:0001f430       ??0Error@@QEAA@$$QEAU0@@Z  0000000180020430 f i plugin.obj
 0001:0001f520       ??1UpdateOptions@@QEAA@XZ  0000000180020520 f i plugin.obj
 0001:0001f5b0       ??4SfxOptions@@QEAAAEAU0@AEBU0@@Z 00000001800205b0 f i plugin.obj
 0001:0001f720       ??1PanelItem@Far@@QEAA@XZ  0000000180020720 f i plugin.obj
 0001:0001f7e0       ??0SfxOptions@@QEAA@AEBU0@@Z 00000001800207e0 f i plugin.obj
 0001:0001f930       ??1SfxOptions@@QEAA@XZ     0000000180020930 f i plugin.obj
 0001:0001fa00       ??1ProfileOptions@@QEAA@XZ 0000000180020a00 f i plugin.obj
 0001:0001fc20       ??4SfxInstallConfig@@QEAAAEAU0@AEBU0@@Z 0000000180020c20 f i plugin.obj
 0001:0001fd30       ??0ProfileOptions@@QEAA@AEBU0@@Z 0000000180020d30 f i plugin.obj
 0001:0001fe20       ??1SfxVersionInfo@@QEAA@XZ 0000000180020e20 f i plugin.obj
 0001:00020040       ??1SfxInstallConfig@@QEAA@XZ 0000000180021040 f i plugin.obj
 0001:000202c0       GetGlobalInfoW             00000001800212c0 f   plugin.obj
 0001:00020340       SetStartupInfoW            0000000180021340 f   plugin.obj
 0001:000204b0       GetPluginInfoW             00000001800214b0 f   plugin.obj
 0001:00021330       AnalyseW                   0000000180022330 f   plugin.obj
 0001:000213b0       CloseAnalyseW              00000001800223b0 f   plugin.obj
 0001:000213d0       ??_G?$vector@V?$shared_ptr@VArchive@@@std@@V?$allocator@V?$shared_ptr@VArchive@@@std@@@2@@std@@QEAAPEAXI@Z 00000001800223d0 f i plugin.obj
 0001:00021450       OpenW                      0000000180022450 f   plugin.obj
 0001:00022f60       ??1CommandArgs@@QEAA@XZ    0000000180023f60 f i plugin.obj
 0001:00022f70       ??1OpenCommand@@QEAA@XZ    0000000180023f70 f i plugin.obj
 0001:00022f80       ??0OpenOptions@@QEAA@$$QEAU0@@Z 0000000180023f80 f i plugin.obj
 0001:00023050       ??1UpdateCommand@@QEAA@XZ  0000000180024050 f i plugin.obj
 0001:00023080       ??1ExtractCommand@@QEAA@XZ 0000000180024080 f i plugin.obj
 0001:000230a0       ??1ExtractItemsCommand@@QEAA@XZ 00000001800240a0 f i plugin.obj
 0001:00023120       ClosePanelW                0000000180024120 f   plugin.obj
 0001:00023200       ??1Plugin@@QEAA@XZ         0000000180024200 f i plugin.obj
 0001:000233e0       GetOpenPanelInfoW          00000001800243e0 f   plugin.obj
 0001:000234c0       SetDirectoryW              00000001800244c0 f   plugin.obj
 0001:000235b0       GetFindDataW               00000001800245b0 f   plugin.obj
 0001:00023720       FreeFindDataW              0000000180024720 f   plugin.obj
 0001:00023740       GetFilesW                  0000000180024740 f   plugin.obj
 0001:000238e0       PutFilesW                  00000001800248e0 f   plugin.obj
 0001:00023960       DeleteFilesW               0000000180024960 f   plugin.obj
 0001:000239d0       MakeDirectoryW             00000001800249d0 f   plugin.obj
 0001:00023a50       ProcessHostFileW           0000000180024a50 f   plugin.obj
 0001:00023eb0       ProcessPanelInputW         0000000180024eb0 f   plugin.obj
 0001:000240a0       ConfigureW                 00000001800250a0 f   plugin.obj
 0001:00024560       ??1PluginSettings@@QEAA@XZ 0000000180025560 f i plugin.obj
 0001:000246d0       ExitFARW                   00000001800256d0 f   plugin.obj
 0001:00024700       ??1?$shared_ptr@V?$map@IUFileIndexInfo@@U?$less@I@std@@V?$allocator@U?$pair@$$CBIUFileIndexInfo@@@std@@@3@@std@@@std@@QEAA@XZ 0000000180025700 f i update.obj
 0001:00024700       ??1?$shared_ptr@VArchive@@@std@@QEAA@XZ 0000000180025700 f i plugin.obj
 0001:00024700       ??1?$shared_ptr@VArchiveFileDeleterProgress@@@std@@QEAA@XZ 0000000180025700 f i delete.obj
 0001:00024700       ??1?$shared_ptr@VProgressMonitor@@@std@@QEAA@XZ 0000000180025700 f i delete.obj
 0001:00024700       ??1?$shared_ptr@V?$set@IU?$less@I@std@@V?$allocator@I@2@@std@@@std@@QEAA@XZ 0000000180025700 f i extract.obj
 0001:00024700       ??1?$shared_ptr@VArchiveUpdateProgress@@@std@@QEAA@XZ 0000000180025700 f i update.obj
 0001:00024700       ??1?$shared_ptr@VFileWriteCache@@@std@@QEAA@XZ 0000000180025700 f i extract.obj
 0001:00024700       ??1?$shared_ptr@W4OverwriteAction@@@std@@QEAA@XZ 0000000180025700 f i extract.obj
 0001:00024700       ??1?$shared_ptr@X@std@@QEAA@XZ 0000000180025700 f i plugin.obj
 0001:00024700       ??1?$shared_ptr@_N@std@@QEAA@XZ 0000000180025700 f i extract.obj
 0001:00024700       ??1?$shared_ptr@VExtractProgress@@@std@@QEAA@XZ 0000000180025700 f i extract.obj
 0001:00024700       ??1?$shared_ptr@V?$list@UError@@V?$allocator@UError@@@std@@@std@@@std@@QEAA@XZ 0000000180025700 f i plugin.obj
 0001:00024710       ??1?$unique_ptr@V?$vector@V?$shared_ptr@VArchive@@@std@@V?$allocator@V?$shared_ptr@VArchive@@@std@@@2@@std@@U?$default_delete@V?$vector@V?$shared_ptr@VArchive@@@std@@V?$allocator@V?$shared_ptr@VArchive@@@std@@@2@@std@@@2@@std@@QEAA@XZ 0000000180025710 f i plugin.obj
 0001:00024720       ?push_back@?$list@UError@@V?$allocator@UError@@@std@@@std@@QEAAXAEBUError@@@Z 0000000180025720 f i plugin.obj
 0001:000247c0       ??0?$list@UError@@V?$allocator@UError@@@std@@@std@@QEAA@XZ 00000001800257c0 f i plugin.obj
 0001:000247f0       ??1?$unique_ptr@$$BY0A@EU?$default_delete@$$BY0A@E@std@@@std@@QEAA@XZ 00000001800257f0 f i open.obj
 0001:000247f0       ??1?$unique_ptr@$$BY0A@UPluginPanelItem@@U?$default_delete@$$BY0A@UPluginPanelItem@@@std@@@std@@QEAA@XZ 00000001800257f0 f i plugin.obj
 0001:00024800       ??1?$vector@UInfoPanelLine@@V?$allocator@UInfoPanelLine@@@std@@@std@@QEAA@XZ 0000000180025800 f i plugin.obj
 0001:00024880       ??1?$list@UAttr@@V?$allocator@UAttr@@@std@@@std@@QEAA@XZ 0000000180025880 f i plugin.obj
 0001:000248f0       ??1?$vector@UArcFileInfo@@V?$allocator@UArcFileInfo@@@std@@@std@@QEAA@XZ 00000001800258f0 f i plugin.obj
 0001:00024970       ??1?$ComObject@UIArchiveUpdateCallback@@@@QEAA@XZ 0000000180025970 f i update.obj
 0001:00024970       ??1?$ComObject@UIInArchive@@@@QEAA@XZ 0000000180025970 f i plugin.obj
 0001:00024970       ??1?$ComObject@UIOutStream@@@@QEAA@XZ 0000000180025970 f i update.obj
 0001:00024970       ??1?$ComObject@UIArchiveAllowTail@@@@QEAA@XZ 0000000180025970 f i open.obj
 0001:00024970       ??1?$ComObject@UISequentialInStream@@@@QEAA@XZ 0000000180025970 f i open.obj
 0001:00024970       ??1?$ComObject@UIOutArchive@@@@QEAA@XZ 0000000180025970 f i update.obj
 0001:00024970       ??1?$ComObject@UIInArchiveGetStream@@@@QEAA@XZ 0000000180025970 f i open.obj
 0001:00024970       ??1?$ComObject@UIInStream@@@@QEAA@XZ 0000000180025970 f i open.obj
 0001:00024970       ??1?$ComObject@UIArchiveExtractCallback@@@@QEAA@XZ 0000000180025970 f i extract.obj
 0001:00024970       ??1?$ComObject@UISetProperties@@@@QEAA@XZ 0000000180025970 f i update.obj
 0001:000249a0       ??1?$list@UArcEntry@@V?$allocator@UArcEntry@@@std@@@std@@QEAA@XZ 00000001800259a0 f i plugin.obj
 0001:00024a60       ?_Tidy@?$vector@IV?$allocator@I@std@@@std@@AEAAXXZ 0000000180025a60 f i plugin.obj
 0001:00024a60       ??1?$vector@_NV?$allocator@_N@std@@@std@@QEAA@XZ 0000000180025a60 f i msearch.obj
 0001:00024a60       ??1?$_Vb_val@V?$allocator@_N@std@@@std@@QEAA@XZ 0000000180025a60 f i msearch.obj
 0001:00024a60       ??1?$vector@IV?$allocator@I@std@@@std@@QEAA@XZ 0000000180025a60 f i plugin.obj
 0001:00024ac0       ?count@?$_Tree@V?$_Tmap_traits@V?$vector@EV?$allocator@E@std@@@std@@UArcFormat@@U?$less@V?$vector@EV?$allocator@E@std@@@std@@@2@V?$allocator@U?$pair@$$CBV?$vector@EV?$allocator@E@std@@@std@@UArcFormat@@@std@@@2@$0A@@std@@@std@@QEBA_KAEBV?$vector@EV?$allocator@E@std@@@2@@Z 0000000180025ac0 f i plugin.obj
 0001:00024ac0       ?count@?$_Tree@V?$_Tset_traits@V?$vector@EV?$allocator@E@std@@@std@@U?$less@V?$vector@EV?$allocator@E@std@@@std@@@2@V?$allocator@V?$vector@EV?$allocator@E@std@@@std@@@2@$0A@@std@@@std@@QEBA_KAEBV?$vector@EV?$allocator@E@std@@@2@@Z 0000000180025ac0 f i open.obj
 0001:00024b90       ??4?$list@V?$vector@EV?$allocator@E@std@@@std@@V?$allocator@V?$vector@EV?$allocator@E@std@@@std@@@2@@std@@QEAAAEAV01@$$QEAV01@@Z 0000000180025b90 f i plugin.obj
 0001:00024bf0       ??A?$vector@V?$basic_string@_WU?$char_traits@_W@std@@V?$allocator@_W@2@@std@@V?$allocator@V?$basic_string@_WU?$char_traits@_W@std@@V?$allocator@_W@2@@std@@@2@@std@@QEBAAEBV?$basic_string@_WU?$char_traits@_W@std@@V?$allocator@_W@2@@1@_K@Z 0000000180025bf0 f i plugin.obj
 0001:00024c00       ?push_back@?$vector@V?$basic_string@_WU?$char_traits@_W@std@@V?$allocator@_W@2@@std@@V?$allocator@V?$basic_string@_WU?$char_traits@_W@std@@V?$allocator@_W@2@@std@@@2@@std@@QEAAX$$QEAV?$basic_string@_WU?$char_traits@_W@std@@V?$allocator@_W@2@@2@@Z 0000000180025c00 f i plugin.obj
 0001:00024c50       ?push_back@?$vector@V?$basic_string@_WU?$char_traits@_W@std@@V?$allocator@_W@2@@std@@V?$allocator@V?$basic_string@_WU?$char_traits@_W@std@@V?$allocator@_W@2@@std@@@2@@std@@QEAAXAEBV?$basic_string@_WU?$char_traits@_W@std@@V?$allocator@_W@2@@2@@Z 0000000180025c50 f i plugin.obj
 0001:00024c90       ?back@?$basic_string@_WU?$char_traits@_W@std@@V?$allocator@_W@2@@std@@QEAAAEA_WXZ 0000000180025c90 f i plugin.obj
 0001:00024cb0       ?_Reallocate_exactly@?$vector@UInfoPanelLine@@V?$allocator@UInfoPanelLine@@@std@@@std@@AEAAX_K@Z 0000000180025cb0 f i plugin.obj
 0001:00024d30       ?_Reallocate_exactly@?$vector@V?$basic_string@_WU?$char_traits@_W@std@@V?$allocator@_W@2@@std@@V?$allocator@V?$basic_string@_WU?$char_traits@_W@std@@V?$allocator@_W@2@@std@@@2@@std@@AEAAX_K@Z 0000000180025d30 f i plugin.obj
 0001:00024e30       ?append@?$basic_string@_WU?$char_traits@_W@std@@V?$allocator@_W@2@@std@@QEAAAEAV12@_K_W@Z 0000000180025e30 f i plugin.obj
 0001:00024fb0       ?_Change_array@?$vector@UInfoPanelLine@@V?$allocator@UInfoPanelLine@@@std@@@std@@AEAAXQEAUInfoPanelLine@@_K1@Z 0000000180025fb0 f i plugin.obj
 0001:00025060       ?clear@?$list@UAttr@@V?$allocator@UAttr@@@std@@@std@@QEAAXXZ 0000000180026060 f i plugin.obj
 0001:000250e0       ?_Change_array@?$vector@V?$basic_string@_WU?$char_traits@_W@std@@V?$allocator@_W@2@@std@@V?$allocator@V?$basic_string@_WU?$char_traits@_W@std@@V?$allocator@_W@2@@std@@@2@@std@@AEAAXQEAV?$basic_string@_WU?$char_traits@_W@std@@V?$allocator@_W@2@@2@_K1@Z 00000001800260e0 f i plugin.obj
 0001:00025180       ?allocate@?$allocator@V?$basic_string@_WU?$char_traits@_W@std@@V?$allocator@_W@2@@std@@@std@@QEAAPEAV?$basic_string@_WU?$char_traits@_W@std@@V?$allocator@_W@2@@2@_K@Z 0000000180026180 f i plugin.obj
 0001:000251f0       ??$?0VArchive@@$0A@@?$shared_ptr@VArchive@@@std@@QEAA@PEAVArchive@@@Z 00000001800261f0 f i plugin.obj
 0001:00025300       ?data@str_view@SimpleXML@@QEBAPEBDXZ 0000000180026300 f i options.obj
 0001:00025300       ??$?CVArchive@@$0A@@?$shared_ptr@VArchive@@@std@@QEBAPEAVArchive@@XZ 0000000180026300 f i plugin.obj
 0001:00025310       ??$for_each@V?$_Vector_const_iterator@V?$_Vector_val@U?$_Simple_types@V?$basic_string@_WU?$char_traits@_W@std@@V?$allocator@_W@2@@std@@@std@@@std@@@std@@V<lambda_2>@?1??cmdline_update@Plugin@@SAXAEBUUpdateCommand@@@Z@@std@@YA?AV<lambda_2>@?1??cmdline_update@Plugin@@SAXAEBUUpdateCommand@@@Z@V?$_Vector_const_iterator@V?$_Vector_val@U?$_Simple_types@V?$basic_string@_WU?$char_traits@_W@std@@V?$allocator@_W@2@@std@@@std@@@std@@@0@1V1?1??23@SAX0@Z@@Z 0000000180026310 f i plugin.obj
 0001:00025590       ??$copy@V?$_List_const_iterator@V?$_List_val@U?$_List_simple_types@V?$basic_string@_WU?$char_traits@_W@std@@V?$allocator@_W@2@@std@@@std@@@std@@@std@@V?$insert_iterator@V?$set@V?$basic_string@_WU?$char_traits@_W@std@@V?$allocator@_W@2@@std@@U?$less@V?$basic_string@_WU?$char_traits@_W@std@@V?$allocator@_W@2@@std@@@2@V?$allocator@V?$basic_string@_WU?$char_traits@_W@std@@V?$allocator@_W@2@@std@@@2@@std@@@2@@std@@YA?AV?$insert_iterator@V?$set@V?$basic_string@_WU?$char_traits@_W@std@@V?$allocator@_W@2@@std@@U?$less@V?$basic_string@_WU?$char_traits@_W@std@@V?$allocator@_W@2@@std@@@2@V?$allocator@V?$basic_string@_WU?$char_traits@_W@std@@V?$allocator@_W@2@@std@@@2@@std@@@0@V?$_List_const_iterator@V?$_List_val@U?$_List_simple_types@V?$basic_string@_WU?$char_traits@_W@std@@V?$allocator@_W@2@@std@@@std@@@std@@@0@0V10@@Z 0000000180026590 f i plugin.obj
 0001:000256f0       ??$_Emplace_reallocate@AEBUInfoPanelLine@@@?$vector@UInfoPanelLine@@V?$allocator@UInfoPanelLine@@@std@@@std@@QEAAPEAUInfoPanelLine@@QEAU2@AEBU2@@Z 00000001800266f0 f i plugin.obj
 0001:00025830       ??$_Emplace_reallocate@V?$basic_string@_WU?$char_traits@_W@std@@V?$allocator@_W@2@@std@@@?$vector@V?$basic_string@_WU?$char_traits@_W@std@@V?$allocator@_W@2@@std@@V?$allocator@V?$basic_string@_WU?$char_traits@_W@std@@V?$allocator@_W@2@@std@@@2@@std@@QEAAPEAV?$basic_string@_WU?$char_traits@_W@std@@V?$allocator@_W@2@@1@QEAV21@$$QEAV21@@Z 0000000180026830 f i plugin.obj
 0001:000259f0       ??$_Emplace_reallocate@AEBV?$basic_string@_WU?$char_traits@_W@std@@V?$allocator@_W@2@@std@@@?$vector@V?$basic_string@_WU?$char_traits@_W@std@@V?$allocator@_W@2@@std@@V?$allocator@V?$basic_string@_WU?$char_traits@_W@std@@V?$allocator@_W@2@@std@@@2@@std@@QEAAPEAV?$basic_string@_WU?$char_traits@_W@std@@V?$allocator@_W@2@@1@QEAV21@AEBV21@@Z 00000001800269f0 f i plugin.obj
 0001:00025bd0       ??$_Free_non_head@V?$allocator@U?$_List_node@UAttr@@PEAX@std@@@std@@@?$_List_node@UAttr@@PEAX@std@@SAXAEAV?$allocator@U?$_List_node@UAttr@@PEAX@std@@@1@PEAU01@@Z 0000000180026bd0 f i plugin.obj
 0001:00025c20       ??$_Destroy_range@V?$allocator@V?$shared_ptr@VArchive@@@std@@@std@@@std@@YAXPEAV?$shared_ptr@VArchive@@@0@QEAV10@AEAV?$allocator@V?$shared_ptr@VArchive@@@std@@@0@@Z 0000000180026c20 f i plugin.obj
 0001:00025cc0       ??1?$_Uninitialized_backout_al@V?$allocator@V?$basic_string@_WU?$char_traits@_W@std@@V?$allocator@_W@2@@std@@@std@@@std@@QEAA@XZ 0000000180026cc0 f i plugin.obj
 0001:00025cd0       ?_Delete_this@?$_Ref_count@_N@std@@EEAAXXZ 0000000180026cd0 f i extract.obj
 0001:00025cd0       ?_Delete_this@?$_Ref_count@W4OverwriteAction@@@std@@EEAAXXZ 0000000180026cd0 f i extract.obj
 0001:00025cd0       ?_Delete_this@?$_Ref_count@VArchive@@@std@@EEAAXXZ 0000000180026cd0 f i plugin.obj
 0001:00025cd0       ?_Delete_this@?$_Ref_count@VArchiveUpdateProgress@@@std@@EEAAXXZ 0000000180026cd0 f i update.obj
 0001:00025cd0       ?_Delete_this@?$_Ref_count@V?$map@IUFileIndexInfo@@U?$less@I@std@@V?$allocator@U?$pair@$$CBIUFileIndexInfo@@@std@@@3@@std@@@std@@EEAAXXZ 0000000180026cd0 f i update.obj
 0001:00025cd0       ?_Delete_this@?$_Ref_count@VFileFilter@Far@@@std@@EEAAXXZ 0000000180026cd0 f i ui.obj
 0001:00025cd0       ?_Delete_this@?$_Ref_count@VFileWriteCache@@@std@@EEAAXXZ 0000000180026cd0 f i extract.obj
 0001:00025cd0       ?_Delete_this@?$_Ref_count@VArchiveFileDeleterProgress@@@std@@EEAAXXZ 0000000180026cd0 f i delete.obj
 0001:00025cd0       ?_Delete_this@?$_Ref_count@VExtractProgress@@@std@@EEAAXXZ 0000000180026cd0 f i extract.obj
 0001:00025cd0       ?_Delete_this@?$_Ref_count@V?$set@IU?$less@I@std@@V?$allocator@I@2@@std@@@std@@EEAAXXZ 0000000180026cd0 f i extract.obj
 0001:00025cd0       ?_Delete_this@?$_Ref_count@V?$list@UError@@V?$allocator@UError@@@std@@@std@@@std@@EEAAXXZ 0000000180026cd0 f i plugin.obj
 0001:00025cf0       ?_Destroy@?$_Ref_count@V?$list@UError@@V?$allocator@UError@@@std@@@std@@@std@@EEAAXXZ 0000000180026cf0 f i plugin.obj
 0001:00025d20       ??1?$_Temporary_owner@V?$list@UError@@V?$allocator@UError@@@std@@@std@@@std@@QEAA@XZ 0000000180026d20 f i plugin.obj
 0001:00025d50       ?_Destroy@?$_Ref_count@VArchive@@@std@@EEAAXXZ 0000000180026d50 f i plugin.obj
 0001:00025d80       ??1?$_Temporary_owner@VArchive@@@std@@QEAA@XZ 0000000180026d80 f i plugin.obj
 0001:00025db0       ??_G?$_Ref_count@VArchive@@@std@@UEAAPEAXI@Z 0000000180026db0 f i plugin.obj
 0001:00025db0       ??_G?$_Ref_count@VArchiveUpdateProgress@@@std@@UEAAPEAXI@Z 0000000180026db0 f i update.obj
 0001:00025db0       ??_E?$_Ref_count@VArchiveUpdateProgress@@@std@@UEAAPEAXI@Z 0000000180026db0 f i * CIL library *:* CIL module *
 0001:00025db0       ??_E?$_Ref_count@W4OverwriteAction@@@std@@UEAAPEAXI@Z 0000000180026db0 f i * CIL library *:* CIL module *
 0001:00025db0       ??_G?$_Ref_count@V?$list@UError@@V?$allocator@UError@@@std@@@std@@@std@@UEAAPEAXI@Z 0000000180026db0 f i plugin.obj
 0001:00025db0       ??_G?$_Ref_count@VArchiveFileDeleterProgress@@@std@@UEAAPEAXI@Z 0000000180026db0 f i delete.obj
 0001:00025db0       ??_G?$_Ref_count@VFileWriteCache@@@std@@UEAAPEAXI@Z 0000000180026db0 f i extract.obj
 0001:00025db0       ??_E?$_Ref_count@V?$list@UError@@V?$allocator@UError@@@std@@@std@@@std@@UEAAPEAXI@Z 0000000180026db0 f i * CIL library *:* CIL module *
 0001:00025db0       ??_E?$_Ref_count@VFileFilter@Far@@@std@@UEAAPEAXI@Z 0000000180026db0 f i * CIL library *:* CIL module *
 0001:00025db0       ??_G?$_Ref_count@_N@std@@UEAAPEAXI@Z 0000000180026db0 f i extract.obj
 0001:00025db0       ??_G?$_Ref_count@V?$set@IU?$less@I@std@@V?$allocator@I@2@@std@@@std@@UEAAPEAXI@Z 0000000180026db0 f i extract.obj
 0001:00025db0       ??_G?$_Ref_count@VExtractProgress@@@std@@UEAAPEAXI@Z 0000000180026db0 f i extract.obj
 0001:00025db0       ??_E?$_Ref_count@VExtractProgress@@@std@@UEAAPEAXI@Z 0000000180026db0 f i * CIL library *:* CIL module *
 0001:00025db0       ??_G?$_Ref_count@VFileFilter@Far@@@std@@UEAAPEAXI@Z 0000000180026db0 f i ui.obj
 0001:00025db0       ??_E?$_Ref_count@VArchive@@@std@@UEAAPEAXI@Z 0000000180026db0 f i * CIL library *:* CIL module *
 0001:00025db0       ??_E?$_Ref_count@V?$set@IU?$less@I@std@@V?$allocator@I@2@@std@@@std@@UEAAPEAXI@Z 0000000180026db0 f i * CIL library *:* CIL module *
 0001:00025db0       ??_G?$_Ref_count@V?$map@IUFileIndexInfo@@U?$less@I@std@@V?$allocator@U?$pair@$$CBIUFileIndexInfo@@@std@@@3@@std@@@std@@UEAAPEAXI@Z 0000000180026db0 f i update.obj
 0001:00025db0       ??_E?$_Ref_count@VArchiveFileDeleterProgress@@@std@@UEAAPEAXI@Z 0000000180026db0 f i * CIL library *:* CIL module *
 0001:00025db0       ??_E?$_Ref_count@V?$map@IUFileIndexInfo@@U?$less@I@std@@V?$allocator@U?$pair@$$CBIUFileIndexInfo@@@std@@@3@@std@@@std@@UEAAPEAXI@Z 0000000180026db0 f i * CIL library *:* CIL module *
 0001:00025db0       ??_E?$_Ref_count@VFileWriteCache@@@std@@UEAAPEAXI@Z 0000000180026db0 f i * CIL library *:* CIL module *
 0001:00025db0       ??_G?$_Ref_count@W4OverwriteAction@@@std@@UEAAPEAXI@Z 0000000180026db0 f i extract.obj
 0001:00025db0       ??_E?$_Ref_count@_N@std@@UEAAPEAXI@Z 0000000180026db0 f i * CIL library *:* CIL module *
 0001:00025de0       ??1Archive@@QEAA@XZ        0000000180026de0 f i plugin.obj
 0001:000260f0       ??1?$_Alloc_construct_ptr@V?$allocator@U?$_List_node@UError@@PEAX@std@@@std@@@std@@QEAA@XZ 00000001800270f0 f i plugin.obj
 0001:00026110       ??1?$list@UError@@V?$allocator@UError@@@std@@@std@@QEAA@XZ 0000000180027110 f i plugin.obj
 0001:000261c0       ??$_Sort_unchecked@PEAIV<lambda_1>@?BC@??extract_items@Plugin@@SAXAEBV?$basic_string@_WU?$char_traits@_W@std@@V?$allocator@_W@2@@std@@AEBUExtractOptions@@AEBV?$vector@V?$basic_string@_WU?$char_traits@_W@std@@V?$allocator@_W@2@@std@@V?$allocator@V?$basic_string@_WU?$char_traits@_W@std@@V?$allocator@_W@2@@std@@@2@@5@@Z@@std@@YAXPEAI0_JV<lambda_1>@?BC@??extract_items@Plugin@@SAXAEBV?$basic_string@_WU?$char_traits@_W@std@@V?$allocator@_W@2@@0@AEBUExtractOptions@@AEBV?$vector@V?$basic_string@_WU?$char_traits@_W@std@@V?$allocator@_W@2@@std@@V?$allocator@V?$basic_string@_WU?$char_traits@_W@std@@V?$allocator@_W@2@@std@@@2@@0@@Z@@Z 00000001800271c0 f i plugin.obj
 0001:000263a0       ??$_Erase_tree@V?$allocator@U?$_Tree_node@V?$basic_string@_WU?$char_traits@_W@std@@V?$allocator@_W@2@@std@@PEAX@std@@@std@@@?$_Tree_val@U?$_Tree_simple_types@V?$basic_string@_WU?$char_traits@_W@std@@V?$allocator@_W@2@@std@@@std@@@std@@QEAAXAEAV?$allocator@U?$_Tree_node@V?$basic_string@_WU?$char_traits@_W@std@@V?$allocator@_W@2@@std@@PEAX@std@@@1@PEAU?$_Tree_node@V?$basic_string@_WU?$char_traits@_W@std@@V?$allocator@_W@2@@std@@PEAX@1@@Z 00000001800273a0 f i plugin.obj
 0001:000263a0       ??$_Erase_tree_and_orphan@V?$allocator@U?$_Tree_node@V?$basic_string@_WU?$char_traits@_W@std@@V?$allocator@_W@2@@std@@PEAX@std@@@std@@@?$_Tree_val@U?$_Tree_simple_types@V?$basic_string@_WU?$char_traits@_W@std@@V?$allocator@_W@2@@std@@@std@@@std@@QEAAXAEAV?$allocator@U?$_Tree_node@V?$basic_string@_WU?$char_traits@_W@std@@V?$allocator@_W@2@@std@@PEAX@std@@@1@PEAU?$_Tree_node@V?$basic_string@_WU?$char_traits@_W@std@@V?$allocator@_W@2@@std@@PEAX@1@@Z 00000001800273a0 f i open.obj
 0001:00026470       ??$_Assign_cast@AEAV?$basic_string@_WU?$char_traits@_W@std@@V?$allocator@_W@2@@std@@PEBV12@@?$list@V?$basic_string@_WU?$char_traits@_W@std@@V?$allocator@_W@2@@std@@V?$allocator@V?$basic_string@_WU?$char_traits@_W@std@@V?$allocator@_W@2@@std@@@2@@std@@AEAAXPEBV?$basic_string@_WU?$char_traits@_W@std@@V?$allocator@_W@2@@1@QEBV21@@Z 0000000180027470 f i plugin.obj
 0001:00026630       ??$_Assign_cast@AEAUAttr@@V?$_List_unchecked_const_iterator@V?$_List_val@U?$_List_simple_types@UAttr@@@std@@@std@@U_Iterator_base0@2@@std@@@?$list@UAttr@@V?$allocator@UAttr@@@std@@@std@@AEAAXV?$_List_unchecked_const_iterator@V?$_List_val@U?$_List_simple_types@UAttr@@@std@@@std@@U_Iterator_base0@2@@1@V21@@Z 0000000180027630 f i plugin.obj
 0001:00026820       ??$_Freenode@V?$allocator@U?$_List_node@UArcEntry@@PEAX@std@@@std@@@?$_List_node@UArcEntry@@PEAX@std@@SAXAEAV?$allocator@U?$_List_node@UArcEntry@@PEAX@std@@@1@PEAU01@@Z 0000000180027820 f i plugin.obj
 0001:00026890       ??$destroy@UError@@@?$_Default_allocator_traits@V?$allocator@U?$_List_node@UError@@PEAX@std@@@std@@@std@@SAXAEAV?$allocator@U?$_List_node@UError@@PEAX@std@@@1@QEAUError@@@Z 0000000180027890 f i plugin.obj
 0001:000268f0       ??1?$_List_node_insert_op@V?$allocator@U?$_List_node@UAttr@@PEAX@std@@@std@@@std@@QEAA@XZ 00000001800278f0 f i plugin.obj
 0001:000269e0       ??E?$_Tree_unchecked_const_iterator@V?$_Tree_val@U?$_Tree_simple_types@V?$basic_string@_WU?$char_traits@_W@std@@V?$allocator@_W@2@@std@@@std@@@std@@U_Iterator_base0@2@@std@@QEAAAEAV01@XZ 00000001800279e0 f i plugin.obj
 0001:00026a50       ??$_Construct@PEBD@?$basic_string@_WU?$char_traits@_W@std@@V?$allocator@_W@2@@std@@QEAAXPEBDQEBDUinput_iterator_tag@1@@Z 0000000180027a50 f i strutils.obj
 0001:00026a50       ??$_Construct@PEAD@?$basic_string@_WU?$char_traits@_W@std@@V?$allocator@_W@2@@std@@QEAAXPEADQEADUinput_iterator_tag@1@@Z 0000000180027a50 f i plugin.obj
 0001:00026c40       ??$_Partition_by_median_guess_unchecked@PEAIV<lambda_1>@?BC@??extract_items@Plugin@@SAXAEBV?$basic_string@_WU?$char_traits@_W@std@@V?$allocator@_W@2@@std@@AEBUExtractOptions@@AEBV?$vector@V?$basic_string@_WU?$char_traits@_W@std@@V?$allocator@_W@2@@std@@V?$allocator@V?$basic_string@_WU?$char_traits@_W@std@@V?$allocator@_W@2@@std@@@2@@5@@Z@@std@@YA?AU?$pair@PEAIPEAI@0@PEAI0V<lambda_1>@?BC@??extract_items@Plugin@@SAXAEBV?$basic_string@_WU?$char_traits@_W@std@@V?$allocator@_W@2@@0@AEBUExtractOptions@@AEBV?$vector@V?$basic_string@_WU?$char_traits@_W@std@@V?$allocator@_W@2@@std@@V?$allocator@V?$basic_string@_WU?$char_traits@_W@std@@V?$allocator@_W@2@@std@@@2@@0@@Z@@Z 0000000180027c40 f i plugin.obj
 0001:00026dd0       ??1?$_Alloc_construct_ptr@V?$allocator@U?$_List_node@UIconRsrc@@PEAX@std@@@std@@@std@@QEAA@XZ 0000000180027dd0 f i rsrc.obj
 0001:00026dd0       ??1?$_Alloc_construct_ptr@V?$allocator@U?$_List_node@UAttr@@PEAX@std@@@std@@@std@@QEAA@XZ 0000000180027dd0 f i plugin.obj
 0001:00026df0       ??1?$_Tidy_deallocate_guard@V?$basic_string@_WU?$char_traits@_W@std@@V?$allocator@_W@2@@std@@@std@@QEAA@XZ 0000000180027df0 f i plugin.obj
 0001:00026e00       ?push_back@?$basic_string@_WU?$char_traits@_W@std@@V?$allocator@_W@2@@std@@QEAAX_W@Z 0000000180027e00 f i plugin.obj
 0001:00026f60       ??1?$_Tree_temp_node_alloc@V?$allocator@U?$_Tree_node@V?$basic_string@_WU?$char_traits@_W@std@@V?$allocator@_W@2@@std@@PEAX@std@@@std@@@std@@QEAA@XZ 0000000180027f60 f i plugin.obj
 0001:00026f60       ??1?$_Alloc_construct_ptr@V?$allocator@U?$_Tree_node@V?$basic_string@_WU?$char_traits@_W@std@@V?$allocator@_W@2@@std@@PEAX@std@@@std@@@std@@QEAA@XZ 0000000180027f60 f i plugin.obj
 0001:00026f60       ??1?$_Alloc_construct_ptr@V?$allocator@U?$_List_node@UIdLang@@PEAX@std@@@std@@@std@@QEAA@XZ 0000000180027f60 f i rsrc.obj
 0001:00026f80       ??$_Find_hint@V?$basic_string@_WU?$char_traits@_W@std@@V?$allocator@_W@2@@std@@@?$_Tree@V?$_Tset_traits@V?$basic_string@_WU?$char_traits@_W@std@@V?$allocator@_W@2@@std@@U?$less@V?$basic_string@_WU?$char_traits@_W@std@@V?$allocator@_W@2@@std@@@2@V?$allocator@V?$basic_string@_WU?$char_traits@_W@std@@V?$allocator@_W@2@@std@@@2@$0A@@std@@@std@@IEBA?AU?$_Tree_find_hint_result@PEAU?$_Tree_node@V?$basic_string@_WU?$char_traits@_W@std@@V?$allocator@_W@2@@std@@PEAX@std@@@1@QEAU?$_Tree_node@V?$basic_string@_WU?$char_traits@_W@std@@V?$allocator@_W@2@@std@@PEAX@1@AEBV?$basic_string@_WU?$char_traits@_W@std@@V?$allocator@_W@2@@1@@Z 0000000180027f80 f i plugin.obj
 0001:000271c0       ??F?$_Tree_unchecked_const_iterator@V?$_Tree_val@U?$_Tree_simple_types@V?$basic_string@_WU?$char_traits@_W@std@@V?$allocator@_W@2@@std@@@std@@@std@@U_Iterator_base0@2@@std@@QEAAAEAV01@XZ 00000001800281c0 f i plugin.obj
 0001:00027250       ?_Get_deleter@_Ref_count_base@std@@UEBAPEAXAEBVtype_info@@@Z 0000000180028250 f i plugin.obj
 0001:00027250       ?PrepareOperation@ArchiveTester@@UEAAJH@Z 0000000180028250 f i test.obj
 0001:00027250       ?showmanyc@?$basic_streambuf@_WU?$char_traits@_W@std@@@std@@MEAA_JXZ 0000000180028250 f i ui.obj
 0001:00027250       ?SetOperationResult@ArchiveFileDeleter@@UEAAJH@Z 0000000180028250 f i delete.obj
 0001:00027250       ?sync@?$basic_streambuf@_WU?$char_traits@_W@std@@@std@@MEAAHXZ 0000000180028250 f i ui.obj
 0001:00027260       ??$_Reallocate_grow_by@V<lambda_1>@?1??append@?$basic_string@DU?$char_traits@D@std@@V?$allocator@D@2@@std@@QEAAAEAV34@QEBD_K@Z@PEBD_K@?$basic_string@DU?$char_traits@D@std@@V?$allocator@D@2@@std@@AEAAAEAV01@_KV<lambda_1>@?1??append@01@QEAAAEAV01@QEBD0@Z@PEBD_K@Z 0000000180028260 f i plugin.obj
 0001:000273e0       ?append@?$basic_string@DU?$char_traits@D@std@@V?$allocator@D@2@@std@@QEAAAEAV12@QEBD_K@Z 00000001800283e0 f i plugin.obj
 0001:00027470       ?_Decref@_Ref_count_base@std@@QEAAXXZ 0000000180028470 f i plugin.obj
 0001:000274e0       ??1DisableEvents@Dialog@Far@@QEAA@XZ 00000001800284e0 f i ui.obj
 0001:00027520       ?def_button@Dialog@Far@@QEAAIAEBV?$basic_string@_WU?$char_traits@_W@std@@V?$allocator@_W@2@@std@@_K@Z 0000000180028520 f i ui.obj
 0001:00027530       ?check_box@Dialog@Far@@QEAAIAEBV?$basic_string@_WU?$char_traits@_W@std@@V?$allocator@_W@2@@std@@_N_K@Z 0000000180028530 f i ui.obj
 0001:00027540       ?check_box3@Dialog@Far@@QEAAIAEBV?$basic_string@_WU?$char_traits@_W@std@@V?$allocator@_W@2@@std@@W4TriState@@_K@Z 0000000180028540 f i ui.obj
 0001:00027560       ??1ProgressSuspend@@QEAA@XZ 0000000180028560 f i ui.obj
 0001:00027570       ?get_error_dlg_title@@YA?AV?$basic_string@_WU?$char_traits@_W@std@@V?$allocator@_W@2@@std@@XZ 0000000180028570 f   ui.obj
 0001:000275d0       ??0ProgressMonitor@@QEAA@AEBV?$basic_string@_WU?$char_traits@_W@std@@V?$allocator@_W@2@@std@@_N1@Z 00000001800285d0 f   ui.obj
 0001:00027710       ??_EProgressMonitor@@UEAAPEAXI@Z 0000000180028710 f i * CIL library *:* CIL module *
 0001:00027710       ??_GProgressMonitor@@UEAAPEAXI@Z 0000000180028710 f i ui.obj
 0001:00027750       ??1ProgressMonitor@@UEAA@XZ 0000000180028750 f   ui.obj
 0001:00027880       ?display@ProgressMonitor@@AEAAXXZ 0000000180028880 f   ui.obj
 0001:000280b0       ?update_ui@ProgressMonitor@@QEAAX_N@Z 00000001800290b0 f   ui.obj
 0001:00028330       ?handle_esc@ProgressMonitor@@IEAAXXZ 0000000180029330 f   ui.obj
 0001:000286f0       ?clean@ProgressMonitor@@QEAAXXZ 00000001800296f0 f   ui.obj
 0001:00028760       ?get_suffixes@@YAPEAPEB_WH@Z 0000000180029760 f   ui.obj
 0001:00028ae0       ?dialog_proc@PasswordDialog@@EEAA_J_J0PEAX@Z 0000000180029ae0 f i ui.obj
 0001:00028bb0       ?show@PasswordDialog@@QEAA_NXZ 0000000180029bb0 f i ui.obj
 0001:00028ec0       ??1SettingsDialog@@QEAA@XZ 0000000180029ec0 f i ui.obj
 0001:00028ec0       ??1ExtractDialog@@QEAA@XZ  0000000180029ec0 f i ui.obj
 0001:00028ec0       ??1Dialog@Far@@QEAA@XZ     0000000180029ec0 f i ui.obj
 0001:00028ec0       ??1AttrDialog@@QEAA@XZ     0000000180029ec0 f i ui.obj
 0001:00028ee0       ?password_dialog@@YA_NAEAV?$basic_string@_WU?$char_traits@_W@std@@V?$allocator@_W@2@@std@@AEBV12@@Z 0000000180029ee0 f   ui.obj
 0001:00029100       ??1OverwriteDialog@@QEAA@XZ 000000018002a100 f i ui.obj
 0001:00029100       ??1PasswordDialog@@QEAA@XZ 000000018002a100 f i ui.obj
 0001:00029190       ?dialog_proc@OverwriteDialog@@EEAA_J_J0PEAX@Z 000000018002a190 f i ui.obj
 0001:000292d0       ??0OverwriteDialog@@QEAA@AEBV?$basic_string@_WU?$char_traits@_W@std@@V?$allocator@_W@2@@std@@AEBUOverwriteFileInfo@@1W4OverwriteDialogKind@@AEAUOverwriteOptions@@@Z 000000018002a2d0 f i ui.obj
 0001:000294c0       ?show@OverwriteDialog@@QEAA_NXZ 000000018002a4c0 f i ui.obj
 0001:0002a000       ?read_controls@ExtractDialog@@AEAAXAEAUExtractOptions@@@Z 000000018002b000 f i ui.obj
 0001:0002a800       ?dialog_proc@ExtractDialog@@EEAA_J_J0PEAX@Z 000000018002b800 f i ui.obj
 0001:0002ab60       ?show@ExtractDialog@@QEAA_NXZ 000000018002bb60 f i ui.obj
 0001:0002ba30       ?extract_dialog@@YA_NAEAUExtractOptions@@@Z 000000018002ca30 f   ui.obj
 0001:0002bb90       ?retry_or_ignore_error@@YAXAEBUError@@AEA_N1AEAV?$list@UError@@V?$allocator@UError@@@std@@@std@@AEAVProgressMonitor@@_N4@Z 000000018002cb90 f   ui.obj
 0001:0002c710       ??_D?$basic_ostringstream@_WU?$char_traits@_W@std@@V?$allocator@_W@2@@std@@QEAAXXZ 000000018002d710 f i ui.obj
 0001:0002c7b0       ?show_error_log@@YAXAEBV?$list@UError@@V?$allocator@UError@@@std@@@std@@@Z 000000018002d7b0 f   ui.obj
 0001:0002dad0       ??8@YA_NAEBUSfxOptions@@0@Z 000000018002ead0 f   ui.obj
 0001:0002e240       ??8@YA_NAEBUProfileOptions@@0@Z 000000018002f240 f   ui.obj
 0001:0002e5c0       ?get_default_ext@UpdateDialog@@AEBA?AV?$basic_string@_WU?$char_traits@_W@std@@V?$allocator@_W@2@@std@@XZ 000000018002f5c0 f i ui.obj
 0001:0002e840       ?change_extension@UpdateDialog@@AEAA_NXZ 000000018002f840 f i ui.obj
 0001:0002f120       ?arc_levels@UpdateDialog@@AEAA_ND@Z 0000000180030120 f i ui.obj
 0001:0002f8e0       ?update_level_list@UpdateDialog@@AEAAXXZ 00000001800308e0 f i ui.obj
 0001:0002fbc0       ?set_control_state@UpdateDialog@@AEAAXXZ 0000000180030bc0 f i ui.obj
 0001:000300b0       ?eval_arc_path@UpdateDialog@@AEAA?AV?$basic_string@_WU?$char_traits@_W@std@@V?$allocator@_W@2@@std@@XZ 00000001800310b0 f i ui.obj
 0001:00030860       ?read_controls@UpdateDialog@@AEAAXAEAUUpdateOptions@@@Z 0000000180031860 f i ui.obj
 0001:00031440       ?write_controls@UpdateDialog@@AEAAXAEBUProfileOptions@@@Z 0000000180032440 f i ui.obj
 0001:00031e10       ?populate_profile_list@UpdateDialog@@AEAAXXZ 0000000180032e10 f i ui.obj
 0001:00032020       ?dialog_proc@UpdateDialog@@EEAA_J_J0PEAX@Z 0000000180033020 f i ui.obj
 0001:00033630       ??0UpdateDialog@@QEAA@_N0AEAUUpdateOptions@@AEAUUpdateProfiles@@@Z 0000000180034630 f i ui.obj
 0001:00033850       ?show@UpdateDialog@@QEAA_NXZ 0000000180034850 f i ui.obj
 0001:00035e90       ?update_dialog@@YA_N_N0AEAUUpdateOptions@@AEAUUpdateProfiles@@@Z 0000000180036e90 f   ui.obj
 0001:00036050       ??1UpdateDialog@@QEAA@XZ   0000000180037050 f i ui.obj
 0001:000361b0       ?estimate_column_widths@MultiSelectDialog@@AEAA?AV?$vector@_KV?$allocator@_K@std@@@std@@AEBV?$vector@V?$basic_string@_WU?$char_traits@_W@std@@V?$allocator@_W@2@@std@@V?$allocator@V?$basic_string@_WU?$char_traits@_W@std@@V?$allocator@_W@2@@std@@@2@@3@@Z 00000001800371b0 f i ui.obj
 0001:00036650       ?dialog_proc@MultiSelectDialog@@EEAA_J_J0PEAX@Z 0000000180037650 f i ui.obj
 0001:00036860       ?show@MultiSelectDialog@@QEAA_NXZ 0000000180037860 f i ui.obj
 0001:00036e30       ??R<lambda_2>@?1??get_available_formats@SettingsDialog@@AEAA?AV?$basic_string@_WU?$char_traits@_W@std@@V?$allocator@_W@2@@std@@XZ@QEBA_NAEBV34@0@Z 0000000180037e30 f i ui.obj
 0001:00036e30       ??RItemCompare@?1??show@MultiSelectDialog@@QEAA_NXZ@QEBA_NAEBV?$basic_string@_WU?$char_traits@_W@std@@V?$allocator@_W@2@@std@@0@Z 0000000180037e30 f i ui.obj
 0001:00036f40       ?get_formats@FormatLibraryInfoDialog@@AEAA?AV?$basic_string@_WU?$char_traits@_W@std@@V?$allocator@_W@2@@std@@_K@Z 0000000180037f40 f i ui.obj
 0001:00037160       ?dialog_proc@FormatLibraryInfoDialog@@EEAA_J_J0PEAX@Z 0000000180038160 f i ui.obj
 0001:000377e0       ?show@FormatLibraryInfoDialog@@QEAAXXZ 00000001800387e0 f i ui.obj
 0001:00038560       ??1MultiSelectDialog@@QEAA@XZ 0000000180039560 f i ui.obj
 0001:000385f0       ??1?$map@_J_KU?$less@_J@std@@V?$allocator@U?$pair@$$CB_J_K@std@@@2@@std@@QEAA@XZ 00000001800395f0 f i ui.obj
 0001:00038650       ?dialog_proc@SettingsDialog@@EEAA_J_J0PEAX@Z 0000000180039650 f i ui.obj
 0001:00039ab0       ?generate_masks@SettingsDialog@@AEAAXXZ 000000018003aab0 f i ui.obj
 0001:00039c40       ?get_available_formats@SettingsDialog@@AEAA?AV?$basic_string@_WU?$char_traits@_W@std@@V?$allocator@_W@2@@std@@XZ 000000018003ac40 f i ui.obj
 0001:00039e90       ?show@SettingsDialog@@QEAA_NXZ 000000018003ae90 f i ui.obj
 0001:0003b880       ??1FormatLibraryInfoDialog@@QEAA@XZ 000000018003c880 f i ui.obj
 0001:0003b960       ??1Options@@QEAA@XZ        000000018003c960 f i ui.obj
 0001:0003bd80       ?dialog_proc@AttrDialog@@EEAA_J_J0PEAX@Z 000000018003cd80 f i ui.obj
 0001:0003bf50       ?attr_dialog@@YAXAEBV?$list@UAttr@@V?$allocator@UAttr@@@std@@@std@@@Z 000000018003cf50 f   ui.obj
 0001:0003c1a0       ??1?$vector@UFarListItem@@V?$allocator@UFarListItem@@@std@@@std@@QEAA@XZ 000000018003d1a0 f i ui.obj
 0001:0003c200       ?seekpos@?$basic_stringbuf@_WU?$char_traits@_W@std@@V?$allocator@_W@2@@std@@MEAA?AV?$fpos@U_Mbstatet@@@2@V32@H@Z 000000018003d200 f i ui.obj
 0001:0003c300       ?seekoff@?$basic_stringbuf@_WU?$char_traits@_W@std@@V?$allocator@_W@2@@std@@MEAA?AV?$fpos@U_Mbstatet@@@2@_JHH@Z 000000018003d300 f i ui.obj
 0001:0003c470       ?underflow@?$basic_stringbuf@_WU?$char_traits@_W@std@@V?$allocator@_W@2@@std@@MEAAGXZ 000000018003d470 f i ui.obj
 0001:0003c4e0       ?pbackfail@?$basic_stringbuf@_WU?$char_traits@_W@std@@V?$allocator@_W@2@@std@@MEAAGG@Z 000000018003d4e0 f i ui.obj
 0001:0003c540       ?overflow@?$basic_stringbuf@_WU?$char_traits@_W@std@@V?$allocator@_W@2@@std@@MEAAGG@Z 000000018003d540 f i ui.obj
 0001:0003c730       ??1?$basic_stringbuf@_WU?$char_traits@_W@std@@V?$allocator@_W@2@@std@@UEAA@XZ 000000018003d730 f i ui.obj
 0001:0003c840       ?imbue@?$basic_streambuf@_WU?$char_traits@_W@std@@@std@@MEAAXAEBVlocale@2@@Z 000000018003d840 f i ui.obj
 0001:0003c840       ?_Lock@?$basic_streambuf@_WU?$char_traits@_W@std@@@std@@UEAAXXZ 000000018003d840 f i ui.obj
 0001:0003c840       ?_Unlock@?$basic_streambuf@_WU?$char_traits@_W@std@@@std@@UEAAXXZ 000000018003d840 f i ui.obj
 0001:0003c840       _guard_check_icall_nop     000000018003d840 f i LIBCMT:guard_support.obj
 0001:0003c850       ?seekpos@?$basic_streambuf@_WU?$char_traits@_W@std@@@std@@MEAA?AV?$fpos@U_Mbstatet@@@2@V32@H@Z 000000018003d850 f i ui.obj
 0001:0003c850       ?seekoff@?$basic_streambuf@_WU?$char_traits@_W@std@@@std@@MEAA?AV?$fpos@U_Mbstatet@@@2@_JHH@Z 000000018003d850 f i ui.obj
 0001:0003c870       ?xsputn@?$basic_streambuf@_WU?$char_traits@_W@std@@@std@@MEAA_JPEB_W_J@Z 000000018003d870 f i ui.obj
 0001:0003c940       ?xsgetn@?$basic_streambuf@_WU?$char_traits@_W@std@@@std@@MEAA_JPEA_W_J@Z 000000018003d940 f i ui.obj
 0001:0003ca40       ?uflow@?$basic_streambuf@_WU?$char_traits@_W@std@@@std@@MEAAGXZ 000000018003da40 f i ui.obj
 0001:0003ca80       ?underflow@?$basic_streambuf@_WU?$char_traits@_W@std@@@std@@MEAAGXZ 000000018003da80 f i ui.obj
 0001:0003ca80       ?pbackfail@?$basic_streambuf@_WU?$char_traits@_W@std@@@std@@MEAAGG@Z 000000018003da80 f i ui.obj
 0001:0003ca80       ?overflow@?$basic_streambuf@_WU?$char_traits@_W@std@@@std@@MEAAGG@Z 000000018003da80 f i ui.obj
 0001:0003ca90       ??0?$basic_ostringstream@_WU?$char_traits@_W@std@@V?$allocator@_W@2@@std@@QEAA@H@Z 000000018003da90 f i ui.obj
 0001:0003cb90       ??6?$basic_ostream@_WU?$char_traits@_W@std@@@std@@QEAAAEAV01@H@Z 000000018003db90 f i ui.obj
 0001:0003cd70       ??1?$basic_ostream@_WU?$char_traits@_W@std@@@std@@UEAA@XZ 000000018003dd70 f i ui.obj
 0001:0003cda0       ??1?$basic_ios@_WU?$char_traits@_W@std@@@std@@UEAA@XZ 000000018003dda0 f i ui.obj
 0001:0003cdc0       ??1?$vector@UExternalCodec@@V?$allocator@UExternalCodec@@@std@@@std@@QEAA@XZ 000000018003ddc0 f i ui.obj
 0001:0003ce60       ?erase@?$vector@UUpdateProfile@@V?$allocator@UUpdateProfile@@@std@@@std@@QEAA?AV?$_Vector_iterator@V?$_Vector_val@U?$_Simple_types@UUpdateProfile@@@std@@@std@@@2@V?$_Vector_const_iterator@V?$_Vector_val@U?$_Simple_types@UUpdateProfile@@@std@@@std@@@2@@Z 000000018003de60 f i ui.obj
 0001:0003cfd0       ??1?$vector@UDialogItem@Far@@V?$allocator@UDialogItem@Far@@@std@@@std@@QEAA@XZ 000000018003dfd0 f i ui.obj
 0001:0003d040       ??_E?$basic_stringbuf@_WU?$char_traits@_W@std@@V?$allocator@_W@2@@std@@UEAAPEAXI@Z 000000018003e040 f i * CIL library *:* CIL module *
 0001:0003d040       ??_G?$basic_stringbuf@_WU?$char_traits@_W@std@@V?$allocator@_W@2@@std@@UEAAPEAXI@Z 000000018003e040 f i ui.obj
 0001:0003d080       ??_E?$basic_streambuf@_WU?$char_traits@_W@std@@@std@@UEAAPEAXI@Z 000000018003e080 f i * CIL library *:* CIL module *
 0001:0003d080       ??_G?$basic_streambuf@_WU?$char_traits@_W@std@@@std@@UEAAPEAXI@Z 000000018003e080 f i ui.obj
 0001:0003d100       ??_E?$basic_ostringstream@_WU?$char_traits@_W@std@@V?$allocator@_W@2@@std@@UEAAPEAXI@Z 000000018003e100 f i * CIL library *:* CIL module *
 0001:0003d100       ??_G?$basic_ostringstream@_WU?$char_traits@_W@std@@V?$allocator@_W@2@@std@@UEAAPEAXI@Z 000000018003e100 f i ui.obj
 0001:0003d140       ??_E?$basic_ostream@_WU?$char_traits@_W@std@@@std@@UEAAPEAXI@Z 000000018003e140 f i * CIL library *:* CIL module *
 0001:0003d140       ??_G?$basic_ostream@_WU?$char_traits@_W@std@@@std@@UEAAPEAXI@Z 000000018003e140 f i ui.obj
 0001:0003d1b0       ??_G?$basic_ios@_WU?$char_traits@_W@std@@@std@@UEAAPEAXI@Z 000000018003e1b0 f i ui.obj
 0001:0003d1b0       ??_E?$basic_ios@_WU?$char_traits@_W@std@@@std@@UEAAPEAXI@Z 000000018003e1b0 f i * CIL library *:* CIL module *
 0001:0003d1f0       ?do_put@?$num_put@_WV?$ostreambuf_iterator@_WU?$char_traits@_W@std@@@std@@@std@@MEBA?AV?$ostreambuf_iterator@_WU?$char_traits@_W@std@@@2@V32@AEAVios_base@2@_WPEBX@Z 000000018003e1f0 f i ui.obj
 0001:0003d2a0       ?do_put@?$num_put@_WV?$ostreambuf_iterator@_WU?$char_traits@_W@std@@@std@@@std@@MEBA?AV?$ostreambuf_iterator@_WU?$char_traits@_W@std@@@2@V32@AEAVios_base@2@_WO@Z 000000018003e2a0 f i ui.obj
 0001:0003d560       ?do_put@?$num_put@_WV?$ostreambuf_iterator@_WU?$char_traits@_W@std@@@std@@@std@@MEBA?AV?$ostreambuf_iterator@_WU?$char_traits@_W@std@@@2@V32@AEAVios_base@2@_WN@Z 000000018003e560 f i ui.obj
 0001:0003d820       ?do_put@?$num_put@_WV?$ostreambuf_iterator@_WU?$char_traits@_W@std@@@std@@@std@@MEBA?AV?$ostreambuf_iterator@_WU?$char_traits@_W@std@@@2@V32@AEAVios_base@2@_W_K@Z 000000018003e820 f i ui.obj
 0001:0003d950       ?do_put@?$num_put@_WV?$ostreambuf_iterator@_WU?$char_traits@_W@std@@@std@@@std@@MEBA?AV?$ostreambuf_iterator@_WU?$char_traits@_W@std@@@2@V32@AEAVios_base@2@_W_J@Z 000000018003e950 f i ui.obj
 0001:0003da80       ?do_put@?$num_put@_WV?$ostreambuf_iterator@_WU?$char_traits@_W@std@@@std@@@std@@MEBA?AV?$ostreambuf_iterator@_WU?$char_traits@_W@std@@@2@V32@AEAVios_base@2@_WK@Z 000000018003ea80 f i ui.obj
 0001:0003dbb0       ?do_put@?$num_put@_WV?$ostreambuf_iterator@_WU?$char_traits@_W@std@@@std@@@std@@MEBA?AV?$ostreambuf_iterator@_WU?$char_traits@_W@std@@@2@V32@AEAVios_base@2@_WJ@Z 000000018003ebb0 f i ui.obj
 0001:0003dce0       ?do_put@?$num_put@_WV?$ostreambuf_iterator@_WU?$char_traits@_W@std@@@std@@@std@@MEBA?AV?$ostreambuf_iterator@_WU?$char_traits@_W@std@@@2@V32@AEAVios_base@2@_W_N@Z 000000018003ece0 f i ui.obj
 0001:0003dfa0       ??1sentry@?$basic_ostream@_WU?$char_traits@_W@std@@@std@@QEAA@XZ 000000018003efa0 f i ui.obj
 0001:0003dff0       ??0sentry@?$basic_ostream@_WU?$char_traits@_W@std@@@std@@QEAA@AEAV12@@Z 000000018003eff0 f i ui.obj
 0001:0003e1a0       ?_Pnavail@?$basic_streambuf@_WU?$char_traits@_W@std@@@std@@IEBA_JXZ 000000018003f1a0 f i ui.obj
 0001:0003e1c0       ?_Gnavail@?$basic_streambuf@_WU?$char_traits@_W@std@@@std@@IEBA_JXZ 000000018003f1c0 f i ui.obj
 0001:0003e1e0       ??0?$basic_ostream@_WU?$char_traits@_W@std@@@std@@QEAA@PEAV?$basic_streambuf@_WU?$char_traits@_W@std@@@1@_N@Z 000000018003f1e0 f i ui.obj
 0001:0003e350       ??_G?$num_put@_WV?$ostreambuf_iterator@_WU?$char_traits@_W@std@@@std@@@std@@MEAAPEAXI@Z 000000018003f350 f i ui.obj
 0001:0003e350       ??_E?$num_put@_WV?$ostreambuf_iterator@_WU?$char_traits@_W@std@@@std@@@std@@MEAAPEAXI@Z 000000018003f350 f i * CIL library *:* CIL module *
 0001:0003e380       ?do_truename@?$numpunct@_W@std@@MEBA?AV?$basic_string@_WU?$char_traits@_W@std@@V?$allocator@_W@2@@2@XZ 000000018003f380 f i ui.obj
 0001:0003e3c0       ?do_falsename@?$numpunct@_W@std@@MEBA?AV?$basic_string@_WU?$char_traits@_W@std@@V?$allocator@_W@2@@2@XZ 000000018003f3c0 f i ui.obj
 0001:0003e400       ?do_grouping@?$numpunct@_W@std@@MEBA?AV?$basic_string@DU?$char_traits@D@std@@V?$allocator@D@2@@2@XZ 000000018003f400 f i ui.obj
 0001:0003e450       ?do_thousands_sep@?$numpunct@_W@std@@MEBA_WXZ 000000018003f450 f i ui.obj
 0001:0003e460       ?do_decimal_point@?$numpunct@_W@std@@MEBA_WXZ 000000018003f460 f i ui.obj
 0001:0003e470       ?_Rep@?$num_put@_WV?$ostreambuf_iterator@_WU?$char_traits@_W@std@@@std@@@std@@AEBA?AV?$ostreambuf_iterator@_WU?$char_traits@_W@std@@@2@V32@_W_K@Z 000000018003f470 f i ui.obj
 0001:0003e520       ?_Iput@?$num_put@_WV?$ostreambuf_iterator@_WU?$char_traits@_W@std@@@std@@@std@@AEBA?AV?$ostreambuf_iterator@_WU?$char_traits@_W@std@@@2@V32@AEAVios_base@2@_WPEAD_K@Z 000000018003f520 f i ui.obj
 0001:0003ebe0       ?_Fput@?$num_put@_WV?$ostreambuf_iterator@_WU?$char_traits@_W@std@@@std@@@std@@AEBA?AV?$ostreambuf_iterator@_WU?$char_traits@_W@std@@@2@V32@AEAVios_base@2@_WPEBD_K@Z 000000018003fbe0 f i ui.obj
 0001:0003f340       ??1_Sentry_base@?$basic_ostream@_WU?$char_traits@_W@std@@@std@@QEAA@XZ 0000000180040340 f i ui.obj
 0001:0003f380       ?_Osfx@?$basic_ostream@_WU?$char_traits@_W@std@@@std@@QEAAXXZ 0000000180040380 f i ui.obj
 0001:0003f440       ?_Destroy@?$vector@UExternalCodec@@V?$allocator@UExternalCodec@@@std@@@std@@AEAAXPEAUExternalCodec@@0@Z 0000000180040440 f i ui.obj
 0001:0003f480       ?deallocate@?$allocator@UExternalCodec@@@std@@QEAAXQEAUExternalCodec@@_K@Z 0000000180040480 f i ui.obj
 0001:0003f4c0       ??_G?$numpunct@_W@std@@MEAAPEAXI@Z 00000001800404c0 f i ui.obj
 0001:0003f4c0       ??_E?$numpunct@_W@std@@MEAAPEAXI@Z 00000001800404c0 f i * CIL library *:* CIL module *
 0001:0003f520       ??$?H_WU?$char_traits@_W@std@@V?$allocator@_W@1@@std@@YA?AV?$basic_string@_WU?$char_traits@_W@std@@V?$allocator@_W@2@@0@AEBV10@_W@Z 0000000180040520 f i ui.obj
 0001:0003f6c0       ??$?6_WU?$char_traits@_W@std@@@std@@YAAEAV?$basic_ostream@_WU?$char_traits@_W@std@@@0@AEAV10@_W@Z 00000001800406c0 f i ui.obj
 0001:0003f970       ??$for_each@V?$_List_const_iterator@V?$_List_val@U?$_List_simple_types@V?$basic_string@_WU?$char_traits@_W@std@@V?$allocator@_W@2@@std@@@std@@@std@@@std@@V<lambda_1>@?1???R3?1??generate_masks@SettingsDialog@@AEAAXXZ@QEBA@AEBU?$pair@$$CBV?$vector@EV?$allocator@E@std@@@std@@UArcFormat@@@2@@Z@@std@@YA?AV<lambda_1>@?1???R1?1??generate_masks@SettingsDialog@@AEAAXXZ@QEBA@AEBU?$pair@$$CBV?$vector@EV?$allocator@E@std@@@std@@UArcFormat@@@0@@Z@V?$_List_const_iterator@V?$_List_val@U?$_List_simple_types@V?$basic_string@_WU?$char_traits@_W@std@@V?$allocator@_W@2@@std@@@std@@@std@@@0@1V1?1???R1?1??23@AEAAXXZ@QEBA@0@Z@@Z 0000000180040970 f i ui.obj
 0001:0003f970       ??$for_each@V?$_List_const_iterator@V?$_List_val@U?$_List_simple_types@V?$basic_string@_WU?$char_traits@_W@std@@V?$allocator@_W@2@@std@@@std@@@std@@@std@@V<lambda_1>@?6??get_masks@FormatLibraryInfoDialog@@AEAA?AV?$basic_string@_WU?$char_traits@_W@std@@V?$allocator@_W@2@@2@_K@Z@@std@@YA?AV<lambda_1>@?6??get_masks@FormatLibraryInfoDialog@@AEAA?AV?$basic_string@_WU?$char_traits@_W@std@@V?$allocator@_W@2@@0@_K@Z@V?$_List_const_iterator@V?$_List_val@U?$_List_simple_types@V?$basic_string@_WU?$char_traits@_W@std@@V?$allocator@_W@2@@std@@@std@@@std@@@0@1V1?6??23@AEAA?AV40@0@Z@@Z 0000000180040970 f i ui.obj
 0001:0003fb50       ??$_Find_lower_bound@V?$basic_string@_WU?$char_traits@_W@std@@V?$allocator@_W@2@@std@@@?$_Tree@V?$_Tset_traits@V?$basic_string@_WU?$char_traits@_W@std@@V?$allocator@_W@2@@std@@UItemCompare@?1??show@MultiSelectDialog@@QEAA_NXZ@V?$allocator@V?$basic_string@_WU?$char_traits@_W@std@@V?$allocator@_W@2@@std@@@2@$0A@@std@@@std@@IEBA?AU?$_Tree_find_result@PEAU?$_Tree_node@V?$basic_string@_WU?$char_traits@_W@std@@V?$allocator@_W@2@@std@@PEAX@std@@@1@AEBV?$basic_string@_WU?$char_traits@_W@std@@V?$allocator@_W@2@@1@@Z 0000000180040b50 f i ui.obj
 0001:0003fda0       ??$_Emplace_reallocate@AEBUFarListItem@@@?$vector@UFarListItem@@V?$allocator@UFarListItem@@@std@@@std@@QEAAPEAUFarListItem@@QEAU2@AEBU2@@Z 0000000180040da0 f i ui.obj
 0001:0003ff40       ??$use_facet@V?$num_put@_WV?$ostreambuf_iterator@_WU?$char_traits@_W@std@@@std@@@std@@@std@@YAAEBV?$num_put@_WV?$ostreambuf_iterator@_WU?$char_traits@_W@std@@@std@@@0@AEBVlocale@0@@Z 0000000180040f40 f i ui.obj
 0001:00040060       ??$_Traits_find_ch@U?$char_traits@_W@std@@@std@@YA_KQEB_W_K1_W@Z 0000000180041060 f i ui.obj
 0001:000400b0       ??$use_facet@V?$numpunct@_W@std@@@std@@YAAEBV?$numpunct@_W@0@AEBVlocale@0@@Z 00000001800410b0 f i ui.obj
 0001:000401d0       ??$use_facet@V?$ctype@_W@std@@@std@@YAAEBV?$ctype@_W@0@AEBVlocale@0@@Z 00000001800411d0 f i ui.obj
 0001:000402f0       ??4UpdateProfile@@QEAAAEAU0@$$QEAU0@@Z 00000001800412f0 f i ui.obj
 0001:000403f0       ??1UpdateProfile@@QEAA@XZ  00000001800413f0 f i ui.obj
 0001:00040460       ??4SfxOptions@@QEAAAEAU0@$$QEAU0@@Z 0000000180041460 f i ui.obj
 0001:000405a0       ?_Getcat@?$numpunct@_W@std@@SA_KPEAPEBVfacet@locale@2@PEBV42@@Z 00000001800415a0 f i ui.obj
 0001:00040730       ?_Getcat@?$num_put@_WV?$ostreambuf_iterator@_WU?$char_traits@_W@std@@@std@@@std@@SA_KPEAPEBVfacet@locale@2@PEBV42@@Z 0000000180041730 f i ui.obj
 0001:000408b0       ??4?$vector@EV?$allocator@E@std@@@std@@QEAAAEAV01@$$QEAV01@@Z 00000001800418b0 f i ui.obj
 0001:00040950       ?_Buy_raw@?$vector@_KV?$allocator@_K@std@@@std@@AEAAX_K@Z 0000000180041950 f i ui.obj
 0001:000409e0       ?_Init@?$numpunct@_W@std@@IEAAXAEBV_Locinfo@2@_N@Z 00000001800419e0 f i ui.obj
 0001:00040cb0       ??1?$_Tidy_guard@V?$numpunct@_W@std@@@std@@QEAA@XZ 0000000180041cb0 f i ui.obj
 0001:00040cf0       ??$_Insert_string@_WU?$char_traits@_W@std@@_K@std@@YAAEAV?$basic_ostream@_WU?$char_traits@_W@std@@@0@AEAV10@QEB_W_K@Z 0000000180041cf0 f i ui.obj
 0001:00040f90       ??$_Sort_unchecked@PEAV?$vector@EV?$allocator@E@std@@@std@@V<lambda_2>@?4??show@UpdateDialog@@QEAA_NXZ@@std@@YAXPEAV?$vector@EV?$allocator@E@std@@@0@0_JV<lambda_2>@?4??show@UpdateDialog@@QEAA_NXZ@@Z 0000000180041f90 f i ui.obj
 0001:00041250       ??$_Assign_range@V?$_List_unchecked_const_iterator@V?$_List_val@U?$_List_simple_types@V?$basic_string@_WU?$char_traits@_W@std@@V?$allocator@_W@2@@std@@@std@@@std@@U_Iterator_base0@2@@std@@@?$vector@V?$basic_string@_WU?$char_traits@_W@std@@V?$allocator@_W@2@@std@@V?$allocator@V?$basic_string@_WU?$char_traits@_W@std@@V?$allocator@_W@2@@std@@@2@@std@@AEAAXV?$_List_unchecked_const_iterator@V?$_List_val@U?$_List_simple_types@V?$basic_string@_WU?$char_traits@_W@std@@V?$allocator@_W@2@@std@@@std@@@std@@U_Iterator_base0@2@@1@0Uforward_iterator_tag@1@@Z 0000000180042250 f i ui.obj
 0001:000414d0       ??$_Sort_unchecked@PEAV?$basic_string@_WU?$char_traits@_W@std@@V?$allocator@_W@2@@std@@UItemCompare@?1??show@MultiSelectDialog@@QEAA_NXZ@@std@@YAXPEAV?$basic_string@_WU?$char_traits@_W@std@@V?$allocator@_W@2@@0@0_JUItemCompare@?1??show@MultiSelectDialog@@QEAA_NXZ@@Z 00000001800424d0 f i ui.obj
 0001:00041760       ??$_Sort_unchecked@PEAV?$basic_string@_WU?$char_traits@_W@std@@V?$allocator@_W@2@@std@@V<lambda_2>@?1??get_available_formats@SettingsDialog@@AEAA?AV12@XZ@@std@@YAXPEAV?$basic_string@_WU?$char_traits@_W@std@@V?$allocator@_W@2@@0@0_JV<lambda_2>@?1??get_available_formats@SettingsDialog@@AEAA?AV10@XZ@@Z 0000000180042760 f i ui.obj
 0001:000419f0       ??$_Erase_tree@V?$allocator@U?$_Tree_node@U?$pair@$$CB_J_K@std@@PEAX@std@@@std@@@?$_Tree_val@U?$_Tree_simple_types@U?$pair@$$CB_J_K@std@@@std@@@std@@QEAAXAEAV?$allocator@U?$_Tree_node@U?$pair@$$CB_J_K@std@@PEAX@std@@@1@PEAU?$_Tree_node@U?$pair@$$CB_J_K@std@@PEAX@1@@Z 00000001800429f0 f i ui.obj
 0001:00041a50       ??$_Maklocstr@D@std@@YAPEADPEBDPEADAEBU_Cvtvec@@@Z 0000000180042a50 f i ui.obj
 0001:00041ac0       ??1ExternalCodec@@QEAA@XZ  0000000180042ac0 f i ui.obj
 0001:00041b80       ?_Destroy@?$_Ref_count@VFileFilter@Far@@@std@@EEAAXXZ 0000000180042b80 f i ui.obj
 0001:00041bd0       ??1?$_Temporary_owner@VFileFilter@Far@@@std@@QEAA@XZ 0000000180042bd0 f i ui.obj
 0001:00041c20       ??$_Partition_by_median_guess_unchecked@PEAV?$vector@EV?$allocator@E@std@@@std@@V<lambda_2>@?4??show@UpdateDialog@@QEAA_NXZ@@std@@YA?AU?$pair@PEAV?$vector@EV?$allocator@E@std@@@std@@PEAV12@@0@PEAV?$vector@EV?$allocator@E@std@@@0@0V<lambda_2>@?4??show@UpdateDialog@@QEAA_NXZ@@Z 0000000180042c20 f i ui.obj
 0001:000421f0       ??$_Insertion_sort_unchecked@PEAV?$vector@EV?$allocator@E@std@@@std@@V<lambda_2>@?4??show@UpdateDialog@@QEAA_NXZ@@std@@YAPEAV?$vector@EV?$allocator@E@std@@@0@PEAV10@QEAV10@V<lambda_2>@?4??show@UpdateDialog@@QEAA_NXZ@@Z 00000001800431f0 f i ui.obj
 0001:00042540       ??$_Find_hint@V?$basic_string@_WU?$char_traits@_W@std@@V?$allocator@_W@2@@std@@@?$_Tree@V?$_Tset_traits@V?$basic_string@_WU?$char_traits@_W@std@@V?$allocator@_W@2@@std@@UItemCompare@?1??show@MultiSelectDialog@@QEAA_NXZ@V?$allocator@V?$basic_string@_WU?$char_traits@_W@std@@V?$allocator@_W@2@@std@@@2@$0A@@std@@@std@@IEBA?AU?$_Tree_find_hint_result@PEAU?$_Tree_node@V?$basic_string@_WU?$char_traits@_W@std@@V?$allocator@_W@2@@std@@PEAX@std@@@1@QEAU?$_Tree_node@V?$basic_string@_WU?$char_traits@_W@std@@V?$allocator@_W@2@@std@@PEAX@1@AEBV?$basic_string@_WU?$char_traits@_W@std@@V?$allocator@_W@2@@1@@Z 0000000180043540 f i ui.obj
 0001:00042750       ??$_Partition_by_median_guess_unchecked@PEAV?$basic_string@_WU?$char_traits@_W@std@@V?$allocator@_W@2@@std@@UItemCompare@?1??show@MultiSelectDialog@@QEAA_NXZ@@std@@YA?AU?$pair@PEAV?$basic_string@_WU?$char_traits@_W@std@@V?$allocator@_W@2@@std@@PEAV12@@0@PEAV?$basic_string@_WU?$char_traits@_W@std@@V?$allocator@_W@2@@0@0UItemCompare@?1??show@MultiSelectDialog@@QEAA_NXZ@@Z 0000000180043750 f i ui.obj
 0001:000437a0       ??$_Insertion_sort_unchecked@PEAV?$basic_string@_WU?$char_traits@_W@std@@V?$allocator@_W@2@@std@@V<lambda_2>@?1??get_available_formats@SettingsDialog@@AEAA?AV12@XZ@@std@@YAPEAV?$basic_string@_WU?$char_traits@_W@std@@V?$allocator@_W@2@@0@PEAV10@QEAV10@V<lambda_2>@?1??get_available_formats@SettingsDialog@@AEAA?AV10@XZ@@Z 00000001800447a0 f i ui.obj
 0001:000437a0       ??$_Insertion_sort_unchecked@PEAV?$basic_string@_WU?$char_traits@_W@std@@V?$allocator@_W@2@@std@@UItemCompare@?1??show@MultiSelectDialog@@QEAA_NXZ@@std@@YAPEAV?$basic_string@_WU?$char_traits@_W@std@@V?$allocator@_W@2@@0@PEAV10@QEAV10@UItemCompare@?1??show@MultiSelectDialog@@QEAA_NXZ@@Z 00000001800447a0 f i ui.obj
 0001:00043da0       ??$_Partition_by_median_guess_unchecked@PEAV?$basic_string@_WU?$char_traits@_W@std@@V?$allocator@_W@2@@std@@V<lambda_2>@?1??get_available_formats@SettingsDialog@@AEAA?AV12@XZ@@std@@YA?AU?$pair@PEAV?$basic_string@_WU?$char_traits@_W@std@@V?$allocator@_W@2@@std@@PEAV12@@0@PEAV?$basic_string@_WU?$char_traits@_W@std@@V?$allocator@_W@2@@0@0V<lambda_2>@?1??get_available_formats@SettingsDialog@@AEAA?AV20@XZ@@Z 0000000180044da0 f i ui.obj
 0001:00044df0       ??$_Pop_heap_hole_by_index@PEAV?$vector@EV?$allocator@E@std@@@std@@V12@V<lambda_2>@?4??show@UpdateDialog@@QEAA_NXZ@@std@@YAXPEAV?$vector@EV?$allocator@E@std@@@0@_J1$$QEAV10@V<lambda_2>@?4??show@UpdateDialog@@QEAA_NXZ@@Z 0000000180045df0 f i ui.obj
 0001:00045090       ??$_Pop_heap_hole_by_index@PEAV?$basic_string@_WU?$char_traits@_W@std@@V?$allocator@_W@2@@std@@V12@V<lambda_2>@?1??get_available_formats@SettingsDialog@@AEAA?AV12@XZ@@std@@YAXPEAV?$basic_string@_WU?$char_traits@_W@std@@V?$allocator@_W@2@@0@_J1$$QEAV10@V<lambda_2>@?1??get_available_formats@SettingsDialog@@AEAA?AV10@XZ@@Z 0000000180046090 f i ui.obj
 0001:00045090       ??$_Pop_heap_hole_by_index@PEAV?$basic_string@_WU?$char_traits@_W@std@@V?$allocator@_W@2@@std@@V12@UItemCompare@?1??show@MultiSelectDialog@@QEAA_NXZ@@std@@YAXPEAV?$basic_string@_WU?$char_traits@_W@std@@V?$allocator@_W@2@@0@_J1$$QEAV10@UItemCompare@?1??show@MultiSelectDialog@@QEAA_NXZ@@Z 0000000180046090 f i ui.obj
 0001:000453e0       ??$_Move_backward_unchecked@PEAV?$basic_string@_WU?$char_traits@_W@std@@V?$allocator@_W@2@@std@@PEAV12@@std@@YAPEAV?$basic_string@_WU?$char_traits@_W@std@@V?$allocator@_W@2@@0@PEAV10@00@Z 00000001800463e0 f i ui.obj
 0001:000454b0       ??$_Med3_unchecked@PEAV?$vector@EV?$allocator@E@std@@@std@@V<lambda_2>@?4??show@UpdateDialog@@QEAA_NXZ@@std@@YAXPEAV?$vector@EV?$allocator@E@std@@@0@00V<lambda_2>@?4??show@UpdateDialog@@QEAA_NXZ@@Z 00000001800464b0 f i ui.obj
 0001:00045680       ??$_Med3_unchecked@PEAV?$basic_string@_WU?$char_traits@_W@std@@V?$allocator@_W@2@@std@@V<lambda_2>@?1??get_available_formats@SettingsDialog@@AEAA?AV12@XZ@@std@@YAXPEAV?$basic_string@_WU?$char_traits@_W@std@@V?$allocator@_W@2@@0@00V<lambda_2>@?1??get_available_formats@SettingsDialog@@AEAA?AV10@XZ@@Z 0000000180046680 f i ui.obj
 0001:00045680       ??$_Med3_unchecked@PEAV?$basic_string@_WU?$char_traits@_W@std@@V?$allocator@_W@2@@std@@UItemCompare@?1??show@MultiSelectDialog@@QEAA_NXZ@@std@@YAXPEAV?$basic_string@_WU?$char_traits@_W@std@@V?$allocator@_W@2@@0@00UItemCompare@?1??show@MultiSelectDialog@@QEAA_NXZ@@Z 0000000180046680 f i ui.obj
 0001:00045730       ??$_Push_heap_by_index@PEAV?$basic_string@_WU?$char_traits@_W@std@@V?$allocator@_W@2@@std@@V12@V<lambda_2>@?1??get_available_formats@SettingsDialog@@AEAA?AV12@XZ@@std@@YAXPEAV?$basic_string@_WU?$char_traits@_W@std@@V?$allocator@_W@2@@0@_J1$$QEAV10@V<lambda_2>@?1??get_available_formats@SettingsDialog@@AEAA?AV10@XZ@@Z 0000000180046730 f i ui.obj
 0001:00045730       ??$_Push_heap_by_index@PEAV?$basic_string@_WU?$char_traits@_W@std@@V?$allocator@_W@2@@std@@V12@UItemCompare@?1??show@MultiSelectDialog@@QEAA_NXZ@@std@@YAXPEAV?$basic_string@_WU?$char_traits@_W@std@@V?$allocator@_W@2@@0@_J1$$QEAV10@UItemCompare@?1??show@MultiSelectDialog@@QEAA_NXZ@@Z 0000000180046730 f i ui.obj
 0001:000459f4       ??_E?$basic_ostringstream@_WU?$char_traits@_W@std@@V?$allocator@_W@2@@std@@$4PPPPPPPM@A@EAAPEAXI@Z 00000001800469f4 f i ui.obj
 0001:00045a00       ??_E?$basic_ostream@_WU?$char_traits@_W@std@@@std@@$4PPPPPPPM@A@EAAPEAXI@Z 0000000180046a00 f i ui.obj
 0001:00045a10       ??_E?$ctype@_W@std@@MEAAPEAXI@Z 0000000180046a10 f i * CIL library *:* CIL module *
 0001:00045a10       ??_G?$ctype@_W@std@@MEAAPEAXI@Z 0000000180046a10 f i ui.obj
 0001:00045a70       ?do_is@?$ctype@_W@std@@MEBAPEB_WPEB_W0PEAF@Z 0000000180046a70 f i ui.obj
 0001:00045a90       ?do_scan_is@?$ctype@_W@std@@MEBAPEB_WFPEB_W0@Z 0000000180046a90 f i ui.obj
 0001:00045b00       ?do_is@?$ctype@_W@std@@MEBA_NF_W@Z 0000000180046b00 f i ui.obj
 0001:00045b30       ?do_scan_not@?$ctype@_W@std@@MEBAPEB_WFPEB_W0@Z 0000000180046b30 f i ui.obj
 0001:00045ba0       ?do_tolower@?$ctype@_W@std@@MEBAPEB_WPEA_WPEB_W@Z 0000000180046ba0 f i ui.obj
 0001:00045bf0       ?do_tolower@?$ctype@_W@std@@MEBA_W_W@Z 0000000180046bf0 f i ui.obj
 0001:00045c00       ?do_toupper@?$ctype@_W@std@@MEBAPEB_WPEA_WPEB_W@Z 0000000180046c00 f i ui.obj
 0001:00045c50       ?do_toupper@?$ctype@_W@std@@MEBA_W_W@Z 0000000180046c50 f i ui.obj
 0001:00045c60       ?do_narrow@?$ctype@_W@std@@MEBAPEB_WPEB_W0DPEAD@Z 0000000180046c60 f i ui.obj
 0001:00045d10       ?do_narrow@?$ctype@_W@std@@MEBAD_WD@Z 0000000180046d10 f i ui.obj
 0001:00045d70       ??1?$_Yarn@D@std@@QEAA@XZ  0000000180046d70 f i ui.obj
 0001:00045d70       ??1?$_Yarn@_W@std@@QEAA@XZ 0000000180046d70 f i ui.obj
 0001:00045da0       ??1_Locinfo@std@@QEAA@XZ   0000000180046da0 f i ui.obj
 0001:00045e40       ?_Getcat@?$ctype@_W@std@@SA_KPEAPEBVfacet@locale@2@PEBV42@@Z 0000000180046e40 f i ui.obj
 0001:00046000       ??1?$unique_ptr@V_Facet_base@std@@U?$default_delete@V_Facet_base@std@@@2@@std@@QEAA@XZ 0000000180047000 f i ui.obj
 0001:00046020       ??0bad_cast@std@@QEAA@XZ   0000000180047020 f i ui.obj
 0001:00046050       ??0bad_cast@std@@QEAA@AEBV01@@Z 0000000180047050 f i ui.obj
 0001:00046090       ?_Throw_bad_cast@std@@YAXXZ 0000000180047090 f i ui.obj
 0001:000460b0       ?do_widen@?$ctype@_W@std@@MEBA_WD@Z 00000001800470b0 f i ui.obj
 0001:00046100       ??0_System_error@std@@IEAA@Verror_code@1@AEBV?$basic_string@DU?$char_traits@D@std@@V?$allocator@D@2@@1@@Z 0000000180047100 f i ui.obj
 0001:000463b0       ??0failure@ios_base@std@@QEAA@PEBDAEBVerror_code@2@@Z 00000001800473b0 f i ui.obj
 0001:00046490       ??_G_Iostream_error_category@std@@UEAAPEAXI@Z 0000000180047490 f i ui.obj
 0001:00046490       ??_E_Iostream_error_category@std@@UEAAPEAXI@Z 0000000180047490 f i * CIL library *:* CIL module *
 0001:000464c0       ?name@_Iostream_error_category@std@@UEBAPEBDXZ 00000001800474c0 f i ui.obj
 0001:000464d0       ?message@_Iostream_error_category@std@@UEBA?AV?$basic_string@DU?$char_traits@D@std@@V?$allocator@D@2@@2@H@Z 00000001800474d0 f i ui.obj
 0001:00046550       ?equivalent@error_category@std@@UEBA_NAEBVerror_code@2@H@Z 0000000180047550 f i ui.obj
 0001:00046570       ?default_error_condition@error_category@std@@UEBA?AVerror_condition@2@H@Z 0000000180047570 f i ui.obj
 0001:00046580       ?equivalent@error_category@std@@UEBA_NHAEBVerror_condition@2@@Z 0000000180047580 f i ui.obj
 0001:000465c0       ??$_Immortalize_impl@V_Iostream_error_category@std@@@std@@YAHPEAX0PEAPEAX@Z 00000001800475c0 f i ui.obj
 0001:000465e0       ?make_error_code@std@@YA?AVerror_code@1@W4io_errc@1@@Z 00000001800475e0 f i ui.obj
 0001:00046630       ??_Esystem_error@std@@UEAAPEAXI@Z 0000000180047630 f i * CIL library *:* CIL module *
 0001:00046630       ??_E_System_error@std@@UEAAPEAXI@Z 0000000180047630 f i * CIL library *:* CIL module *
 0001:00046630       ??_Efailure@ios_base@std@@UEAAPEAXI@Z 0000000180047630 f i * CIL library *:* CIL module *
 0001:00046630       ??_G_System_error@std@@UEAAPEAXI@Z 0000000180047630 f i ui.obj
 0001:00046630       ??_Gsystem_error@std@@UEAAPEAXI@Z 0000000180047630 f i ui.obj
 0001:00046630       ??_Gfailure@ios_base@std@@UEAAPEAXI@Z 0000000180047630 f i ui.obj
 0001:00046680       ??0failure@ios_base@std@@QEAA@AEBV012@@Z 0000000180047680 f i ui.obj
 0001:000466e0       ??0system_error@std@@QEAA@AEBV01@@Z 00000001800476e0 f i ui.obj
 0001:00046740       ??0_System_error@std@@QEAA@AEBV01@@Z 0000000180047740 f i ui.obj
 0001:00046790       ??0runtime_error@std@@QEAA@AEBV01@@Z 0000000180047790 f i ui.obj
 0001:000467d0       ?do_widen@?$ctype@_W@std@@MEBAPEBDPEBD0PEA_W@Z 00000001800477d0 f i ui.obj
 0001:00046870       ??0?$basic_string@_WU?$char_traits@_W@std@@V?$allocator@_W@2@@std@@QEAA@_K_W@Z 0000000180047870 f i ui.obj
 0001:00046950       ??1facet@locale@std@@MEAA@XZ 0000000180047950 f i ui.obj
 0001:00046960       ??$_Reallocate_grow_by@V<lambda_1>@?1??append@?$basic_string@DU?$char_traits@D@std@@V?$allocator@D@2@@std@@QEAAAEAV34@_KD@Z@_KD@?$basic_string@DU?$char_traits@D@std@@V?$allocator@D@2@@std@@AEAAAEAV01@_KV<lambda_1>@?1??append@01@QEAAAEAV01@0D@Z@_KD@Z 0000000180047960 f i ui.obj
 0001:00046ae0       __local_stdio_printf_options 0000000180047ae0 f i ui.obj
 0001:00046af0       sprintf_s                  0000000180047af0 f i ui.obj
 0001:00046b50       ??_Eios_base@std@@UEAAPEAXI@Z 0000000180047b50 f i * CIL library *:* CIL module *
 0001:00046b50       ??_Gios_base@std@@UEAAPEAXI@Z 0000000180047b50 f i ui.obj
 0001:00046b90       ?_Incref@facet@locale@std@@UEAAXXZ 0000000180047b90 f i ui.obj
 0001:00046ba0       ?_Decref@facet@locale@std@@UEAAPEAV_Facet_base@3@XZ 0000000180047ba0 f i ui.obj
 0001:00046bb0       ??_G_Facet_base@std@@UEAAPEAXI@Z 0000000180047bb0 f i ui.obj
 0001:00046bb0       ??_E_Facet_base@std@@UEAAPEAXI@Z 0000000180047bb0 f i * CIL library *:* CIL module *
 0001:00046be0       ??1locale@std@@QEAA@XZ     0000000180047be0 f i ui.obj
 0001:00046c10       ??1DisableSleepMode@@QEAA@XZ 0000000180047c10 f i extract.obj
 0001:00046c20       ??1BStr@@QEAA@XZ           0000000180047c20 f i extract.obj
 0001:00046c50       ?do_update_ui@ExtractProgress@@EEAAXXZ 0000000180047c50 f i extract.obj
 0001:000478d0       ??0ExtractProgress@@QEAA@AEBV?$basic_string@_WU?$char_traits@_W@std@@V?$allocator@_W@2@@std@@@Z 00000001800488d0 f i extract.obj
 0001:00047aa0       ??_EExtractProgress@@UEAAPEAXI@Z 0000000180048aa0 f i * CIL library *:* CIL module *
 0001:00047aa0       ??_GExtractProgress@@UEAAPEAXI@Z 0000000180048aa0 f i extract.obj
 0001:00047c10       ?create_file@FileWriteCache@@AEAAXXZ 0000000180048c10 f i extract.obj
 0001:00047fb0       ?allocate_file@FileWriteCache@@AEAAXXZ 0000000180048fb0 f i extract.obj
 0001:00048060       ?write_file@FileWriteCache@@AEAAXXZ 0000000180049060 f i extract.obj
 0001:00048230       ?close_file@FileWriteCache@@AEAAXXZ 0000000180049230 f i extract.obj
 0001:00048340       ?write@FileWriteCache@@AEAAXXZ 0000000180049340 f i extract.obj
 0001:000484e0       ?store@FileWriteCache@@AEAAXPEBE_K@Z 00000001800494e0 f i extract.obj
 0001:00048640       ??0FileWriteCache@@QEAA@V?$shared_ptr@VArchive@@@std@@V?$shared_ptr@_N@2@V?$shared_ptr@V?$list@UError@@V?$allocator@UError@@@std@@@std@@@2@V?$shared_ptr@VExtractProgress@@@2@@Z 0000000180049640 f i extract.obj
 0001:00048900       ??1FileWriteCache@@QEAA@XZ 0000000180049900 f i extract.obj
 0001:00048a60       ?store_file@FileWriteCache@@QEAAXAEBV?$basic_string@_WU?$char_traits@_W@std@@V?$allocator@_W@2@@std@@IW4OverwriteAction@@@Z 0000000180049a60 f i extract.obj
 0001:00048ca0       ?store_data@FileWriteCache@@QEAAXPEBE_K@Z 0000000180049ca0 f i extract.obj
 0001:00048e70       ?QueryInterface@CachedFileExtractStream@@UEAAJAEBU_GUID@@PEAPEAX@Z 0000000180049e70 f i extract.obj
 0001:00048ef0       ?AddRef@CachedFileExtractStream@@UEAAKXZ 0000000180049ef0 f i extract.obj
 0001:00048ef0       ?AddRef@ArchiveFileDeleterStream@@UEAAKXZ 0000000180049ef0 f i delete.obj
 0001:00048ef0       ?AddRef@ArchiveFileDeleter@@UEAAKXZ 0000000180049ef0 f i delete.obj
 0001:00048ef0       ?AddRef@ArchiveSubStream@@UEAAKXZ 0000000180049ef0 f i open.obj
 0001:00048ef0       ?AddRef@ArchiveOpenStream@@UEAAKXZ 0000000180049ef0 f i open.obj
 0001:00048f00       ?Release@CachedFileExtractStream@@UEAAKXZ 0000000180049f00 f i extract.obj
 0001:00048f00       ?Release@ArchiveOpenStream@@UEAAKXZ 0000000180049f00 f i open.obj
 0001:00048f00       ?Release@ArchiveSubStream@@UEAAKXZ 0000000180049f00 f i open.obj
 0001:00048f00       ?Release@ArchiveFileDeleterStream@@UEAAKXZ 0000000180049f00 f i delete.obj
 0001:00048f00       ?Release@ArchiveFileDeleter@@UEAAKXZ 0000000180049f00 f i delete.obj
 0001:00048f30       ?Write@CachedFileExtractStream@@UEAAJPEBXIPEAI@Z 0000000180049f30 f i extract.obj
 0001:00048f80       ??_GCachedFileExtractStream@@UEAAPEAXI@Z 0000000180049f80 f i extract.obj
 0001:00048f80       ??_ECachedFileExtractStream@@UEAAPEAXI@Z 0000000180049f80 f i * CIL library *:* CIL module *
 0001:00048fd0       ??4Error@@QEAAAEAU0@AEBU0@@Z 0000000180049fd0 f i extract.obj
 0001:00049050       ??4Error@@QEAAAEAU0@$$QEAU0@@Z 000000018004a050 f i extract.obj
 0001:00049170       ??0ArchiveExtractor@@QEAA@IAEBV?$basic_string@_WU?$char_traits@_W@std@@V?$allocator@_W@2@@std@@V?$shared_ptr@VArchive@@@2@V?$shared_ptr@W4OverwriteAction@@@2@V?$shared_ptr@_N@2@V?$shared_ptr@V?$list@UError@@V?$allocator@UError@@@std@@@std@@@2@V?$shared_ptr@VFileWriteCache@@@2@V?$shared_ptr@VExtractProgress@@@2@V?$shared_ptr@V?$set@IU?$less@I@std@@V?$allocator@I@2@@std@@@2@@Z 000000018004a170 f i extract.obj
 0001:000493f0       ?QueryInterface@ArchiveTester@@UEAAJAEBU_GUID@@PEAPEAX@Z 000000018004a3f0 f i test.obj
 0001:000493f0       ?QueryInterface@ArchiveExtractor@@UEAAJAEBU_GUID@@PEAPEAX@Z 000000018004a3f0 f i extract.obj
 0001:000494b0       ?SetTotal@ArchiveExtractor@@UEAAJ_K@Z 000000018004a4b0 f i extract.obj
 0001:00049590       ?SetCompleted@ArchiveExtractor@@UEAAJPEB_K@Z 000000018004a590 f i extract.obj
 0001:000496b0       ?GetStream@ArchiveExtractor@@UEAAJIPEAPEAUISequentialOutStream@@H@Z 000000018004a6b0 f i extract.obj
 0001:0004a000       ?PrepareOperation@ArchiveExtractor@@UEAAJH@Z 000000018004b000 f i extract.obj
 0001:0004a060       ?SetOperationResult@ArchiveExtractor@@UEAAJH@Z 000000018004b060 f i extract.obj
 0001:0004a480       ?CryptoGetTextPassword@ArchiveExtractor@@UEAAJPEAPEA_W@Z 000000018004b480 f i extract.obj
 0001:0004a620       ??_GArchiveExtractor@@UEAAPEAXI@Z 000000018004b620 f i extract.obj
 0001:0004a620       ??_EArchiveExtractor@@UEAAPEAXI@Z 000000018004b620 f i * CIL library *:* CIL module *
 0001:0004a660       ??1ArchiveExtractor@@UEAA@XZ 000000018004b660 f i extract.obj
 0001:0004a800       ?prepare_dst_dir@Archive@@AEAAXAEBV?$basic_string@_WU?$char_traits@_W@std@@V?$allocator@_W@2@@std@@@Z 000000018004b800 f   extract.obj
 0001:0004a8e0       ?do_update_ui@PrepareExtract@@EEAAXXZ 000000018004b8e0 f i extract.obj
 0001:0004ab50       ?prepare_extract@PrepareExtract@@AEAAXAEBU?$pair@V?$_Vector_const_iterator@V?$_Vector_val@U?$_Simple_types@I@std@@@std@@@std@@V12@@std@@AEBV?$basic_string@_WU?$char_traits@_W@std@@V?$allocator@_W@2@@3@@Z 000000018004bb50 f i extract.obj
 0001:0004abb0       ??R<lambda_1>@?1??prepare_extract@PrepareExtract@@AEAAXAEBU?$pair@V?$_Vector_const_iterator@V?$_Vector_val@U?$_Simple_types@I@std@@@std@@@std@@V12@@std@@AEBV?$basic_string@_WU?$char_traits@_W@std@@V?$allocator@_W@2@@4@@Z@QEBAXI@Z 000000018004bbb0 f i extract.obj
 0001:0004b060       ??_EPrepareExtract@@UEAAPEAXI@Z 000000018004c060 f i * CIL library *:* CIL module *
 0001:0004b060       ??_GPrepareExtract@@UEAAPEAXI@Z 000000018004c060 f i extract.obj
 0001:0004b0a0       ?do_update_ui@SetDirAttr@@EEAAXXZ 000000018004c0a0 f i extract.obj
 0001:0004b310       ?set_dir_attr@SetDirAttr@@AEAAXAEBU?$pair@V?$_Vector_const_iterator@V?$_Vector_val@U?$_Simple_types@I@std@@@std@@@std@@V12@@std@@AEBV?$basic_string@_WU?$char_traits@_W@std@@V?$allocator@_W@2@@3@@Z 000000018004c310 f i extract.obj
 0001:0004b370       ??R<lambda_1>@?1??set_dir_attr@SetDirAttr@@AEAAXAEBU?$pair@V?$_Vector_const_iterator@V?$_Vector_val@U?$_Simple_types@I@std@@@std@@@std@@V12@@std@@AEBV?$basic_string@_WU?$char_traits@_W@std@@V?$allocator@_W@2@@4@@Z@QEBAXI@Z 000000018004c370 f i extract.obj
 0001:0004b990       ??_GSetDirAttr@@UEAAPEAXI@Z 000000018004c990 f i extract.obj
 0001:0004b990       ??_ESetDirAttr@@UEAAPEAXI@Z 000000018004c990 f i * CIL library *:* CIL module *
 0001:0004b9d0       ?extract@Archive@@QEAAXIAEBV?$vector@IV?$allocator@I@std@@@std@@AEBUExtractOptions@@V?$shared_ptr@V?$list@UError@@V?$allocator@UError@@@std@@@std@@@3@PEAV23@@Z 000000018004c9d0 f   extract.obj
 0001:0004c760       ?delete_archive@Archive@@QEAAXXZ 000000018004d760 f   extract.obj
 0001:0004ca40       ??1?$list@IV?$allocator@I@std@@@std@@QEAA@XZ 000000018004da40 f i extract.obj
 0001:0004ca40       ??1?$list@GV?$allocator@G@std@@@std@@QEAA@XZ 000000018004da40 f i rsrc.obj
 0001:0004caa0       ?assign@?$list@UCacheRecord@FileWriteCache@@V?$allocator@UCacheRecord@FileWriteCache@@@std@@@std@@QEAAX_KAEBUCacheRecord@FileWriteCache@@@Z 000000018004daa0 f i extract.obj
 0001:0004cd30       ??1?$list@UCacheRecord@FileWriteCache@@V?$allocator@UCacheRecord@FileWriteCache@@@std@@@std@@QEAA@XZ 000000018004dd30 f i extract.obj
 0001:0004cdf0       ?push_back@?$list@V?$basic_string@_WU?$char_traits@_W@std@@V?$allocator@_W@2@@std@@V?$allocator@V?$basic_string@_WU?$char_traits@_W@std@@V?$allocator@_W@2@@std@@@2@@std@@QEAAXAEBV?$basic_string@_WU?$char_traits@_W@std@@V?$allocator@_W@2@@2@@Z 000000018004ddf0 f i extract.obj
 0001:0004ce00       ??1?$_List_node_insert_op@V?$allocator@U?$_List_node@UCacheRecord@FileWriteCache@@PEAX@std@@@std@@@std@@QEAA@XZ 000000018004de00 f i extract.obj
 0001:0004ceb0       ??$?6_WU?$char_traits@_W@std@@@std@@YAAEAV?$basic_ostream@_WU?$char_traits@_W@std@@@0@AEAV10@PEB_W@Z 000000018004deb0 f i extract.obj
 0001:0004d150       ??$insert@$0A@$0A@@?$_Tree@V?$_Tset_traits@IU?$less@I@std@@V?$allocator@I@2@$0A@@std@@@std@@QEAA?AU?$pair@V?$_Tree_const_iterator@V?$_Tree_val@U?$_Tree_simple_types@I@std@@@std@@@std@@_N@1@AEBI@Z 000000018004e150 f i extract.obj
 0001:0004d250       ?_Destroy@?$_Ref_count@VFileWriteCache@@@std@@EEAAXXZ 000000018004e250 f i extract.obj
 0001:0004d280       ??1?$_Temporary_owner@VFileWriteCache@@@std@@QEAA@XZ 000000018004e280 f i extract.obj
 0001:0004d2b0       ?_Destroy@?$_Ref_count@VExtractProgress@@@std@@EEAAXXZ 000000018004e2b0 f i extract.obj
 0001:0004d2b0       ?_Destroy@?$_Ref_count@VArchiveUpdateProgress@@@std@@EEAAXXZ 000000018004e2b0 f i update.obj
 0001:0004d2b0       ?_Destroy@?$_Ref_count@VArchiveFileDeleterProgress@@@std@@EEAAXXZ 000000018004e2b0 f i delete.obj
 0001:0004d2d0       ??1?$_Temporary_owner@VArchiveUpdateProgress@@@std@@QEAA@XZ 000000018004e2d0 f i update.obj
 0001:0004d2d0       ??1?$_Temporary_owner@VExtractProgress@@@std@@QEAA@XZ 000000018004e2d0 f i extract.obj
 0001:0004d2d0       ??1?$_Temporary_owner@VArchiveFileDeleterProgress@@@std@@QEAA@XZ 000000018004e2d0 f i delete.obj
 0001:0004d2f0       ?_Destroy@?$_Ref_count@W4OverwriteAction@@@std@@EEAAXXZ 000000018004e2f0 f i extract.obj
 0001:0004d300       ??1?$_Temporary_owner@W4OverwriteAction@@@std@@QEAA@XZ 000000018004e300 f i extract.obj
 0001:0004d310       ?_Destroy@?$_Ref_count@_N@std@@EEAAXXZ 000000018004e310 f i extract.obj
 0001:0004d320       ??1?$_Temporary_owner@_N@std@@QEAA@XZ 000000018004e320 f i extract.obj
 0001:0004d330       ??1?$_Alloc_construct_ptr@V?$allocator@U?$_List_node@GPEAX@std@@@std@@@std@@QEAA@XZ 000000018004e330 f i rsrc.obj
 0001:0004d330       ??1?$_Alloc_construct_ptr@V?$allocator@U?$_List_node@IPEAX@std@@@std@@@std@@QEAA@XZ 000000018004e330 f i extract.obj
 0001:0004d350       ??$_Erase_tree@V?$allocator@U?$_Tree_node@IPEAX@std@@@std@@@?$_Tree_val@U?$_Tree_simple_types@I@std@@@std@@QEAAXAEAV?$allocator@U?$_Tree_node@IPEAX@std@@@1@PEAU?$_Tree_node@IPEAX@1@@Z 000000018004e350 f i extract.obj
 0001:0004d3b0       ?_Destroy@?$_Ref_count@V?$set@IU?$less@I@std@@V?$allocator@I@2@@std@@@std@@EEAAXXZ 000000018004e3b0 f i extract.obj
 0001:0004d3c0       ??1?$_Temporary_owner@V?$set@IU?$less@I@std@@V?$allocator@I@2@@std@@@std@@QEAA@XZ 000000018004e3c0 f i extract.obj
 0001:0004d3d0       ??_G?$set@IU?$less@I@std@@V?$allocator@I@2@@std@@QEAAPEAXI@Z 000000018004e3d0 f i extract.obj
 0001:0004d440       ??1?$_Alloc_construct_ptr@V?$allocator@U?$_Tree_node@IPEAX@std@@@std@@@std@@QEAA@XZ 000000018004e440 f i extract.obj
 0001:0004d460       ??$_Sort_unchecked@PEAIU?$less@X@std@@@std@@YAXPEAI0_JU?$less@X@0@@Z 000000018004e460 f i extract.obj
 0001:0004d740       ??$_Partition_by_median_guess_unchecked@PEAIU?$less@X@std@@@std@@YA?AU?$pair@PEAIPEAI@0@PEAI0U?$less@X@0@@Z 000000018004e740 f i extract.obj
 0001:0004d8c0       ??$_Guess_median_unchecked@PEAIU?$less@X@std@@@std@@YAXPEAI00U?$less@X@0@@Z 000000018004e8c0 f i extract.obj
 0001:0004da08       ??_ECachedFileExtractStream@@W7EAAPEAXI@Z 000000018004ea08 f i extract.obj
 0001:0004da14       ?QueryInterface@ArchiveTester@@W7EAAJAEBU_GUID@@PEAPEAX@Z 000000018004ea14 f i test.obj
 0001:0004da14       ?QueryInterface@ArchiveExtractor@@W7EAAJAEBU_GUID@@PEAPEAX@Z 000000018004ea14 f i extract.obj
 0001:0004da20       ??_EArchiveExtractor@@WBA@EAAPEAXI@Z 000000018004ea20 f i extract.obj
 0001:0004da2c       ?QueryInterface@ArchiveTester@@WBA@EAAJAEBU_GUID@@PEAPEAX@Z 000000018004ea2c f i test.obj
 0001:0004da2c       ?QueryInterface@ArchiveExtractor@@WBA@EAAJAEBU_GUID@@PEAPEAX@Z 000000018004ea2c f i extract.obj
 0001:0004da38       ?AddRef@ArchiveFileDeleter@@W7EAAKXZ 000000018004ea38 f i delete.obj
 0001:0004da38       ?AddRef@ArchiveSubStream@@W7EAAKXZ 000000018004ea38 f i open.obj
 0001:0004da38       ?AddRef@ArchiveFileDeleterStream@@W7EAAKXZ 000000018004ea38 f i delete.obj
 0001:0004da38       ?AddRef@CachedFileExtractStream@@W7EAAKXZ 000000018004ea38 f i extract.obj
 0001:0004da38       ?AddRef@ArchiveOpenStream@@W7EAAKXZ 000000018004ea38 f i open.obj
 0001:0004da44       ?QueryInterface@CachedFileExtractStream@@W7EAAJAEBU_GUID@@PEAPEAX@Z 000000018004ea44 f i extract.obj
 0001:0004da50       ?Release@ArchiveSubStream@@W7EAAKXZ 000000018004ea50 f i open.obj
 0001:0004da50       ?Release@ArchiveOpenStream@@W7EAAKXZ 000000018004ea50 f i open.obj
 0001:0004da50       ?Release@CachedFileExtractStream@@W7EAAKXZ 000000018004ea50 f i extract.obj
 0001:0004da50       ?Release@ArchiveFileDeleter@@W7EAAKXZ 000000018004ea50 f i delete.obj
 0001:0004da50       ?Release@ArchiveFileDeleterStream@@W7EAAKXZ 000000018004ea50 f i delete.obj
 0001:0004da60       ??0bad_weak_ptr@std@@QEAA@XZ 000000018004ea60 f i extract.obj
 0001:0004da80       ?what@bad_weak_ptr@std@@UEBAPEBDXZ 000000018004ea80 f i extract.obj
 0001:0004da90       ??0bad_weak_ptr@std@@QEAA@AEBV01@@Z 000000018004ea90 f i extract.obj
 0001:0004dad0       ?_Throw_bad_weak_ptr@std@@YAXXZ 000000018004ead0 f i extract.obj
 0001:0004daf0       ??4PropVariant@@QEAAAEAV0@PEB_W@Z 000000018004eaf0 f i open.obj
 0001:0004dbb0       ??4PropVariant@@QEAAAEAV0@I@Z 000000018004ebb0 f i open.obj
 0001:0004dc20       ??4PropVariant@@QEAAAEAV0@_K@Z 000000018004ec20 f i open.obj
 0001:0004dc90       ??0OpenOptions@@QEAA@XZ    000000018004ec90 f   open.obj
 0001:0004dd00       ?QueryInterface@ArchiveSubStream@@UEAAJAEBU_GUID@@PEAPEAX@Z 000000018004ed00 f i open.obj
 0001:0004dda0       ?Read@ArchiveSubStream@@UEAAJPEAXIPEAI@Z 000000018004eda0 f i open.obj
 0001:0004ddb0       ?Seek@ArchiveSubStream@@UEAAJ_JIPEA_K@Z 000000018004edb0 f i open.obj
 0001:0004de10       ??_GArchiveSubStream@@UEAAPEAXI@Z 000000018004ee10 f i open.obj
 0001:0004de10       ??_EArchiveSubStream@@UEAAPEAXI@Z 000000018004ee10 f i * CIL library *:* CIL module *
 0001:0004de70       ?check_device_file@ArchiveOpenStream@@AEAAXXZ 000000018004ee70 f i open.obj
 0001:0004e0c0       ??0ArchiveOpenStream@@QEAA@AEBV?$basic_string@_WU?$char_traits@_W@std@@V?$allocator@_W@2@@std@@@Z 000000018004f0c0 f i open.obj
 0001:0004e1b0       ?QueryInterface@ArchiveOpenStream@@UEAAJAEBU_GUID@@PEAPEAX@Z 000000018004f1b0 f i open.obj
 0001:0004e250       ?Read@ArchiveOpenStream@@UEAAJPEAXIPEAI@Z 000000018004f250 f i open.obj
 0001:0004e400       ?Seek@ArchiveOpenStream@@UEAAJ_JIPEA_K@Z 000000018004f400 f i open.obj
 0001:0004e4f0       ?get_info@ArchiveOpenStream@@QEAA?AUFindData@@XZ 000000018004f4f0 f i open.obj
 0001:0004e630       ??_GArchiveOpenStream@@UEAAPEAXI@Z 000000018004f630 f i open.obj
 0001:0004e630       ??_EArchiveOpenStream@@UEAAPEAXI@Z 000000018004f630 f i * CIL library *:* CIL module *
 0001:0004e680       ?do_update_ui@ArchiveOpener@@EEAAXXZ 000000018004f680 f i open.obj
 0001:0004ed90       ??0ArchiveOpener@@QEAA@V?$shared_ptr@VArchive@@@std@@@Z 000000018004fd90 f i open.obj
 0001:0004efe0       ?QueryInterface@ArchiveOpener@@UEAAJAEBU_GUID@@PEAPEAX@Z 000000018004ffe0 f i open.obj
 0001:0004f0a0       ?AddRef@SfxUpdateStream@@UEAAKXZ 00000001800500a0 f i update.obj
 0001:0004f0a0       ?AddRef@MultiVolumeUpdateStream@@UEAAKXZ 00000001800500a0 f i update.obj
 0001:0004f0a0       ?AddRef@ArchiveOpener@@UEAAKXZ 00000001800500a0 f i open.obj
 0001:0004f0a0       ?AddRef@SimpleUpdateStream@@UEAAKXZ 00000001800500a0 f i update.obj
 0001:0004f0b0       ?Release@ArchiveOpener@@UEAAKXZ 00000001800500b0 f i open.obj
 0001:0004f0e0       ?SetTotal@ArchiveOpener@@UEAAJPEB_K0@Z 00000001800500e0 f i open.obj
 0001:0004f130       ?SetCompleted@ArchiveOpener@@UEAAJPEB_K0@Z 0000000180050130 f i open.obj
 0001:0004f180       ?GetProperty@ArchiveOpener@@UEAAJKPEAUtagPROPVARIANT@@@Z 0000000180050180 f i open.obj
 0001:0004f300       ?GetStream@ArchiveOpener@@UEAAJPEB_WPEAPEAUIInStream@@@Z 0000000180050300 f i open.obj
 0001:0004fa60       ?CryptoGetTextPassword@ArchiveOpener@@UEAAJPEAPEA_W@Z 0000000180050a60 f i open.obj
 0001:0004fbf0       ??_EArchiveOpener@@UEAAPEAXI@Z 0000000180050bf0 f i * CIL library *:* CIL module *
 0001:0004fbf0       ??_GArchiveOpener@@UEAAPEAXI@Z 0000000180050bf0 f i open.obj
 0001:0004fc50       ?get_stream@Archive@@QEAA_NIPEAPEAUIInStream@@@Z 0000000180050c50 f   open.obj
 0001:0004fd40       ?copy_prologue@Archive@@QEAAJPEAUIOutStream@@@Z 0000000180050d40 f   open.obj
 0001:0004fe60       ?open@Archive@@AEAA_NPEAUIInStream@@AEBV?$vector@EV?$allocator@E@std@@@std@@@Z 0000000180050e60 f   open.obj
 0001:00050350       ?detect@Archive@@CA?AV?$list@UArcEntry@@V?$allocator@UArcEntry@@@std@@@std@@PEAEI_NAEBV?$basic_string@_WU?$char_traits@_W@std@@V?$allocator@_W@2@@3@AEBV?$list@V?$vector@EV?$allocator@E@std@@@std@@V?$allocator@V?$vector@EV?$allocator@E@std@@@std@@@2@@3@PEAUIInStream@@@Z 0000000180051350 f   open.obj
 0001:00050bd0       ??1?$set@V?$vector@EV?$allocator@E@std@@@std@@U?$less@V?$vector@EV?$allocator@E@std@@@std@@@2@V?$allocator@V?$vector@EV?$allocator@E@std@@@std@@@2@@std@@QEAA@XZ 0000000180051bd0 f i open.obj
 0001:00050c00       ?get_physize@Archive@@AEAA_KXZ 0000000180051c00 f   open.obj
 0001:00050d00       ?open@Archive@@CAXAEBUOpenOptions@@AEAV?$vector@V?$shared_ptr@VArchive@@@std@@V?$allocator@V?$shared_ptr@VArchive@@@std@@@2@@std@@@Z 0000000180051d00 f   open.obj
 0001:000518a0       ?open@Archive@@SA?AV?$unique_ptr@V?$vector@V?$shared_ptr@VArchive@@@std@@V?$allocator@V?$shared_ptr@VArchive@@@std@@@2@@std@@U?$default_delete@V?$vector@V?$shared_ptr@VArchive@@@std@@V?$allocator@V?$shared_ptr@VArchive@@@std@@@2@@std@@@2@@std@@AEBUOpenOptions@@@Z 00000001800528a0 f   open.obj
 0001:00051a60       ?reopen@Archive@@QEAAXXZ   0000000180052a60 f   open.obj
 0001:00051f80       ?close@Archive@@QEAAXXZ    0000000180052f80 f   open.obj
 0001:00051ff0       ??1?$vector@USigData@@V?$allocator@USigData@@@std@@@std@@QEAA@XZ 0000000180052ff0 f i open.obj
 0001:00051ff0       ??1?$vector@UStrPos@@V?$allocator@UStrPos@@@std@@@std@@QEAA@XZ 0000000180052ff0 f i open.obj
 0001:00052050       ??1?$ComObject@UIArchiveOpenCallback@@@@QEAA@XZ 0000000180053050 f i open.obj
 0001:000520c0       ??6?$basic_ostream@_WU?$char_traits@_W@std@@@std@@QEAAAEAV01@_K@Z 00000001800530c0 f i open.obj
 0001:000522a0       ?_Reallocate_exactly@?$vector@USigData@@V?$allocator@USigData@@@std@@@std@@AEAAX_K@Z 00000001800532a0 f i open.obj
 0001:000522a0       ?_Reallocate_exactly@?$vector@UStrPos@@V?$allocator@UStrPos@@@std@@@std@@AEAAX_K@Z 00000001800532a0 f i msearch.obj
 0001:00052370       ?deallocate@?$allocator@UStrPos@@@std@@QEAAXQEAUStrPos@@_K@Z 0000000180053370 f i open.obj
 0001:000523c0       ?_Change_array@?$vector@UStrPos@@V?$allocator@UStrPos@@@std@@@std@@AEAAXQEAUStrPos@@_K1@Z 00000001800533c0 f i msearch.obj
 0001:000523c0       ?_Change_array@?$vector@USigData@@V?$allocator@USigData@@@std@@@std@@AEAAXQEAUSigData@@_K1@Z 00000001800533c0 f i open.obj
 0001:00052450       ?allocate@?$allocator@UStrPos@@@std@@QEAAPEAUStrPos@@_K@Z 0000000180053450 f i msearch.obj
 0001:00052450       ?allocate@?$allocator@USigData@@@std@@QEAAPEAUSigData@@_K@Z 0000000180053450 f i open.obj
 0001:000524c0       ??$_Emplace_reallocate@USigData@@@?$vector@USigData@@V?$allocator@USigData@@@std@@@std@@QEAAPEAUSigData@@QEAU2@$$QEAU2@@Z 00000001800534c0 f i open.obj
 0001:000524c0       ??$_Emplace_reallocate@UStrPos@@@?$vector@UStrPos@@V?$allocator@UStrPos@@@std@@@std@@QEAAPEAUStrPos@@QEAU2@$$QEAU2@@Z 00000001800534c0 f i msearch.obj
 0001:00052610       ??$_Emplace_reallocate@AEBV?$shared_ptr@VArchive@@@std@@@?$vector@V?$shared_ptr@VArchive@@@std@@V?$allocator@V?$shared_ptr@VArchive@@@std@@@2@@std@@QEAAPEAV?$shared_ptr@VArchive@@@1@QEAV21@AEBV21@@Z 0000000180053610 f i open.obj
 0001:00052800       ??$_Emplace@AEBUArcEntry@@@?$list@UArcEntry@@V?$allocator@UArcEntry@@@std@@@std@@QEAAPEAU?$_List_node@UArcEntry@@PEAX@1@QEAU21@AEBUArcEntry@@@Z 0000000180053800 f i open.obj
 0001:000528b0       ??$_Emplace@UArcEntry@@@?$list@UArcEntry@@V?$allocator@UArcEntry@@@std@@@std@@QEAAPEAU?$_List_node@UArcEntry@@PEAX@1@QEAU21@$$QEAUArcEntry@@@Z 00000001800538b0 f i open.obj
 0001:00052970       ?_Umove@?$vector@V?$shared_ptr@VArchive@@@std@@V?$allocator@V?$shared_ptr@VArchive@@@std@@@2@@std@@AEAAPEAV?$shared_ptr@VArchive@@@2@PEAV32@00@Z 0000000180053970 f i open.obj
 0001:000529e0       ??$_Emplace@AEBV?$vector@EV?$allocator@E@std@@@std@@@?$_Tree@V?$_Tset_traits@V?$vector@EV?$allocator@E@std@@@std@@U?$less@V?$vector@EV?$allocator@E@std@@@std@@@2@V?$allocator@V?$vector@EV?$allocator@E@std@@@std@@@2@$0A@@std@@@std@@IEAA?AU?$pair@PEAU?$_Tree_node@V?$vector@EV?$allocator@E@std@@@std@@PEAX@std@@_N@1@AEBV?$vector@EV?$allocator@E@std@@@1@@Z 00000001800539e0 f i open.obj
 0001:00052b60       ??$_Assign_cast@AEAUArcEntry@@V?$_List_unchecked_iterator@V?$_List_val@U?$_List_simple_types@UArcEntry@@@std@@@std@@@std@@@?$list@UArcEntry@@V?$allocator@UArcEntry@@@std@@@std@@AEAAXV?$_List_unchecked_iterator@V?$_List_val@U?$_List_simple_types@UArcEntry@@@std@@@std@@@1@V21@@Z 0000000180053b60 f i open.obj
 0001:00052d90       ??$_Erase_tree@V?$allocator@U?$_Tree_node@V?$vector@EV?$allocator@E@std@@@std@@PEAX@std@@@std@@@?$_Tree_val@U?$_Tree_simple_types@V?$vector@EV?$allocator@E@std@@@std@@@std@@@std@@QEAAXAEAV?$allocator@U?$_Tree_node@V?$vector@EV?$allocator@E@std@@@std@@PEAX@std@@@1@PEAU?$_Tree_node@V?$vector@EV?$allocator@E@std@@@std@@PEAX@1@@Z 0000000180053d90 f i open.obj
 0001:00052e50       ??$_Copy_nodes@U_Copy_tag@?$_Tree@V?$_Tset_traits@V?$basic_string@_WU?$char_traits@_W@std@@V?$allocator@_W@2@@std@@U?$less@V?$basic_string@_WU?$char_traits@_W@std@@V?$allocator@_W@2@@std@@@2@V?$allocator@V?$basic_string@_WU?$char_traits@_W@std@@V?$allocator@_W@2@@std@@@2@$0A@@std@@@std@@@?$_Tree@V?$_Tset_traits@V?$basic_string@_WU?$char_traits@_W@std@@V?$allocator@_W@2@@std@@U?$less@V?$basic_string@_WU?$char_traits@_W@std@@V?$allocator@_W@2@@std@@@2@V?$allocator@V?$basic_string@_WU?$char_traits@_W@std@@V?$allocator@_W@2@@std@@@2@$0A@@std@@@std@@IEAAPEAU?$_Tree_node@V?$basic_string@_WU?$char_traits@_W@std@@V?$allocator@_W@2@@std@@PEAX@1@PEAU21@0U_Copy_tag@01@@Z 0000000180053e50 f i open.obj
 0001:00052f30       ??1?$_List_node_insert_op@V?$allocator@U?$_List_node@UArcEntry@@PEAX@std@@@std@@@std@@QEAA@XZ 0000000180053f30 f i open.obj
 0001:00052fe0       ??1?$_Alloc_construct_ptr@V?$allocator@U?$_List_node@VRsrcId@@PEAX@std@@@std@@@std@@QEAA@XZ 0000000180053fe0 f i rsrc.obj
 0001:00052fe0       ??1?$_Alloc_construct_ptr@V?$allocator@U?$_Tree_node@V?$vector@EV?$allocator@E@std@@@std@@PEAX@std@@@std@@@std@@QEAA@XZ 0000000180053fe0 f i open.obj
 0001:00052fe0       ??1?$_Alloc_construct_ptr@V?$allocator@U?$_List_node@UIconImageRsrc@@PEAX@std@@@std@@@std@@QEAA@XZ 0000000180053fe0 f i rsrc.obj
 0001:00052fe0       ??1?$_Tree_temp_node_alloc@V?$allocator@U?$_Tree_node@V?$vector@EV?$allocator@E@std@@@std@@PEAX@std@@@std@@@std@@QEAA@XZ 0000000180053fe0 f i open.obj
 0001:00052ff4       ?Release@ArchiveOpener@@WBA@EAAKXZ 0000000180053ff4 f i open.obj
 0001:00053000       ?QueryInterface@ArchiveOpener@@WBA@EAAJAEBU_GUID@@PEAPEAX@Z 0000000180054000 f i open.obj
 0001:0005300c       ??_EArchiveOpener@@WCI@EAAPEAXI@Z 000000018005400c f i open.obj
 0001:00053018       ?AddRef@ArchiveOpener@@WBA@EAAKXZ 0000000180054018 f i open.obj
 0001:00053024       ??_EArchiveSubStream@@W7EAAPEAXI@Z 0000000180054024 f i open.obj
 0001:00053030       ?Release@ArchiveOpener@@WBI@EAAKXZ 0000000180054030 f i open.obj
 0001:0005303c       ?QueryInterface@ArchiveOpener@@WBI@EAAJAEBU_GUID@@PEAPEAX@Z 000000018005403c f i open.obj
 0001:00053048       ??_EArchiveOpenStream@@W7EAAPEAXI@Z 0000000180054048 f i open.obj
 0001:00053054       ?AddRef@ArchiveOpener@@WBI@EAAKXZ 0000000180054054 f i open.obj
 0001:00053054       ?AddRef@MultiVolumeUpdateStream@@WBI@EAAKXZ 0000000180054054 f i update.obj
 0001:00053054       ?AddRef@SfxUpdateStream@@WBI@EAAKXZ 0000000180054054 f i update.obj
 0001:00053054       ?AddRef@SimpleUpdateStream@@WBI@EAAKXZ 0000000180054054 f i update.obj
 0001:00053060       ?QueryInterface@ArchiveSubStream@@W7EAAJAEBU_GUID@@PEAPEAX@Z 0000000180054060 f i open.obj
 0001:0005306c       ??_EArchiveOpener@@WBI@EAAPEAXI@Z 000000018005406c f i open.obj
 0001:00053078       ?QueryInterface@ArchiveOpenStream@@W7EAAJAEBU_GUID@@PEAPEAX@Z 0000000180054078 f i open.obj
 0001:00053084       ?Release@ArchiveOpener@@W7EAAKXZ 0000000180054084 f i open.obj
 0001:00053090       ?QueryInterface@ArchiveOpener@@W7EAAJAEBU_GUID@@PEAPEAX@Z 0000000180054090 f i open.obj
 0001:0005309c       ?AddRef@ArchiveOpener@@W7EAAKXZ 000000018005409c f i open.obj
 0001:000530b0       ??0PropVariant@@QEAA@AEBV0@@Z 00000001800540b0 f i update.obj
 0001:00053100       ??4PropVariant@@QEAAAEAV0@AEBV0@@Z 0000000180054100 f i update.obj
 0001:000531a0       ??4PropVariant@@QEAAAEAV0@AEBV?$basic_string@_WU?$char_traits@_W@std@@V?$allocator@_W@2@@std@@@Z 00000001800541a0 f i update.obj
 0001:00053260       ?format_time@@YA?AV?$basic_string@_WU?$char_traits@_W@std@@V?$allocator@_W@2@@std@@_K@Z 0000000180054260 f   update.obj
 0001:00053490       ?do_update_ui@ArchiveUpdateProgress@@EEAAXXZ 0000000180054490 f i update.obj
 0001:00054110       ??0ArchiveUpdateProgress@@QEAA@_NAEBV?$basic_string@_WU?$char_traits@_W@std@@V?$allocator@_W@2@@std@@@Z 0000000180055110 f i update.obj
 0001:000542e0       ?on_write_archive@ArchiveUpdateProgress@@QEAAXI@Z 00000001800552e0 f i update.obj
 0001:00054370       ??_GArchiveUpdateProgress@@UEAAPEAXI@Z 0000000180055370 f i update.obj
 0001:00054370       ??_EArchiveUpdateProgress@@UEAAPEAXI@Z 0000000180055370 f i * CIL library *:* CIL module *
 0001:00054480       ??1UpdateStream@@UEAA@XZ   0000000180055480 f i update.obj
 0001:000544a0       ??_GUpdateStream@@UEAAPEAXI@Z 00000001800554a0 f i update.obj
 0001:000544a0       ??_EUpdateStream@@UEAAPEAXI@Z 00000001800554a0 f i * CIL library *:* CIL module *
 0001:000544f0       ??0SimpleUpdateStream@@QEAA@AEBV?$basic_string@_WU?$char_traits@_W@std@@V?$allocator@_W@2@@std@@V?$shared_ptr@VArchiveUpdateProgress@@@2@@Z 00000001800554f0 f i update.obj
 0001:00054650       ?QueryInterface@SfxUpdateStream@@UEAAJAEBU_GUID@@PEAPEAX@Z 0000000180055650 f i update.obj
 0001:00054650       ?QueryInterface@SimpleUpdateStream@@UEAAJAEBU_GUID@@PEAPEAX@Z 0000000180055650 f i update.obj
 0001:00054650       ?QueryInterface@MultiVolumeUpdateStream@@UEAAJAEBU_GUID@@PEAPEAX@Z 0000000180055650 f i update.obj
 0001:000546f0       ?Release@SfxUpdateStream@@UEAAKXZ 00000001800556f0 f i update.obj
 0001:000546f0       ?Release@MultiVolumeUpdateStream@@UEAAKXZ 00000001800556f0 f i update.obj
 0001:000546f0       ?Release@SimpleUpdateStream@@UEAAKXZ 00000001800556f0 f i update.obj
 0001:00054720       ?Write@SimpleUpdateStream@@UEAAJPEBXIPEAI@Z 0000000180055720 f i update.obj
 0001:00054720       ?Write@SfxUpdateStream@@UEAAJPEBXIPEAI@Z 0000000180055720 f i update.obj
 0001:000547c0       ?Seek@SimpleUpdateStream@@UEAAJ_JIPEA_K@Z 00000001800557c0 f i update.obj
 0001:00054850       ?SetSize@SimpleUpdateStream@@UEAAJ_K@Z 0000000180055850 f i update.obj
 0001:000548b0       ?clean_files@SfxUpdateStream@@UEAAXXZ 00000001800558b0 f i update.obj
 0001:000548b0       ?clean_files@SimpleUpdateStream@@UEAAXXZ 00000001800558b0 f i update.obj
 0001:000548e0       ??_ESimpleUpdateStream@@UEAAPEAXI@Z 00000001800558e0 f i * CIL library *:* CIL module *
 0001:000548e0       ??_GSimpleUpdateStream@@UEAAPEAXI@Z 00000001800558e0 f i update.obj
 0001:00054940       ??0SfxUpdateStream@@QEAA@AEBV?$basic_string@_WU?$char_traits@_W@std@@V?$allocator@_W@2@@std@@AEBUSfxOptions@@V?$shared_ptr@VArchiveUpdateProgress@@@2@@Z 0000000180055940 f i update.obj
 0001:00054b50       ?Seek@SfxUpdateStream@@UEAAJ_JIPEA_K@Z 0000000180055b50 f i update.obj
 0001:00054c40       ?SetSize@SfxUpdateStream@@UEAAJ_K@Z 0000000180055c40 f i update.obj
 0001:00054cb0       ??_ESfxUpdateStream@@UEAAPEAXI@Z 0000000180055cb0 f i * CIL library *:* CIL module *
 0001:00054cb0       ??_GSfxUpdateStream@@UEAAPEAXI@Z 0000000180055cb0 f i update.obj
 0001:00054d10       ?get_volume_path@MultiVolumeUpdateStream@@AEAA?AV?$basic_string@_WU?$char_traits@_W@std@@V?$allocator@_W@2@@std@@_K@Z 0000000180055d10 f i update.obj
 0001:000551d0       ?get_last_volume_idx@MultiVolumeUpdateStream@@AEAA_KXZ 00000001800561d0 f i update.obj
 0001:000551f0       ??0MultiVolumeUpdateStream@@QEAA@AEBV?$basic_string@_WU?$char_traits@_W@std@@V?$allocator@_W@2@@std@@_KV?$shared_ptr@VArchiveUpdateProgress@@@2@@Z 00000001800561f0 f i update.obj
 0001:00055400       ?Write@MultiVolumeUpdateStream@@UEAAJPEBXIPEAI@Z 0000000180056400 f i update.obj
 0001:00055ad0       ?Seek@MultiVolumeUpdateStream@@UEAAJ_JIPEA_K@Z 0000000180056ad0 f i update.obj
 0001:00055ba0       ?SetSize@MultiVolumeUpdateStream@@UEAAJ_K@Z 0000000180056ba0 f i update.obj
 0001:000560a0       ?clean_files@MultiVolumeUpdateStream@@UEAAXXZ 00000001800570a0 f i update.obj
 0001:00056190       ??_EMultiVolumeUpdateStream@@UEAAPEAXI@Z 0000000180057190 f i * CIL library *:* CIL module *
 0001:00056190       ??_GMultiVolumeUpdateStream@@UEAAPEAXI@Z 0000000180057190 f i update.obj
 0001:00056240       ?QueryInterface@FileReadStream@@UEAAJAEBU_GUID@@PEAPEAX@Z 0000000180057240 f i update.obj
 0001:00056300       ?Read@FileReadStream@@UEAAJPEAXIPEAI@Z 0000000180057300 f i update.obj
 0001:000563e0       ?Seek@FileReadStream@@UEAAJ_JIPEA_K@Z 00000001800573e0 f i update.obj
 0001:00056470       ?GetSize@FileReadStream@@UEAAJPEA_K@Z 0000000180057470 f i update.obj
 0001:000564d0       ??_GFileReadStream@@UEAAPEAXI@Z 00000001800574d0 f i update.obj
 0001:000564d0       ??_EFileReadStream@@UEAAPEAXI@Z 00000001800574d0 f i * CIL library *:* CIL module *
 0001:00056530       ?do_update_ui@PrepareUpdate@@EEAAXXZ 0000000180057530 f i update.obj
 0001:000567a0       ?process_file@PrepareUpdate@@AEAA_NAEBV?$basic_string@_WU?$char_traits@_W@std@@V?$allocator@_W@2@@std@@AEBUFindData@@IAEAI@Z 00000001800577a0 f i update.obj
 0001:000570e0       ??R<lambda_1>@?1??process_file@PrepareUpdate@@AEAA_NAEBV?$basic_string@_WU?$char_traits@_W@std@@V?$allocator@_W@2@@std@@AEBUFindData@@IAEAI@Z@QEBA_NII@Z 00000001800580e0 f i update.obj
 0001:00057190       ?process_file_enum@PrepareUpdate@@AEAA_NAEAVFileEnum@@AEBV?$basic_string@_WU?$char_traits@_W@std@@V?$allocator@_W@2@@std@@I@Z 0000000180058190 f i update.obj
 0001:00057850       ??0PrepareUpdate@@QEAA@AEBV?$basic_string@_WU?$char_traits@_W@std@@V?$allocator@_W@2@@std@@AEBV?$vector@V?$basic_string@_WU?$char_traits@_W@std@@V?$allocator@_W@2@@std@@V?$allocator@V?$basic_string@_WU?$char_traits@_W@std@@V?$allocator@_W@2@@std@@@2@@2@IAEAVArchive@@AEAV?$map@IUFileIndexInfo@@U?$less@I@std@@V?$allocator@U?$pair@$$CBIUFileIndexInfo@@@std@@@3@@2@AEAIW4OverwriteAction@@AEA_NAEAV?$list@UError@@V?$allocator@UError@@@std@@@2@PEAVFileFilter@Far@@6@Z 0000000180058850 f i update.obj
 0001:00057f00       ??1DirList@@QEAA@XZ        0000000180058f00 f i update.obj
 0001:00057f10       ??_EPrepareUpdate@@UEAAPEAXI@Z 0000000180058f10 f i * CIL library *:* CIL module *
 0001:00057f10       ??_GPrepareUpdate@@UEAAPEAXI@Z 0000000180058f10 f i update.obj
 0001:00057f50       ??1PrepareUpdate@@UEAA@XZ  0000000180058f50 f i update.obj
 0001:00057f50       ??1AttachSfxModuleProgress@@UEAA@XZ 0000000180058f50 f i sfx.obj
 0001:00057fd0       ??0ArchiveUpdater@@QEAA@AEBV?$basic_string@_WU?$char_traits@_W@std@@V?$allocator@_W@2@@std@@0IV?$shared_ptr@V?$map@IUFileIndexInfo@@U?$less@I@std@@V?$allocator@U?$pair@$$CBIUFileIndexInfo@@@std@@@3@@std@@@2@AEBUUpdateOptions@@V?$shared_ptr@_N@2@V?$shared_ptr@V?$list@UError@@V?$allocator@UError@@@std@@@std@@@2@V?$shared_ptr@VArchiveUpdateProgress@@@2@@Z 0000000180058fd0 f i update.obj
 0001:00058160       ?QueryInterface@ArchiveUpdater@@UEAAJAEBU_GUID@@PEAPEAX@Z 0000000180059160 f i update.obj
 0001:00058220       ?SetTotal@ArchiveUpdater@@UEAAJ_K@Z 0000000180059220 f i update.obj
 0001:00058340       ?SetCompleted@ArchiveUpdater@@UEAAJPEB_K@Z 0000000180059340 f i update.obj
 0001:00058460       ?GetUpdateItemInfo@ArchiveUpdater@@UEAAJIPEAH0PEAI@Z 0000000180059460 f i update.obj
 0001:000584e0       ?GetProperty@ArchiveUpdater@@UEAAJIKPEAUtagPROPVARIANT@@@Z 00000001800594e0 f i update.obj
 0001:00058ad0       ?GetStream@ArchiveUpdater@@UEAAJIPEAPEAUISequentialInStream@@@Z 0000000180059ad0 f i update.obj
 0001:00059240       ?SetOperationResult@ArchiveUpdater@@UEAAJH@Z 000000018005a240 f i update.obj
 0001:00059340       ?CryptoGetTextPassword2@ArchiveUpdater@@UEAAJPEAHPEAPEA_W@Z 000000018005a340 f i update.obj
 0001:00059450       ??_GArchiveUpdater@@UEAAPEAXI@Z 000000018005a450 f i update.obj
 0001:00059450       ??_EArchiveUpdater@@UEAAPEAXI@Z 000000018005a450 f i * CIL library *:* CIL module *
 0001:00059580       ?set_properties@Archive@@AEAAXPEAUIOutArchive@@AEBUUpdateOptions@@@Z 000000018005a580 f   update.obj
 0001:0005c0c0       ?do_update_ui@DeleteSrcFiles@@EEAAXXZ 000000018005d0c0 f i update.obj
 0001:0005c330       ?delete_src_file@DeleteSrcFiles@@AEAAXAEBV?$basic_string@_WU?$char_traits@_W@std@@V?$allocator@_W@2@@std@@@Z 000000018005d330 f i update.obj
 0001:0005c3c0       ?delete_src_dir@DeleteSrcFiles@@AEAAXAEBV?$basic_string@_WU?$char_traits@_W@std@@V?$allocator@_W@2@@std@@@Z 000000018005d3c0 f i update.obj
 0001:0005c780       ??0DeleteSrcFiles@@QEAA@AEBV?$basic_string@_WU?$char_traits@_W@std@@V?$allocator@_W@2@@std@@AEBV?$vector@V?$basic_string@_WU?$char_traits@_W@std@@V?$allocator@_W@2@@std@@V?$allocator@V?$basic_string@_WU?$char_traits@_W@std@@V?$allocator@_W@2@@std@@@2@@2@AEA_NAEAV?$list@UError@@V?$allocator@UError@@@std@@@2@@Z 000000018005d780 f i update.obj
 0001:0005ccc0       ??_GDeleteSrcFiles@@UEAAPEAXI@Z 000000018005dcc0 f i update.obj
 0001:0005ccc0       ??_EDeleteSrcFiles@@UEAAPEAXI@Z 000000018005dcc0 f i * CIL library *:* CIL module *
 0001:0005cd00       ?create@Archive@@QEAAXAEBV?$basic_string@_WU?$char_traits@_W@std@@V?$allocator@_W@2@@std@@AEBV?$vector@V?$basic_string@_WU?$char_traits@_W@std@@V?$allocator@_W@2@@std@@V?$allocator@V?$basic_string@_WU?$char_traits@_W@std@@V?$allocator@_W@2@@std@@@2@@3@AEBUUpdateOptions@@V?$shared_ptr@V?$list@UError@@V?$allocator@UError@@@std@@@std@@@3@@Z 000000018005dd00 f   update.obj
 0001:0005d660       ?update@Archive@@QEAAXAEBV?$basic_string@_WU?$char_traits@_W@std@@V?$allocator@_W@2@@std@@AEBV?$vector@V?$basic_string@_WU?$char_traits@_W@std@@V?$allocator@_W@2@@std@@V?$allocator@V?$basic_string@_WU?$char_traits@_W@std@@V?$allocator@_W@2@@std@@@2@@3@0AEBUUpdateOptions@@V?$shared_ptr@V?$list@UError@@V?$allocator@UError@@@std@@@std@@@3@@Z 000000018005e660 f   update.obj
 0001:0005e030       ?create_dir@Archive@@QEAAXAEBV?$basic_string@_WU?$char_traits@_W@std@@V?$allocator@_W@2@@std@@0@Z 000000018005f030 f   update.obj
 0001:0005eba0       ?reserve@?$vector@PEB_WV?$allocator@PEB_W@std@@@std@@QEAAX_K@Z 000000018005fba0 f i update.obj
 0001:0005ebe0       ?push_back@?$vector@PEB_WV?$allocator@PEB_W@std@@@std@@QEAAX$$QEAPEB_W@Z 000000018005fbe0 f i update.obj
 0001:0005ec00       ??A?$vector@VPropVariant@@V?$allocator@VPropVariant@@@std@@@std@@QEAAAEAVPropVariant@@_K@Z 000000018005fc00 f i update.obj
 0001:0005ec10       ?size@?$vector@VPropVariant@@V?$allocator@VPropVariant@@@std@@@std@@QEBA_KXZ 000000018005fc10 f i update.obj
 0001:0005ec30       ?push_back@?$vector@VPropVariant@@V?$allocator@VPropVariant@@@std@@@std@@QEAAX$$QEAVPropVariant@@@Z 000000018005fc30 f i update.obj
 0001:0005eca0       ??1?$vector@VPropVariant@@V?$allocator@VPropVariant@@@std@@@std@@QEAA@XZ 000000018005fca0 f i update.obj
 0001:0005ed20       ??A?$map@IUFileIndexInfo@@U?$less@I@std@@V?$allocator@U?$pair@$$CBIUFileIndexInfo@@@std@@@3@@std@@QEAAAEAUFileIndexInfo@@AEBI@Z 000000018005fd20 f i update.obj
 0001:0005ee40       ?erase@?$_Tree@V?$_Tmap_traits@IUFileIndexInfo@@U?$less@I@std@@V?$allocator@U?$pair@$$CBIUFileIndexInfo@@@std@@@3@$0A@@std@@@std@@QEAA_KAEBI@Z 000000018005fe40 f i update.obj
 0001:0005f050       ??6?$basic_ostream@_WU?$char_traits@_W@std@@@std@@QEAAAEAV01@I@Z 0000000180060050 f i update.obj
 0001:0005f230       ?_Reallocate_exactly@?$vector@PEB_WV?$allocator@PEB_W@std@@@std@@AEAAX_K@Z 0000000180060230 f i update.obj
 0001:0005f2a0       ?_Change_array@?$vector@PEB_WV?$allocator@PEB_W@std@@@std@@AEAAXQEAPEB_W_K1@Z 00000001800602a0 f i update.obj
 0001:0005f330       ?allocate@?$allocator@PEB_W@std@@QEAAPEAPEB_W_K@Z 0000000180060330 f i update.obj
 0001:0005f3a0       ?_Destroy@?$vector@VPropVariant@@V?$allocator@VPropVariant@@@std@@@std@@AEAAXPEAVPropVariant@@0@Z 00000001800603a0 f i update.obj
 0001:0005f3b0       ?_Extract@?$_Tree_val@U?$_Tree_simple_types@U?$pair@$$CBIUFileIndexInfo@@@std@@@std@@@std@@QEAAPEAU?$_Tree_node@U?$pair@$$CBIUFileIndexInfo@@@std@@PEAX@2@V?$_Tree_unchecked_const_iterator@V?$_Tree_val@U?$_Tree_simple_types@U?$pair@$$CBIUFileIndexInfo@@@std@@@std@@@std@@U_Iterator_base0@2@@2@@Z 00000001800603b0 f i update.obj
 0001:0005f730       ?_Rrotate@?$_Tree_val@U?$_Tree_simple_types@U?$pair@$$CBIUFileIndexInfo@@@std@@@std@@@std@@QEAAXPEAU?$_Tree_node@U?$pair@$$CBIUFileIndexInfo@@@std@@PEAX@2@@Z 0000000180060730 f i update.obj
 0001:0005f790       ?_Lrotate@?$_Tree_val@U?$_Tree_simple_types@U?$pair@$$CBIUFileIndexInfo@@@std@@@std@@@std@@QEAAXPEAU?$_Tree_node@U?$pair@$$CBIUFileIndexInfo@@@std@@PEAX@2@@Z 0000000180060790 f i update.obj
 0001:0005f7f0       ??$equal_range@V?$_Vector_iterator@V?$_Vector_val@U?$_Simple_types@I@std@@@std@@@std@@HV<lambda_1>@?1??process_file@PrepareUpdate@@AEAA_NAEBV?$basic_string@_WU?$char_traits@_W@std@@V?$allocator@_W@2@@2@AEBUFindData@@IAEAI@Z@@std@@YA?AU?$pair@V?$_Vector_iterator@V?$_Vector_val@U?$_Simple_types@I@std@@@std@@@std@@V12@@0@V?$_Vector_iterator@V?$_Vector_val@U?$_Simple_types@I@std@@@std@@@0@0AEBHV<lambda_1>@?1??process_file@PrepareUpdate@@AEAA_NAEBV?$basic_string@_WU?$char_traits@_W@std@@V?$allocator@_W@2@@0@AEBUFindData@@IAEAI@Z@@Z 00000001800607f0 f i update.obj
 0001:0005fa70       ??$_Emplace_reallocate@PEB_W@?$vector@PEB_WV?$allocator@PEB_W@std@@@std@@QEAAPEAPEB_WQEAPEB_W$$QEAPEB_W@Z 0000000180060a70 f i update.obj
 0001:0005fb70       ??$_Emplace_reallocate@VPropVariant@@@?$vector@VPropVariant@@V?$allocator@VPropVariant@@@std@@@std@@QEAAPEAVPropVariant@@QEAV2@$$QEAV2@@Z 0000000180060b70 f i update.obj
 0001:0005fe50       ??$_Destroy_range@V?$allocator@VPropVariant@@@std@@@std@@YAXPEAVPropVariant@@QEAV1@AEAV?$allocator@VPropVariant@@@0@@Z 0000000180060e50 f i update.obj
 0001:0005fec0       ??$_Erase_tree@V?$allocator@U?$_Tree_node@U?$pair@$$CBIUFileIndexInfo@@@std@@PEAX@std@@@std@@@?$_Tree_val@U?$_Tree_simple_types@U?$pair@$$CBIUFileIndexInfo@@@std@@@std@@@std@@QEAAXAEAV?$allocator@U?$_Tree_node@U?$pair@$$CBIUFileIndexInfo@@@std@@PEAX@std@@@1@PEAU?$_Tree_node@U?$pair@$$CBIUFileIndexInfo@@@std@@PEAX@1@@Z 0000000180060ec0 f i update.obj
 0001:0005ff90       ??$_Freenode@V?$allocator@U?$_Tree_node@U?$pair@$$CBIUFileIndexInfo@@@std@@PEAX@std@@@std@@@?$_Tree_node@U?$pair@$$CBIUFileIndexInfo@@@std@@PEAX@std@@SAXAEAV?$allocator@U?$_Tree_node@U?$pair@$$CBIUFileIndexInfo@@@std@@PEAX@std@@@1@PEAU01@@Z 0000000180060f90 f i update.obj
 0001:00060000       ?_Destroy@?$_Ref_count@V?$map@IUFileIndexInfo@@U?$less@I@std@@V?$allocator@U?$pair@$$CBIUFileIndexInfo@@@std@@@3@@std@@@std@@EEAAXXZ 0000000180061000 f i update.obj
 0001:00060050       ??1?$_Temporary_owner@V?$map@IUFileIndexInfo@@U?$less@I@std@@V?$allocator@U?$pair@$$CBIUFileIndexInfo@@@std@@@3@@std@@@std@@QEAA@XZ 0000000180061050 f i update.obj
 0001:000600a0       ?_Umove@?$vector@VPropVariant@@V?$allocator@VPropVariant@@@std@@@std@@AEAAPEAVPropVariant@@PEAV3@00@Z 00000001800610a0 f i update.obj
 0001:00060140       ??1?$_Alloc_construct_ptr@V?$allocator@U?$_Tree_node@U?$pair@$$CBIUFileIndexInfo@@@std@@PEAX@std@@@std@@@std@@QEAA@XZ 0000000180061140 f i update.obj
 0001:00060160       ??1?$_Uninitialized_backout_al@V?$allocator@VPropVariant@@@std@@@std@@QEAA@XZ 0000000180061160 f i update.obj
 0001:0006016c       ??_EArchiveUpdater@@WBA@EAAPEAXI@Z 000000018006116c f i update.obj
 0001:00060178       ??_EFileReadStream@@WBA@EAAPEAXI@Z 0000000180061178 f i update.obj
 0001:00060184       ?QueryInterface@FileReadStream@@WBA@EAAJAEBU_GUID@@PEAPEAX@Z 0000000180061184 f i update.obj
 0001:00060190       ?Release@SfxUpdateStream@@WBI@EAAKXZ 0000000180061190 f i update.obj
 0001:00060190       ?Release@MultiVolumeUpdateStream@@WBI@EAAKXZ 0000000180061190 f i update.obj
 0001:00060190       ?Release@SimpleUpdateStream@@WBI@EAAKXZ 0000000180061190 f i update.obj
 0001:0006019c       ?QueryInterface@SfxUpdateStream@@WBI@EAAJAEBU_GUID@@PEAPEAX@Z 000000018006119c f i update.obj
 0001:0006019c       ?QueryInterface@MultiVolumeUpdateStream@@WBI@EAAJAEBU_GUID@@PEAPEAX@Z 000000018006119c f i update.obj
 0001:0006019c       ?QueryInterface@SimpleUpdateStream@@WBI@EAAJAEBU_GUID@@PEAPEAX@Z 000000018006119c f i update.obj
 0001:000601a8       ??_EMultiVolumeUpdateStream@@WBI@EAAPEAXI@Z 00000001800611a8 f i update.obj
 0001:000601b4       ??_ESimpleUpdateStream@@WBI@EAAPEAXI@Z 00000001800611b4 f i update.obj
 0001:000601c0       ?QueryInterface@ArchiveUpdater@@W7EAAJAEBU_GUID@@PEAPEAX@Z 00000001800611c0 f i update.obj
 0001:000601cc       ?QueryInterface@FileReadStream@@W7EAAJAEBU_GUID@@PEAPEAX@Z 00000001800611cc f i update.obj
 0001:000601d8       ??_ESfxUpdateStream@@WBI@EAAPEAXI@Z 00000001800611d8 f i update.obj
 0001:000601e4       ?QueryInterface@ArchiveUpdater@@WBA@EAAJAEBU_GUID@@PEAPEAX@Z 00000001800611e4 f i update.obj
 0001:000601f0       ?do_update_ui@ArchiveFileDeleterProgress@@EEAAXXZ 00000001800611f0 f i delete.obj
 0001:000608a0       ??_GArchiveFileDeleterProgress@@UEAAPEAXI@Z 00000001800618a0 f i delete.obj
 0001:000608a0       ??_EArchiveFileDeleterProgress@@UEAAPEAXI@Z 00000001800618a0 f i * CIL library *:* CIL module *
 0001:000608e0       ??0ArchiveFileDeleterStream@@QEAA@AEBV?$basic_string@_WU?$char_traits@_W@std@@V?$allocator@_W@2@@std@@V?$shared_ptr@VProgressMonitor@@@2@@Z 00000001800618e0 f i delete.obj
 0001:00060a10       ?QueryInterface@ArchiveFileDeleterStream@@UEAAJAEBU_GUID@@PEAPEAX@Z 0000000180061a10 f i delete.obj
 0001:00060ab0       ?Write@ArchiveFileDeleterStream@@UEAAJPEBXIPEAI@Z 0000000180061ab0 f i delete.obj
 0001:00060b30       ?Seek@ArchiveFileDeleterStream@@UEAAJ_JIPEA_K@Z 0000000180061b30 f i delete.obj
 0001:00060bc0       ?SetSize@ArchiveFileDeleterStream@@UEAAJ_K@Z 0000000180061bc0 f i delete.obj
 0001:00060c20       ??_GArchiveFileDeleterStream@@UEAAPEAXI@Z 0000000180061c20 f i delete.obj
 0001:00060c20       ??_EArchiveFileDeleterStream@@UEAAPEAXI@Z 0000000180061c20 f i * CIL library *:* CIL module *
 0001:00060c80       ?QueryInterface@ArchiveFileDeleter@@UEAAJAEBU_GUID@@PEAPEAX@Z 0000000180061c80 f i delete.obj
 0001:00060d20       ?SetTotal@ArchiveFileDeleter@@UEAAJ_K@Z 0000000180061d20 f i delete.obj
 0001:00060d50       ?SetCompleted@ArchiveFileDeleter@@UEAAJPEB_K@Z 0000000180061d50 f i delete.obj
 0001:00060d90       ?GetUpdateItemInfo@ArchiveFileDeleter@@UEAAJIPEAH0PEAI@Z 0000000180061d90 f i delete.obj
 0001:00060db0       ?GetProperty@ArchiveFileDeleter@@UEAAJIKPEAUtagPROPVARIANT@@@Z 0000000180061db0 f i delete.obj
 0001:00060e40       ?GetStream@ArchiveFileDeleter@@UEAAJIPEAPEAUISequentialInStream@@@Z 0000000180061e40 f i delete.obj
 0001:00060e50       ??_GArchiveFileDeleter@@UEAAPEAXI@Z 0000000180061e50 f i delete.obj
 0001:00060e50       ??_EArchiveFileDeleter@@UEAAPEAXI@Z 0000000180061e50 f i * CIL library *:* CIL module *
 0001:00060ef0       ?enum_deleted_indices@Archive@@AEAAXIAEAV?$vector@IV?$allocator@I@std@@@std@@@Z 0000000180061ef0 f   delete.obj
 0001:00060fa0       ?delete_files@Archive@@QEAAXAEBV?$vector@IV?$allocator@I@std@@@std@@@Z 0000000180061fa0 f   delete.obj
 0001:00061a54       ??_EArchiveFileDeleterStream@@W7EAAPEAXI@Z 0000000180062a54 f i delete.obj
 0001:00061a60       ?QueryInterface@ArchiveFileDeleter@@W7EAAJAEBU_GUID@@PEAPEAX@Z 0000000180062a60 f i delete.obj
 0001:00061a6c       ??_EArchiveFileDeleter@@W7EAAPEAXI@Z 0000000180062a6c f i delete.obj
 0001:00061a78       ?QueryInterface@ArchiveFileDeleterStream@@W7EAAJAEBU_GUID@@PEAPEAX@Z 0000000180062a78 f i delete.obj
 0001:00061a90       ?size@str_view@SimpleXML@@QEBA_KXZ 0000000180062a90 f i options.obj
 0001:00061aa0       ??_EIParseCallback@SimpleXML@@UEAAPEAXI@Z 0000000180062aa0 f i * CIL library *:* CIL module *
 0001:00061aa0       ??_GIParseCallback@SimpleXML@@UEAAPEAXI@Z 0000000180062aa0 f i options.obj
 0001:00061cc0       ??1xml_parser@@UEAA@XZ     0000000180062cc0 f i options.obj
 0001:00061cf0       ?OnTag@xml_parser@@UEBA?AW4cbRet@SimpleXML@@HPEBVstr_view@3@AEBV43@@Z 0000000180062cf0 f i options.obj
 0001:00061e40       ?OnBody@xml_parser@@UEBA?AW4cbRet@SimpleXML@@HPEBVstr_view@3@AEBV43@@Z 0000000180062e40 f i options.obj
 0001:00062020       ?OnAttr@xml_parser@@UEBA?AW4cbRet@SimpleXML@@HPEBVstr_view@3@AEBV43@1@Z 0000000180063020 f i options.obj
 0001:00062430       ?parse@xml_parser@@QEAA_NAEBV?$basic_string@_WU?$char_traits@_W@std@@V?$allocator@_W@2@@std@@@Z 0000000180063430 f i options.obj
 0001:000625c0       ??_Gxml_parser@@UEAAPEAXI@Z 00000001800635c0 f i options.obj
 0001:000625c0       ??_Exml_parser@@UEAAPEAXI@Z 00000001800635c0 f i * CIL library *:* CIL module *
 0001:00062cb0       ?get_str@OptionsKey@@QEAA?AV?$basic_string@_WU?$char_traits@_W@std@@V?$allocator@_W@2@@std@@PEB_WAEBV23@@Z 0000000180063cb0 f i options.obj
 0001:00062e00       ??0Options@@QEAA@XZ        0000000180063e00 f   options.obj
 0001:00063040       ?load_sfx_options@@YAXAEAVOptionsKey@@AEAUSfxOptions@@@Z 0000000180064040 f   options.obj
 0001:00063870       ?save_sfx_options@@YAXAEAVOptionsKey@@AEBUSfxOptions@@@Z 0000000180064870 f   options.obj
 0001:000649c0       ?load@Options@@QEAAXXZ     00000001800659c0 f   options.obj
 0001:00066260       ??1OptionsKey@@QEAA@XZ     0000000180067260 f i options.obj
 0001:000662a0       ?save@Options@@QEBAXXZ     00000001800672a0 f   options.obj
 0001:00067fc0       ?get_profile_key_name@@YA?AV?$basic_string@_WU?$char_traits@_W@std@@V?$allocator@_W@2@@std@@AEBV12@@Z 0000000180068fc0 f   options.obj
 0001:000681d0       ??0ProfileOptions@@QEAA@XZ 00000001800691d0 f   options.obj
 0001:00068300       ??0UpdateOptions@@QEAA@XZ  0000000180069300 f   options.obj
 0001:00068360       ??0SfxOptions@@QEAA@XZ     0000000180069360 f   options.obj
 0001:000684d0       ?load@UpdateProfiles@@QEAAXXZ 00000001800694d0 f   options.obj
 0001:000694a0       ?save@UpdateProfiles@@QEBAXXZ 000000018006a4a0 f   options.obj
 0001:0006a0e0       ?find_by_name@UpdateProfiles@@QEAAIAEBV?$basic_string@_WU?$char_traits@_W@std@@V?$allocator@_W@2@@std@@@Z 000000018006b0e0 f   options.obj
 0001:0006a3c0       ?find_by_options@UpdateProfiles@@QEAAIAEBUUpdateOptions@@@Z 000000018006b3c0 f   options.obj
 0001:0006a560       ?update@UpdateProfiles@@QEAAXAEBV?$basic_string@_WU?$char_traits@_W@std@@V?$allocator@_W@2@@std@@AEBUUpdateOptions@@@Z 000000018006b560 f   options.obj
 0001:0006a8d0       ??4ProfileOptions@@QEAAAEAU0@AEBU0@@Z 000000018006b8d0 f i options.obj
 0001:0006aa10       ?get_app_option@@YA_N_KPEB_WAEA_N@Z 000000018006ba10 f   options.obj
 0001:0006ab30       ??1?$vector@UUpdateProfile@@V?$allocator@UUpdateProfile@@@std@@@std@@QEAA@XZ 000000018006bb30 f i options.obj
 0001:0006abf0       ?_Xrange@?$vector@UUpdateProfile@@V?$allocator@UUpdateProfile@@@std@@@std@@CAXXZ 000000018006bbf0 f i options.obj
 0001:0006ac10       ?_Destroy@?$vector@UUpdateProfile@@V?$allocator@UUpdateProfile@@@std@@@std@@AEAAXPEAUUpdateProfile@@0@Z 000000018006bc10 f i options.obj
 0001:0006ac50       ?deallocate@?$allocator@UUpdateProfile@@@std@@QEAAXQEAUUpdateProfile@@_K@Z 000000018006bc50 f i options.obj
 0001:0006aca0       ??$_Emplace_reallocate@AEBUExternalCodec@@@?$vector@UExternalCodec@@V?$allocator@UExternalCodec@@@std@@@std@@QEAAPEAUExternalCodec@@QEAU2@AEBU2@@Z 000000018006bca0 f i options.obj
 0001:0006aeb0       ??$_Emplace_reallocate@AEBUUpdateProfile@@@?$vector@UUpdateProfile@@V?$allocator@UUpdateProfile@@@std@@@std@@QEAAPEAUUpdateProfile@@QEAU2@AEBU2@@Z 000000018006beb0 f i options.obj
 0001:0006b0f0       ??0ExternalCodec@@QEAA@AEBU0@@Z 000000018006c0f0 f i options.obj
 0001:0006b470       ??$_Uninitialized_move@PEAUExternalCodec@@V?$allocator@UExternalCodec@@@std@@@std@@YAPEAUExternalCodec@@QEAU1@0PEAU1@AEAV?$allocator@UExternalCodec@@@0@@Z 000000018006c470 f i options.obj
 0001:0006b5a0       ??$_Uninitialized_move@PEAUUpdateProfile@@V?$allocator@UUpdateProfile@@@std@@@std@@YAPEAUUpdateProfile@@QEAU1@0PEAU1@AEAV?$allocator@UUpdateProfile@@@0@@Z 000000018006c5a0 f i options.obj
 0001:0006ce60       ??0ProfileOptions@@QEAA@$$QEAU0@@Z 000000018006de60 f i options.obj
 0001:0006d030       ??0SfxOptions@@QEAA@$$QEAU0@@Z 000000018006e030 f i options.obj
 0001:0006d400       ??$iter_swap@PEAUUpdateProfile@@PEAU1@@std@@YAXPEAUUpdateProfile@@0@Z 000000018006e400 f i options.obj
 0001:0006dc80       ?create_state_matrix@@YAPEAVStateMatrix@@AEBV?$vector@USigData@@V?$allocator@USigData@@@std@@@std@@@Z 000000018006ec80 f   msearch.obj
 0001:0006de20       ?msearch@@YA?AV?$vector@UStrPos@@V?$allocator@UStrPos@@@std@@@std@@PEAE_KAEBV?$vector@USigData@@V?$allocator@USigData@@@std@@@2@_N@Z 000000018006ee20 f   msearch.obj
 0001:0006e5c0       ??1?$unique_ptr@VStateMatrix@@U?$default_delete@VStateMatrix@@@std@@@std@@QEAA@XZ 000000018006f5c0 f i msearch.obj
 0001:0006e5f0       ??1?$_Tidy_guard@V?$vector@V?$vector@EV?$allocator@E@std@@@std@@V?$allocator@V?$vector@EV?$allocator@E@std@@@std@@@2@@std@@@std@@QEAA@XZ 000000018006f5f0 f i msearch.obj
 0001:0006e600       ?_Xlen@?$vector@_NV?$allocator@_N@std@@@std@@QEBAXXZ 000000018006f600 f i msearch.obj
 0001:0006e620       ??1?$_Tree_head_scoped_ptr@V?$allocator@U?$_Tree_node@U?$pair@$$CBV?$basic_string@_WU?$char_traits@_W@std@@V?$allocator@_W@2@@std@@V12@@std@@PEAX@std@@@std@@V?$_Tree_val@U?$_Tree_simple_types@U?$pair@$$CBV?$basic_string@_WU?$char_traits@_W@std@@V?$allocator@_W@2@@std@@V12@@std@@@std@@@2@@std@@QEAA@XZ 000000018006f620 f i msearch.obj
 0001:0006e660       ??$_Sort_unchecked@PEAUStrPos@@U?$less@X@std@@@std@@YAXPEAUStrPos@@0_JU?$less@X@0@@Z 000000018006f660 f i msearch.obj
 0001:0006e9e0       ??$_Partition_by_median_guess_unchecked@PEAUStrPos@@U?$less@X@std@@@std@@YA?AU?$pair@PEAUStrPos@@PEAU1@@0@PEAUStrPos@@0U?$less@X@0@@Z 000000018006f9e0 f i msearch.obj
 0001:0006eb70       ??$_Guess_median_unchecked@PEAUStrPos@@U?$less@X@std@@@std@@YAXPEAUStrPos@@00U?$less@X@0@@Z 000000018006fb70 f i msearch.obj
 0001:0006ed10       ?uint_to_hex_str@@YA?AV?$basic_string@_WU?$char_traits@_W@std@@V?$allocator@_W@2@@std@@_KI@Z 000000018006fd10 f   attr.obj
 0001:0006ede0       ?format_int_prop@@YA?AV?$basic_string@_WU?$char_traits@_W@std@@V?$allocator@_W@2@@std@@AEBVPropVariant@@@Z 000000018006fde0 f   attr.obj
 0001:0006eec0       ?format_size_prop@@YA?AV?$basic_string@_WU?$char_traits@_W@std@@V?$allocator@_W@2@@std@@AEBVPropVariant@@@Z 000000018006fec0 f   attr.obj
 0001:0006f250       ?format_filetime_prop@@YA?AV?$basic_string@_WU?$char_traits@_W@std@@V?$allocator@_W@2@@std@@AEBVPropVariant@@@Z 0000000180070250 f   attr.obj
 0001:0006f540       ?format_crc_prop@@YA?AV?$basic_string@_WU?$char_traits@_W@std@@V?$allocator@_W@2@@std@@AEBVPropVariant@@@Z 0000000180070540 f   attr.obj
 0001:0006f670       ?format_posix_attrib_prop@@YA?AV?$basic_string@_WU?$char_traits@_W@std@@V?$allocator@_W@2@@std@@AEBVPropVariant@@@Z 0000000180070670 f   attr.obj
 0001:0006fb80       ?format_attrib_prop@@YA?AV?$basic_string@_WU?$char_traits@_W@std@@V?$allocator@_W@2@@std@@AEBVPropVariant@@@Z 0000000180070b80 f   attr.obj
 0001:00070270       ?get_attr_list@Archive@@QEAA?AV?$list@UAttr@@V?$allocator@UAttr@@@std@@@std@@I@Z 0000000180071270 f   attr.obj
 0001:00070e70       ?load_arc_attr@Archive@@AEAAXXZ 0000000180071e70 f   attr.obj
 0001:000725c0       ?load_update_props@Archive@@QEAAXXZ 00000001800735c0 f   attr.obj
 0001:00072cb0       ?push_back@?$list@UAttr@@V?$allocator@UAttr@@@std@@@std@@QEAAXAEBUAttr@@@Z 0000000180073cb0 f i attr.obj
 0001:00072d60       ?do_update_ui@ArchiveTester@@EEAAXXZ 0000000180073d60 f i test.obj
 0001:000733d0       ??0ArchiveTester@@QEAA@IV?$shared_ptr@VArchive@@@std@@@Z 00000001800743d0 f i test.obj
 0001:00073590       ?SetTotal@ArchiveTester@@UEAAJ_K@Z 0000000180074590 f i test.obj
 0001:000735c0       ?SetCompleted@ArchiveTester@@UEAAJPEB_K@Z 00000001800745c0 f i test.obj
 0001:00073600       ?GetStream@ArchiveTester@@UEAAJIPEAPEAUISequentialOutStream@@H@Z 0000000180074600 f i test.obj
 0001:00073760       ?SetOperationResult@ArchiveTester@@UEAAJH@Z 0000000180074760 f i test.obj
 0001:000738e0       ?CryptoGetTextPassword@ArchiveTester@@UEAAJPEAPEA_W@Z 00000001800748e0 f i test.obj
 0001:00073a10       ??_GArchiveTester@@UEAAPEAXI@Z 0000000180074a10 f i test.obj
 0001:00073a10       ??_EArchiveTester@@UEAAPEAXI@Z 0000000180074a10 f i * CIL library *:* CIL module *
 0001:00073ad0       ?prepare_test@Archive@@AEAAXIAEAV?$list@IV?$allocator@I@std@@@std@@@Z 0000000180074ad0 f   test.obj
 0001:00073ba0       ?test@Archive@@QEAAXIAEBV?$vector@IV?$allocator@I@std@@@std@@@Z 0000000180074ba0 f   test.obj
 0001:0007408c       ??_EArchiveTester@@WBA@EAAPEAXI@Z 000000018007508c f i test.obj
 0001:00074098       ??_EArchiveTester@@WCA@EAAPEAXI@Z 0000000180075098 f i test.obj
 0001:000740b0       ?calc_percent@@YAI_K0@Z    00000001800750b0 f   common.obj
 0001:00074150       ?parse_size_string@@YA_KAEBV?$basic_string@_WU?$char_traits@_W@std@@V?$allocator@_W@2@@std@@@Z 0000000180075150 f   common.obj
 0001:00074240       ?expand_macros@@YA?AV?$basic_string@_WU?$char_traits@_W@std@@V?$allocator@_W@2@@std@@AEBV12@@Z 0000000180075240 f   common.obj
 0001:000749c0       ?load_file@@YA?AV?$basic_string@_WU?$char_traits@_W@std@@V?$allocator@_W@2@@std@@AEBV12@PEAI@Z 00000001800759c0 f   common.obj
 0001:00074e00       ?auto_rename@@YA?AV?$basic_string@_WU?$char_traits@_W@std@@V?$allocator@_W@2@@std@@AEBV12@@Z 0000000180075e00 f   common.obj
 0001:00075240       ?do_update_ui@AttachSfxModuleProgress@@EEAAXXZ 0000000180076240 f i sfx.obj
 0001:00075580       ??_GAttachSfxModuleProgress@@UEAAPEAXI@Z 0000000180076580 f i sfx.obj
 0001:00075580       ??_EAttachSfxModuleProgress@@UEAAPEAXI@Z 0000000180076580 f i * CIL library *:* CIL module *
 0001:000755c0       ?generate_install_config@@YA?AV?$vector@EV?$allocator@E@std@@@std@@AEBUSfxInstallConfig@@@Z 00000001800765c0 f   sfx.obj
 0001:00076240       ?create_sfx_module@@YAXAEBV?$basic_string@_WU?$char_traits@_W@std@@V?$allocator@_W@2@@std@@AEBUSfxOptions@@@Z 0000000180077240 f   sfx.obj
 0001:00076870       ?attach_sfx_module@@YAXAEBV?$basic_string@_WU?$char_traits@_W@std@@V?$allocator@_W@2@@std@@AEBUSfxOptions@@@Z 0000000180077870 f   sfx.obj
 0001:00077360       ?set_control_state@SfxOptionsDialog@@AEAAXXZ 0000000180078360 f i sfx.obj
 0001:00077570       ?read_controls@SfxOptionsDialog@@AEAA?AUSfxOptions@@XZ 0000000180078570 f i sfx.obj
 0001:00077f30       ?write_controls@SfxOptionsDialog@@AEAAXAEBUSfxOptions@@@Z 0000000180078f30 f i sfx.obj
 0001:00078370       ?dialog_proc@SfxOptionsDialog@@EEAA_J_J0PEAX@Z 0000000180079370 f i sfx.obj
 0001:00078680       ?show@SfxOptionsDialog@@QEAA_NXZ 0000000180079680 f i sfx.obj
 0001:0007a0c0       ??1SfxProfile@@QEAA@XZ     000000018007b0c0 f i sfx.obj
 0001:0007a130       ?sfx_options_dialog@@YA_NAEAUSfxOptions@@AEBUUpdateProfiles@@@Z 000000018007b130 f   sfx.obj
 0001:0007a3c0       ??1SfxOptionsDialog@@QEAA@XZ 000000018007b3c0 f i sfx.obj
 0001:0007a3f0       ??E?$_Vector_const_iterator@V?$_Vector_val@U?$_Simple_types@V?$basic_string@_WU?$char_traits@_W@std@@V?$allocator@_W@2@@std@@@std@@@std@@@std@@QEAA?AV01@H@Z 000000018007b3f0 f i sfx.obj
 0001:0007a410       ??1?$vector@USfxProfile@@V?$allocator@USfxProfile@@@std@@@std@@QEAA@XZ 000000018007b410 f i sfx.obj
 0001:0007a4c0       ?_Destroy@?$vector@USfxProfile@@V?$allocator@USfxProfile@@@std@@@std@@AEAAXPEAUSfxProfile@@0@Z 000000018007b4c0 f i sfx.obj
 0001:0007a500       ?deallocate@?$allocator@USfxProfile@@@std@@QEAAXQEAUSfxProfile@@_K@Z 000000018007b500 f i sfx.obj
 0001:0007a550       ??$for_each@V?$_Vector_const_iterator@V?$_Vector_val@U?$_Simple_types@UUpdateProfile@@@std@@@std@@@std@@V<lambda_1>@?1???0SfxOptionsDialog@@QEAA@AEAUSfxOptions@@AEBUUpdateProfiles@@@Z@@std@@YA?AV<lambda_1>@?1???0SfxOptionsDialog@@QEAA@AEAUSfxOptions@@AEBUUpdateProfiles@@@Z@V?$_Vector_const_iterator@V?$_Vector_val@U?$_Simple_types@UUpdateProfile@@@std@@@std@@@0@2V1?1???02@QEAA@01@Z@@Z 000000018007b550 f i sfx.obj
 0001:0007a760       ??$_Emplace_reallocate@AEBUSfxProfile@@@?$vector@USfxProfile@@V?$allocator@USfxProfile@@@std@@@std@@QEAAPEAUSfxProfile@@QEAU2@AEBU2@@Z 000000018007b760 f i sfx.obj
 0001:0007a9a0       ??$_Uninitialized_move@PEAUSfxProfile@@V?$allocator@USfxProfile@@@std@@@std@@YAPEAUSfxProfile@@QEAU1@0PEAU1@AEAV?$allocator@USfxProfile@@@0@@Z 000000018007b9a0 f i sfx.obj
 0001:0007aa30       ?lc@@YA?AV?$basic_string@_WU?$char_traits@_W@std@@V?$allocator@_W@2@@std@@AEBV12@@Z 000000018007ba30 f   cmdline.obj
 0001:0007ac40       ?parse_command@@YA?AUCommandArgs@@AEBV?$basic_string@_WU?$char_traits@_W@std@@V?$allocator@_W@2@@std@@@Z 000000018007bc40 f   cmdline.obj
 0001:0007b6a0       ?parse_plugin_call@@YA?AUCommandArgs@@PEBUOpenMacroInfo@@@Z 000000018007c6a0 f   cmdline.obj
 0001:0007bd80       ?parse_param@@YA?AUParam@@AEBV?$basic_string@_WU?$char_traits@_W@std@@V?$allocator@_W@2@@std@@@Z 000000018007cd80 f   cmdline.obj
 0001:0007c4b0       ?parse_bool_value@@YA_NAEBV?$basic_string@_WU?$char_traits@_W@std@@V?$allocator@_W@2@@std@@@Z 000000018007d4b0 f   cmdline.obj
 0001:0007c670       ?parse_tri_state_value@@YA?AW4TriState@@AEBV?$basic_string@_WU?$char_traits@_W@std@@V?$allocator@_W@2@@std@@@Z 000000018007d670 f   cmdline.obj
 0001:0007c8d0       ?parse_listfile@@YA?AV?$list@V?$basic_string@_WU?$char_traits@_W@std@@V?$allocator@_W@2@@std@@V?$allocator@V?$basic_string@_WU?$char_traits@_W@std@@V?$allocator@_W@2@@std@@@2@@std@@AEBV?$basic_string@_WU?$char_traits@_W@std@@V?$allocator@_W@2@@2@@Z 000000018007d8d0 f   cmdline.obj
 0001:0007cb30       ?parse_open_command@@YA?AUOpenCommand@@AEBUCommandArgs@@@Z 000000018007db30 f   cmdline.obj
 0001:0007d210       ?parse_update_command@@YA?AUUpdateCommand@@AEBUCommandArgs@@@Z 000000018007e210 f   cmdline.obj
 0001:0007f6f0       ?parse_extract_command@@YA?AUExtractCommand@@AEBUCommandArgs@@@Z 00000001800806f0 f   cmdline.obj
 0001:0007f850       ?parse_extractitems_command@@YA?AUExtractItemsCommand@@AEBUCommandArgs@@@Z 0000000180080850 f   cmdline.obj
 0001:0007f980       ?parse_test_command@@YA?AUTestCommand@@AEBUCommandArgs@@@Z 0000000180080980 f   cmdline.obj
 0001:0007fc80       ?erase@?$vector@V?$basic_string@_WU?$char_traits@_W@std@@V?$allocator@_W@2@@std@@V?$allocator@V?$basic_string@_WU?$char_traits@_W@std@@V?$allocator@_W@2@@std@@@2@@std@@QEAA?AV?$_Vector_iterator@V?$_Vector_val@U?$_Simple_types@V?$basic_string@_WU?$char_traits@_W@std@@V?$allocator@_W@2@@std@@@std@@@std@@@2@V?$_Vector_const_iterator@V?$_Vector_val@U?$_Simple_types@V?$basic_string@_WU?$char_traits@_W@std@@V?$allocator@_W@2@@std@@@std@@@std@@@2@@Z 0000000180080c80 f i cmdline.obj
 0001:0007ff90       ??BRsrcId@@QEBAPEB_WXZ     0000000180080f90 f i rsrc.obj
 0001:0007ffb0       ?load_icon_file@@YA?AV?$list@UIconImage@@V?$allocator@UIconImage@@@std@@@std@@AEBV?$basic_string@_WU?$char_traits@_W@std@@V?$allocator@_W@2@@2@@Z 0000000180080fb0 f   rsrc.obj
 0001:000806d0       ??1IconImage@@QEAA@XZ      00000001800816d0 f i rsrc.obj
 0001:00080730       ?load_icon_rsrc@@YA?AUIconRsrc@@PEAUHINSTANCE__@@PEB_WG@Z 0000000180081730 f   rsrc.obj
 0001:00080ce0       ??1IconRsrc@@QEAA@XZ       0000000180081ce0 f i rsrc.obj
 0001:00080d50       ??1IconImageRsrc@@QEAA@XZ  0000000180081d50 f i rsrc.obj
 0001:00080db0       ??0IconRsrc@@QEAA@$$QEAU0@@Z 0000000180081db0 f i rsrc.obj
 0001:00080e50       ?enum_names_proc@@YAHPEAUHINSTANCE__@@PEB_WPEA_W_J@Z 0000000180081e50 f   rsrc.obj
 0001:00080f60       ?enum_langs_proc@@YAHPEAUHINSTANCE__@@PEB_W1G_J@Z 0000000180081f60 f   rsrc.obj
 0001:00080ff0       ??1RsrcModule@@QEAA@XZ     0000000180081ff0 f i rsrc.obj
 0001:00081020       ??0ResourceUpdate@@QEAA@AEBV?$basic_string@_WU?$char_traits@_W@std@@V?$allocator@_W@2@@std@@@Z 0000000180082020 f i rsrc.obj
 0001:00081090       ??1ResourceUpdate@@QEAA@XZ 0000000180082090 f i rsrc.obj
 0001:000810b0       ?update@ResourceUpdate@@QEAAXPEB_W0GPEBEK@Z 00000001800820b0 f i rsrc.obj
 0001:00081130       ?finalize@ResourceUpdate@@QEAAXXZ 0000000180082130 f i rsrc.obj
 0001:000811a0       ?replace_icon@@YAXAEBV?$basic_string@_WU?$char_traits@_W@std@@V?$allocator@_W@2@@std@@0@Z 00000001800821a0 f   rsrc.obj
 0001:00081b60       ?encode_WORD@VersionEncoder@@QEAAXG@Z 0000000180082b60 f i rsrc.obj
 0001:00081b90       ?encode_string@VersionEncoder@@QEAAXPEB_W@Z 0000000180082b90 f i rsrc.obj
 0001:00081bd0       ?pad@VersionEncoder@@QEAAXXZ 0000000180082bd0 f i rsrc.obj
 0001:00081c10       ?replace_ver_info@@YAXAEBV?$basic_string@_WU?$char_traits@_W@std@@V?$allocator@_W@2@@std@@AEBUSfxVersionInfo@@@Z 0000000180082c10 f   rsrc.obj
 0001:000830c0       ??6?$basic_ostream@_WU?$char_traits@_W@std@@@std@@QEAAAEAV01@G@Z 00000001800840c0 f i rsrc.obj
 0001:000832a0       ??1?$list@UIdLang@@V?$allocator@UIdLang@@@std@@@std@@QEAA@XZ 00000001800842a0 f i rsrc.obj
 0001:00083360       ??1?$list@UIconRsrc@@V?$allocator@UIconRsrc@@@std@@@std@@QEAA@XZ 0000000180084360 f i rsrc.obj
 0001:000833d0       ??1?$list@VRsrcId@@V?$allocator@VRsrcId@@@std@@@std@@QEAA@XZ 00000001800843d0 f i rsrc.obj
 0001:00083490       ?push_back@?$list@UIconImageRsrc@@V?$allocator@UIconImageRsrc@@@std@@@std@@QEAAXAEBUIconImageRsrc@@@Z 0000000180084490 f i rsrc.obj
 0001:00083560       ??1?$list@UIconImageRsrc@@V?$allocator@UIconImageRsrc@@@std@@@std@@QEAA@XZ 0000000180084560 f i rsrc.obj
 0001:00083620       ??1?$list@UIconImage@@V?$allocator@UIconImage@@@std@@@std@@QEAA@XZ 0000000180084620 f i rsrc.obj
 0001:000836e0       ?insert@?$vector@EV?$allocator@E@std@@@std@@QEAA?AV?$_Vector_iterator@V?$_Vector_val@U?$_Simple_types@E@std@@@std@@@2@V?$_Vector_const_iterator@V?$_Vector_val@U?$_Simple_types@E@std@@@std@@@2@_KAEBE@Z 00000001800846e0 f i rsrc.obj
 0001:000838f0       ?_Change_array@?$vector@EV?$allocator@E@std@@@std@@AEAAXQEAE_K1@Z 00000001800848f0 f i rsrc.obj
 0001:00083980       ?_Reallocate_exactly@?$vector@EV?$allocator@E@std@@@std@@AEAAX_K@Z 0000000180084980 f i rsrc.obj
 0001:00083fb0       ??$_Insert_range@PEBE@?$vector@EV?$allocator@E@std@@@std@@AEAAXV?$_Vector_const_iterator@V?$_Vector_val@U?$_Simple_types@E@std@@@std@@@1@PEBE1Uforward_iterator_tag@1@@Z 0000000180084fb0 f i rsrc.obj
 0001:00084160       ??$destroy@VRsrcId@@@?$_Default_allocator_traits@V?$allocator@U?$_List_node@VRsrcId@@PEAX@std@@@std@@@std@@SAXAEAV?$allocator@U?$_List_node@VRsrcId@@PEAX@std@@@1@QEAVRsrcId@@@Z 0000000180085160 f i rsrc.obj
 0001:000841d0       ??$_Construct_range_unchecked@V?$_List_unchecked_const_iterator@V?$_List_val@U?$_List_simple_types@UIconImageRsrc@@@std@@@std@@U_Iterator_base0@2@@std@@@?$list@UIconImageRsrc@@V?$allocator@UIconImageRsrc@@@std@@@std@@AEAAXV?$_List_unchecked_const_iterator@V?$_List_val@U?$_List_simple_types@UIconImageRsrc@@@std@@@std@@U_Iterator_base0@2@@1@0@Z 00000001800851d0 f i rsrc.obj
 0001:00084390       ??1?$_List_node_insert_op@V?$allocator@U?$_List_node@UIconImageRsrc@@PEAX@std@@@std@@@std@@QEAA@XZ 0000000180085390 f i rsrc.obj
 0001:00084440       ?dialog_proc@Dialog@Far@@MEAA_J_J0PEAX@Z 0000000180085440 f i farutils.obj
 0001:00084450       ?get_plugin_module_path@Far@@YA?AV?$basic_string@_WU?$char_traits@_W@std@@V?$allocator@_W@2@@std@@XZ 0000000180085450 f   farutils.obj
 0001:00084680       ?get_msg@Far@@YA?AV?$basic_string@_WU?$char_traits@_W@std@@V?$allocator@_W@2@@std@@H@Z 0000000180085680 f   farutils.obj
 0001:000846e0       ?get_optimal_msg_width@Far@@YAIXZ 00000001800856e0 f   farutils.obj
 0001:00084730       ?message@Far@@YA_JAEBU_GUID@@AEBV?$basic_string@_WU?$char_traits@_W@std@@V?$allocator@_W@2@@std@@H_K@Z 0000000180085730 f   farutils.obj
 0001:00084780       ?menu@Far@@YA_JAEBU_GUID@@AEBV?$basic_string@_WU?$char_traits@_W@std@@V?$allocator@_W@2@@std@@AEBVMenuItems@1@PEB_W@Z 0000000180085780 f   farutils.obj
 0001:000849d0       ?get_progress_bar_str@Far@@YA?AV?$basic_string@_WU?$char_traits@_W@std@@V?$allocator@_W@2@@std@@I_K0@Z 00000001800859d0 f   farutils.obj
 0001:00084aa0       ?get_panel_dir@Far@@YA?AV?$basic_string@_WU?$char_traits@_W@std@@V?$allocator@_W@2@@std@@PEAX@Z 0000000180085aa0 f   farutils.obj
 0001:00084c00       ?get_panel_item@Far@@YAXPEAXW4FILE_CONTROL_COMMANDS@@_KAEAV?$Buffer@E@@@Z 0000000180085c00 f   farutils.obj
 0001:00084d00       ?get_panel_item@Far@@YA?AUPanelItem@1@PEAXW4FILE_CONTROL_COMMANDS@@_K@Z 0000000180085d00 f   farutils.obj
 0001:00084e20       ?error_dlg@Far@@YAXAEBV?$basic_string@_WU?$char_traits@_W@std@@V?$allocator@_W@2@@std@@AEBUError@@@Z 0000000180085e20 f   farutils.obj
 0001:000856b0       ?info_dlg@Far@@YAXAEBU_GUID@@AEBV?$basic_string@_WU?$char_traits@_W@std@@V?$allocator@_W@2@@std@@1@Z 00000001800866b0 f   farutils.obj
 0001:00085830       ?input_dlg@Far@@YA_NAEBU_GUID@@AEBV?$basic_string@_WU?$char_traits@_W@std@@V?$allocator@_W@2@@std@@1AEAV34@_K@Z 0000000180086830 f   farutils.obj
 0001:00085930       ?get_label_len@Dialog@Far@@IEAA_KAEBV?$basic_string@_WU?$char_traits@_W@std@@V?$allocator@_W@2@@std@@_K@Z 0000000180086930 f   farutils.obj
 0001:000859a0       ?internal_dialog_proc@Dialog@Far@@CA_JPEAX_J10@Z 00000001800869a0 f   farutils.obj
 0001:00085a40       ??0Dialog@Far@@QEAA@AEBV?$basic_string@_WU?$char_traits@_W@std@@V?$allocator@_W@2@@std@@PEBU_GUID@@IPEB_W_K@Z 0000000180086a40 f   farutils.obj
 0001:00085bc0       ?spacer@Dialog@Far@@QEAAX_K@Z 0000000180086bc0 f   farutils.obj
 0001:00085be0       ?pad@Dialog@Far@@QEAAX_K@Z 0000000180086be0 f   farutils.obj
 0001:00085c00       ?separator@Dialog@Far@@QEAAIXZ 0000000180086c00 f   farutils.obj
 0001:00085d00       ?label@Dialog@Far@@QEAAIAEBV?$basic_string@_WU?$char_traits@_W@std@@V?$allocator@_W@2@@std@@_K1@Z 0000000180086d00 f   farutils.obj
 0001:00085e50       ?edit_box@Dialog@Far@@QEAAIAEBV?$basic_string@_WU?$char_traits@_W@std@@V?$allocator@_W@2@@std@@_K1@Z 0000000180086e50 f   farutils.obj
 0001:00085fa0       ?history_edit_box@Dialog@Far@@QEAAIAEBV?$basic_string@_WU?$char_traits@_W@std@@V?$allocator@_W@2@@std@@0_K1@Z 0000000180086fa0 f   farutils.obj
 0001:00086030       ?pwd_edit_box@Dialog@Far@@QEAAIAEBV?$basic_string@_WU?$char_traits@_W@std@@V?$allocator@_W@2@@std@@_K1@Z 0000000180087030 f   farutils.obj
 0001:00086170       ?button@Dialog@Far@@QEAAIAEBV?$basic_string@_WU?$char_traits@_W@std@@V?$allocator@_W@2@@std@@_K@Z 0000000180087170 f   farutils.obj
 0001:00086300       ?check_box@Dialog@Far@@QEAAIAEBV?$basic_string@_WU?$char_traits@_W@std@@V?$allocator@_W@2@@std@@H_K@Z 0000000180087300 f   farutils.obj
 0001:00086490       ?radio_button@Dialog@Far@@QEAAIAEBV?$basic_string@_WU?$char_traits@_W@std@@V?$allocator@_W@2@@std@@_N_K@Z 0000000180087490 f   farutils.obj
 0001:00086620       ?combo_box@Dialog@Far@@QEAAIAEBV?$vector@V?$basic_string@_WU?$char_traits@_W@std@@V?$allocator@_W@2@@std@@V?$allocator@V?$basic_string@_WU?$char_traits@_W@std@@V?$allocator@_W@2@@std@@@2@@std@@_K11@Z 0000000180087620 f   farutils.obj
 0001:00086830       ?show@Dialog@Far@@QEAA_JXZ 0000000180087830 f   farutils.obj
 0001:00086c30       ?get_text@Dialog@Far@@QEBA?AV?$basic_string@_WU?$char_traits@_W@std@@V?$allocator@_W@2@@std@@I@Z 0000000180087c30 f   farutils.obj
 0001:00086d20       ?set_list_pos@Dialog@Far@@QEAAXI_K@Z 0000000180087d20 f   farutils.obj
 0001:00086d80       ?get_absolute_path@Far@@YA?AV?$basic_string@_WU?$char_traits@_W@std@@V?$allocator@_W@2@@std@@AEBV23@@Z 0000000180087d80 f   farutils.obj
 0001:00086e90       ?panel_go_to_file@Far@@YA_NPEAXAEBV?$basic_string@_WU?$char_traits@_W@std@@V?$allocator@_W@2@@std@@@Z 0000000180087e90 f   farutils.obj
 0001:000874e0       ?get_lang_id@Far@@YAKXZ    00000001800884e0 f   farutils.obj
 0001:00087610       ?open_help@Far@@YAXAEBV?$basic_string@_WU?$char_traits@_W@std@@V?$allocator@_W@2@@std@@@Z 0000000180088610 f   farutils.obj
 0001:00087860       ??1Settings@Far@@QEAA@XZ   0000000180088860 f   farutils.obj
 0001:000878a0       ?set_dir@Settings@Far@@QEAA_NAEBV?$basic_string@_WU?$char_traits@_W@std@@V?$allocator@_W@2@@std@@@Z 00000001800888a0 f   farutils.obj
 0001:00087970       ?list_dir@Settings@Far@@QEAA_NAEAV?$vector@V?$basic_string@_WU?$char_traits@_W@std@@V?$allocator@_W@2@@std@@V?$allocator@V?$basic_string@_WU?$char_traits@_W@std@@V?$allocator@_W@2@@std@@@2@@std@@@Z 0000000180088970 f   farutils.obj
 0001:00087b60       ??1?$vector@UFarMenuItem@@V?$allocator@UFarMenuItem@@@std@@@std@@QEAA@XZ 0000000180088b60 f i farutils.obj
 0001:00087be0       ?_Reallocate_exactly@?$vector@UFarMenuItem@@V?$allocator@UFarMenuItem@@@std@@@std@@AEAAX_K@Z 0000000180088be0 f i farutils.obj
 0001:00087c60       ?_Change_array@?$vector@UFarMenuItem@@V?$allocator@UFarMenuItem@@@std@@@std@@AEAAXQEAUFarMenuItem@@_K1@Z 0000000180088c60 f i farutils.obj
 0001:00087d10       ??$_Emplace_reallocate@AEBUFarMenuItem@@@?$vector@UFarMenuItem@@V?$allocator@UFarMenuItem@@@std@@@std@@QEAAPEAUFarMenuItem@@QEAU2@AEBU2@@Z 0000000180088d10 f i farutils.obj
 0001:00087e60       ??$_Emplace_reallocate@AEBUDialogItem@Far@@@?$vector@UDialogItem@Far@@V?$allocator@UDialogItem@Far@@@std@@@std@@QEAAPEAUDialogItem@Far@@QEAU23@AEBU23@@Z 0000000180088e60 f i farutils.obj
 0001:00088120       ?long_path@@YA?AV?$basic_string@_WU?$char_traits@_W@std@@V?$allocator@_W@2@@std@@AEBV12@@Z 0000000180089120 f   pathutils.obj
 0001:000883e0       ?long_path_norm@@YA?AV?$basic_string@_WU?$char_traits@_W@std@@V?$allocator@_W@2@@std@@AEBV12@@Z 00000001800893e0 f   pathutils.obj
 0001:000884d0       ?add_trailing_slash@@YA?AV?$basic_string@_WU?$char_traits@_W@std@@V?$allocator@_W@2@@std@@AEBV12@@Z 00000001800894d0 f   pathutils.obj
 0001:00088520       ?locate_path_root@@YAXAEBV?$basic_string@_WU?$char_traits@_W@std@@V?$allocator@_W@2@@std@@AEA_KAEA_N@Z 0000000180089520 f   pathutils.obj
 0001:000887d0       ?extract_file_name@@YA?AV?$basic_string@_WU?$char_traits@_W@std@@V?$allocator@_W@2@@std@@AEBV12@@Z 00000001800897d0 f   pathutils.obj
 0001:00088960       ?extract_file_path@@YA?AV?$basic_string@_WU?$char_traits@_W@std@@V?$allocator@_W@2@@std@@AEBV12@@Z 0000000180089960 f   pathutils.obj
 0001:00088af0       ?extract_file_ext@@YA?AV?$basic_string@_WU?$char_traits@_W@std@@V?$allocator@_W@2@@std@@AEBV12@@Z 0000000180089af0 f   pathutils.obj
 0001:00088cf0       ?is_absolute_path@@YA_NAEBV?$basic_string@_WU?$char_traits@_W@std@@V?$allocator@_W@2@@std@@@Z 0000000180089cf0 f   pathutils.obj
 0001:00088e20       ?remove_path_root@@YA?AV?$basic_string@_WU?$char_traits@_W@std@@V?$allocator@_W@2@@std@@AEBV12@@Z 0000000180089e20 f   pathutils.obj
 0001:00088f60       ?correct_filename@@YA?AV?$basic_string@_WU?$char_traits@_W@std@@V?$allocator@_W@2@@std@@AEBV12@H_N@Z 0000000180089f60 f   pathutils.obj
 0001:00089470       ?substr_match@@YA_NAEBV?$basic_string@_WU?$char_traits@_W@std@@V?$allocator@_W@2@@std@@_KPEB_W@Z 000000018008a470 f   strutils.obj
 0001:000894f0       ?word_wrap@@YA?AV?$basic_string@_WU?$char_traits@_W@std@@V?$allocator@_W@2@@std@@AEBV12@_K@Z 000000018008a4f0 f   strutils.obj
 0001:00089950       ?fit_str@@YA?AV?$basic_string@_WU?$char_traits@_W@std@@V?$allocator@_W@2@@std@@AEBV12@_K@Z 000000018008a950 f   strutils.obj
 0001:00089a90       ?strip@@YA?AV?$basic_string@_WU?$char_traits@_W@std@@V?$allocator@_W@2@@std@@AEBV12@@Z 000000018008aa90 f   strutils.obj
 0001:00089b70       ?int_to_str@@YA?AV?$basic_string@_WU?$char_traits@_W@std@@V?$allocator@_W@2@@std@@H@Z 000000018008ab70 f   strutils.obj
 0001:00089c00       ?str_to_uint@@YA_KAEBV?$basic_string@_WU?$char_traits@_W@std@@V?$allocator@_W@2@@std@@@Z 000000018008ac00 f   strutils.obj
 0001:00089c80       ?uint_to_str@@YA?AV?$basic_string@_WU?$char_traits@_W@std@@V?$allocator@_W@2@@std@@_K@Z 000000018008ac80 f   strutils.obj
 0001:00089d60       ?split@@YA?AV?$list@V?$basic_string@_WU?$char_traits@_W@std@@V?$allocator@_W@2@@std@@V?$allocator@V?$basic_string@_WU?$char_traits@_W@std@@V?$allocator@_W@2@@std@@@2@@std@@AEBV?$basic_string@_WU?$char_traits@_W@std@@V?$allocator@_W@2@@2@_W@Z 000000018008ad60 f   strutils.obj
 0001:0008a070       ?format_data_size@@YA?AV?$basic_string@_WU?$char_traits@_W@std@@V?$allocator@_W@2@@std@@_KQEAPEB_W@Z 000000018008b070 f   strutils.obj
 0001:0008a5a0       ?search_and_replace@@YA?AV?$basic_string@_WU?$char_traits@_W@std@@V?$allocator@_W@2@@std@@AEBV12@00@Z 000000018008b5a0 f   strutils.obj
 0001:0008a8d0       ??0Error@@QEAA@JAEBV?$basic_string@_WU?$char_traits@_W@std@@V?$allocator@_W@2@@std@@PEBDH@Z 000000018008b8d0 f i sysutils.obj
 0001:0008aa30       ??_GCriticalSection@@UEAAPEAXI@Z 000000018008ba30 f i sysutils.obj
 0001:0008aa30       ??_ECriticalSection@@UEAAPEAXI@Z 000000018008ba30 f i * CIL library *:* CIL module *
 0001:0008aa80       ?get_system_message@@YA?AV?$basic_string@_WU?$char_traits@_W@std@@V?$allocator@_W@2@@std@@JK@Z 000000018008ba80 f   sysutils.obj
 0001:0008b040       ?ansi_to_unicode@@YA?AV?$basic_string@_WU?$char_traits@_W@std@@V?$allocator@_W@2@@std@@AEBV?$basic_string@DU?$char_traits@D@std@@V?$allocator@D@2@@2@I@Z 000000018008c040 f   sysutils.obj
 0001:0008b190       ?expand_env_vars@@YA?AV?$basic_string@_WU?$char_traits@_W@std@@V?$allocator@_W@2@@std@@AEBV12@@Z 000000018008c190 f   sysutils.obj
 0001:0008b2c0       ??1File@@QEAA@XZ           000000018008c2c0 f   sysutils.obj
 0001:0008b340       ?open@File@@QEAAXAEBV?$basic_string@_WU?$char_traits@_W@std@@V?$allocator@_W@2@@std@@KKKK@Z 000000018008c340 f   sysutils.obj
 0001:0008b3b0       ?open_nt@File@@QEAA_NAEBV?$basic_string@_WU?$char_traits@_W@std@@V?$allocator@_W@2@@std@@KKKK@Z 000000018008c3b0 f   sysutils.obj
 0001:0008b580       ?size@File@@QEAA_KXZ       000000018008c580 f   sysutils.obj
 0001:0008b5f0       ?read@File@@QEAA_KPEAX_K@Z 000000018008c5f0 f   sysutils.obj
 0001:0008b670       ?write@File@@QEAA_KPEBX_K@Z 000000018008c670 f   sysutils.obj
 0001:0008b6f0       ?set_pos@File@@QEAA_K_JK@Z 000000018008c6f0 f   sysutils.obj
 0001:0008b770       ?set_end@File@@QEAAXXZ     000000018008c770 f   sysutils.obj
 0001:0008b7d0       ?attributes@File@@SAKAEBV?$basic_string@_WU?$char_traits@_W@std@@V?$allocator@_W@2@@std@@@Z 000000018008c7d0 f   sysutils.obj
 0001:0008b8e0       ?set_attr@File@@SAXAEBV?$basic_string@_WU?$char_traits@_W@std@@V?$allocator@_W@2@@std@@K@Z 000000018008c8e0 f   sysutils.obj
 0001:0008b940       ?set_attr_nt@File@@SA_NAEBV?$basic_string@_WU?$char_traits@_W@std@@V?$allocator@_W@2@@std@@K@Z 000000018008c940 f   sysutils.obj
 0001:0008ba60       ?delete_file@File@@SAXAEBV?$basic_string@_WU?$char_traits@_W@std@@V?$allocator@_W@2@@std@@@Z 000000018008ca60 f   sysutils.obj
 0001:0008bac0       ?delete_file_nt@File@@SA_NAEBV?$basic_string@_WU?$char_traits@_W@std@@V?$allocator@_W@2@@std@@@Z 000000018008cac0 f   sysutils.obj
 0001:0008bbd0       ?create_dir_nt@File@@SA_NAEBV?$basic_string@_WU?$char_traits@_W@std@@V?$allocator@_W@2@@std@@@Z 000000018008cbd0 f   sysutils.obj
 0001:0008bce0       ?remove_dir@File@@SAXAEBV?$basic_string@_WU?$char_traits@_W@std@@V?$allocator@_W@2@@std@@@Z 000000018008cce0 f   sysutils.obj
 0001:0008be60       ?move_file_nt@File@@SA_NAEBV?$basic_string@_WU?$char_traits@_W@std@@V?$allocator@_W@2@@std@@0K@Z 000000018008ce60 f   sysutils.obj
 0001:0008c080       ?get_find_data_nt@File@@SA_NAEBV?$basic_string@_WU?$char_traits@_W@std@@V?$allocator@_W@2@@std@@AEAUFindData@@@Z 000000018008d080 f   sysutils.obj
 0001:0008c140       ??1Key@@QEAA@XZ            000000018008d140 f   sysutils.obj
 0001:0008c170       ?query_str_nt@Key@@QEAA_NAEAV?$basic_string@_WU?$char_traits@_W@std@@V?$allocator@_W@2@@std@@PEB_W@Z 000000018008d170 f   sysutils.obj
 0001:0008c280       ??1FileEnum@@QEAA@XZ       000000018008d280 f   sysutils.obj
 0001:0008c4a0       ?next_nt@FileEnum@@QEAA_NAEA_N@Z 000000018008d4a0 f   sysutils.obj
 0001:0008c9d0       ??0DirList@@QEAA@AEBV?$basic_string@_WU?$char_traits@_W@std@@V?$allocator@_W@2@@std@@@Z 000000018008d9d0 f   sysutils.obj
 0001:0008cc30       ??0TempFile@@QEAA@XZ       000000018008dc30 f   sysutils.obj
 0001:0008ce80       ??1TempFile@@QEAA@XZ       000000018008de80 f   sysutils.obj
 0001:0008cf00       ?format_file_time@@YA?AV?$basic_string@_WU?$char_traits@_W@std@@V?$allocator@_W@2@@std@@AEBU_FILETIME@@@Z 000000018008df00 f   sysutils.obj
 0001:0008d290       ?upcase@@YA?AV?$basic_string@_WU?$char_traits@_W@std@@V?$allocator@_W@2@@std@@AEBV12@@Z 000000018008e290 f   sysutils.obj
 0001:0008d340       ??6?$basic_ostream@_WU?$char_traits@_W@std@@@std@@QEAAAEAV01@J@Z 000000018008e340 f i sysutils.obj
 0001:0008d520       ??1?$_Alloc_construct_ptr@V?$allocator@U?$_List_node@UFindData@@PEAX@std@@@std@@@std@@QEAA@XZ 000000018008e520 f i sysutils.obj
 0001:0008d540       ?GetOEMCP@patched@@SAIXZ   000000018008e540 f i Patch7zCP.obj
 0001:0008d550       ?GetACP@patched@@SAIXZ     000000018008e550 f i Patch7zCP.obj
 0001:0008d560       ?MultiByteToWideChar@patched@@SAHIKPEBDHPEA_WH@Z 000000018008e560 f i Patch7zCP.obj
 0001:0008d590       ?WideCharToMultiByte@patched@@SAHIKPEB_WHPEADHPEBDPEAH@Z 000000018008e590 f i Patch7zCP.obj
 0001:0008d870       ?SetCP@Patch7zCP@@SAXII@Z  000000018008e870 f   Patch7zCP.obj
 0001:0008d950       ??0ParseException@SimpleXML@@QEAA@W4parseRet@1@PEBD@Z 000000018008e950 f i SimpleXML.obj
 0001:0008d960       ?skip_name@View@SimpleXML@@QEAADH@Z 000000018008e960 f i SimpleXML.obj
 0001:0008da60       ?find_tag_end@View@SimpleXML@@QEAADXZ 000000018008ea60 f i SimpleXML.obj
 0001:0008db30       ?parse@SimpleXML@@YA?AW4parseRet@1@PEBD_KPEBVIParseCallback@1@@Z 000000018008eb30 f   SimpleXML.obj
 0001:0008e78c       ??0bad_alloc@std@@QEAA@XZ  000000018008f78c f i libcpmt:xthrow.obj
 0001:0008e7ac       ??0length_error@std@@QEAA@AEBV01@@Z 000000018008f7ac f i libcpmt:xthrow.obj
 0001:0008e7e8       ??0length_error@std@@QEAA@PEBD@Z 000000018008f7e8 f i libcpmt:xthrow.obj
 0001:0008e830       ??0logic_error@std@@QEAA@AEBV01@@Z 000000018008f830 f i libcpmt:xthrow.obj
 0001:0008e86c       ??0out_of_range@std@@QEAA@AEBV01@@Z 000000018008f86c f i libcpmt:xthrow.obj
 0001:0008e8a8       ??0out_of_range@std@@QEAA@PEBD@Z 000000018008f8a8 f i libcpmt:xthrow.obj
 0001:0008e8f0       ??0runtime_error@std@@QEAA@PEBD@Z 000000018008f8f0 f i libcpmt:xthrow.obj
 0001:0008e938       ?__scrt_throw_std_bad_alloc@@YAXXZ 000000018008f938 f   LIBCMT:throw_bad_alloc.obj
 0001:0008e938       ?_Xbad_alloc@std@@YAXXZ    000000018008f938 f   libcpmt:xthrow.obj
 0001:0008e958       ?_Xlength_error@std@@YAXPEBD@Z 000000018008f958 f   libcpmt:xthrow.obj
 0001:0008e97c       ?_Xout_of_range@std@@YAXPEBD@Z 000000018008f97c f   libcpmt:xthrow.obj
 0001:0008e9a0       ?_Xruntime_error@std@@YAXPEBD@Z 000000018008f9a0 f   libcpmt:xthrow.obj
 0001:0008e9c4       ?_Ios_base_dtor@ios_base@std@@CAXPEAV12@@Z 000000018008f9c4 f   libcpmt:ios.obj
 0001:0008ea3c       ?_Tidy@ios_base@std@@AEAAXXZ 000000018008fa3c f i libcpmt:ios.obj
 0001:0008eac8       ?uncaught_exception@std@@YA_NXZ 000000018008fac8 f   libcpmt:uncaught_exception.obj
 0001:0008ead0       _Mbrtowc                   000000018008fad0 f   libcpmt:xmbtowc.obj
 0001:0008ec6c       ??4?$_Yarn@D@std@@QEAAAEAV01@PEBD@Z 000000018008fc6c f i libcpmt:locale0.obj
 0001:0008ece4       ??_E_Locimp@locale@std@@MEAAPEAXI@Z 000000018008fce4 f i libcpmt:locale0.obj
 0001:0008ece4       ??_G_Locimp@locale@std@@MEAAPEAXI@Z 000000018008fce4 f i libcpmt:locale0.obj
 0001:0008ed40       ?_Facet_Register@std@@YAXPEAV_Facet_base@1@@Z 000000018008fd40 f   libcpmt:locale0.obj
 0001:0008ed78       ?_Getgloballocale@locale@std@@CAPEAV_Locimp@12@XZ 000000018008fd78 f   libcpmt:locale0.obj
 0001:0008ed80       ?_Init@locale@std@@CAPEAV_Locimp@12@_N@Z 000000018008fd80 f   libcpmt:locale0.obj
 0001:0008ee2c       ?_Locimp_dtor@_Locimp@locale@std@@CAXPEAV123@@Z 000000018008fe2c f   libcpmt:locale0.obj
 0001:0008eea8       ?_Locinfo_ctor@_Locinfo@std@@SAXPEAV12@PEBD@Z 000000018008fea8 f   libcpmt:locale0.obj
 0001:0008ef14       ?_Locinfo_dtor@_Locinfo@std@@SAXPEAV12@@Z 000000018008ff14 f   libcpmt:locale0.obj
 0001:0008ef30       ?_New_Locimp@_Locimp@locale@std@@CAPEAV123@_N@Z 000000018008ff30 f   libcpmt:locale0.obj
 0001:0008efa0       ?_Setgloballocale@locale@std@@CAXPEAX@Z 000000018008ffa0 f   libcpmt:locale0.obj
 0001:0008efd4       _Deletegloballocale        000000018008ffd4 f   libcpmt:locale0.obj
 0001:0008f044       ?_Syserror_map@std@@YAPEBDH@Z 0000000180090044 f   libcpmt:syserror.obj
 0001:0008f06c       ?_Execute_once@std@@YAHAEAUonce_flag@1@P6AHPEAX1PEAPEAX@Z1@Z 000000018009006c f   libcpmt:xonce.obj
 0001:0008f074       ??0_Init_locks@std@@QEAA@XZ 0000000180090074 f   libcpmt:xlock.obj
 0001:0008f0b8       ??0_Lockit@std@@QEAA@H@Z   00000001800900b8 f   libcpmt:xlock.obj
 0001:0008f0f4       ??1_Init_locks@std@@QEAA@XZ 00000001800900f4 f   libcpmt:xlock.obj
 0001:0008f130       ??1_Lockit@std@@QEAA@XZ    0000000180090130 f   libcpmt:xlock.obj
 0001:0008f164       _Getcvt                    0000000180090164 f   libcpmt:xwctomb.obj
 0001:0008f1fc       _Wcrtomb                   00000001800901fc f   libcpmt:xwctomb.obj
 0001:0008f278       _Getctype                  0000000180090278 f   libcpmt:_tolower.obj
 0001:0008f338       _Towupper                  0000000180090338 f   libcpmt:xtowupper.obj
 0001:0008f3b0       _Towlower                  00000001800903b0 f   libcpmt:xtowlower.obj
 0001:0008f424       _Getwctype                 0000000180090424 f   libcpmt:xgetwctype.obj
 0001:0008f454       _Getwctypes                0000000180090454 f   libcpmt:xgetwctype.obj
 0001:0008f484       ?setw@std@@YA?AU?$_Smanip@_J@1@_J@Z 0000000180090484 f   libcpmt:iomanip.obj
 0001:0008f4a0       ?_Atexit@@YAXP6AXXZ@Z      00000001800904a0 f   libcpmt:iosptrs.obj
 0001:0008f894       __crtInitOnceExecuteOnce   0000000180090894 f   libcpmt:winapisupp.obj
 0001:0008f95c       __crtInitializeCriticalSectionEx 000000018009095c f   libcpmt:winapisupp.obj
 0001:0008f988       _Mtxdst                    0000000180090988 f   libcpmt:xmtx.obj
 0001:0008f990       _Mtxinit                   0000000180090990 f   libcpmt:xmtx.obj
 0001:0008f9a0       _Mtxlock                   00000001800909a0 f   libcpmt:xmtx.obj
 0001:0008f9a8       _Mtxunlock                 00000001800909a8 f   libcpmt:xmtx.obj
 0001:0008f9b0       __crtLCMapStringW          00000001800909b0 f   libcpmt:StlLCMapStringW.obj
 0001:0008fa0c       GetTableIndexFromLocaleName 0000000180090a0c f   libcpmt:winapinls.obj
 0001:0008fa9c       __crtDownlevelLocaleNameToLCID 0000000180090a9c f   libcpmt:winapinls.obj
 0001:0008fad0       __crtLCMapStringEx         0000000180090ad0 f   libcpmt:winapinls.obj
 0001:0008fb64       __wcsnicmp_ascii           0000000180090b64 f   libcpmt:winapinls.obj
 0001:0008fbe0       __security_check_cookie    0000000180090be0 f   LIBCMT:amdsecgs.obj
 0001:0008fc04       ??_V@YAXPEAX@Z             0000000180090c04 f   LIBCMT:delete_array.obj
 0001:0008fc04       ??3@YAXPEAX_K@Z            0000000180090c04 f   LIBCMT:delete_scalar_size.obj
 0001:0008fc0c       ??_M@YAXPEAX_K1P6AX0@Z@Z   0000000180090c0c f   LIBCMT:ehvecdtr.obj
 0001:0008fc78       ?__ArrayUnwind@@YAXPEAX_K1P6AX0@Z@Z 0000000180090c78 f   LIBCMT:ehvecdtr.obj
 0001:0008fcdc       ??2@YAPEAX_K@Z             0000000180090cdc f   LIBCMT:new_scalar.obj
 0001:0008fd18       ??_Etype_info@@UEAAPEAXI@Z 0000000180090d18 f i LIBCMT:std_type_info_static.obj
 0001:0008fd18       ??_Gtype_info@@UEAAPEAXI@Z 0000000180090d18 f i LIBCMT:std_type_info_static.obj
 0001:0008fd44       __scrt_acquire_startup_lock 0000000180090d44 f   LIBCMT:utility.obj
 0001:0008fd80       __scrt_dllmain_after_initialize_c 0000000180090d80 f   LIBCMT:utility.obj
 0001:0008fdb4       __scrt_dllmain_before_initialize_c 0000000180090db4 f   LIBCMT:utility.obj
 0001:0008fdcc       __scrt_dllmain_crt_thread_attach 0000000180090dcc f   LIBCMT:utility.obj
 0001:0008fdf4       __scrt_dllmain_crt_thread_detach 0000000180090df4 f   LIBCMT:utility.obj
 0001:0008fe0c       __scrt_dllmain_exception_filter 0000000180090e0c f   LIBCMT:utility.obj
 0001:0008fe6c       __scrt_dllmain_uninitialize_c 0000000180090e6c f   LIBCMT:utility.obj
 0001:0008fe9c       __scrt_dllmain_uninitialize_critical 0000000180090e9c f   LIBCMT:utility.obj
 0001:0008feb0       __scrt_initialize_crt      0000000180090eb0 f   LIBCMT:utility.obj
 0001:0008fefc       __scrt_initialize_onexit_tables 0000000180090efc f   LIBCMT:utility.obj
 0001:0008ff88       __scrt_is_nonwritable_in_current_image 0000000180090f88 f   LIBCMT:utility.obj
 0001:00090020       __scrt_release_startup_lock 0000000180091020 f   LIBCMT:utility.obj
 0001:00090044       __scrt_uninitialize_crt    0000000180091044 f   LIBCMT:utility.obj
 0001:00090070       _onexit                    0000000180091070 f   LIBCMT:utility.obj
 0001:000900ac       atexit                     00000001800910ac f   LIBCMT:utility.obj
 0001:000900c4       ??_U@YAPEAX_K@Z            00000001800910c4 f   LIBCMT:new_array.obj
 0001:000900cc       ?__scrt_initialize_type_info@@YAXXZ 00000001800910cc f   LIBCMT:tncleanup.obj
 0001:000900dc       ?__scrt_uninitialize_type_info@@YAXXZ 00000001800910dc f   LIBCMT:tncleanup.obj
 0001:000900e8       ??_L@YAXPEAX_K1P6AX0@Z2@Z  00000001800910e8 f   LIBCMT:ehvecctr.obj
 0001:00090478       _DllMainCRTStartup         0000000180091478 f   LIBCMT:dll_dllmain.obj
 0001:000904b8       __GSHandlerCheck           00000001800914b8 f   LIBCMT:gshandler.obj
 0001:000904d8       __GSHandlerCheckCommon     00000001800914d8 f   LIBCMT:gshandler.obj
 0001:00090534       __GSHandlerCheck_EH        0000000180091534 f   LIBCMT:gshandlereh.obj
 0001:000905d0       _alloca_probe              00000001800915d0 f   LIBCMT:chkstk.obj
 0001:000905d0       __chkstk                   00000001800915d0 f   LIBCMT:chkstk.obj
 0001:00090624       __raise_securityfailure    0000000180091624 f   LIBCMT:gs_report.obj
 0001:00090658       __report_gsfailure         0000000180091658 f   LIBCMT:gs_report.obj
 0001:0009072c       __report_rangecheckfailure 000000018009172c f   LIBCMT:gs_report.obj
 0001:00090740       __report_securityfailure   0000000180091740 f   LIBCMT:gs_report.obj
 0001:000908c0       ??3@YAXPEAX@Z              00000001800918c0 f   LIBCMT:delete_scalar.obj
 0001:000908c8       __isa_available_init       00000001800918c8 f   LIBCMT:cpu_disp.obj
 0001:00090a6c       ?length@charNode@@UEBAHXZ  0000000180091a6c f   libvcruntime:undname.obj
 0001:00090a6c       ?raw_length@charNode@@UEBAHXZ 0000000180091a6c f   libvcruntime:undname.obj
 0001:00090a6c       DllMain                    0000000180091a6c f   LIBCMT:dll_dllmain_stub.obj
 0001:00090a6c       _get_startup_argv_mode     0000000180091a6c f   LIBCMT:argv_mode.obj
 0001:00090a74       __scrt_is_ucrt_dll_in_use  0000000180091a74 f   LIBCMT:ucrt_detection.obj
 0001:00090a80       __crt_debugger_hook        0000000180091a80 f   LIBCMT:utility_desktop.obj
 0001:00090a88       __scrt_fastfail            0000000180091a88 f   LIBCMT:utility_desktop.obj
 0001:00090bd4       __security_init_cookie     0000000180091bd4 f   LIBCMT:gs_support.obj
 0001:00090c80       __local_stdio_scanf_options 0000000180091c80 f i LIBCMT:default_local_stdio_options.obj
 0001:00090c88       __scrt_initialize_default_local_stdio_options 0000000180091c88 f   LIBCMT:default_local_stdio_options.obj
 0001:00090ca4       __scrt_get_dyn_tls_init_callback 0000000180091ca4 f   LIBCMT:dyn_tls_init.obj
 0001:00090cac       _RTC_Initialize            0000000180091cac f   LIBCMT:initsect.obj
 0001:00090ce8       _RTC_Terminate             0000000180091ce8 f   LIBCMT:initsect.obj
 0001:00090d30       IsProcessorFeaturePresent  0000000180091d30 f   kernel32:KERNEL32.dll
 0001:00090d38       ??$_CallSETranslator@V__FrameHandler3@@@@YAHPEAUEHExceptionRecord@@PEA_KPEAU_CONTEXT@@PEAU_xDISPATCHER_CONTEXT@@PEBU_s_FuncInfo@@K1@Z 0000000180091d38 f i libvcruntime:risctrnsctrl.obj
 0001:00090d8c       ??$_CallSETranslator@V__FrameHandler4@@@@YAHPEAUEHExceptionRecord@@PEA_KPEAU_CONTEXT@@PEAU_xDISPATCHER_CONTEXT@@PEAUFuncInfo4@FH4@@K1@Z 0000000180091d8c f i libvcruntime:risctrnsctrl.obj
 0001:00090de0       ?CatchTryBlock@__FrameHandler3@@SAPEBU_s_TryBlockMapEntry@@PEBU_s_FuncInfo@@H@Z 0000000180091de0 f   libvcruntime:risctrnsctrl.obj
 0001:00090e34       ?DecompFuncInfo@FH4@@YA_JPEAEAEAUFuncInfo4@1@_KH_N@Z 0000000180091e34 f i libvcruntime:risctrnsctrl.obj
 0001:00090f58       ?ExecutionInCatch@__FrameHandler3@@SA_NPEAU_xDISPATCHER_CONTEXT@@PEBU_s_FuncInfo@@@Z 0000000180091f58 f   libvcruntime:risctrnsctrl.obj
 0001:00090f84       ?ExecutionInCatch@__FrameHandler4@@SA_NPEAU_xDISPATCHER_CONTEXT@@PEAUFuncInfo4@FH4@@@Z 0000000180091f84 f   libvcruntime:risctrnsctrl.obj
 0001:00090f8c       ?FrameUnwindToEmptyState@__FrameHandler3@@SAXPEA_KPEAU_xDISPATCHER_CONTEXT@@PEBU_s_FuncInfo@@@Z 0000000180091f8c f   libvcruntime:risctrnsctrl.obj
 0001:00090ff0       ?FrameUnwindToEmptyState@__FrameHandler4@@SAXPEA_KPEAU_xDISPATCHER_CONTEXT@@PEAUFuncInfo4@FH4@@@Z 0000000180091ff0 f   libvcruntime:risctrnsctrl.obj
 0001:00091024       ?GetEstablisherFrame@__FrameHandler3@@SAPEA_KPEA_KPEAU_xDISPATCHER_CONTEXT@@PEBU_s_FuncInfo@@0@Z 0000000180092024 f   libvcruntime:risctrnsctrl.obj
 0001:000910f0       ?GetEstablisherFrame@__FrameHandler4@@SAPEA_KPEA_KPEAU_xDISPATCHER_CONTEXT@@PEAUFuncInfo4@FH4@@0@Z 00000001800920f0 f   libvcruntime:risctrnsctrl.obj
 0001:00091114       ?GetRangeOfTrysToCheck@__FrameHandler3@@SA?AU?$pair@Viterator@TryBlockMap@__FrameHandler3@@V123@@std@@AEAVTryBlockMap@1@HPEAU_xDISPATCHER_CONTEXT@@PEBU_s_FuncInfo@@H@Z 0000000180092114 f   libvcruntime:risctrnsctrl.obj
 0001:00091254       ?GetRangeOfTrysToCheck@__FrameHandler4@@SA?AU?$pair@Viterator@TryBlockMap4@FH4@@V123@@std@@AEAVTryBlockMap4@FH4@@HPEAU_xDISPATCHER_CONTEXT@@PEAUFuncInfo4@5@H@Z 0000000180092254 f   libvcruntime:risctrnsctrl.obj
 0001:000913ac       ?UnwindNestedFrames@__FrameHandler3@@SAXPEA_KPEAUEHExceptionRecord@@PEAU_CONTEXT@@0PEAXPEBU_s_FuncInfo@@HHPEBU_s_HandlerType@@PEAU_xDISPATCHER_CONTEXT@@E@Z 00000001800923ac f   libvcruntime:risctrnsctrl.obj
 0001:000914b0       ?UnwindNestedFrames@__FrameHandler4@@SAXPEA_KPEAUEHExceptionRecord@@PEAU_CONTEXT@@0PEAXPEAUFuncInfo4@FH4@@HHPEAUHandlerType4@5@PEAU_xDISPATCHER_CONTEXT@@E@Z 00000001800924b0 f   libvcruntime:risctrnsctrl.obj
 0001:000915f0       ?setBuffer@TryBlockMap4@FH4@@QEAAXViterator@12@@Z 00000001800925f0 f i libvcruntime:risctrnsctrl.obj
 0001:000917b4       _CreateFrameInfo           00000001800927b4 f   libvcruntime:risctrnsctrl.obj
 0001:000917f0       _FindAndUnlinkFrame        00000001800927f0 f   libvcruntime:risctrnsctrl.obj
 0001:00091844       _GetImageBase              0000000180092844 f   libvcruntime:risctrnsctrl.obj
 0001:00091858       _GetThrowImageBase         0000000180092858 f   libvcruntime:risctrnsctrl.obj
 0001:0009186c       _SetImageBase              000000018009286c f   libvcruntime:risctrnsctrl.obj
 0001:00091884       _SetThrowImageBase         0000000180092884 f   libvcruntime:risctrnsctrl.obj
 0001:0009189c       __CxxFrameHandler3         000000018009289c f   libvcruntime:risctrnsctrl.obj
 0001:00091924       __CxxFrameHandler4         0000000180092924 f   libvcruntime:risctrnsctrl.obj
 0001:000919e4       __DestructExceptionObject  00000001800929e4 f   libvcruntime:ehhelpers.obj
 0001:00091a54       ?_CallMemberFunction0@@YAXQEAX0@Z 0000000180092a54 f i libvcruntime:ehhelpers.obj
 0001:00091a58       _IsExceptionObjectToBeDestroyed 0000000180092a58 f   libvcruntime:ehhelpers.obj
 0001:00091a88       __AdjustPointer            0000000180092a88 f   libvcruntime:ehhelpers.obj
 0001:00091aac       __FrameUnwindFilter        0000000180092aac f   libvcruntime:ehhelpers.obj
 0001:00091b14       __current_exception        0000000180092b14 f   libvcruntime:ehhelpers.obj
 0001:00091b28       __current_exception_context 0000000180092b28 f   libvcruntime:ehhelpers.obj
 0001:00091b3c       __std_terminate            0000000180092b3c f   libvcruntime:ehhelpers.obj
 0001:00091b48       __std_exception_copy       0000000180092b48 f   libvcruntime:std_exception.obj
 0001:00091bd8       __std_exception_destroy    0000000180092bd8 f   libvcruntime:std_exception.obj
 0001:00091c00       _get_purecall_handler      0000000180092c00 f   libvcruntime:purevirt.obj
 0001:00091c08       _purecall                  0000000180092c08 f   libvcruntime:purevirt.obj
 0001:00091c2c       __std_type_info_compare    0000000180092c2c f   libvcruntime:std_type_info.obj
 0001:00091c54       __std_type_info_destroy_list 0000000180092c54 f   libvcruntime:std_type_info.obj
 0001:00091c80       __std_type_info_name       0000000180092c80 f   libvcruntime:std_type_info.obj
 0001:00091d98       ??0__non_rtti_object@std@@QEAA@AEBV01@@Z 0000000180092d98 f i libvcruntime:rtti.obj
 0001:00091dd4       ??0bad_typeid@std@@QEAA@AEBV01@@Z 0000000180092dd4 f i libvcruntime:rtti.obj
 0001:00091e10       ?__construct_from_string_literal@__non_rtti_object@std@@SA?AV12@QEBD@Z 0000000180092e10 f i libvcruntime:rtti.obj
 0001:00091e28       ?__construct_from_string_literal@bad_typeid@std@@SA?AV12@QEBD@Z 0000000180092e28 f i libvcruntime:rtti.obj
 0001:00091e40       __RTtypeid                 0000000180092e40 f   libvcruntime:rtti.obj
 0001:00091ef0       wcschr                     0000000180092ef0 f   libvcruntime:wcschr.obj
 0001:00091f6c       wcsrchr                    0000000180092f6c f   libvcruntime:wcsrchr.obj
 0001:00092018       _CxxThrowException         0000000180093018 f   libvcruntime:throw.obj
 0001:000920b8       __uncaught_exception       00000001800930b8 f   libvcruntime:uncaught_exception.obj
 0001:000920f0       memcpy_repmovs             00000001800930f0 f   libvcruntime:memcpy.obj
 0001:00092110       memcpy                     0000000180093110 f   libvcruntime:memcpy.obj
 0001:00092110       memmove                    0000000180093110 f   libvcruntime:memcpy.obj
 0001:00092500       memset_repmovs             0000000180093500 f   libvcruntime:memset.obj
 0001:00092520       memset                     0000000180093520 f   libvcruntime:memset.obj
 0001:000926c0       memchr                     00000001800936c0 f   libvcruntime:memchr.obj
 0001:00092740       memcmp                     0000000180093740 f   libvcruntime:memcmp.obj
 0001:00092808       __C_specific_handler       0000000180093808 f   libvcruntime:riscchandler.obj
 0001:00092a14       __vcrt_initialize          0000000180093a14 f   libvcruntime:initialization.obj
 0001:00092a3c       __vcrt_thread_attach       0000000180093a3c f   libvcruntime:initialization.obj
 0001:00092a50       __vcrt_thread_detach       0000000180093a50 f   libvcruntime:initialization.obj
 0001:00092a64       __vcrt_uninitialize        0000000180093a64 f   libvcruntime:initialization.obj
 0001:00092a80       __vcrt_uninitialize_critical 0000000180093a80 f   libvcruntime:initialization.obj
 0001:00092a90       __vcrt_freefls             0000000180093a90 f   libvcruntime:per_thread_data.obj
 0001:00092ab0       __vcrt_freeptd             0000000180093ab0 f   libvcruntime:per_thread_data.obj
 0001:00092b00       __vcrt_getptd              0000000180093b00 f   libvcruntime:per_thread_data.obj
 0001:00092b1c       __vcrt_getptd_noexit       0000000180093b1c f   libvcruntime:per_thread_data.obj
 0001:00092bdc       __vcrt_getptd_noinit       0000000180093bdc f   libvcruntime:per_thread_data.obj
 0001:00092c2c       __vcrt_initialize_ptd      0000000180093c2c f   libvcruntime:per_thread_data.obj
 0001:00092c74       __vcrt_uninitialize_ptd    0000000180093c74 f   libvcruntime:per_thread_data.obj
 0001:00092c98       ?GetCurrentState@__FrameHandler3@@SAHPEA_KPEAU_xDISPATCHER_CONTEXT@@PEBU_s_FuncInfo@@@Z 0000000180093c98 f   libvcruntime:ehstate.obj
 0001:00092cc0       ?GetUnwindTryBlock@__FrameHandler3@@SAHPEA_KPEAU_xDISPATCHER_CONTEXT@@PEBU_s_FuncInfo@@@Z 0000000180093cc0 f   libvcruntime:ehstate.obj
 0001:00092cec       ?SetState@__FrameHandler3@@SAXPEA_KPEBU_s_FuncInfo@@H@Z 0000000180093cec f   libvcruntime:ehstate.obj
 0001:00092cf8       ?SetUnwindTryBlock@__FrameHandler3@@SAXPEA_KPEAU_xDISPATCHER_CONTEXT@@PEBU_s_FuncInfo@@H@Z 0000000180093cf8 f   libvcruntime:ehstate.obj
 0001:00092d34       ?StateFromControlPc@__FrameHandler3@@SAHPEBU_s_FuncInfo@@PEAU_xDISPATCHER_CONTEXT@@@Z 0000000180093d34 f   libvcruntime:ehstate.obj
 0001:00092d3c       ?StateFromControlPc@__FrameHandler4@@SAHPEAUFuncInfo4@FH4@@PEAU_xDISPATCHER_CONTEXT@@@Z 0000000180093d3c f   libvcruntime:ehstate.obj
 0001:00092d44       ?StateFromIp@__FrameHandler3@@SAHPEBU_s_FuncInfo@@PEAU_xDISPATCHER_CONTEXT@@_K@Z 0000000180093d44 f   libvcruntime:ehstate.obj
 0001:00092dac       ?StateFromIp@__FrameHandler4@@SAHPEAUFuncInfo4@FH4@@PEAU_xDISPATCHER_CONTEXT@@_K@Z 0000000180093dac f   libvcruntime:ehstate.obj
 0001:000944d8       ??$TypeMatchHelper@V__FrameHandler3@@@@YAHPEBU_s_HandlerType@@PEBU_s_CatchableType@@PEBU_s_ThrowInfo@@@Z 00000001800954d8 f i libvcruntime:frame.obj
 0001:0009461c       ??$TypeMatchHelper@V__FrameHandler4@@@@YAHPEAUHandlerType4@FH4@@PEBU_s_CatchableType@@PEBU_s_ThrowInfo@@@Z 000000018009561c f i libvcruntime:frame.obj
 0001:00094764       ??$__InternalCxxFrameHandler@V__FrameHandler3@@@@YA?AW4_EXCEPTION_DISPOSITION@@PEAUEHExceptionRecord@@PEA_KPEAU_CONTEXT@@PEAU_xDISPATCHER_CONTEXT@@PEBU_s_FuncInfo@@H1E@Z 0000000180095764 f i libvcruntime:frame.obj
 0001:000949ac       ??$__InternalCxxFrameHandler@V__FrameHandler4@@@@YA?AW4_EXCEPTION_DISPOSITION@@PEAUEHExceptionRecord@@PEA_KPEAU_CONTEXT@@PEAU_xDISPATCHER_CONTEXT@@PEAUFuncInfo4@FH4@@H1E@Z 00000001800959ac f i libvcruntime:frame.obj
 0001:00094c4c       ??0HandlerMap4@FH4@@QEAA@PEBUTryBlockMapEntry4@1@_KH@Z 0000000180095c4c f i libvcruntime:frame.obj
 0001:00094cc8       ??0TryBlockMap4@FH4@@QEAA@PEBUFuncInfo4@1@_K@Z 0000000180095cc8 f i libvcruntime:frame.obj
 0001:00094da0       ??0bad_exception@std@@QEAA@AEBV01@@Z 0000000180095da0 f i libvcruntime:frame.obj
 0001:00094ddc       ??0bad_exception@std@@QEAA@XZ 0000000180095ddc f i libvcruntime:frame.obj
 0001:00094dfc       ?CxxCallCatchBlock@__FrameHandler3@@SAPEAXPEAU_EXCEPTION_RECORD@@@Z 0000000180095dfc f   libvcruntime:frame.obj
 0001:00094fe8       ?CxxCallCatchBlock@__FrameHandler4@@SAPEAXPEAU_EXCEPTION_RECORD@@@Z 0000000180095fe8 f   libvcruntime:frame.obj
 0001:00095238       ?DecompHandler@HandlerMap4@FH4@@AEAAXXZ 0000000180096238 f i libvcruntime:frame.obj
 0001:00095478       ?FrameUnwindToState@__FrameHandler3@@SAXPEA_KPEAU_xDISPATCHER_CONTEXT@@PEBU_s_FuncInfo@@H@Z 0000000180096478 f   libvcruntime:frame.obj
 0001:00095604       ?FrameUnwindToState@__FrameHandler4@@SAXPEA_KPEAU_xDISPATCHER_CONTEXT@@PEAUFuncInfo4@FH4@@H@Z 0000000180096604 f   libvcruntime:frame.obj
 0001:000958d8       ?GetHandlerSearchState@__FrameHandler3@@SAHPEA_KPEAU_xDISPATCHER_CONTEXT@@PEBU_s_FuncInfo@@@Z 00000001800968d8 f i libvcruntime:frame.obj
 0001:00095ae8       ?ReadEntry@UWMap4@FH4@@AEAAXPEAPEAE@Z 0000000180096ae8 f i libvcruntime:frame.obj
 0001:00095b88       ?_CallMemberFunction1@@YAXQEAX00@Z 0000000180096b88 f i libvcruntime:frame.obj
 0001:00095b94       ?_CallMemberFunction2@@YAXQEAX00H@Z 0000000180096b94 f i libvcruntime:frame.obj
 0001:00095ba4       ?getStartStop@UWMap4@FH4@@QEAAXHHAEAViterator@12@0@Z 0000000180096ba4 f i libvcruntime:frame.obj
 0001:00095c74       ?getStateFromIterators@UWMap4@FH4@@SAHAEBViterator@12@H0H0@Z 0000000180096c74 f i libvcruntime:frame.obj
 0001:00095d3c       ??$?0$00@DName@@QEAA@PEBDU?$StringLifeSelector@$00@@@Z 0000000180096d3c f i libvcruntime:undname.obj
 0001:00095d7c       ??$?0$01@DName@@QEAA@PEBDU?$StringLifeSelector@$01@@@Z 0000000180096d7c f i libvcruntime:undname.obj
 0001:00095d7c       ??$?0$0A@@DName@@QEAA@PEBDU?$StringLifeSelector@$0A@@@@Z 0000000180096d7c f i libvcruntime:undname.obj
 0001:00095dbc       ??$?0$0A@@pcharNode@@QEAA@PEBDHU?$StringLifeSelector@$0A@@@@Z 0000000180096dbc f i libvcruntime:undname.obj
 0001:00095dbc       ??$?0$01@pcharNode@@QEAA@PEBDHU?$StringLifeSelector@$01@@@Z 0000000180096dbc f i libvcruntime:undname.obj
 0001:00095e30       ??$append@VDNameNode@@@DName@@AEAAXPEBVDNameNode@@@Z 0000000180096e30 f i libvcruntime:undname.obj
 0001:00095e30       ??$append@VDNameStatusNode@@@DName@@AEAAXPEBVDNameStatusNode@@@Z 0000000180096e30 f i libvcruntime:undname.obj
 0001:00095e30       ??$append@VpcharNode@@@DName@@AEAAXPEBVpcharNode@@@Z 0000000180096e30 f i libvcruntime:undname.obj
 0001:00095e30       ??$append@VcharNode@@@DName@@AEAAXPEBVcharNode@@@Z 0000000180096e30 f i libvcruntime:undname.obj
 0001:00095e94       ??$doPchar@$00@DName@@AEAAXPEBDH@Z 0000000180096e94 f i libvcruntime:undname.obj
 0001:00095f2c       ??$doPchar@$01@DName@@AEAAXPEBDH@Z 0000000180096f2c f i libvcruntime:undname.obj
 0001:00095f2c       ??$doPchar@$0A@@DName@@AEAAXPEBDH@Z 0000000180096f2c f i libvcruntime:undname.obj
 0001:00095fc4       ??0DName@@QEAA@AEAPEBDD@Z  0000000180096fc4 f   libvcruntime:undname.obj
 0001:00096074       ??0DName@@QEAA@AEBUStringLiteral@@@Z 0000000180097074 f   libvcruntime:undname.obj
 0001:000960a0       ??0DName@@QEAA@PEAV0@@Z    00000001800970a0 f   libvcruntime:undname.obj
 0001:00096124       ??0DName@@QEAA@_J@Z        0000000180097124 f   libvcruntime:undname.obj
 0001:000961cc       ??0DName@@QEAA@_K@Z        00000001800971cc f   libvcruntime:undname.obj
 0001:0009625c       ??2@YAPEAX_KAEAV_HeapManager@@H@Z 000000018009725c f   libvcruntime:undname.obj
 0001:00096288       ??AReplicator@@QEBA?AVDName@@H@Z 0000000180097288 f   libvcruntime:undname.obj
 0001:000962c8       ??HDName@@QEBA?AV0@AEBUStringLiteral@@@Z 00000001800972c8 f   libvcruntime:undname.obj
 0001:000962f4       ??HDName@@QEBA?AV0@AEBV0@@Z 00000001800972f4 f   libvcruntime:undname.obj
 0001:00096320       ??HDName@@QEBA?AV0@D@Z     0000000180097320 f   libvcruntime:undname.obj
 0001:0009634c       ??HDName@@QEBA?AV0@W4DNameStatus@@@Z 000000018009734c f   libvcruntime:undname.obj
 0001:00096378       ??YDName@@QEAAAEAV0@AEBUStringLiteral@@@Z 0000000180097378 f   libvcruntime:undname.obj
 0001:000963f8       ??YDName@@QEAAAEAV0@AEBV0@@Z 00000001800973f8 f   libvcruntime:undname.obj
 0001:0009647c       ??YDName@@QEAAAEAV0@D@Z    000000018009747c f   libvcruntime:undname.obj
 0001:000964e8       ??YDName@@QEAAAEAV0@W4DNameStatus@@@Z 00000001800974e8 f   libvcruntime:undname.obj
 0001:00096554       ??YReplicator@@QEAAAEAV0@AEBVDName@@@Z 0000000180097554 f   libvcruntime:undname.obj
 0001:000965bc       ?UScore@UnDecorator@@SA?AUStringLiteral@@W4Tokens@@@Z 00000001800975bc f   libvcruntime:undname.obj
 0001:00096608       ?composeDeclaration@UnDecorator@@CA?AVDName@@AEBV2@@Z 0000000180097608 f i libvcruntime:undname.obj
 0001:0009748c       ?doPchar@DName@@AEAAXD@Z   000000018009848c f   libvcruntime:undname.obj
 0001:000974dc       ?getArgumentList@UnDecorator@@CA?AVDName@@XZ 00000001800984dc f   libvcruntime:undname.obj
 0001:00097608       ?getArgumentTypes@UnDecorator@@CA?AVDName@@XZ 0000000180098608 f   libvcruntime:undname.obj
 0001:00097764       ?getArrayType@UnDecorator@@CA?AVDName@@AEBV2@@Z 0000000180098764 f i libvcruntime:undname.obj
 0001:000979c0       ?getBasedType@UnDecorator@@CA?AVDName@@XZ 00000001800989c0 f   libvcruntime:undname.obj
 0001:00097ab8       ?getBasicDataType@UnDecorator@@CA?AVDName@@AEBV2@@Z 0000000180098ab8 f   libvcruntime:undname.obj
 0001:00098020       ?getCallingConvention@UnDecorator@@CA?AVDName@@XZ 0000000180099020 f   libvcruntime:undname.obj
 0001:00098160       ?getDataIndirectType@UnDecorator@@CA?AVDName@@AEBV2@W4IndirectionKind@@0H@Z 0000000180099160 f   libvcruntime:undname.obj
 0001:000989f8       ?getDataType@UnDecorator@@CA?AVDName@@PEAV2@@Z 00000001800999f8 f   libvcruntime:undname.obj
 0001:00098b0c       ?getDecoratedName@UnDecorator@@CA?AVDName@@XZ 0000000180099b0c f   libvcruntime:undname.obj
 0001:00098dfc       ?getDimension@UnDecorator@@CA?AVDName@@_N@Z 0000000180099dfc f   libvcruntime:undname.obj
 0001:00098f78       ?getDispatchTarget@UnDecorator@@CA?AVDName@@XZ 0000000180099f78 f   libvcruntime:undname.obj
 0001:00098fc4       ?getECSUDataType@UnDecorator@@CA?AVDName@@XZ 0000000180099fc4 f   libvcruntime:undname.obj
 0001:0009919c       ?getEnumType@UnDecorator@@CA?AVDName@@XZ 000000018009a19c f i libvcruntime:undname.obj
 0001:000992c4       ?getExtendedDataIndirectType@UnDecorator@@CA?AVDName@@AEAW4IndirectionKind@@AEA_NH@Z 000000018009a2c4 f   libvcruntime:undname.obj
 0001:000994b0       ?getExternalDataType@UnDecorator@@CA?AVDName@@AEBV2@@Z 000000018009a4b0 f i libvcruntime:undname.obj
 0001:00099570       ?getFunctionIndirectType@UnDecorator@@CA?AVDName@@AEBV2@@Z 000000018009a570 f   libvcruntime:undname.obj
 0001:00099aa4       ?getLastChar@DNameStatusNode@@UEBADXZ 000000018009aaa4 f i libvcruntime:undname.obj
 0001:00099ab0       ?getLastChar@charNode@@UEBADXZ 000000018009aab0 f i libvcruntime:undname.obj
 0001:00099ab4       ?getLastChar@pDNameNode@@UEBADXZ 000000018009aab4 f i libvcruntime:undname.obj
 0001:00099ae0       ?getLastChar@pairNode@@UEBADXZ 000000018009aae0 f i libvcruntime:undname.obj
 0001:00099b18       ?getLastChar@pcharNode@@UEBADXZ 000000018009ab18 f i libvcruntime:undname.obj
 0001:00099b2c       ?getLexicalFrame@UnDecorator@@CA?AVDName@@XZ 000000018009ab2c f i libvcruntime:undname.obj
 0001:00099b90       ?getMemoryWithBuffer@_HeapManager@@QEAAPEAX_K@Z 000000018009ab90 f   libvcruntime:undname.obj
 0001:00099c24       ?getNoexcept@UnDecorator@@CA?AVDName@@XZ 000000018009ac24 f   libvcruntime:undname.obj
 0001:00099c88       ?getNumberOfDimensions@UnDecorator@@CAHXZ 000000018009ac88 f   libvcruntime:undname.obj
 0001:00099cfc       ?getOperatorName@UnDecorator@@CA?AVDName@@_NPEA_N@Z 000000018009acfc f i libvcruntime:undname.obj
 0001:0009a498       ?getPrimaryDataType@UnDecorator@@CA?AVDName@@AEBV2@@Z 000000018009b498 f   libvcruntime:undname.obj
 0001:0009a728       ?getPtrRefDataType@UnDecorator@@CA?AVDName@@AEBV2@H@Z 000000018009b728 f   libvcruntime:undname.obj
 0001:0009a8f4       ?getPtrRefType@UnDecorator@@CA?AVDName@@AEBV2@0W4IndirectionKind@@@Z 000000018009b8f4 f   libvcruntime:undname.obj
 0001:0009aa44       ?getRestrictionSpec@UnDecorator@@CA?AVDName@@XZ 000000018009ba44 f   libvcruntime:undname.obj
 0001:0009abd4       ?getReturnType@UnDecorator@@CA?AVDName@@PEAV2@@Z 000000018009bbd4 f   libvcruntime:undname.obj
 0001:0009ac08       ?getScope@UnDecorator@@CA?AVDName@@XZ 000000018009bc08 f   libvcruntime:undname.obj
 0001:0009b0bc       ?getScopedName@UnDecorator@@CA?AVDName@@XZ 000000018009c0bc f   libvcruntime:undname.obj
 0001:0009b1f8       ?getSignedDimension@UnDecorator@@CA?AVDName@@XZ 000000018009c1f8 f   libvcruntime:undname.obj
 0001:0009b280       ?getString@DName@@QEBAPEADPEADH@Z 000000018009c280 f i libvcruntime:undname.obj
 0001:0009b314       ?getString@DNameStatusNode@@UEBAPEADPEAD0@Z 000000018009c314 f i libvcruntime:undname.obj
 0001:0009b35c       ?getString@charNode@@UEBAPEADPEAD0@Z 000000018009c35c f i libvcruntime:undname.obj
 0001:0009b370       ?getString@pDNameNode@@UEBAPEADPEAD0@Z 000000018009c370 f i libvcruntime:undname.obj
 0001:0009b3a0       ?getString@pairNode@@UEBAPEADPEAD0@Z 000000018009c3a0 f i libvcruntime:undname.obj
 0001:0009b3ec       ?getString@pcharNode@@UEBAPEADPEAD0@Z 000000018009c3ec f i libvcruntime:undname.obj
 0001:0009b424       ?getStringEncoding@UnDecorator@@CA?AVDName@@W4PrefixKind@@H@Z 000000018009c424 f   libvcruntime:undname.obj
 0001:0009b508       ?getSymbolName@UnDecorator@@CA?AVDName@@XZ 000000018009c508 f i libvcruntime:undname.obj
 0001:0009b554       ?getTemplateArgumentList@UnDecorator@@CA?AVDName@@XZ 000000018009c554 f   libvcruntime:undname.obj
 0001:0009b72c       ?getTemplateName@UnDecorator@@CA?AVDName@@_N@Z 000000018009c72c f   libvcruntime:undname.obj
 0001:0009b8f0       ?getTemplateNonTypeArgument@UnDecorator@@CA?AVDName@@XZ 000000018009c8f0 f   libvcruntime:undname.obj
 0001:0009bce8       ?getTemplateTypeArgument@UnDecorator@@CA?AVDName@@XZ 000000018009cce8 f   libvcruntime:undname.obj
 0001:0009be50       ?getThrowTypes@UnDecorator@@CA?AVDName@@XZ 000000018009ce50 f   libvcruntime:undname.obj
 0001:0009be74       ?getTypeEncoding@UnDecorator@@CAHXZ 000000018009ce74 f i libvcruntime:undname.obj
 0001:0009c1e8       ?getUndecoratedName@UnDecorator@@QEAAPEADPEADH@Z 000000018009d1e8 f i libvcruntime:undname.obj
 0001:0009c2f8       ?getVCallThunkType@UnDecorator@@CA?AVDName@@XZ 000000018009d2f8 f i libvcruntime:undname.obj
 0001:0009c370       ?getVdispMapType@UnDecorator@@CA?AVDName@@AEBV2@@Z 000000018009d370 f i libvcruntime:undname.obj
 0001:0009c3ec       ?getVfTableType@UnDecorator@@CA?AVDName@@AEBV2@@Z 000000018009d3ec f i libvcruntime:undname.obj
 0001:0009c60c       ?getZName@UnDecorator@@CA?AVDName@@_N0@Z 000000018009d60c f   libvcruntime:undname.obj
 0001:0009c8e0       ?length@DNameStatusNode@@UEBAHXZ 000000018009d8e0 f i libvcruntime:undname.obj
 0001:0009c8e0       ?raw_length@DNameStatusNode@@UEBAHXZ 000000018009d8e0 f i libvcruntime:undname.obj
 0001:0009c8e4       ?length@pDNameNode@@UEBAHXZ 000000018009d8e4 f i libvcruntime:undname.obj
 0001:0009c90c       ?length@pairNode@@UEBAHXZ  000000018009d90c f i libvcruntime:undname.obj
 0001:0009c960       ?length@pcharNode@@UEBAHXZ 000000018009d960 f i libvcruntime:undname.obj
 0001:0009c960       ?raw_length@pcharNode@@UEBAHXZ 000000018009d960 f i libvcruntime:undname.obj
 0001:0009c964       ?parseDecoratedName@UnDecorator@@CA?AVDName@@XZ 000000018009d964 f   libvcruntime:undname.obj
 0001:0009ca78       ?raw_length@pDNameNode@@UEBAHXZ 000000018009da78 f i libvcruntime:undname.obj
 0001:0009ca7c       ?raw_length@pairNode@@UEBAHXZ 000000018009da7c f i libvcruntime:undname.obj
 0001:0009ca80       __unDName                  000000018009da80 f   libvcruntime:undname.obj
 0001:0009caa8       __unDNameEx                000000018009daa8 f   libvcruntime:undname.obj
 0001:0009cbf0       _NLG_Notify                000000018009dbf0 f   libvcruntime:notify.obj
 0001:0009cc10       __NLG_Dispatch2            000000018009dc10 f   libvcruntime:notify.obj
 0001:0009cc20       __NLG_Return2              000000018009dc20 f   libvcruntime:notify.obj
 0001:0009cc24       __except_validate_context_record 000000018009dc24 f   libvcruntime:jbcxrval.obj
 0001:0009cc5c       __vcrt_initialize_locks    000000018009dc5c f   libvcruntime:locks.obj
 0001:0009cc90       __vcrt_lock                000000018009dc90 f   libvcruntime:locks.obj
 0001:0009ccac       __vcrt_uninitialize_locks  000000018009dcac f   libvcruntime:locks.obj
 0001:0009cce4       __vcrt_unlock              000000018009dce4 f   libvcruntime:locks.obj
 0001:0009ce5c       __vcrt_FlsAlloc            000000018009de5c f   libvcruntime:winapi_downlevel.obj
 0001:0009cea4       __vcrt_FlsFree             000000018009dea4 f   libvcruntime:winapi_downlevel.obj
 0001:0009ceec       __vcrt_FlsGetValue         000000018009deec f   libvcruntime:winapi_downlevel.obj
 0001:0009cf34       __vcrt_FlsSetValue         000000018009df34 f   libvcruntime:winapi_downlevel.obj
 0001:0009cf88       __vcrt_InitializeCriticalSectionEx 000000018009df88 f   libvcruntime:winapi_downlevel.obj
 0001:0009d000       _CallSettingFrame          000000018009e000 f   libvcruntime:handlers.obj
 0001:0009d050       _CallSettingFrame_LookupContinuationIndex 000000018009e050 f   libvcruntime:handlers.obj
 0001:0009d080       _CallSettingFrame_NotifyContinuationAddr 000000018009e080 f   libvcruntime:handlers.obj
 0001:0009d0b0       _CallSettingFrameEncoded   000000018009e0b0 f   libvcruntime:handlers.obj
 0001:0009d0f8       __acrt_call_reportfault    000000018009e0f8 f   libucrt:invalid_parameter.obj
 0001:0009d254       __acrt_initialize_invalid_parameter_handler 000000018009e254 f   libucrt:invalid_parameter.obj
 0001:0009d25c       _invalid_parameter         000000018009e25c f   libucrt:invalid_parameter.obj
 0001:0009d30c       _invalid_parameter_noinfo  000000018009e30c f   libucrt:invalid_parameter.obj
 0001:0009d32c       _invalid_parameter_noinfo_noreturn 000000018009e32c f   libucrt:invalid_parameter.obj
 0001:0009d35c       _invoke_watson             000000018009e35c f   libucrt:invalid_parameter.obj
 0001:0009d5c0       _i64tow                    000000018009e5c0 f   libucrt:xtoa.obj
 0001:0009d5f4       _itow_s                    000000018009e5f4 f   libucrt:xtoa.obj
 0001:0009d614       _ui64tow                   000000018009e614 f   libucrt:xtoa.obj
 0001:0009d638       wcscpy_s                   000000018009e638 f   libucrt:wcscpy_s.obj
 0001:0009d6a0       ??0_LocaleUpdate@@QEAA@QEAU__crt_locale_pointers@@@Z 000000018009e6a0 f i libucrt:wcsicmp.obj
 0001:0009d73c       ??1_LocaleUpdate@@QEAA@XZ  000000018009e73c f i libucrt:wcsicmp.obj
 0001:0009d750       __ascii_wcsicmp            000000018009e750 f   libucrt:wcsicmp.obj
 0001:0009d790       _wcsicmp                   000000018009e790 f   libucrt:wcsicmp.obj
 0001:0009d7d8       _wcsicmp_l                 000000018009e7d8 f   libucrt:wcsicmp.obj
 0001:0009dacc       ??$ensure_buffer_is_big_enough@D@formatting_buffer@__crt_stdio_output@@QEAA_N_K@Z 000000018009eacc f i libucrt:output.obj
 0001:0009db74       ??$type_case_integer_parse_into_buffer@I@?$output_processor@DV?$string_output_adapter@D@__crt_stdio_output@@V?$format_validation_base@DV?$string_output_adapter@D@__crt_stdio_output@@@2@@__crt_stdio_output@@AEAAXII_N@Z 000000018009eb74 f i libucrt:output.obj
 0001:0009dbfc       ??$type_case_integer_parse_into_buffer@_K@?$output_processor@DV?$string_output_adapter@D@__crt_stdio_output@@V?$format_validation_base@DV?$string_output_adapter@D@__crt_stdio_output@@@2@@__crt_stdio_output@@AEAAX_KI_N@Z 000000018009ebfc f i libucrt:output.obj
 0001:0009dc8c       ??$write_multiple_characters@V?$string_output_adapter@D@__crt_stdio_output@@D@__crt_stdio_output@@YAXAEBV?$string_output_adapter@D@0@DHQEAH@Z 000000018009ec8c f i libucrt:output.obj
 0001:0009dd04       ?crop_zeroes@__crt_stdio_output@@YAXPEADQEAU__crt_locale_pointers@@@Z 000000018009ed04 f i libucrt:output.obj
 0001:0009dd70       ?parse_int_from_format_string@?$output_processor@DV?$string_output_adapter@D@__crt_stdio_output@@V?$format_validation_base@DV?$string_output_adapter@D@__crt_stdio_output@@@2@@__crt_stdio_output@@AEAA_NQEAH@Z 000000018009ed70 f i libucrt:output.obj
 0001:0009de14       ?process@?$output_processor@DV?$string_output_adapter@D@__crt_stdio_output@@V?$format_validation_base@DV?$string_output_adapter@D@__crt_stdio_output@@@2@@__crt_stdio_output@@QEAAHXZ 000000018009ee14 f i libucrt:output.obj
 0001:0009e02c       ?state_case_normal@?$output_processor@DV?$string_output_adapter@D@__crt_stdio_output@@V?$format_validation_base@DV?$string_output_adapter@D@__crt_stdio_output@@@2@@__crt_stdio_output@@AEAA_NXZ 000000018009f02c f i libucrt:output.obj
 0001:0009e0a0       ?state_case_normal_tchar@?$output_processor@DV?$string_output_adapter@D@__crt_stdio_output@@V?$format_validation_base@DV?$string_output_adapter@D@__crt_stdio_output@@@2@@__crt_stdio_output@@AEAA_ND@Z 000000018009f0a0 f i libucrt:output.obj
 0001:0009e148       ?state_case_size@?$output_processor@DV?$string_output_adapter@D@__crt_stdio_output@@V?$format_validation_base@DV?$string_output_adapter@D@__crt_stdio_output@@@2@@__crt_stdio_output@@AEAA_NXZ 000000018009f148 f i libucrt:output.obj
 0001:0009e2bc       ?state_case_type@?$output_processor@DV?$string_output_adapter@D@__crt_stdio_output@@V?$format_validation_base@DV?$string_output_adapter@D@__crt_stdio_output@@@2@@__crt_stdio_output@@AEAA_NXZ 000000018009f2bc f i libucrt:output.obj
 0001:0009e524       ?type_case_Z@?$output_processor@DV?$string_output_adapter@D@__crt_stdio_output@@V?$format_validation_base@DV?$string_output_adapter@D@__crt_stdio_output@@@2@@__crt_stdio_output@@AEAA_NXZ 000000018009f524 f i libucrt:output.obj
 0001:0009e598       ?type_case_a@?$output_processor@DV?$string_output_adapter@D@__crt_stdio_output@@V?$format_validation_base@DV?$string_output_adapter@D@__crt_stdio_output@@@2@@__crt_stdio_output@@AEAA_NXZ 000000018009f598 f i libucrt:output.obj
 0001:0009e7b0       ?type_case_c_tchar@?$output_processor@DV?$string_output_adapter@D@__crt_stdio_output@@V?$format_validation_base@DV?$string_output_adapter@D@__crt_stdio_output@@@2@@__crt_stdio_output@@AEAA_ND@Z 000000018009f7b0 f i libucrt:output.obj
 0001:0009e86c       ?type_case_integer@?$output_processor@DV?$string_output_adapter@D@__crt_stdio_output@@V?$format_validation_base@DV?$string_output_adapter@D@__crt_stdio_output@@@2@@__crt_stdio_output@@AEAA_NI_N@Z 000000018009f86c f i libucrt:output.obj
 0001:0009ea34       ?type_case_n@?$output_processor@DV?$string_output_adapter@D@__crt_stdio_output@@V?$format_validation_base@DV?$string_output_adapter@D@__crt_stdio_output@@@2@@__crt_stdio_output@@AEAA_NXZ 000000018009fa34 f i libucrt:output.obj
 0001:0009eb10       ?type_case_s@?$output_processor@DV?$string_output_adapter@D@__crt_stdio_output@@V?$format_validation_base@DV?$string_output_adapter@D@__crt_stdio_output@@@2@@__crt_stdio_output@@AEAA_NXZ 000000018009fb10 f i libucrt:output.obj
 0001:0009eba8       ?write_stored_string_tchar@?$output_processor@DV?$string_output_adapter@D@__crt_stdio_output@@V?$format_validation_base@DV?$string_output_adapter@D@__crt_stdio_output@@@2@@__crt_stdio_output@@AEAA_ND@Z 000000018009fba8 f i libucrt:output.obj
 0001:0009ec80       ?write_string@?$string_output_adapter@D@__crt_stdio_output@@QEBAXQEBDHQEAHAEAV__crt_deferred_errno_cache@@@Z 000000018009fc80 f i libucrt:output.obj
 0001:0009ed24       __stdio_common_vsprintf_s  000000018009fd24 f   libucrt:output.obj
 0001:0009ed88       frexp                      000000018009fd88 f   libucrt:frexp.obj
 0001:0009ef20       strcspn                    000000018009ff20 f   libucrt:strcspn.obj
 0001:0009f2e4       localeconv                 00000001800a02e4 f   libucrt:localeconv.obj
 0001:0009f318       terminate                  00000001800a0318 f   libucrt:terminate.obj
 0001:0009f338       free                       00000001800a0338 f   libucrt:free.obj
 0001:0009f34c       calloc                     00000001800a034c f   libucrt:calloc.obj
 0001:0009f354       ??$is_overflow_condition@_K@__crt_strtox@@YA_NI_K@Z 00000001800a0354 f i libucrt:strtox.obj
 0001:0009f384       ??$parse_integer@KV?$c_string_character_source@D@__crt_strtox@@@__crt_strtox@@YAKQEAU__crt_locale_pointers@@V?$c_string_character_source@D@0@H_N@Z 00000001800a0384 f i libucrt:strtox.obj
 0001:0009f68c       ??$parse_integer@KV?$c_string_character_source@_W@__crt_strtox@@@__crt_strtox@@YAKQEAU__crt_locale_pointers@@V?$c_string_character_source@_W@0@H_N@Z 00000001800a068c f i libucrt:strtox.obj
 0001:0009fd34       ??$parse_integer@_KV?$c_string_character_source@_W@__crt_strtox@@@__crt_strtox@@YA_KQEAU__crt_locale_pointers@@V?$c_string_character_source@_W@0@H_N@Z 00000001800a0d34 f i libucrt:strtox.obj
 0001:000a048c       _ischartype_l              00000001800a148c f i libucrt:strtox.obj
 0001:000a0504       _wcstoui64                 00000001800a1504 f   libucrt:strtox.obj
 0001:000a0530       strtol                     00000001800a1530 f   libucrt:strtox.obj
 0001:000a055c       strtoul                    00000001800a155c f   libucrt:strtox.obj
 0001:000a0588       _tolower_l                 00000001800a1588 f   libucrt:tolower_toupper.obj
 0001:000a06c4       tolower                    00000001800a16c4 f   libucrt:tolower_toupper.obj
 0001:000a06f0       _wtoi                      00000001800a16f0 f   libucrt:atox.obj
 0001:000a06f0       _wtol                      00000001800a16f0 f   libucrt:atox.obj
 0001:000a071c       atol                       00000001800a171c f   libucrt:atox.obj
 0001:000a0748       wcsncpy                    00000001800a1748 f   libucrt:wcsncpy.obj
 0001:000a0790       __acrt_initialize_heap     00000001800a1790 f   libucrt:heap_handle.obj
 0001:000a07ac       __acrt_uninitialize_heap   00000001800a17ac f   libucrt:heap_handle.obj
 0001:000a07b8       _get_heap_handle           00000001800a17b8 f   libucrt:heap_handle.obj
 0001:000a07c0       __ascii_memicmp            00000001800a17c0 f   libucrt:memicmp.obj
 0001:000a0808       _memicmp                   00000001800a1808 f   libucrt:memicmp.obj
 0001:000a0858       _memicmp_l                 00000001800a1858 f   libucrt:memicmp.obj
 0001:000a0904       __acrt_errno_from_os_error 00000001800a1904 f   libucrt:errno.obj
 0001:000a094c       __acrt_errno_map_os_error  00000001800a194c f   libucrt:errno.obj
 0001:000a099c       __doserrno                 00000001800a199c f   libucrt:errno.obj
 0001:000a09bc       _errno                     00000001800a19bc f   libucrt:errno.obj
 0001:000a09dc       malloc                     00000001800a19dc f   libucrt:malloc.obj
 0001:000a0cc4       setlocale                  00000001800a1cc4 f   libucrt:setlocale.obj
 0001:000a0d10       __acrt_initialize_locks    00000001800a1d10 f   libucrt:locks.obj
 0001:000a0d58       __acrt_lock                00000001800a1d58 f   libucrt:locks.obj
 0001:000a0d74       __acrt_uninitialize_locks  00000001800a1d74 f   libucrt:locks.obj
 0001:000a0dac       __acrt_unlock              00000001800a1dac f   libucrt:locks.obj
 0001:000a0dc8       _lock_locales              00000001800a1dc8 f   libucrt:locks.obj
 0001:000a0de4       _unlock_locales            00000001800a1de4 f   libucrt:locks.obj
 0001:000a0df4       ___lc_codepage_func        00000001800a1df4 f   libucrt:initctype.obj
 0001:000a0e24       ___lc_locale_name_func     00000001800a1e24 f   libucrt:initctype.obj
 0001:000a0e58       ___mb_cur_max_func         00000001800a1e58 f   libucrt:initctype.obj
 0001:000a0e88       __acrt_locale_initialize_ctype 00000001800a1e88 f   libucrt:initctype.obj
 0001:000a14ec       __pctype_func              00000001800a24ec f   libucrt:ctype.obj
 0001:000a151c       _wcsdup                    00000001800a251c f   libucrt:wcsdup.obj
 0001:000a15a0       ?divide@__crt_strtox@@YA_KAEAUbig_integer@1@AEBU21@@Z 00000001800a25a0 f i libucrt:strtod.obj
 0001:000a1a60       pow                        00000001800a2a60 f   libucrt:pow.obj
 0001:000a3100       powf                       00000001800a4100 f   libucrt:powf.obj
 0001:000a3fc8       abort                      00000001800a4fc8 f   libucrt:abort.obj
 0001:000a4020       __strncnt                  00000001800a5020 f   libucrt:strncnt.obj
 0001:000a4038       strnlen                    00000001800a5038 f   libucrt:strnlen.obj
 0001:000a4188       wcsnlen                    00000001800a5188 f   libucrt:strnlen.obj
 0001:000a4360       ??$__acrt_mbs_to_wcs_cp@U__crt_win32_buffer_internal_dynamic_resizing@@@@YAHQEBDAEAV?$__crt_win32_buffer@_WU__crt_win32_buffer_internal_dynamic_resizing@@@@I@Z 00000001800a5360 f i libucrt:strftime.obj
 0001:000a44d8       ??$__acrt_wcs_to_mbs_cp@U__crt_win32_buffer_no_resizing@@@@YAHQEB_WAEAV?$__crt_win32_buffer@DU__crt_win32_buffer_no_resizing@@@@I@Z 00000001800a54d8 f i libucrt:strftime.obj
 0001:000a45ec       __acrt_initialize_new_handler 00000001800a55ec f   libucrt:new_handler.obj
 0001:000a45f4       _callnewh                  00000001800a55f4 f   libucrt:new_handler.obj
 0001:000a4624       _query_new_handler         00000001800a5624 f   libucrt:new_handler.obj
 0001:000a4658       _seh_filter_dll            00000001800a5658 f   libucrt:exception_filter.obj
 0001:000a466c       _seh_filter_exe            00000001800a566c f   libucrt:exception_filter.obj
 0001:000a4a5c       __acrt_initialize_thread_local_exit_callback 00000001800a5a5c f   libucrt:exit.obj
 0001:000a4a64       _cexit                     00000001800a5a64 f   libucrt:exit.obj
 0001:000a4a74       _exit                      00000001800a5a74 f   libucrt:exit.obj
 0001:000a4a80       _is_c_termination_complete 00000001800a5a80 f   libucrt:exit.obj
 0001:000a4c4c       __acrt_allocate_buffer_for_argv 00000001800a5c4c f   libucrt:argv_parsing.obj
 0001:000a4cac       _configure_narrow_argv     00000001800a5cac f   libucrt:argv_parsing.obj
 0001:000a5024       __dcrt_uninitialize_environments_nolock 00000001800a6024 f   libucrt:environment_initialization.obj
 0001:000a505c       _initialize_narrow_environment 00000001800a605c f   libucrt:environment_initialization.obj
 0001:000a53a4       _crt_atexit                00000001800a63a4 f   libucrt:onexit.obj
 0001:000a53b4       _execute_onexit_table      00000001800a63b4 f   libucrt:onexit.obj
 0001:000a53f0       _initialize_onexit_table   00000001800a63f0 f   libucrt:onexit.obj
 0001:000a5418       _register_onexit_function  00000001800a6418 f   libucrt:onexit.obj
 0001:000a5498       __acrt_uninitialize_command_line 00000001800a6498 f   libucrt:argv_data.obj
 0001:000a5590       __acrt_initialize          00000001800a6590 f   libucrt:initialization.obj
 0001:000a55a4       __acrt_thread_attach       00000001800a65a4 f   libucrt:initialization.obj
 0001:000a55b8       __acrt_thread_detach       00000001800a65b8 f   libucrt:initialization.obj
 0001:000a55c8       __acrt_uninitialize        00000001800a65c8 f   libucrt:initialization.obj
 0001:000a5600       __acrt_uninitialize_critical 00000001800a6600 f   libucrt:initialization.obj
 0001:000a5610       _initterm                  00000001800a6610 f   libucrt:initterm.obj
 0001:000a5674       _initterm_e                00000001800a6674 f   libucrt:initterm.obj
 0001:000a56b4       strcpy_s                   00000001800a66b4 f   libucrt:strcpy_s.obj
 0001:000a5730       strncmp                    00000001800a6730 f   libucrt:strncmp.obj
 0001:000a57b0       wcsncmp                    00000001800a67b0 f   libucrt:wcsncmp.obj
 0001:000a5b54       __acrt_freeptd             00000001800a6b54 f   libucrt:per_thread_data.obj
 0001:000a5b98       __acrt_getptd              00000001800a6b98 f   libucrt:per_thread_data.obj
 0001:000a5c6c       __acrt_getptd_head         00000001800a6c6c f   libucrt:per_thread_data.obj
 0001:000a5d14       __acrt_getptd_noexit       00000001800a6d14 f   libucrt:per_thread_data.obj
 0001:000a5de0       __acrt_initialize_ptd      00000001800a6de0 f   libucrt:per_thread_data.obj
 0001:000a5e1c       __acrt_uninitialize_ptd    00000001800a6e1c f   libucrt:per_thread_data.obj
 0001:000a5e40       _towlower_l                00000001800a6e40 f   libucrt:towlower.obj
 0001:000a5efc       __acrt_update_locale_info  00000001800a6efc f   libucrt:locale_update.obj
 0001:000a5f30       __acrt_update_multibyte_info 00000001800a6f30 f   libucrt:locale_update.obj
 0001:000a61cc       ?commit_locale_name@_expandlocale_locale_name_cache@@QEAAXQEB_W_K@Z 00000001800a71cc f i libucrt:wsetlocale.obj
 0001:000a6244       __acrt_copy_locale_name    00000001800a7244 f   libucrt:wsetlocale.obj
 0001:000a62c8       __acrt_set_locale_changed  00000001800a72c8 f   libucrt:wsetlocale.obj
 0001:000a62d4       __acrt_uninitialize_locale 00000001800a72d4 f   libucrt:wsetlocale.obj
 0001:000a6304       __lc_lctowcs               00000001800a7304 f   libucrt:wsetlocale.obj
 0001:000a63a8       __lc_wcstolc               00000001800a73a8 f   libucrt:wsetlocale.obj
 0001:000a6a50       _wcscats                   00000001800a7a50 f   libucrt:wsetlocale.obj
 0001:000a6ab8       _wsetlocale                00000001800a7ab8 f   libucrt:wsetlocale.obj
 0001:000a7818       _free_base                 00000001800a8818 f   libucrt:free_base.obj
 0001:000a7858       _malloc_base               00000001800a8858 f   libucrt:malloc_base.obj
 0001:000a78b8       _mbtowc_l                  00000001800a88b8 f   libucrt:mbtowc.obj
 0001:000a7a38       mbtowc                     00000001800a8a38 f   libucrt:mbtowc.obj
 0001:000a7a40       _wctomb_s_l                00000001800a8a40 f   libucrt:wctomb.obj
 0001:000a7bdc       wctomb_s                   00000001800a8bdc f   libucrt:wctomb.obj
 0001:000a8488       __acrt_fp_format           00000001800a9488 f   libucrt:cvt.obj
 0001:000a878c       _fileno                    00000001800a978c f   libucrt:fileno.obj
 0001:000a87b4       __acrt_initialize_stdio    00000001800a97b4 f   libucrt:_file.obj
 0001:000a88d4       __acrt_uninitialize_stdio  00000001800a98d4 f   libucrt:_file.obj
 0001:000a8930       _lock_file                 00000001800a9930 f   libucrt:_file.obj
 0001:000a893c       _unlock_file               00000001800a993c f   libucrt:_file.obj
 0001:000a8948       _get_printf_count_output   00000001800a9948 f   libucrt:printf_count_output.obj
 0001:000a8b5c       __acrt_initialize_lowio    00000001800a9b5c f   libucrt:ioinit.obj
 0001:000a8b98       __acrt_uninitialize_lowio  00000001800a9b98 f   libucrt:ioinit.obj
 0001:000a8bd8       _dsign                     00000001800a9bd8 f   libucrt:nan.obj
 0001:000a8bf0       _errcode                   00000001800a9bf0 f   libucrt:fpexcept.obj
 0001:000a8c34       _except1                   00000001800a9c34 f   libucrt:fpexcept.obj
 0001:000a8d28       _handle_exc                00000001800a9d28 f   libucrt:fpexcept.obj
 0001:000a8f90       _raise_exc                 00000001800a9f90 f   libucrt:fpexcept.obj
 0001:000a8fb8       _raise_exc_ex              00000001800a9fb8 f   libucrt:fpexcept.obj
 0001:000a92c8       _raise_excf                00000001800aa2c8 f   libucrt:fpexcept.obj
 0001:000a92f4       _set_errno_from_matherr    00000001800aa2f4 f   libucrt:fpexcept.obj
 0001:000a9324       _umatherr                  00000001800aa324 f   libucrt:fpexcept.obj
 0001:000a93f8       _decomp                    00000001800aa3f8 f   libucrt:util.obj
 0001:000a9528       _sptype                    00000001800aa528 f   libucrt:util.obj
 0001:000a959c       _clrfp                     00000001800aa59c f   libucrt:fpctrl.obj
 0001:000a95bc       _ctrlfp                    00000001800aa5bc f   libucrt:fpctrl.obj
 0001:000a9638       _set_statfp                00000001800aa638 f   libucrt:fpctrl.obj
 0001:000a9658       _statfp                    00000001800aa658 f   libucrt:fpctrl.obj
 0001:000a966c       _calloc_base               00000001800aa66c f   libucrt:calloc_base.obj
 0001:000a96e4       iswctype                   00000001800aa6e4 f   libucrt:iswctype.obj
 0001:000a9754       _isctype_l                 00000001800aa754 f   libucrt:isctype.obj
 0001:000a985c       _isleadbyte_l              00000001800aa85c f i libucrt:_wctype.obj
 0001:000a9bc0       __acrt_LCMapStringA        00000001800aabc0 f   libucrt:lcmapstringa.obj
 0001:000a9e58       _mbstowcs_s_l              00000001800aae58 f   libucrt:mbstowcs.obj
 0001:000a9f8c       mbstowcs_s                 00000001800aaf8c f   libucrt:mbstowcs.obj
 0001:000aa314       _wcstombs_s_l              00000001800ab314 f   libucrt:wcstombs.obj
 0001:000aa67c       __acrt_AppPolicyGetProcessTerminationMethodInternal 00000001800ab67c f   libucrt:winapi_thunks.obj
 0001:000aa6cc       __acrt_AreFileApisANSI     00000001800ab6cc f   libucrt:winapi_thunks.obj
 0001:000aa708       __acrt_EnumSystemLocalesEx 00000001800ab708 f   libucrt:winapi_thunks.obj
 0001:000aa7a0       __acrt_FlsAlloc            00000001800ab7a0 f   libucrt:winapi_thunks.obj
 0001:000aa7e8       __acrt_FlsFree             00000001800ab7e8 f   libucrt:winapi_thunks.obj
 0001:000aa830       __acrt_FlsGetValue         00000001800ab830 f   libucrt:winapi_thunks.obj
 0001:000aa878       __acrt_FlsSetValue         00000001800ab878 f   libucrt:winapi_thunks.obj
 0001:000aa8cc       __acrt_GetLocaleInfoEx     00000001800ab8cc f   libucrt:winapi_thunks.obj
 0001:000aa950       __acrt_GetUserDefaultLocaleName 00000001800ab950 f   libucrt:winapi_thunks.obj
 0001:000aa9b4       __acrt_InitializeCriticalSectionEx 00000001800ab9b4 f   libucrt:winapi_thunks.obj
 0001:000aaa18       __acrt_IsValidLocaleName   00000001800aba18 f   libucrt:winapi_thunks.obj
 0001:000aaa70       __acrt_LCIDToLocaleName    00000001800aba70 f   libucrt:winapi_thunks.obj
 0001:000aaae0       __acrt_LCMapStringEx       00000001800abae0 f   libucrt:winapi_thunks.obj
 0001:000aabbc       __acrt_LocaleNameToLCID    00000001800abbbc f   libucrt:winapi_thunks.obj
 0001:000aac0c       __acrt_can_use_vista_locale_apis 00000001800abc0c f   libucrt:winapi_thunks.obj
 0001:000aac3c       __acrt_eagerly_load_locale_apis 00000001800abc3c f   libucrt:winapi_thunks.obj
 0001:000aad98       __acrt_initialize_winapi_thunks 00000001800abd98 f   libucrt:winapi_thunks.obj
 0001:000aadcc       __acrt_uninitialize_winapi_thunks 00000001800abdcc f   libucrt:winapi_thunks.obj
 0001:000aaf8c       __acrt_GetLocaleInfoA      00000001800abf8c f   libucrt:getlocaleinfoa.obj
 0001:000ab154       __acrt_GetStringTypeA      00000001800ac154 f   libucrt:getstringtypea.obj
 0001:000ab2e4       _realloc_base              00000001800ac2e4 f   libucrt:realloc_base.obj
 0001:000ab360       __acrt_initialize_fma3     00000001800ac360 f   libucrt:fma3_available.obj
 0001:000ab3d0       _pow_special               00000001800ac3d0 f   libucrt:pow_special.obj
 0001:000ab4f4       _powf_special              00000001800ac4f4 f   libucrt:pow_special.obj
 0001:000ab6c8       __acrt_get_sigabrt_handler 00000001800ac6c8 f   libucrt:signal.obj
 0001:000ab6f8       __acrt_initialize_signal_handlers 00000001800ac6f8 f   libucrt:signal.obj
 0001:000ab718       raise                      00000001800ac718 f   libucrt:signal.obj
 0001:000ab984       __acrt_MultiByteToWideChar 00000001800ac984 f   libucrt:multibytetowidechar.obj
 0001:000ab9e0       __acrt_WideCharToMultiByte 00000001800ac9e0 f   libucrt:widechartomultibyte.obj
 0001:000aba78       __acrt_initialize_timeset  00000001800aca78 f   libucrt:timeset.obj
 0001:000ababc       __acrt_get_process_end_policy 00000001800acabc f   libucrt:win_policies.obj
 0001:000abb0c       ??$__acrt_wcs_to_mbs_cp@U__crt_win32_buffer_internal_dynamic_resizing@@@@YAHQEB_WAEAV?$__crt_win32_buffer@DU__crt_win32_buffer_internal_dynamic_resizing@@@@I@Z 00000001800acb0c f i libucrt:argv_wildcards.obj
 0001:000ac33c       __acrt_expand_narrow_argv_wildcards 00000001800ad33c f   libucrt:argv_wildcards.obj
 0001:000ac344       __acrt_GetModuleFileNameA  00000001800ad344 f   libucrt:getmodulefilenamea.obj
 0001:000acb90       __acrt_initialize_multibyte 00000001800adb90 f   libucrt:mbctype.obj
 0001:000acbf0       __acrt_update_thread_multibyte_data 00000001800adbf0 f   libucrt:mbctype.obj
 0001:000acc0c       _setmbcp_nolock            00000001800adc0c f   libucrt:mbctype.obj
 0001:000acf40       _ismbblead                 00000001800adf40 f   libucrt:ismbbyte.obj
 0001:000acf54       __acrt_initialize_command_line 00000001800adf54 f   libucrt:argv_data.obj
 0001:000acf7c       __dcrt_get_narrow_environment_from_os 00000001800adf7c f   libucrt:get_environment_from_os.obj
 0001:000ad080       _recalloc_base             00000001800ae080 f   libucrt:recalloc.obj
 0001:000ad118       __acrt_execute_initializers 00000001800ae118 f   libucrt:shared_initialization.obj
 0001:000ad198       __acrt_execute_uninitializers 00000001800ae198 f   libucrt:shared_initialization.obj
 0001:000ad1d4       __acrt_has_user_matherr    00000001800ae1d4 f   libucrt:matherr.obj
 0001:000ad1f4       __acrt_initialize_user_matherr 00000001800ae1f4 f   libucrt:matherr.obj
 0001:000ad1fc       __acrt_invoke_user_matherr 00000001800ae1fc f   libucrt:matherr.obj
 0001:000ad408       __acrt_stdio_flush_nolock  00000001800ae408 f   libucrt:fflush.obj
 0001:000ad484       _fflush_nolock             00000001800ae484 f   libucrt:fflush.obj
 0001:000ad4d0       _flushall                  00000001800ae4d0 f   libucrt:fflush.obj
 0001:000ad4d8       __acrt_add_locale_ref      00000001800ae4d8 f   libucrt:locale_refcounting.obj
 0001:000ad564       __acrt_free_locale         00000001800ae564 f   libucrt:locale_refcounting.obj
 0001:000ad6dc       __acrt_locale_add_lc_time_reference 00000001800ae6dc f   libucrt:locale_refcounting.obj
 0001:000ad704       __acrt_locale_free_lc_time_if_unreferenced 00000001800ae704 f   libucrt:locale_refcounting.obj
 0001:000ad73c       __acrt_locale_release_lc_time_reference 00000001800ae73c f   libucrt:locale_refcounting.obj
 0001:000ad764       __acrt_release_locale_ref  00000001800ae764 f   libucrt:locale_refcounting.obj
 0001:000ad80c       __acrt_update_thread_locale_data 00000001800ae80c f   libucrt:locale_refcounting.obj
 0001:000ad878       _updatetlocinfoEx_nolock   00000001800ae878 f   libucrt:locale_refcounting.obj
 0001:000ad8e0       __acrt_LCMapStringW        00000001800ae8e0 f   libucrt:lcmapstringw.obj
 0001:000ad968       __acrt_locale_free_monetary 00000001800ae968 f   libucrt:initmon.obj
 0001:000ada74       __acrt_locale_initialize_monetary 00000001800aea74 f   libucrt:initmon.obj
 0001:000adfa8       __acrt_locale_free_numeric 00000001800aefa8 f   libucrt:initnum.obj
 0001:000ae014       __acrt_locale_initialize_numeric 00000001800af014 f   libucrt:initnum.obj
 0001:000ae694       __acrt_locale_free_time    00000001800af694 f   libucrt:inittime.obj
 0001:000ae79c       __acrt_locale_initialize_time 00000001800af79c f   libucrt:inittime.obj
 0001:000ae838       wcscat_s                   00000001800af838 f   libucrt:wcscat_s.obj
 0001:000ae8b8       wcsncat_s                  00000001800af8b8 f   libucrt:wcsncat_s.obj
 0001:000ae9b8       wcsncpy_s                  00000001800af9b8 f   libucrt:wcsncpy_s.obj
 0001:000aea9c       wcscspn                    00000001800afa9c f   libucrt:wcscspn.obj
 0001:000aeadc       wcspbrk                    00000001800afadc f   libucrt:wcspbrk.obj
 0001:000af2c4       __acrt_get_qualified_locale 00000001800b02c4 f   libucrt:get_qualified_locale.obj
 0001:000afcf8       __acrt_get_qualified_locale_downlevel 00000001800b0cf8 f   libucrt:getqloc_downlevel.obj
 0001:000aff78       _query_new_mode            00000001800b0f78 f   libucrt:new_mode.obj
 0001:000aff80       ?__mbrtowc_utf8@__crt_mbstring@@YA_KPEA_WPEBD_KPEAU_Mbstatet@@@Z 00000001800b0f80 f   libucrt:mbrtowc.obj
 0001:000affbc       ?__mbsrtowcs_utf8@__crt_mbstring@@YA_KPEA_WPEAPEBD_KPEAU_Mbstatet@@@Z 00000001800b0fbc f   libucrt:mbrtowc.obj
 0001:000b0134       ?__c32rtomb_utf8@__crt_mbstring@@YA_KPEAD_UPEAU_Mbstatet@@@Z 00000001800b1134 f   libucrt:c32rtomb.obj
 0001:000b01e8       c32rtomb                   00000001800b11e8 f   libucrt:c32rtomb.obj
 0001:000b01f0       __acrt_fp_strflt_to_string 00000001800b11f0 f   libucrt:_fptostr.obj
 0001:000b02d4       __acrt_fltout              00000001800b12d4 f   libucrt:cfout.obj
 0001:000b1508       _fcloseall                 00000001800b2508 f   libucrt:closeall.obj
 0001:000b15bc       __acrt_stdio_free_buffer_nolock 00000001800b25bc f   libucrt:_freebuf.obj
 0001:000b15fc       _isatty                    00000001800b25fc f   libucrt:isatty.obj
 0001:000b165c       __acrt_lowio_create_handle_array 00000001800b265c f   libucrt:osfinfo.obj
 0001:000b1704       __acrt_lowio_destroy_handle_array 00000001800b2704 f   libucrt:osfinfo.obj
 0001:000b1754       __acrt_lowio_ensure_fh_exists 00000001800b2754 f   libucrt:osfinfo.obj
 0001:000b17fc       __acrt_lowio_lock_fh       00000001800b27fc f   libucrt:osfinfo.obj
 0001:000b1824       __acrt_lowio_unlock_fh     00000001800b2824 f   libucrt:osfinfo.obj
 0001:000b184c       _free_osfhnd               00000001800b284c f   libucrt:osfinfo.obj
 0001:000b1908       _get_osfhandle             00000001800b2908 f   libucrt:osfinfo.obj
 0001:000b1990       _get_fpsr                  00000001800b2990 f   libucrt:fpsr.obj
 0001:000b19a0       _set_fpsr                  00000001800b29a0 f   libucrt:fpsr.obj
 0001:000b19aa       _fclrf                     00000001800b29aa f   libucrt:fpsr.obj
 0001:000b19be       _frnd                      00000001800b29be f   libucrt:fpsr.obj
 0001:000b19e0       __acrt_GetStringTypeW      00000001800b29e0 f   libucrt:getstringtypew.obj
 0001:000b19e8       ?__wcsrtombs_utf8@__crt_mbstring@@YA_KPEADPEAPEB_W_KPEAU_Mbstatet@@@Z 00000001800b29e8 f   libucrt:wcrtomb.obj
 0001:000b1b04       __acrt_DownlevelLCIDToLocaleName 00000001800b2b04 f   libucrt:lcidtoname_downlevel.obj
 0001:000b1bf8       __acrt_DownlevelLocaleNameToLCID 00000001800b2bf8 f   libucrt:lcidtoname_downlevel.obj
 0001:000b1ca8       strncpy_s                  00000001800b2ca8 f   libucrt:strncpy_s.obj
 0001:000b1d7c       __acrt_fenv_get_control    00000001800b2d7c f   libucrt:_fenvutils.obj
 0001:000b1e70       __acrt_fenv_get_status     00000001800b2e70 f   libucrt:_fenvutils.obj
 0001:000b1ec4       __acrt_fenv_set_control    00000001800b2ec4 f   libucrt:_fenvutils.obj
 0001:000b200c       __acrt_fenv_set_status     00000001800b300c f   libucrt:_fenvutils.obj
 0001:000b21b4       _handle_error              00000001800b31b4 f   libucrt:libm_error.obj
 0001:000b22dc       _handle_errorf             00000001800b32dc f   libucrt:libm_error.obj
 0001:000b2410       _handle_nan                00000001800b3410 f   libucrt:libm_error.obj
 0001:000b242c       _handle_nanf               00000001800b342c f   libucrt:libm_error.obj
 0001:000b2440       qsort                      00000001800b3440 f   libucrt:qsort.obj
 0001:000b2890       strpbrk                    00000001800b3890 f   libucrt:strpbrk.obj
 0001:000b2c70       _mbsdec                    00000001800b3c70 f   libucrt:mbsdec.obj
 0001:000b2c78       _mbsdec_l                  00000001800b3c78 f   libucrt:mbsdec.obj
 0001:000b2d24       _msize_base                00000001800b3d24 f   libucrt:msize.obj
 0001:000b2dec       _commit                    00000001800b3dec f   libucrt:commit.obj
 0001:000b36e0       _write                     00000001800b46e0 f   libucrt:write.obj
 0001:000b37cc       _write_nolock              00000001800b47cc f   libucrt:write.obj
 0001:000b3aa8       __ascii_wcsnicmp           00000001800b4aa8 f   libucrt:wcsnicmp.obj
 0001:000b3af4       _wcsnicmp                  00000001800b4af4 f   libucrt:wcsnicmp.obj
 0001:000b3b3c       _wcsnicmp_l                00000001800b4b3c f   libucrt:wcsnicmp.obj
 0001:000b3c8c       wcscmp                     00000001800b4c8c f   libucrt:wcscmp.obj
 0001:000b3cc4       ?__mbrtoc32_utf8@__crt_mbstring@@YA_KPEA_UPEBD_KPEAU_Mbstatet@@@Z 00000001800b4cc4 f   libucrt:mbrtoc32.obj
 0001:000b3ea0       fegetenv                   00000001800b4ea0 f   libucrt:fegetenv.obj
 0001:000b3ec0       fesetenv                   00000001800b4ec0 f   libucrt:fesetenv.obj
 0001:000b3f0c       feholdexcept               00000001800b4f0c f   libucrt:feholdexcept.obj
 0001:000b3f5c       ceil                       00000001800b4f5c f   libucrt:ceil.obj
 0001:000b4020       log10                      00000001800b5020 f   libucrt:log10.obj
 0001:000b4668       _lseeki64_nolock           00000001800b5668 f   libucrt:lseek.obj
 0001:000b4670       _fclose_nolock             00000001800b5670 f   libucrt:fclose.obj
 0001:000b46f4       fclose                     00000001800b56f4 f   libucrt:fclose.obj
 0001:000b4758       _query_app_type            00000001800b5758 f   libucrt:report_runtime_error.obj
 0001:000b4760       ?__c16rtomb_utf8@__crt_mbstring@@YA_KPEAD_SPEAU_Mbstatet@@@Z 00000001800b5760 f   libucrt:c16rtomb.obj
 0001:000b4808       _putwch_nolock             00000001800b5808 f   libucrt:putwch.obj
 0001:000b4844       _clearfp                   00000001800b5844 f   libucrt:ieee.obj
 0001:000b48c0       _log10_special             00000001800b58c0 f   libucrt:log_special.obj
 0001:000b49ec       _close                     00000001800b59ec f   libucrt:close.obj
 0001:000b4a90       _close_nolock              00000001800b5a90 f   libucrt:close.obj
 0001:000b4b50       ?__acrt_stdio_free_stream@@YAXV__crt_stdio_stream@@@Z 00000001800b5b50 f   libucrt:stream.obj
 0001:000b4b6c       __dcrt_lowio_ensure_console_output_initialized 00000001800b5b6c f   libucrt:initcon.obj
 0001:000b4bc0       __dcrt_terminate_console_output 00000001800b5bc0 f   libucrt:initcon.obj
 0001:000b4bdc       __dcrt_write_console       00000001800b5bdc f   libucrt:initcon.obj
 0001:000b4ca0       _FindPESection             00000001800b5ca0 f   LIBCMT:pesect.obj
 0001:000b4cf0       _IsNonwritableInCurrentImage 00000001800b5cf0 f   LIBCMT:pesect.obj
 0001:000b4d40       _ValidateImageBase         00000001800b5d40 f   LIBCMT:pesect.obj
 0001:000b4d70       __GSHandlerCheck_SEH       00000001800b5d70 f   LIBCMT:gshandlerseh.obj
 0001:000b4df8       strrchr                    00000001800b5df8 f   libvcruntime:strrchr.obj
 0001:000b4f28       __GSHandlerCheck_EH4       00000001800b5f28 f   LIBCMT:gshandlereh4.obj
 0001:000b4fc0       _guard_dispatch_icall_nop  00000001800b5fc0 f   LIBCMT:guard_dispatch.obj
 0001:000be940       ??__Fbatch_options@?1??extract@Plugin@@QEAAXAEBVPluginPanelItemAccessor@1@AEAV?$basic_string@_WU?$char_traits@_W@std@@V?$allocator@_W@2@@std@@_N_K@Z@YAXXZ 00000001800bf940 f i plugin.obj
 0002:00000000       __imp_RegQueryValueExW     00000001800c0000     advapi32:ADVAPI32.dll
 0002:00000008       __imp_RegCloseKey          00000001800c0008     advapi32:ADVAPI32.dll
 0002:00000010       __imp_RegOpenKeyExW        00000001800c0010     advapi32:ADVAPI32.dll
 0002:00000018       \177ADVAPI32_NULL_THUNK_DATA 00000001800c0018     advapi32:ADVAPI32.dll
 0002:00000020       __imp_WriteConsoleW        00000001800c0020     kernel32:KERNEL32.dll
 0002:00000028       __imp_GetFileInformationByHandle 00000001800c0028     kernel32:KERNEL32.dll
 0002:00000030       __imp_GetConsoleMode       00000001800c0030     kernel32:KERNEL32.dll
 0002:00000038       __imp_GetConsoleCP         00000001800c0038     kernel32:KERNEL32.dll
 0002:00000040       __imp_FlushFileBuffers     00000001800c0040     kernel32:KERNEL32.dll
 0002:00000048       __imp_HeapSize             00000001800c0048     kernel32:KERNEL32.dll
 0002:00000050       __imp_SetStdHandle         00000001800c0050     kernel32:KERNEL32.dll
 0002:00000058       __imp_FreeEnvironmentStringsW 00000001800c0058     kernel32:KERNEL32.dll
 0002:00000060       __imp_GetEnvironmentStringsW 00000001800c0060     kernel32:KERNEL32.dll
 0002:00000068       __imp_GetCommandLineW      00000001800c0068     kernel32:KERNEL32.dll
 0002:00000070       __imp_GetCommandLineA      00000001800c0070     kernel32:KERNEL32.dll
 0002:00000078       __imp_IsValidCodePage      00000001800c0078     kernel32:KERNEL32.dll
 0002:00000080       __imp_FindFirstFileExW     00000001800c0080     kernel32:KERNEL32.dll
 0002:00000088       __imp_FreeLibrary          00000001800c0088     kernel32:KERNEL32.dll
 0002:00000090       __imp_LoadLibraryW         00000001800c0090     kernel32:KERNEL32.dll
 0002:00000098       __imp_GetProcAddress       00000001800c0098     kernel32:KERNEL32.dll
 0002:000000a0       __imp_lstrcmpiW            00000001800c00a0     kernel32:KERNEL32.dll
 0002:000000a8       __imp_EnterCriticalSection 00000001800c00a8     kernel32:KERNEL32.dll
 0002:000000b0       __imp_LeaveCriticalSection 00000001800c00b0     kernel32:KERNEL32.dll
 0002:000000b8       __imp_QueryPerformanceCounter 00000001800c00b8     kernel32:KERNEL32.dll
 0002:000000c0       __imp_QueryPerformanceFrequency 00000001800c00c0     kernel32:KERNEL32.dll
 0002:000000c8       __imp_GetPriorityClass     00000001800c00c8     kernel32:KERNEL32.dll
 0002:000000d0       __imp_GetCurrentProcess    00000001800c00d0     kernel32:KERNEL32.dll
 0002:000000d8       __imp_SetConsoleTitleW     00000001800c00d8     kernel32:KERNEL32.dll
 0002:000000e0       __imp_GetStdHandle         00000001800c00e0     kernel32:KERNEL32.dll
 0002:000000e8       __imp_PeekConsoleInputW    00000001800c00e8     kernel32:KERNEL32.dll
 0002:000000f0       __imp_ReadConsoleInputW    00000001800c00f0     kernel32:KERNEL32.dll
 0002:000000f8       __imp_SetPriorityClass     00000001800c00f8     kernel32:KERNEL32.dll
 0002:00000100       __imp_CompareFileTime      00000001800c0100     kernel32:KERNEL32.dll
 0002:00000108       __imp_SetThreadExecutionState 00000001800c0108     kernel32:KERNEL32.dll
 0002:00000110       __imp_GlobalMemoryStatus   00000001800c0110     kernel32:KERNEL32.dll
 0002:00000118       __imp_VirtualAlloc         00000001800c0118     kernel32:KERNEL32.dll
 0002:00000120       __imp_GetLastError         00000001800c0120     kernel32:KERNEL32.dll
 0002:00000128       __imp_VirtualFree          00000001800c0128     kernel32:KERNEL32.dll
 0002:00000130       __imp_GetDiskFreeSpaceW    00000001800c0130     kernel32:KERNEL32.dll
 0002:00000138       __imp_DeviceIoControl      00000001800c0138     kernel32:KERNEL32.dll
 0002:00000140       __imp_GetSystemTime        00000001800c0140     kernel32:KERNEL32.dll
 0002:00000148       __imp_SystemTimeToFileTime 00000001800c0148     kernel32:KERNEL32.dll
 0002:00000150       __imp_MultiByteToWideChar  00000001800c0150     kernel32:KERNEL32.dll
 0002:00000158       __imp_FileTimeToLocalFileTime 00000001800c0158     kernel32:KERNEL32.dll
 0002:00000160       __imp_FileTimeToSystemTime 00000001800c0160     kernel32:KERNEL32.dll
 0002:00000168       __imp_GetDateFormatW       00000001800c0168     kernel32:KERNEL32.dll
 0002:00000170       __imp_GetTimeFormatW       00000001800c0170     kernel32:KERNEL32.dll
 0002:00000178       __imp_FindResourceExW      00000001800c0178     kernel32:KERNEL32.dll
 0002:00000180       __imp_LoadResource         00000001800c0180     kernel32:KERNEL32.dll
 0002:00000188       __imp_LockResource         00000001800c0188     kernel32:KERNEL32.dll
 0002:00000190       __imp_EnumResourceNamesW   00000001800c0190     kernel32:KERNEL32.dll
 0002:00000198       __imp_EnumResourceLanguagesW 00000001800c0198     kernel32:KERNEL32.dll
 0002:000001a0       __imp_LoadLibraryExW       00000001800c01a0     kernel32:KERNEL32.dll
 0002:000001a8       __imp_BeginUpdateResourceW 00000001800c01a8     kernel32:KERNEL32.dll
 0002:000001b0       __imp_EndUpdateResourceW   00000001800c01b0     kernel32:KERNEL32.dll
 0002:000001b8       __imp_UpdateResourceW      00000001800c01b8     kernel32:KERNEL32.dll
 0002:000001c0       __imp_InitializeCriticalSection 00000001800c01c0     kernel32:KERNEL32.dll
 0002:000001c8       __imp_DeleteCriticalSection 00000001800c01c8     kernel32:KERNEL32.dll
 0002:000001d0       __imp_FormatMessageW       00000001800c01d0     kernel32:KERNEL32.dll
 0002:000001d8       __imp_GetModuleHandleW     00000001800c01d8     kernel32:KERNEL32.dll
 0002:000001e0       __imp_LocalFree            00000001800c01e0     kernel32:KERNEL32.dll
 0002:000001e8       __imp_GetConsoleTitleW     00000001800c01e8     kernel32:KERNEL32.dll
 0002:000001f0       __imp_WideCharToMultiByte  00000001800c01f0     kernel32:KERNEL32.dll
 0002:000001f8       __imp_ExpandEnvironmentStringsW 00000001800c01f8     kernel32:KERNEL32.dll
 0002:00000200       __imp_CreateFileW          00000001800c0200     kernel32:KERNEL32.dll
 0002:00000208       __imp_CloseHandle          00000001800c0208     kernel32:KERNEL32.dll
 0002:00000210       __imp_GetFileSizeEx        00000001800c0210     kernel32:KERNEL32.dll
 0002:00000218       __imp_ReadFile             00000001800c0218     kernel32:KERNEL32.dll
 0002:00000220       __imp_WriteFile            00000001800c0220     kernel32:KERNEL32.dll
 0002:00000228       __imp_SetFileTime          00000001800c0228     kernel32:KERNEL32.dll
 0002:00000230       __imp_SetFilePointerEx     00000001800c0230     kernel32:KERNEL32.dll
 0002:00000238       __imp_SetEndOfFile         00000001800c0238     kernel32:KERNEL32.dll
 0002:00000240       __imp_GetFileAttributesW   00000001800c0240     kernel32:KERNEL32.dll
 0002:00000248       __imp_SetFileAttributesW   00000001800c0248     kernel32:KERNEL32.dll
 0002:00000250       __imp_DeleteFileW          00000001800c0250     kernel32:KERNEL32.dll
 0002:00000258       __imp_CreateDirectoryW     00000001800c0258     kernel32:KERNEL32.dll
 0002:00000260       __imp_RemoveDirectoryW     00000001800c0260     kernel32:KERNEL32.dll
 0002:00000268       __imp_MoveFileExW          00000001800c0268     kernel32:KERNEL32.dll
 0002:00000270       __imp_FindFirstFileW       00000001800c0270     kernel32:KERNEL32.dll
 0002:00000278       __imp_FindClose            00000001800c0278     kernel32:KERNEL32.dll
 0002:00000280       __imp_SetLastError         00000001800c0280     kernel32:KERNEL32.dll
 0002:00000288       __imp_FindNextFileW        00000001800c0288     kernel32:KERNEL32.dll
 0002:00000290       __imp_GetTempPathW         00000001800c0290     kernel32:KERNEL32.dll
 0002:00000298       __imp_GetTempFileNameW     00000001800c0298     kernel32:KERNEL32.dll
 0002:000002a0       __imp_HeapSetInformation   00000001800c02a0     kernel32:KERNEL32.dll
 0002:000002a8       __imp_SearchPathW          00000001800c02a8     kernel32:KERNEL32.dll
 0002:000002b0       __imp_VirtualQuery         00000001800c02b0     kernel32:KERNEL32.dll
 0002:000002b8       __imp_VirtualProtect       00000001800c02b8     kernel32:KERNEL32.dll
 0002:000002c0       __imp_GetModuleHandleA     00000001800c02c0     kernel32:KERNEL32.dll
 0002:000002c8       __imp_GetCPInfo            00000001800c02c8     kernel32:KERNEL32.dll
 0002:000002d0       __imp_GetOEMCP             00000001800c02d0     kernel32:KERNEL32.dll
 0002:000002d8       __imp_GetACP               00000001800c02d8     kernel32:KERNEL32.dll
 0002:000002e0       __imp_GetStringTypeW       00000001800c02e0     kernel32:KERNEL32.dll
 0002:000002e8       __imp_EncodePointer        00000001800c02e8     kernel32:KERNEL32.dll
 0002:000002f0       __imp_DecodePointer        00000001800c02f0     kernel32:KERNEL32.dll
 0002:000002f8       __imp_InitializeCriticalSectionAndSpinCount 00000001800c02f8     kernel32:KERNEL32.dll
 0002:00000300       __imp_SwitchToThread       00000001800c0300     kernel32:KERNEL32.dll
 0002:00000308       __imp_TlsAlloc             00000001800c0308     kernel32:KERNEL32.dll
 0002:00000310       __imp_TlsGetValue          00000001800c0310     kernel32:KERNEL32.dll
 0002:00000318       __imp_TlsSetValue          00000001800c0318     kernel32:KERNEL32.dll
 0002:00000320       __imp_TlsFree              00000001800c0320     kernel32:KERNEL32.dll
 0002:00000328       __imp_GetSystemTimeAsFileTime 00000001800c0328     kernel32:KERNEL32.dll
 0002:00000330       __imp_LCMapStringW         00000001800c0330     kernel32:KERNEL32.dll
 0002:00000338       __imp_GetLocaleInfoW       00000001800c0338     kernel32:KERNEL32.dll
 0002:00000340       __imp_InitializeSListHead  00000001800c0340     kernel32:KERNEL32.dll
 0002:00000348       __imp_RtlCaptureContext    00000001800c0348     kernel32:KERNEL32.dll
 0002:00000350       __imp_RtlLookupFunctionEntry 00000001800c0350     kernel32:KERNEL32.dll
 0002:00000358       __imp_RtlVirtualUnwind     00000001800c0358     kernel32:KERNEL32.dll
 0002:00000360       __imp_UnhandledExceptionFilter 00000001800c0360     kernel32:KERNEL32.dll
 0002:00000368       __imp_SetUnhandledExceptionFilter 00000001800c0368     kernel32:KERNEL32.dll
 0002:00000370       __imp_TerminateProcess     00000001800c0370     kernel32:KERNEL32.dll
 0002:00000378       __imp_IsProcessorFeaturePresent 00000001800c0378     kernel32:KERNEL32.dll
 0002:00000380       __imp_IsDebuggerPresent    00000001800c0380     kernel32:KERNEL32.dll
 0002:00000388       __imp_GetStartupInfoW      00000001800c0388     kernel32:KERNEL32.dll
 0002:00000390       __imp_GetCurrentProcessId  00000001800c0390     kernel32:KERNEL32.dll
 0002:00000398       __imp_GetCurrentThreadId   00000001800c0398     kernel32:KERNEL32.dll
 0002:000003a0       __imp_RtlUnwindEx          00000001800c03a0     kernel32:KERNEL32.dll
 0002:000003a8       __imp_InterlockedPushEntrySList 00000001800c03a8     kernel32:KERNEL32.dll
 0002:000003b0       __imp_InterlockedFlushSList 00000001800c03b0     kernel32:KERNEL32.dll
 0002:000003b8       __imp_RtlPcToFileHeader    00000001800c03b8     kernel32:KERNEL32.dll
 0002:000003c0       __imp_RaiseException       00000001800c03c0     kernel32:KERNEL32.dll
 0002:000003c8       __imp_GetProcessHeap       00000001800c03c8     kernel32:KERNEL32.dll
 0002:000003d0       __imp_ExitProcess          00000001800c03d0     kernel32:KERNEL32.dll
 0002:000003d8       __imp_GetModuleHandleExW   00000001800c03d8     kernel32:KERNEL32.dll
 0002:000003e0       __imp_GetModuleFileNameW   00000001800c03e0     kernel32:KERNEL32.dll
 0002:000003e8       __imp_HeapFree             00000001800c03e8     kernel32:KERNEL32.dll
 0002:000003f0       __imp_HeapAlloc            00000001800c03f0     kernel32:KERNEL32.dll
 0002:000003f8       __imp_GetFileType          00000001800c03f8     kernel32:KERNEL32.dll
 0002:00000400       __imp_IsValidLocale        00000001800c0400     kernel32:KERNEL32.dll
 0002:00000408       __imp_GetUserDefaultLCID   00000001800c0408     kernel32:KERNEL32.dll
 0002:00000410       __imp_EnumSystemLocalesW   00000001800c0410     kernel32:KERNEL32.dll
 0002:00000418       __imp_HeapReAlloc          00000001800c0418     kernel32:KERNEL32.dll
 0002:00000420       \177KERNEL32_NULL_THUNK_DATA 00000001800c0420     kernel32:KERNEL32.dll
 0002:00000428       __imp_SysStringLen         00000001800c0428     oleaut32:OLEAUT32.dll
 0002:00000430       __imp_SysStringByteLen     00000001800c0430     oleaut32:OLEAUT32.dll
 0002:00000438       __imp_SysAllocStringLen    00000001800c0438     oleaut32:OLEAUT32.dll
 0002:00000440       __imp_SysFreeString        00000001800c0440     oleaut32:OLEAUT32.dll
 0002:00000448       \177OLEAUT32_NULL_THUNK_DATA 00000001800c0448     oleaut32:OLEAUT32.dll
 0002:00000450       __imp_CharUpperBuffW       00000001800c0450     user32:USER32.dll
 0002:00000458       __imp_CharUpperW           00000001800c0458     user32:USER32.dll
 0002:00000460       \177USER32_NULL_THUNK_DATA 00000001800c0460     user32:USER32.dll
 0002:00000468       __imp_GetFileVersionInfoSizeW 00000001800c0468     version:VERSION.dll
 0002:00000470       __imp_GetFileVersionInfoW  00000001800c0470     version:VERSION.dll
 0002:00000478       __imp_VerQueryValueW       00000001800c0478     version:VERSION.dll
 0002:00000480       \177VERSION_NULL_THUNK_DATA 00000001800c0480     version:VERSION.dll
 0002:00000488       __imp_PropVariantClear     00000001800c0488     ole32:ole32.dll
 0002:00000490       __imp_CoCreateGuid         00000001800c0490     ole32:ole32.dll
 0002:00000498       __imp_StringFromGUID2      00000001800c0498     ole32:ole32.dll
 0002:000004a0       __imp_PropVariantCopy      00000001800c04a0     ole32:ole32.dll
 0002:000004a8       \177ole32_NULL_THUNK_DATA  00000001800c04a8     ole32:ole32.dll
 0002:000004b0       __guard_check_icall_fptr   00000001800c04b0     LIBCMT:guard_support.obj
 0002:000004b8       __guard_dispatch_icall_fptr 00000001800c04b8     LIBCMT:guard_support.obj
 0002:000004c0       __xc_a                     00000001800c04c0     LIBCMT:initializers.obj
 0002:00000580       __xc_z                     00000001800c0580     LIBCMT:initializers.obj
 0002:00000588       __xi_a                     00000001800c0588     LIBCMT:initializers.obj
 0002:00000598       __acrt_stdio_initializer   00000001800c0598     libucrt:stdio_initializer.obj
 0002:000005a0       __acrt_tran_fma3_initializer 00000001800c05a0     libucrt:fma3_initializer.obj
 0002:000005a8       __acrt_timeset_initializer 00000001800c05a8     libucrt:timeset_initializer.obj
 0002:000005b0       __acrt_multibyte_initializer 00000001800c05b0     libucrt:multibyte_initializer.obj
 0002:000005b8       __xi_z                     00000001800c05b8     LIBCMT:initializers.obj
 0002:000005c0       __xp_a                     00000001800c05c0     LIBCMT:initializers.obj
 0002:000005c8       __acrt_locale_terminator   00000001800c05c8     libucrt:locale_initializer.obj
 0002:000005d0       __dcrt_console_output_terminator 00000001800c05d0     libucrt:console_output_initializer.obj
 0002:000005d8       __acrt_stdio_terminator    00000001800c05d8     libucrt:stdio_initializer.obj
 0002:000005e0       __xp_z                     00000001800c05e0     LIBCMT:initializers.obj
 0002:000005e8       __xt_a                     00000001800c05e8     LIBCMT:initializers.obj
 0002:000005f0       __xt_z                     00000001800c05f0     LIBCMT:initializers.obj
 0002:00000600       IID_IUnknown               00000001800c0600     uuid:unknwn_i.obj
 0002:00000618       ??_7exception@std@@6B@     00000001800c0618     libcpmt:xthrow.obj
 0002:00000630       ??_7bad_alloc@std@@6B@     00000001800c0630     libcpmt:xthrow.obj
 0002:00000640       ??_C@_0P@GHFPNOJB@bad?5allocation@ 00000001800c0640     libcpmt:xthrow.obj
 0002:00000658       ??_7logic_error@std@@6B@   00000001800c0658     libcpmt:xthrow.obj
 0002:00000670       ??_7length_error@std@@6B@  00000001800c0670     libcpmt:xthrow.obj
 0002:00000688       ??_7out_of_range@std@@6B@  00000001800c0688     libcpmt:xthrow.obj
 0002:000006a0       ??_7runtime_error@std@@6B@ 00000001800c06a0     libcpmt:xthrow.obj
 0002:000006b0       ?_BADOFF@std@@3_JB         00000001800c06b0     libcpmt:ios.obj
 0002:00000710       ??_7_Facet_base@std@@6B@   00000001800c0710     libcpmt:locale0.obj
 0002:00000730       ??_7_Locimp@locale@std@@6B@ 00000001800c0730     libcpmt:locale0.obj
 0002:00000748       ??_C@_01NBENCBCI@?$CK@     00000001800c0748     libcpmt:locale0.obj
 0002:0000074c       ??_C@_01GFHCPBMG@C@        00000001800c074c     libcpmt:locale0.obj
 0002:00000ea0       ??_C@_0BN@LKKBCCDB@address?5family?5not?5supported@ 00000001800c0ea0     libcpmt:syserror.obj
 0002:00000ec0       ??_C@_0P@LDMLAFHI@address?5in?5use@ 00000001800c0ec0     libcpmt:syserror.obj
 0002:00000ed0       ??_C@_0BG@DHPCNBJB@address?5not?5available@ 00000001800c0ed0     libcpmt:syserror.obj
 0002:00000ee8       ??_C@_0BC@DFIBIBIL@already?5connected@ 00000001800c0ee8     libcpmt:syserror.obj
 0002:00000f00       ??_C@_0BH@CAKOHOMI@argument?5list?5too?5long@ 00000001800c0f00     libcpmt:syserror.obj
 0002:00000f18       ??_C@_0BH@CGIMPKIM@argument?5out?5of?5domain@ 00000001800c0f18     libcpmt:syserror.obj
 0002:00000f30       ??_C@_0M@KGHGGJGL@bad?5address@ 00000001800c0f30     libcpmt:syserror.obj
 0002:00000f40       ??_C@_0BE@MPJPGCEO@bad?5file?5descriptor@ 00000001800c0f40     libcpmt:syserror.obj
 0002:00000f58       ??_C@_0M@PMMIEFCP@bad?5message@ 00000001800c0f58     libcpmt:syserror.obj
 0002:00000f68       ??_C@_0M@KPHOFDBE@broken?5pipe@ 00000001800c0f68     libcpmt:syserror.obj
 0002:00000f78       ??_C@_0BD@MGNDDEGM@connection?5aborted@ 00000001800c0f78     libcpmt:syserror.obj
 0002:00000f90       ??_C@_0BP@KAIHPOGN@connection?5already?5in?5progress@ 00000001800c0f90     libcpmt:syserror.obj
 0002:00000fb0       ??_C@_0BD@PJLIIJEL@connection?5refused@ 00000001800c0fb0     libcpmt:syserror.obj
 0002:00000fc8       ??_C@_0BB@IECNJNOI@connection?5reset@ 00000001800c0fc8     libcpmt:syserror.obj
 0002:00000fe0       ??_C@_0BC@PPHBOELF@cross?5device?5link@ 00000001800c0fe0     libcpmt:syserror.obj
 0002:00000ff8       ??_C@_0BN@KDMIFEIP@destination?5address?5required@ 00000001800c0ff8     libcpmt:syserror.obj
 0002:00001018       ??_C@_0BI@NGCEHDD@device?5or?5resource?5busy@ 00000001800c1018     libcpmt:syserror.obj
 0002:00001030       ??_C@_0BE@JIDOCPHM@directory?5not?5empty@ 00000001800c1030     libcpmt:syserror.obj
 0002:00001048       ??_C@_0BI@BNCLIGPB@executable?5format?5error@ 00000001800c1048     libcpmt:syserror.obj
 0002:00001060       ??_C@_0M@MIDIAGJP@file?5exists@ 00000001800c1060     libcpmt:syserror.obj
 0002:00001070       ??_C@_0P@DNAJLBJK@file?5too?5large@ 00000001800c1070     libcpmt:syserror.obj
 0002:00001080       ??_C@_0BC@EJHOMAAK@filename?5too?5long@ 00000001800c1080     libcpmt:syserror.obj
 0002:00001098       ??_C@_0BH@KEFGLDAF@function?5not?5supported@ 00000001800c1098     libcpmt:syserror.obj
 0002:000010b0       ??_C@_0BB@DHFDFGDM@host?5unreachable@ 00000001800c10b0     libcpmt:syserror.obj
 0002:000010c8       ??_C@_0BD@JPHBMONG@identifier?5removed@ 00000001800c10c8     libcpmt:syserror.obj
 0002:000010e0       ??_C@_0BG@CDNPAGJK@illegal?5byte?5sequence@ 00000001800c10e0     libcpmt:syserror.obj
 0002:000010f8       ??_C@_0CD@BNPLBMNA@inappropriate?5io?5control?5operat@ 00000001800c10f8     libcpmt:syserror.obj
 0002:00001120       ??_C@_0M@EGEKIIMP@interrupted@ 00000001800c1120     libcpmt:syserror.obj
 0002:00001130       ??_C@_0BB@FCMFBGOM@invalid?5argument@ 00000001800c1130     libcpmt:syserror.obj
 0002:00001148       ??_C@_0N@OHAFKDEK@invalid?5seek@ 00000001800c1148     libcpmt:syserror.obj
 0002:00001158       ??_C@_08GLNPIFBN@io?5error@ 00000001800c1158     libcpmt:syserror.obj
 0002:00001168       ??_C@_0P@FLLDBIDK@is?5a?5directory@ 00000001800c1168     libcpmt:syserror.obj
 0002:00001178       ??_C@_0N@IFLPBIOP@message?5size@ 00000001800c1178     libcpmt:syserror.obj
 0002:00001188       ??_C@_0N@KIIEAAIO@network?5down@ 00000001800c1188     libcpmt:syserror.obj
 0002:00001198       ??_C@_0O@FNPDBHEE@network?5reset@ 00000001800c1198     libcpmt:syserror.obj
 0002:000011a8       ??_C@_0BE@IFNCKGE@network?5unreachable@ 00000001800c11a8     libcpmt:syserror.obj
 0002:000011c0       ??_C@_0BA@PFFCAOFK@no?5buffer?5space@ 00000001800c11c0     libcpmt:syserror.obj
 0002:000011d0       ??_C@_0BB@IEPBLJHK@no?5child?5process@ 00000001800c11d0     libcpmt:syserror.obj
 0002:000011e8       ??_C@_07PLECNNKG@no?5link@ 00000001800c11e8     libcpmt:syserror.obj
 0002:000011f0       ??_C@_0BC@NJECKMKE@no?5lock?5available@ 00000001800c11f0     libcpmt:syserror.obj
 0002:00001208       ??_C@_0BF@PBGGPKKE@no?5message?5available@ 00000001800c1208     libcpmt:syserror.obj
 0002:00001220       ??_C@_0L@EDOLMPAK@no?5message@ 00000001800c1220     libcpmt:syserror.obj
 0002:00001230       ??_C@_0BD@EAMBFIDF@no?5protocol?5option@ 00000001800c1230     libcpmt:syserror.obj
 0002:00001248       ??_C@_0BD@IJDJKDEA@no?5space?5on?5device@ 00000001800c1248     libcpmt:syserror.obj
 0002:00001260       ??_C@_0BE@MKFDAFMP@no?5stream?5resources@ 00000001800c1260     libcpmt:syserror.obj
 0002:00001278       ??_C@_0BK@IMCPHCBI@no?5such?5device?5or?5address@ 00000001800c1278     libcpmt:syserror.obj
 0002:00001298       ??_C@_0P@FDINDDOK@no?5such?5device@ 00000001800c1298     libcpmt:syserror.obj
 0002:000012a8       ??_C@_0BK@NDOCBPGE@no?5such?5file?5or?5directory@ 00000001800c12a8     libcpmt:syserror.obj
 0002:000012c8       ??_C@_0BA@ENLPPKBN@no?5such?5process@ 00000001800c12c8     libcpmt:syserror.obj
 0002:000012d8       ??_C@_0BA@DOCPFFJG@not?5a?5directory@ 00000001800c12d8     libcpmt:syserror.obj
 0002:000012e8       ??_C@_0N@POEIPGGF@not?5a?5socket@ 00000001800c12e8     libcpmt:syserror.obj
 0002:000012f8       ??_C@_0N@LGAPMMPI@not?5a?5stream@ 00000001800c12f8     libcpmt:syserror.obj
 0002:00001308       ??_C@_0O@GLMIBBEG@not?5connected@ 00000001800c1308     libcpmt:syserror.obj
 0002:00001318       ??_C@_0BC@ENOOLCNF@not?5enough?5memory@ 00000001800c1318     libcpmt:syserror.obj
 0002:00001330       ??_C@_0O@NHEDABJP@not?5supported@ 00000001800c1330     libcpmt:syserror.obj
 0002:00001340       ??_C@_0BD@MOLBPMEA@operation?5canceled@ 00000001800c1340     libcpmt:syserror.obj
 0002:00001358       ??_C@_0BG@KDKHOPCO@operation?5in?5progress@ 00000001800c1358     libcpmt:syserror.obj
 0002:00001370       ??_C@_0BI@OHIEJAAB@operation?5not?5permitted@ 00000001800c1370     libcpmt:syserror.obj
 0002:00001388       ??_C@_0BI@LNEGIFLN@operation?5not?5supported@ 00000001800c1388     libcpmt:syserror.obj
 0002:000013a0       ??_C@_0BG@OEMDKMEE@operation?5would?5block@ 00000001800c13a0     libcpmt:syserror.obj
 0002:000013b8       ??_C@_0L@BLPOFLNJ@owner?5dead@ 00000001800c13b8     libcpmt:syserror.obj
 0002:000013c8       ??_C@_0BC@CIJDGCDI@permission?5denied@ 00000001800c13c8     libcpmt:syserror.obj
 0002:000013e0       ??_C@_0P@FNPOCJBE@protocol?5error@ 00000001800c13e0     libcpmt:syserror.obj
 0002:000013f0       ??_C@_0BH@JPPPLHJB@protocol?5not?5supported@ 00000001800c13f0     libcpmt:syserror.obj
 0002:00001408       ??_C@_0BG@EICBIHDP@read?5only?5file?5system@ 00000001800c1408     libcpmt:syserror.obj
 0002:00001420       ??_C@_0BO@BJBOMOEJ@resource?5deadlock?5would?5occur@ 00000001800c1420     libcpmt:syserror.obj
 0002:00001440       ??_C@_0BP@LKNGHENJ@resource?5unavailable?5try?5again@ 00000001800c1440     libcpmt:syserror.obj
 0002:00001460       ??_C@_0BE@GOIPJJHG@result?5out?5of?5range@ 00000001800c1460     libcpmt:syserror.obj
 0002:00001478       ??_C@_0BG@MPLKFPAE@state?5not?5recoverable@ 00000001800c1478     libcpmt:syserror.obj
 0002:00001490       ??_C@_0P@DIIFGFCG@stream?5timeout@ 00000001800c1490     libcpmt:syserror.obj
 0002:000014a0       ??_C@_0P@IPFDMIFL@text?5file?5busy@ 00000001800c14a0     libcpmt:syserror.obj
 0002:000014b0       ??_C@_09KJPPMAOI@timed?5out@ 00000001800c14b0     libcpmt:syserror.obj
 0002:000014c0       ??_C@_0BO@HACHBEKI@too?5many?5files?5open?5in?5system@ 00000001800c14c0     libcpmt:syserror.obj
 0002:000014e0       ??_C@_0BE@GHAFMPAH@too?5many?5files?5open@ 00000001800c14e0     libcpmt:syserror.obj
 0002:000014f8       ??_C@_0P@HCOMKFCC@too?5many?5links@ 00000001800c14f8     libcpmt:syserror.obj
 0002:00001508       ??_C@_0BO@EFGOJEF@too?5many?5symbolic?5link?5levels@ 00000001800c1508     libcpmt:syserror.obj
 0002:00001528       ??_C@_0BA@KGKGOOJA@value?5too?5large@ 00000001800c1528     libcpmt:syserror.obj
 0002:00001538       ??_C@_0BE@MIEJDDNH@wrong?5protocol?5type@ 00000001800c1538     libcpmt:syserror.obj
 0002:00001550       ??_C@_0O@BFJCFAAK@unknown?5error@ 00000001800c1550     libcpmt:syserror.obj
 0002:00001568       ??_7bad_array_new_length@std@@6B@ 00000001800c1568     libcpmt:xonce.obj
 0002:00001580       ??_7_System_error@std@@6B@ 00000001800c1580     libcpmt:xonce.obj
 0002:00001598       ??_7system_error@std@@6B@  00000001800c1598     libcpmt:xonce.obj
 0002:000015b0       ??_7bad_cast@std@@6B@      00000001800c15b0     libcpmt:locale.obj
 0002:000015e8       ??_C@_1BK@MGMFAEKH@?$AAk?$AAe?$AAr?$AAn?$AAe?$AAl?$AA3?$AA2?$AA?4?$AAd?$AAl?$AAl@ 00000001800c15e8     libcpmt:winapisupp.obj
 0002:00001608       ??_C@_08KNHFBNJ@FlsAlloc@  00000001800c1608     libcpmt:winapisupp.obj
 0002:00001618       ??_C@_07PEJMOBNF@FlsFree@  00000001800c1618     libcpmt:winapisupp.obj
 0002:00001620       ??_C@_0M@GDNOONDI@FlsGetValue@ 00000001800c1620     libcpmt:winapisupp.obj
 0002:00001630       ??_C@_0M@JCPCPOEF@FlsSetValue@ 00000001800c1630     libcpmt:winapisupp.obj
 0002:00001640       ??_C@_0BM@HCFOFFN@InitializeCriticalSectionEx@ 00000001800c1640     libcpmt:winapisupp.obj
 0002:00001660       ??_C@_0BE@GPLMMCMH@InitOnceExecuteOnce@ 00000001800c1660     libcpmt:winapisupp.obj
 0002:00001678       ??_C@_0P@DLHPPCNH@CreateEventExW@ 00000001800c1678     libcpmt:winapisupp.obj
 0002:00001688       ??_C@_0BB@MEFPJLHN@CreateSemaphoreW@ 00000001800c1688     libcpmt:winapisupp.obj
 0002:000016a0       ??_C@_0BD@KIEEOEEH@CreateSemaphoreExW@ 00000001800c16a0     libcpmt:winapisupp.obj
 0002:000016b8       ??_C@_0BG@OGFAJCKC@CreateThreadpoolTimer@ 00000001800c16b8     libcpmt:winapisupp.obj
 0002:000016d0       ??_C@_0BD@LPLEMMDI@SetThreadpoolTimer@ 00000001800c16d0     libcpmt:winapisupp.obj
 0002:000016e8       ??_C@_0CA@FMNJENH@WaitForThreadpoolTimerCallbacks@ 00000001800c16e8     libcpmt:winapisupp.obj
 0002:00001708       ??_C@_0BF@DCFCCNOC@CloseThreadpoolTimer@ 00000001800c1708     libcpmt:winapisupp.obj
 0002:00001720       ??_C@_0BF@FLABGKKM@CreateThreadpoolWait@ 00000001800c1720     libcpmt:winapisupp.obj
 0002:00001738       ??_C@_0BC@MGCOHNA@SetThreadpoolWait@ 00000001800c1738     libcpmt:winapisupp.obj
 0002:00001750       ??_C@_0BE@OCIOMIMP@CloseThreadpoolWait@ 00000001800c1750     libcpmt:winapisupp.obj
 0002:00001768       ??_C@_0BJ@LKGHFHBO@FlushProcessWriteBuffers@ 00000001800c1768     libcpmt:winapisupp.obj
 0002:00001788       ??_C@_0BP@KALKKPMO@FreeLibraryWhenCallbackReturns@ 00000001800c1788     libcpmt:winapisupp.obj
 0002:000017a8       ??_C@_0BK@DFNBACLA@GetCurrentProcessorNumber@ 00000001800c17a8     libcpmt:winapisupp.obj
 0002:000017c8       ??_C@_0BE@FKKLLFLM@CreateSymbolicLinkW@ 00000001800c17c8     libcpmt:winapisupp.obj
 0002:000017e0       ??_C@_0BE@JOGNEJCI@GetCurrentPackageId@ 00000001800c17e0     libcpmt:winapisupp.obj
 0002:000017f8       ??_C@_0P@CDHHOHKP@GetTickCount64@ 00000001800c17f8     libcpmt:winapisupp.obj
 0002:00001808       ??_C@_0BN@NEEHBBPO@GetFileInformationByHandleEx@ 00000001800c1808     libcpmt:winapisupp.obj
 0002:00001828       ??_C@_0BL@KBBHGKCM@SetFileInformationByHandle@ 00000001800c1828     libcpmt:winapisupp.obj
 0002:00001848       ??_C@_0BP@FPNJPEJC@GetSystemTimePreciseAsFileTime@ 00000001800c1848     libcpmt:winapisupp.obj
 0002:00001868       ??_C@_0BM@HLJJNPAH@InitializeConditionVariable@ 00000001800c1868     libcpmt:winapisupp.obj
 0002:00001888       ??_C@_0BG@BFNILBLN@WakeConditionVariable@ 00000001800c1888     libcpmt:winapisupp.obj
 0002:000018a0       ??_C@_0BJ@PGPPEPCC@WakeAllConditionVariable@ 00000001800c18a0     libcpmt:winapisupp.obj
 0002:000018c0       ??_C@_0BJ@JEBJOJFJ@SleepConditionVariableCS@ 00000001800c18c0     libcpmt:winapisupp.obj
 0002:000018e0       ??_C@_0BC@MMLHEBPB@InitializeSRWLock@ 00000001800c18e0     libcpmt:winapisupp.obj
 0002:000018f8       ??_C@_0BI@OMNLIJDB@AcquireSRWLockExclusive@ 00000001800c18f8     libcpmt:winapisupp.obj
 0002:00001910       ??_C@_0BL@OGHFEMNA@TryAcquireSRWLockExclusive@ 00000001800c1910     libcpmt:winapisupp.obj
 0002:00001930       ??_C@_0BI@HMIEPCNJ@ReleaseSRWLockExclusive@ 00000001800c1930     libcpmt:winapisupp.obj
 0002:00001948       ??_C@_0BK@LGACAGIC@SleepConditionVariableSRW@ 00000001800c1948     libcpmt:winapisupp.obj
 0002:00001968       ??_C@_0BF@GGPHFPJA@CreateThreadpoolWork@ 00000001800c1968     libcpmt:winapisupp.obj
 0002:00001980       ??_C@_0BF@NHDAIMMO@SubmitThreadpoolWork@ 00000001800c1980     libcpmt:winapisupp.obj
 0002:00001998       ??_C@_0BE@NPHIPNPD@CloseThreadpoolWork@ 00000001800c1998     libcpmt:winapisupp.obj
 0002:000019b0       ??_C@_0BA@IHGNDAEB@CompareStringEx@ 00000001800c19b0     libcpmt:winapisupp.obj
 0002:000019c0       ??_C@_0BA@ONOKGCMP@GetLocaleInfoEx@ 00000001800c19c0     libcpmt:winapisupp.obj
 0002:000019d0       ??_C@_0O@KKBNKAPF@LCMapStringEx@ 00000001800c19d0     libcpmt:winapisupp.obj
 0002:000019e8       ??_7?$ctype@_W@std@@6B@    00000001800c19e8     libcpmt:wlocale.obj
 0002:00001a68       ??_7?$num_put@_WV?$ostreambuf_iterator@_WU?$char_traits@_W@std@@@std@@@std@@6B@ 00000001800c1a68     libcpmt:wlocale.obj
 0002:00001ac8       ??_7?$numpunct@_W@std@@6B@ 00000001800c1ac8     libcpmt:wlocale.obj
 0002:00001b08       ??_C@_13IMODFHAA@?$AA?9@   00000001800c1b08     libcpmt:wlocale.obj
 0002:00001b0c       ??_C@_01JOAMLHOP@?9@       00000001800c1b0c     libcpmt:wlocale.obj
 0002:00001b10       __xmm@80000000000000008000000000000000 00000001800c1b10     libcpmt:wlocale.obj
 0002:00003840       ??_C@_15EMKDOKLE@?$AAa?$AAr@ 00000001800c3840     libcpmt:winapinls.obj
 0002:00003848       ??_C@_15KNPADPLH@?$AAb?$AAg@ 00000001800c3848     libcpmt:winapinls.obj
 0002:00003850       ??_C@_15EDMHLDMO@?$AAc?$AAa@ 00000001800c3850     libcpmt:winapinls.obj
 0002:00003858       ??_C@_1O@BPEAJADD@?$AAz?$AAh?$AA?9?$AAC?$AAH?$AAS@ 00000001800c3858     libcpmt:winapinls.obj
 0002:00003868       ??_C@_15LJNHCMNK@?$AAc?$AAs@ 00000001800c3868     libcpmt:winapinls.obj
 0002:00003870       ??_C@_15NBKABECB@?$AAd?$AAe@ 00000001800c3870     libcpmt:winapinls.obj
 0002:00003878       ??_C@_15GHPEIIAO@?$AAe?$AAl@ 00000001800c3878     libcpmt:winapinls.obj
 0002:00003880       ??_C@_15MNPNEAIF@?$AAe?$AAn@ 00000001800c3880     libcpmt:winapinls.obj
 0002:00003888       ??_C@_15GPIOMPMH@?$AAe?$AAs@ 00000001800c3888     libcpmt:winapinls.obj
 0002:00003890       ??_C@_15NGLOAKJC@?$AAf?$AAi@ 00000001800c3890     libcpmt:winapinls.obj
 0002:00003898       ??_C@_15FBKGNKAM@?$AAf?$AAr@ 00000001800c3898     libcpmt:winapinls.obj
 0002:000038a0       ??_C@_15PGHLIDMF@?$AAh?$AAu@ 00000001800c38a0     libcpmt:winapinls.obj
 0002:000038a8       ??_C@_15BIEMAPLM@?$AAi?$AAs@ 00000001800c38a8     libcpmt:winapinls.obj
 0002:000038b0       ??_C@_15IFJLDHAF@?$AAi?$AAt@ 00000001800c38b0     libcpmt:winapinls.obj
 0002:000038b8       ??_C@_15GEMIOCAG@?$AAj?$AAa@ 00000001800c38b8     libcpmt:winapinls.obj
 0002:000038c0       ??_C@_15EPELEGJA@?$AAk?$AAo@ 00000001800c38c0     libcpmt:winapinls.obj
 0002:000038c8       ??_C@_15NDDHIMN@?$AAn?$AAl@ 00000001800c38c8     libcpmt:winapinls.obj
 0002:000038d0       ??_C@_15DEOPBLCG@?$AAp?$AAl@ 00000001800c38d0     libcpmt:winapinls.obj
 0002:000038d8       ??_C@_15KBECGEFG@?$AAp?$AAt@ 00000001800c38d8     libcpmt:winapinls.obj
 0002:000038e0       ??_C@_15GLJCBFMD@?$AAr?$AAo@ 00000001800c38e0     libcpmt:winapinls.obj
 0002:000038e8       ??_C@_15GLKMLLHM@?$AAh?$AAr@ 00000001800c38e8     libcpmt:winapinls.obj
 0002:000038f0       ??_C@_15CPKMFBDB@?$AAs?$AAk@ 00000001800c38f0     libcpmt:winapinls.obj
 0002:000038f8       ??_C@_15BAAIOGMK@?$AAs?$AAq@ 00000001800c38f8     libcpmt:winapinls.obj
 0002:00003900       ??_C@_15INNPNOHD@?$AAs?$AAv@ 00000001800c3900     libcpmt:winapinls.obj
 0002:00003908       ??_C@_15CABMMOGH@?$AAt?$AAh@ 00000001800c3908     libcpmt:winapinls.obj
 0002:00003910       ??_C@_15BPLIHJJM@?$AAt?$AAr@ 00000001800c3910     libcpmt:winapinls.obj
 0002:00003918       ??_C@_15NEOEKKDJ@?$AAu?$AAr@ 00000001800c3918     libcpmt:winapinls.obj
 0002:00003920       ??_C@_15NFICGAJK@?$AAi?$AAd@ 00000001800c3920     libcpmt:winapinls.obj
 0002:00003928       ??_C@_15PJPFLCCM@?$AAu?$AAk@ 00000001800c3928     libcpmt:winapinls.obj
 0002:00003930       ??_C@_15HPJPHDM@?$AAb?$AAe@ 00000001800c3930     libcpmt:winapinls.obj
 0002:00003938       ??_C@_15LCHLGJII@?$AAs?$AAl@ 00000001800c3938     libcpmt:winapinls.obj
 0002:00003940       ??_C@_15PCFJPHHO@?$AAe?$AAt@ 00000001800c3940     libcpmt:winapinls.obj
 0002:00003948       ??_C@_15HPFPGODN@?$AAl?$AAv@ 00000001800c3948     libcpmt:winapinls.obj
 0002:00003950       ??_C@_15NFFGKGLG@?$AAl?$AAt@ 00000001800c3950     libcpmt:winapinls.obj
 0002:00003958       ??_C@_15BDAKCCHN@?$AAf?$AAa@ 00000001800c3958     libcpmt:winapinls.obj
 0002:00003960       ??_C@_15NFGIAIAJ@?$AAv?$AAi@ 00000001800c3960     libcpmt:winapinls.obj
 0002:00003968       ??_C@_15LMKNDMHN@?$AAh?$AAy@ 00000001800c3968     libcpmt:winapinls.obj
 0002:00003970       ??_C@_15IJBHMCFL@?$AAa?$AAz@ 00000001800c3970     libcpmt:winapinls.obj
 0002:00003978       ??_C@_15EKOFJABL@?$AAe?$AAu@ 00000001800c3978     libcpmt:winapinls.obj
 0002:00003980       ??_C@_15BGHADCNK@?$AAm?$AAk@ 00000001800c3980     libcpmt:winapinls.obj
 0002:00003988       ??_C@_15JDNICKHM@?$AAa?$AAf@ 00000001800c3988     libcpmt:winapinls.obj
 0002:00003990       ??_C@_15KPJEDBKD@?$AAk?$AAa@ 00000001800c3990     libcpmt:winapinls.obj
 0002:00003998       ??_C@_15PDNFFFEO@?$AAf?$AAo@ 00000001800c3998     libcpmt:winapinls.obj
 0002:000039a0       ??_C@_15OMLEGLOC@?$AAh?$AAi@ 00000001800c39a0     libcpmt:winapinls.obj
 0002:000039a8       ??_C@_15IDNNENKK@?$AAm?$AAs@ 00000001800c39a8     libcpmt:winapinls.obj
 0002:000039b0       ??_C@_15MACJNBMH@?$AAk?$AAk@ 00000001800c39b0     libcpmt:winapinls.obj
 0002:000039b8       ??_C@_15DKDJEOND@?$AAk?$AAy@ 00000001800c39b8     libcpmt:winapinls.obj
 0002:000039c0       ??_C@_15DFGDLJBG@?$AAs?$AAw@ 00000001800c39c0     libcpmt:winapinls.obj
 0002:000039c8       ??_C@_15BBFAICNG@?$AAu?$AAz@ 00000001800c39c8     libcpmt:winapinls.obj
 0002:000039d0       ??_C@_15DKNDCGEA@?$AAt?$AAt@ 00000001800c39d0     libcpmt:winapinls.obj
 0002:000039d8       ??_C@_15MGIFMDPL@?$AAp?$AAa@ 00000001800c39d8     libcpmt:winapinls.obj
 0002:000039e0       ??_C@_15HCNDBBA@?$AAg?$AAu@ 00000001800c39e0     libcpmt:winapinls.obj
 0002:000039e8       ??_C@_15FNBEIBON@?$AAt?$AAa@ 00000001800c39e8     libcpmt:winapinls.obj
 0002:000039f0       ??_C@_15NCHGBGLK@?$AAt?$AAe@ 00000001800c39f0     libcpmt:winapinls.obj
 0002:000039f8       ??_C@_15PHPHCBPF@?$AAk?$AAn@ 00000001800c39f8     libcpmt:winapinls.obj
 0002:00003a00       ??_C@_15DLGBCKMP@?$AAm?$AAr@ 00000001800c3a00     libcpmt:winapinls.obj
 0002:00003a08       ??_C@_15EABBLBFF@?$AAs?$AAa@ 00000001800c3a08     libcpmt:winapinls.obj
 0002:00003a10       ??_C@_15CBKOMCOI@?$AAm?$AAn@ 00000001800c3a10     libcpmt:winapinls.obj
 0002:00003a18       ??_C@_15CKDMCJAF@?$AAg?$AAl@ 00000001800c3a18     libcpmt:winapinls.obj
 0002:00003a20       ??_C@_17CNJFBPG@?$AAk?$AAo?$AAk@ 00000001800c3a20     libcpmt:winapinls.obj
 0002:00003a28       ??_C@_17FFBJICPL@?$AAs?$AAy?$AAr@ 00000001800c3a28     libcpmt:winapinls.obj
 0002:00003a30       ??_C@_17KPNDCPAF@?$AAd?$AAi?$AAv@ 00000001800c3a30     libcpmt:winapinls.obj
 0002:00003a38       ??_C@_1M@OKAHONE@?$AAa?$AAr?$AA?9?$AAS?$AAA@ 00000001800c3a38     libcpmt:winapinls.obj
 0002:00003a48       ??_C@_1M@FFFIGIGK@?$AAb?$AAg?$AA?9?$AAB?$AAG@ 00000001800c3a48     libcpmt:winapinls.obj
 0002:00003a58       ??_C@_1M@BJNKEDC@?$AAc?$AAa?$AA?9?$AAE?$AAS@ 00000001800c3a58     libcpmt:winapinls.obj
 0002:00003a68       ??_C@_1M@CLNBBOPM@?$AAz?$AAh?$AA?9?$AAT?$AAW@ 00000001800c3a68     libcpmt:winapinls.obj
 0002:00003a78       ??_C@_1M@IJJHFJHA@?$AAc?$AAs?$AA?9?$AAC?$AAZ@ 00000001800c3a78     libcpmt:winapinls.obj
 0002:00003a88       ??_C@_1M@CLPEOBGI@?$AAd?$AAa?$AA?9?$AAD?$AAK@ 00000001800c3a88     libcpmt:winapinls.obj
 0002:00003a98       ??_C@_1M@MCMADGCB@?$AAd?$AAe?$AA?9?$AAD?$AAE@ 00000001800c3a98     libcpmt:winapinls.obj
 0002:00003aa8       ??_C@_1M@OOCKEMAM@?$AAe?$AAl?$AA?9?$AAG?$AAR@ 00000001800c3aa8     libcpmt:winapinls.obj
 0002:00003ab8       ??_C@_1M@BMHNFIME@?$AAe?$AAn?$AA?9?$AAU?$AAS@ 00000001800c3ab8     libcpmt:winapinls.obj
 0002:00003ac8       ??_C@_1M@DDNJFGID@?$AAf?$AAi?$AA?9?$AAF?$AAI@ 00000001800c3ac8     libcpmt:winapinls.obj
 0002:00003ad8       ??_C@_1M@GLIPPMAC@?$AAf?$AAr?$AA?9?$AAF?$AAR@ 00000001800c3ad8     libcpmt:winapinls.obj
 0002:00003ae8       ??_C@_1M@GFMCHPE@?$AAh?$AAe?$AA?9?$AAI?$AAL@ 00000001800c3ae8     libcpmt:winapinls.obj
 0002:00003af8       ??_C@_1M@MHLPGNKM@?$AAh?$AAu?$AA?9?$AAH?$AAU@ 00000001800c3af8     libcpmt:winapinls.obj
 0002:00003b08       ??_C@_1M@LPDDNNPN@?$AAi?$AAs?$AA?9?$AAI?$AAS@ 00000001800c3b08     libcpmt:winapinls.obj
 0002:00003b18       ??_C@_1M@MADIPODN@?$AAi?$AAt?$AA?9?$AAI?$AAT@ 00000001800c3b18     libcpmt:winapinls.obj
 0002:00003b28       ??_C@_1M@HPNHIDJI@?$AAj?$AAa?$AA?9?$AAJ?$AAP@ 00000001800c3b28     libcpmt:winapinls.obj
 0002:00003b38       ??_C@_1M@JLOOOEGK@?$AAk?$AAo?$AA?9?$AAK?$AAR@ 00000001800c3b38     libcpmt:winapinls.obj
 0002:00003b48       ??_C@_1M@IHBJJGG@?$AAn?$AAl?$AA?9?$AAN?$AAL@ 00000001800c3b48     libcpmt:winapinls.obj
 0002:00003b58       ??_C@_1M@EANAGDL@?$AAn?$AAb?$AA?9?$AAN?$AAO@ 00000001800c3b58     libcpmt:winapinls.obj
 0002:00003b68       ??_C@_1M@NEIEMEGP@?$AAp?$AAl?$AA?9?$AAP?$AAL@ 00000001800c3b68     libcpmt:winapinls.obj
 0002:00003b78       ??_C@_1M@BOCFIGEP@?$AAp?$AAt?$AA?9?$AAB?$AAR@ 00000001800c3b78     libcpmt:winapinls.obj
 0002:00003b88       ??_C@_1M@IMPFOPBG@?$AAr?$AAo?$AA?9?$AAR?$AAO@ 00000001800c3b88     libcpmt:winapinls.obj
 0002:00003b98       ??_C@_1M@IDNNEJMM@?$AAr?$AAu?$AA?9?$AAR?$AAU@ 00000001800c3b98     libcpmt:winapinls.obj
 0002:00003ba8       ??_C@_1M@LILEEOGM@?$AAh?$AAr?$AA?9?$AAH?$AAR@ 00000001800c3ba8     libcpmt:winapinls.obj
 0002:00003bb8       ??_C@_1M@FKIFEHPB@?$AAs?$AAk?$AA?9?$AAS?$AAK@ 00000001800c3bb8     libcpmt:winapinls.obj
 0002:00003bc8       ??_C@_1M@LJMAMNPJ@?$AAs?$AAq?$AA?9?$AAA?$AAL@ 00000001800c3bc8     libcpmt:winapinls.obj
 0002:00003bd8       ??_C@_1M@GIAKDKJK@?$AAs?$AAv?$AA?9?$AAS?$AAE@ 00000001800c3bd8     libcpmt:winapinls.obj
 0002:00003be8       ??_C@_1M@MKJKIKCL@?$AAt?$AAh?$AA?9?$AAT?$AAH@ 00000001800c3be8     libcpmt:winapinls.obj
 0002:00003bf8       ??_C@_1M@MFLCCMPB@?$AAt?$AAr?$AA?9?$AAT?$AAR@ 00000001800c3bf8     libcpmt:winapinls.obj
 0002:00003c08       ??_C@_1M@OIJHDKJN@?$AAu?$AAr?$AA?9?$AAP?$AAK@ 00000001800c3c08     libcpmt:winapinls.obj
 0002:00003c18       ??_C@_1M@LHIPCIEK@?$AAi?$AAd?$AA?9?$AAI?$AAD@ 00000001800c3c18     libcpmt:winapinls.obj
 0002:00003c28       ??_C@_1M@MFMOBGI@?$AAu?$AAk?$AA?9?$AAU?$AAA@ 00000001800c3c28     libcpmt:winapinls.obj
 0002:00003c38       ??_C@_1M@OBGLJIPL@?$AAb?$AAe?$AA?9?$AAB?$AAY@ 00000001800c3c38     libcpmt:winapinls.obj
 0002:00003c48       ??_C@_1M@BCFAJEAD@?$AAs?$AAl?$AA?9?$AAS?$AAI@ 00000001800c3c48     libcpmt:winapinls.obj
 0002:00003c58       ??_C@_1M@FKFFEDDN@?$AAe?$AAt?$AA?9?$AAE?$AAE@ 00000001800c3c58     libcpmt:winapinls.obj
 0002:00003c68       ??_C@_1M@KGKKAACI@?$AAl?$AAv?$AA?9?$AAL?$AAV@ 00000001800c3c68     libcpmt:winapinls.obj
 0002:00003c78       ??_C@_1M@IFGBIJO@?$AAl?$AAt?$AA?9?$AAL?$AAT@ 00000001800c3c78     libcpmt:winapinls.obj
 0002:00003c88       ??_C@_1M@FGEAHEDM@?$AAf?$AAa?$AA?9?$AAI?$AAR@ 00000001800c3c88     libcpmt:winapinls.obj
 0002:00003c98       ??_C@_1M@KBMAIBFN@?$AAv?$AAi?$AA?9?$AAV?$AAN@ 00000001800c3c98     libcpmt:winapinls.obj
 0002:00003ca8       ??_C@_1M@GPCBKDJK@?$AAh?$AAy?$AA?9?$AAA?$AAM@ 00000001800c3ca8     libcpmt:winapinls.obj
 0002:00003cb8       ??_C@_1BG@BECMDDJB@?$AAa?$AAz?$AA?9?$AAA?$AAZ?$AA?9?$AAL?$AAa?$AAt?$AAn@ 00000001800c3cb8     libcpmt:winapinls.obj
 0002:00003cd0       ??_C@_1M@MAOFCAEA@?$AAe?$AAu?$AA?9?$AAE?$AAS@ 00000001800c3cd0     libcpmt:winapinls.obj
 0002:00003ce0       ??_C@_1M@IGHABKPI@?$AAm?$AAk?$AA?9?$AAM?$AAK@ 00000001800c3ce0     libcpmt:winapinls.obj
 0002:00003cf0       ??_C@_1M@IAIGNEJG@?$AAt?$AAn?$AA?9?$AAZ?$AAA@ 00000001800c3cf0     libcpmt:winapinls.obj
 0002:00003d00       ??_C@_1M@IIJCOJFA@?$AAx?$AAh?$AA?9?$AAZ?$AAA@ 00000001800c3d00     libcpmt:winapinls.obj
 0002:00003d10       ??_C@_1M@LGPJHNJH@?$AAz?$AAu?$AA?9?$AAZ?$AAA@ 00000001800c3d10     libcpmt:winapinls.obj
 0002:00003d20       ??_C@_1M@HOKAOIO@?$AAa?$AAf?$AA?9?$AAZ?$AAA@ 00000001800c3d20     libcpmt:winapinls.obj
 0002:00003d30       ??_C@_1M@DPCLHLIE@?$AAk?$AAa?$AA?9?$AAG?$AAE@ 00000001800c3d30     libcpmt:winapinls.obj
 0002:00003d40       ??_C@_1M@BLKMHJBI@?$AAf?$AAo?$AA?9?$AAF?$AAO@ 00000001800c3d40     libcpmt:winapinls.obj
 0002:00003d50       ??_C@_1M@LGGJAPPB@?$AAh?$AAi?$AA?9?$AAI?$AAN@ 00000001800c3d50     libcpmt:winapinls.obj
 0002:00003d60       ??_C@_1M@FIKPIHFE@?$AAm?$AAt?$AA?9?$AAM?$AAT@ 00000001800c3d60     libcpmt:winapinls.obj
 0002:00003d70       ??_C@_1M@HEGGPBFA@?$AAs?$AAe?$AA?9?$AAN?$AAO@ 00000001800c3d70     libcpmt:winapinls.obj
 0002:00003d80       ??_C@_1M@EIBJEEPA@?$AAm?$AAs?$AA?9?$AAM?$AAY@ 00000001800c3d80     libcpmt:winapinls.obj
 0002:00003d90       ??_C@_1M@FHLBGMPP@?$AAk?$AAk?$AA?9?$AAK?$AAZ@ 00000001800c3d90     libcpmt:winapinls.obj
 0002:00003da0       ??_C@_1M@NGJJLCGI@?$AAk?$AAy?$AA?9?$AAK?$AAG@ 00000001800c3da0     libcpmt:winapinls.obj
 0002:00003db0       ??_C@_1M@GIENNBFC@?$AAs?$AAw?$AA?9?$AAK?$AAE@ 00000001800c3db0     libcpmt:winapinls.obj
 0002:00003dc0       ??_C@_1BG@NDGMJIMJ@?$AAu?$AAz?$AA?9?$AAU?$AAZ?$AA?9?$AAL?$AAa?$AAt?$AAn@ 00000001800c3dc0     libcpmt:winapinls.obj
 0002:00003dd8       ??_C@_1M@IDCCIHBC@?$AAt?$AAt?$AA?9?$AAR?$AAU@ 00000001800c3dd8     libcpmt:winapinls.obj
 0002:00003de8       ??_C@_1M@LOICPMOJ@?$AAb?$AAn?$AA?9?$AAI?$AAN@ 00000001800c3de8     libcpmt:winapinls.obj
 0002:00003df8       ??_C@_1M@KPKKNEAH@?$AAp?$AAa?$AA?9?$AAI?$AAN@ 00000001800c3df8     libcpmt:winapinls.obj
 0002:00003e08       ??_C@_1M@PJGPPBOG@?$AAg?$AAu?$AA?9?$AAI?$AAN@ 00000001800c3e08     libcpmt:winapinls.obj
 0002:00003e18       ??_C@_1M@KMKMOPHI@?$AAt?$AAa?$AA?9?$AAI?$AAN@ 00000001800c3e18     libcpmt:winapinls.obj
 0002:00003e28       ??_C@_1M@KFEHEPAC@?$AAt?$AAe?$AA?9?$AAI?$AAN@ 00000001800c3e28     libcpmt:winapinls.obj
 0002:00003e38       ??_C@_1M@CDCLMGHI@?$AAk?$AAn?$AA?9?$AAI?$AAN@ 00000001800c3e38     libcpmt:winapinls.obj
 0002:00003e48       ??_C@_1M@MIODLDKF@?$AAm?$AAl?$AA?9?$AAI?$AAN@ 00000001800c3e48     libcpmt:winapinls.obj
 0002:00003e58       ??_C@_1M@PBIEACPO@?$AAm?$AAr?$AA?9?$AAI?$AAN@ 00000001800c3e58     libcpmt:winapinls.obj
 0002:00003e68       ??_C@_1M@NIDEAGPH@?$AAs?$AAa?$AA?9?$AAI?$AAN@ 00000001800c3e68     libcpmt:winapinls.obj
 0002:00003e78       ??_C@_1M@FHIHCBIO@?$AAm?$AAn?$AA?9?$AAM?$AAN@ 00000001800c3e78     libcpmt:winapinls.obj
 0002:00003e88       ??_C@_1M@JAIJPENP@?$AAc?$AAy?$AA?9?$AAG?$AAB@ 00000001800c3e88     libcpmt:winapinls.obj
 0002:00003e98       ??_C@_1M@PHGFBEPN@?$AAg?$AAl?$AA?9?$AAE?$AAS@ 00000001800c3e98     libcpmt:winapinls.obj
 0002:00003ea8       ??_C@_1O@KPIPDNCP@?$AAk?$AAo?$AAk?$AA?9?$AAI?$AAN@ 00000001800c3ea8     libcpmt:winapinls.obj
 0002:00003eb8       ??_C@_1O@KNHJLDJA@?$AAs?$AAy?$AAr?$AA?9?$AAS?$AAY@ 00000001800c3eb8     libcpmt:winapinls.obj
 0002:00003ec8       ??_C@_1O@MKEKBLAH@?$AAd?$AAi?$AAv?$AA?9?$AAM?$AAV@ 00000001800c3ec8     libcpmt:winapinls.obj
 0002:00003ed8       ??_C@_1O@OHDCKDDF@?$AAq?$AAu?$AAz?$AA?9?$AAB?$AAO@ 00000001800c3ed8     libcpmt:winapinls.obj
 0002:00003ee8       ??_C@_1M@LEPJNLFD@?$AAn?$AAs?$AA?9?$AAZ?$AAA@ 00000001800c3ee8     libcpmt:winapinls.obj
 0002:00003ef8       ??_C@_1M@OMLEIIJB@?$AAm?$AAi?$AA?9?$AAN?$AAZ@ 00000001800c3ef8     libcpmt:winapinls.obj
 0002:00003f08       ??_C@_1M@PMPEAILG@?$AAa?$AAr?$AA?9?$AAI?$AAQ@ 00000001800c3f08     libcpmt:winapinls.obj
 0002:00003f18       ??_C@_1M@BIBDDEMK@?$AAz?$AAh?$AA?9?$AAC?$AAN@ 00000001800c3f18     libcpmt:winapinls.obj
 0002:00003f28       ??_C@_1M@CNKPNOEE@?$AAd?$AAe?$AA?9?$AAC?$AAH@ 00000001800c3f28     libcpmt:winapinls.obj
 0002:00003f38       ??_C@_1M@LKMGMLKO@?$AAe?$AAn?$AA?9?$AAG?$AAB@ 00000001800c3f38     libcpmt:winapinls.obj
 0002:00003f48       ??_C@_1M@PGKJFFGL@?$AAe?$AAs?$AA?9?$AAM?$AAX@ 00000001800c3f48     libcpmt:winapinls.obj
 0002:00003f58       ??_C@_1M@DNNANBDC@?$AAf?$AAr?$AA?9?$AAB?$AAE@ 00000001800c3f58     libcpmt:winapinls.obj
 0002:00003f68       ??_C@_1M@HLGMDFHM@?$AAi?$AAt?$AA?9?$AAC?$AAH@ 00000001800c3f68     libcpmt:winapinls.obj
 0002:00003f78       ??_C@_1M@CLLBGJH@?$AAn?$AAl?$AA?9?$AAB?$AAE@ 00000001800c3f78     libcpmt:winapinls.obj
 0002:00003f88       ??_C@_1M@BODBOGLF@?$AAn?$AAn?$AA?9?$AAN?$AAO@ 00000001800c3f88     libcpmt:winapinls.obj
 0002:00003f98       ??_C@_1M@HFFAHKAD@?$AAp?$AAt?$AA?9?$AAP?$AAT@ 00000001800c3f98     libcpmt:winapinls.obj
 0002:00003fa8       ??_C@_1BG@LNOAKHIE@?$AAs?$AAr?$AA?9?$AAS?$AAP?$AA?9?$AAL?$AAa?$AAt?$AAn@ 00000001800c3fa8     libcpmt:winapinls.obj
 0002:00003fc0       ??_C@_1M@HBMHBGAK@?$AAs?$AAv?$AA?9?$AAF?$AAI@ 00000001800c3fc0     libcpmt:winapinls.obj
 0002:00003fd0       ??_C@_1BG@DGCJGJBE@?$AAa?$AAz?$AA?9?$AAA?$AAZ?$AA?9?$AAC?$AAy?$AAr?$AAl@ 00000001800c3fd0     libcpmt:winapinls.obj
 0002:00003fe8       ??_C@_1M@KEJDAAHB@?$AAs?$AAe?$AA?9?$AAS?$AAE@ 00000001800c3fe8     libcpmt:winapinls.obj
 0002:00003ff8       ??_C@_1M@HEIBJJAD@?$AAm?$AAs?$AA?9?$AAB?$AAN@ 00000001800c3ff8     libcpmt:winapinls.obj
 0002:00004008       ??_C@_1BG@PBGJMCEM@?$AAu?$AAz?$AA?9?$AAU?$AAZ?$AA?9?$AAC?$AAy?$AAr?$AAl@ 00000001800c4008     libcpmt:winapinls.obj
 0002:00004020       ??_C@_1O@LAOBCMDF@?$AAq?$AAu?$AAz?$AA?9?$AAE?$AAC@ 00000001800c4020     libcpmt:winapinls.obj
 0002:00004030       ??_C@_1M@POEEMAIO@?$AAa?$AAr?$AA?9?$AAE?$AAG@ 00000001800c4030     libcpmt:winapinls.obj
 0002:00004040       ??_C@_1M@EFAKDEDL@?$AAz?$AAh?$AA?9?$AAH?$AAK@ 00000001800c4040     libcpmt:winapinls.obj
 0002:00004050       ??_C@_1M@HKKIJHGI@?$AAd?$AAe?$AA?9?$AAA?$AAT@ 00000001800c4050     libcpmt:winapinls.obj
 0002:00004060       ??_C@_1M@KBFBEHJF@?$AAe?$AAn?$AA?9?$AAA?$AAU@ 00000001800c4060     libcpmt:winapinls.obj
 0002:00004070       ??_C@_1M@MNPLFAAH@?$AAe?$AAs?$AA?9?$AAE?$AAS@ 00000001800c4070     libcpmt:winapinls.obj
 0002:00004080       ??_C@_1M@HJOOJFMA@?$AAf?$AAr?$AA?9?$AAC?$AAA@ 00000001800c4080     libcpmt:winapinls.obj
 0002:00004090       ??_C@_1BG@JPOFPNAB@?$AAs?$AAr?$AA?9?$AAS?$AAP?$AA?9?$AAC?$AAy?$AAr?$AAl@ 00000001800c4090     libcpmt:winapinls.obj
 0002:000040a8       ??_C@_1M@LNFOCMOB@?$AAs?$AAe?$AA?9?$AAF?$AAI@ 00000001800c40a8     libcpmt:winapinls.obj
 0002:000040b8       ??_C@_1O@MGJBOAMB@?$AAq?$AAu?$AAz?$AA?9?$AAP?$AAE@ 00000001800c40b8     libcpmt:winapinls.obj
 0002:000040c8       ??_C@_1M@GJINLBOK@?$AAa?$AAr?$AA?9?$AAL?$AAY@ 00000001800c40c8     libcpmt:winapinls.obj
 0002:000040d8       ??_C@_1M@GGMNHJNL@?$AAz?$AAh?$AA?9?$AAS?$AAG@ 00000001800c40d8     libcpmt:winapinls.obj
 0002:000040e8       ??_C@_1M@HOIKODND@?$AAd?$AAe?$AA?9?$AAL?$AAU@ 00000001800c40e8     libcpmt:winapinls.obj
 0002:000040f8       ??_C@_1M@DDOCCGFG@?$AAe?$AAn?$AA?9?$AAC?$AAA@ 00000001800c40f8     libcpmt:winapinls.obj
 0002:00004108       ??_C@_1M@BNOEMJLF@?$AAe?$AAs?$AA?9?$AAG?$AAT@ 00000001800c4108     libcpmt:winapinls.obj
 0002:00004118       ??_C@_1M@EOGNKEK@?$AAf?$AAr?$AA?9?$AAC?$AAH@ 00000001800c4118     libcpmt:winapinls.obj
 0002:00004128       ??_C@_1M@FLIDJFHL@?$AAh?$AAr?$AA?9?$AAB?$AAA@ 00000001800c4128     libcpmt:winapinls.obj
 0002:00004138       ??_C@_1O@FMCELNAJ@?$AAs?$AAm?$AAj?$AA?9?$AAN?$AAO@ 00000001800c4138     libcpmt:winapinls.obj
 0002:00004148       ??_C@_1M@JHGLJMGJ@?$AAa?$AAr?$AA?9?$AAD?$AAZ@ 00000001800c4148     libcpmt:winapinls.obj
 0002:00004158       ??_C@_1M@JKKFDCNP@?$AAz?$AAh?$AA?9?$AAM?$AAO@ 00000001800c4158     libcpmt:winapinls.obj
 0002:00004168       ??_C@_1M@GEEFALPE@?$AAd?$AAe?$AA?9?$AAL?$AAI@ 00000001800c4168     libcpmt:winapinls.obj
 0002:00004178       ??_C@_1M@IGEOFBG@?$AAe?$AAn?$AA?9?$AAN?$AAZ@ 00000001800c4178     libcpmt:winapinls.obj
 0002:00004188       ??_C@_1M@KDBONEHP@?$AAe?$AAs?$AA?9?$AAC?$AAR@ 00000001800c4188     libcpmt:winapinls.obj
 0002:00004198       ??_C@_1M@FHMDOHNN@?$AAf?$AAr?$AA?9?$AAL?$AAU@ 00000001800c4198     libcpmt:winapinls.obj
 0002:000041a8       ??_C@_1BG@NFKKMAFG@?$AAb?$AAs?$AA?9?$AAB?$AAA?$AA?9?$AAL?$AAa?$AAt?$AAn@ 00000001800c41a8     libcpmt:winapinls.obj
 0002:000041c0       ??_C@_1O@IMNBEMCI@?$AAs?$AAm?$AAj?$AA?9?$AAS?$AAE@ 00000001800c41c0     libcpmt:winapinls.obj
 0002:000041d0       ??_C@_1M@DHHMBNDP@?$AAa?$AAr?$AA?9?$AAM?$AAA@ 00000001800c41d0     libcpmt:winapinls.obj
 0002:000041e0       ??_C@_1M@BNBLJCGH@?$AAe?$AAn?$AA?9?$AAI?$AAE@ 00000001800c41e0     libcpmt:winapinls.obj
 0002:000041f0       ??_C@_1M@GEPAFMDL@?$AAe?$AAs?$AA?9?$AAP?$AAA@ 00000001800c41f0     libcpmt:winapinls.obj
 0002:00004200       ??_C@_1M@OJONDMDL@?$AAf?$AAr?$AA?9?$AAM?$AAC@ 00000001800c4200     libcpmt:winapinls.obj
 0002:00004210       ??_C@_1BG@OBCNFJB@?$AAs?$AAr?$AA?9?$AAB?$AAA?$AA?9?$AAL?$AAa?$AAt?$AAn@ 00000001800c4210     libcpmt:winapinls.obj
 0002:00004228       ??_C@_1O@KEMEEGPO@?$AAs?$AAm?$AAa?$AA?9?$AAN?$AAO@ 00000001800c4228     libcpmt:winapinls.obj
 0002:00004238       ??_C@_1M@ELMGFODK@?$AAa?$AAr?$AA?9?$AAT?$AAN@ 00000001800c4238     libcpmt:winapinls.obj
 0002:00004248       ??_C@_1M@BHDLHFAF@?$AAe?$AAn?$AA?9?$AAZ?$AAA@ 00000001800c4248     libcpmt:winapinls.obj
 0002:00004258       ??_C@_1M@BMGIGLIF@?$AAe?$AAs?$AA?9?$AAD?$AAO@ 00000001800c4258     libcpmt:winapinls.obj
 0002:00004268       ??_C@_1BG@CMBHIPBE@?$AAs?$AAr?$AA?9?$AAB?$AAA?$AA?9?$AAC?$AAy?$AAr?$AAl@ 00000001800c4268     libcpmt:winapinls.obj
 0002:00004280       ??_C@_1O@HEDBLHNP@?$AAs?$AAm?$AAa?$AA?9?$AAS?$AAE@ 00000001800c4280     libcpmt:winapinls.obj
 0002:00004290       ??_C@_1M@DAGCADIM@?$AAa?$AAr?$AA?9?$AAO?$AAM@ 00000001800c4290     libcpmt:winapinls.obj
 0002:000042a0       ??_C@_1M@FODLMICG@?$AAe?$AAn?$AA?9?$AAJ?$AAM@ 00000001800c42a0     libcpmt:winapinls.obj
 0002:000042b0       ??_C@_1M@DNMLCIHB@?$AAe?$AAs?$AA?9?$AAV?$AAE@ 00000001800c42b0     libcpmt:winapinls.obj
 0002:000042c0       ??_C@_1O@EOKHMKJK@?$AAs?$AAm?$AAs?$AA?9?$AAF?$AAI@ 00000001800c42c0     libcpmt:winapinls.obj
 0002:000042d0       ??_C@_1M@CAFJMKOF@?$AAa?$AAr?$AA?9?$AAY?$AAE@ 00000001800c42d0     libcpmt:winapinls.obj
 0002:000042e0       ??_C@_1M@CBFHIJLI@?$AAe?$AAn?$AA?9?$AAC?$AAB@ 00000001800c42e0     libcpmt:winapinls.obj
 0002:000042f0       ??_C@_1M@BGNFLDN@?$AAe?$AAs?$AA?9?$AAC?$AAO@ 00000001800c42f0     libcpmt:winapinls.obj
 0002:00004300       ??_C@_1O@JMPHMAMC@?$AAs?$AAm?$AAn?$AA?9?$AAF?$AAI@ 00000001800c4300     libcpmt:winapinls.obj
 0002:00004310       ??_C@_1M@JLANABKE@?$AAa?$AAr?$AA?9?$AAS?$AAY@ 00000001800c4310     libcpmt:winapinls.obj
 0002:00004320       ??_C@_1M@HPKGCFGN@?$AAe?$AAn?$AA?9?$AAB?$AAZ@ 00000001800c4320     libcpmt:winapinls.obj
 0002:00004330       ??_C@_1M@OLJCMLGM@?$AAe?$AAs?$AA?9?$AAP?$AAE@ 00000001800c4330     libcpmt:winapinls.obj
 0002:00004340       ??_C@_1M@MKKGFKLE@?$AAa?$AAr?$AA?9?$AAJ?$AAO@ 00000001800c4340     libcpmt:winapinls.obj
 0002:00004350       ??_C@_1M@EKPGLDNI@?$AAe?$AAn?$AA?9?$AAT?$AAT@ 00000001800c4350     libcpmt:winapinls.obj
 0002:00004360       ??_C@_1M@OONGHFHE@?$AAe?$AAs?$AA?9?$AAA?$AAR@ 00000001800c4360     libcpmt:winapinls.obj
 0002:00004370       ??_C@_1M@OOJFGBHE@?$AAa?$AAr?$AA?9?$AAL?$AAB@ 00000001800c4370     libcpmt:winapinls.obj
 0002:00004380       ??_C@_1M@GCEJHNEG@?$AAe?$AAn?$AA?9?$AAZ?$AAW@ 00000001800c4380     libcpmt:winapinls.obj
 0002:00004390       ??_C@_1M@JNOCAHJI@?$AAe?$AAs?$AA?9?$AAE?$AAC@ 00000001800c4390     libcpmt:winapinls.obj
 0002:000043a0       ??_C@_1M@JEFHPGGB@?$AAa?$AAr?$AA?9?$AAK?$AAW@ 00000001800c43a0     libcpmt:winapinls.obj
 0002:000043b0       ??_C@_1M@MLKIBJOJ@?$AAe?$AAn?$AA?9?$AAP?$AAH@ 00000001800c43b0     libcpmt:winapinls.obj
 0002:000043c0       ??_C@_1M@BDNIPEND@?$AAe?$AAs?$AA?9?$AAC?$AAL@ 00000001800c43c0     libcpmt:winapinls.obj
 0002:000043d0       ??_C@_1M@MPNMEKBD@?$AAa?$AAr?$AA?9?$AAA?$AAE@ 00000001800c43d0     libcpmt:winapinls.obj
 0002:000043e0       ??_C@_1M@KBJALCPI@?$AAe?$AAs?$AA?9?$AAU?$AAY@ 00000001800c43e0     libcpmt:winapinls.obj
 0002:000043f0       ??_C@_1M@LLCCOAGA@?$AAa?$AAr?$AA?9?$AAB?$AAH@ 00000001800c43f0     libcpmt:winapinls.obj
 0002:00004400       ??_C@_1M@PBFNCDEL@?$AAe?$AAs?$AA?9?$AAP?$AAY@ 00000001800c4400     libcpmt:winapinls.obj
 0002:00004410       ??_C@_1M@EDGINPNP@?$AAa?$AAr?$AA?9?$AAQ?$AAA@ 00000001800c4410     libcpmt:winapinls.obj
 0002:00004420       ??_C@_1M@MKDBIIJI@?$AAe?$AAs?$AA?9?$AAB?$AAO@ 00000001800c4420     libcpmt:winapinls.obj
 0002:00004430       ??_C@_1M@CPKKEBLD@?$AAe?$AAs?$AA?9?$AAS?$AAV@ 00000001800c4430     libcpmt:winapinls.obj
 0002:00004440       ??_C@_1M@NDBGMMJL@?$AAe?$AAs?$AA?9?$AAH?$AAN@ 00000001800c4440     libcpmt:winapinls.obj
 0002:00004450       ??_C@_1M@JIJIBHDP@?$AAe?$AAs?$AA?9?$AAN?$AAI@ 00000001800c4450     libcpmt:winapinls.obj
 0002:00004460       ??_C@_1M@CGFMKEEK@?$AAe?$AAs?$AA?9?$AAP?$AAR@ 00000001800c4460     libcpmt:winapinls.obj
 0002:00004470       ??_C@_1O@ICJHKIIK@?$AAz?$AAh?$AA?9?$AAC?$AAH?$AAT@ 00000001800c4470     libcpmt:winapinls.obj
 0002:00004480       ??_C@_15CLNEJCE@?$AAs?$AAr@ 00000001800c4480     libcpmt:winapinls.obj
 0002:00004488       ??_C@_1M@KAHEKEIG@?$AAa?$AAf?$AA?9?$AAz?$AAa@ 00000001800c4488     libcpmt:winapinls.obj
 0002:00004498       ??_C@_1M@GIECOABL@?$AAa?$AAr?$AA?9?$AAa?$AAe@ 00000001800c4498     libcpmt:winapinls.obj
 0002:000044a8       ??_C@_1M@BMLMEKGI@?$AAa?$AAr?$AA?9?$AAb?$AAh@ 00000001800c44a8     libcpmt:winapinls.obj
 0002:000044b8       ??_C@_1M@DAPFDGGB@?$AAa?$AAr?$AA?9?$AAd?$AAz@ 00000001800c44b8     libcpmt:winapinls.obj
 0002:000044c8       ??_C@_1M@FJNKGKIG@?$AAa?$AAr?$AA?9?$AAe?$AAg@ 00000001800c44c8     libcpmt:winapinls.obj
 0002:000044d8       ??_C@_1M@FLGKKCLO@?$AAa?$AAr?$AA?9?$AAi?$AAq@ 00000001800c44d8     libcpmt:winapinls.obj
 0002:000044e8       ??_C@_1M@GNDIPALM@?$AAa?$AAr?$AA?9?$AAj?$AAo@ 00000001800c44e8     libcpmt:winapinls.obj
 0002:000044f8       ??_C@_1M@DDMJFMGJ@?$AAa?$AAr?$AA?9?$AAk?$AAw@ 00000001800c44f8     libcpmt:winapinls.obj
 0002:00004508       ??_C@_1M@EJALMLHM@?$AAa?$AAr?$AA?9?$AAl?$AAb@ 00000001800c4508     libcpmt:winapinls.obj
 0002:00004518       ??_C@_1M@MOBDBLOC@?$AAa?$AAr?$AA?9?$AAl?$AAy@ 00000001800c4518     libcpmt:winapinls.obj
 0002:00004528       ??_C@_1M@JAOCLHDH@?$AAa?$AAr?$AA?9?$AAm?$AAa@ 00000001800c4528     libcpmt:winapinls.obj
 0002:00004538       ??_C@_1M@JHPMKJIE@?$AAa?$AAr?$AA?9?$AAo?$AAm@ 00000001800c4538     libcpmt:winapinls.obj
 0002:00004548       ??_C@_1M@OEPGHFNH@?$AAa?$AAr?$AA?9?$AAq?$AAa@ 00000001800c4548     libcpmt:winapinls.obj
 0002:00004558       ??_C@_1M@KJDONENM@?$AAa?$AAr?$AA?9?$AAs?$AAa@ 00000001800c4558     libcpmt:winapinls.obj
 0002:00004568       ??_C@_1M@DMJDKLKM@?$AAa?$AAr?$AA?9?$AAs?$AAy@ 00000001800c4568     libcpmt:winapinls.obj
 0002:00004578       ??_C@_1M@OMFIPEDC@?$AAa?$AAr?$AA?9?$AAt?$AAn@ 00000001800c4578     libcpmt:winapinls.obj
 0002:00004588       ??_C@_1M@IHMHGAON@?$AAa?$AAr?$AA?9?$AAy?$AAe@ 00000001800c4588     libcpmt:winapinls.obj
 0002:00004598       ??_C@_1BG@KDCPGJGB@?$AAa?$AAz?$AA?9?$AAa?$AAz?$AA?9?$AAc?$AAy?$AAr?$AAl@ 00000001800c4598     libcpmt:winapinls.obj
 0002:000045b0       ??_C@_1BG@IBCKDDOE@?$AAa?$AAz?$AA?9?$AAa?$AAz?$AA?9?$AAl?$AAa?$AAt?$AAn@ 00000001800c45b0     libcpmt:winapinls.obj
 0002:000045c8       ??_C@_1M@EGPFDCPD@?$AAb?$AAe?$AA?9?$AAb?$AAy@ 00000001800c45c8     libcpmt:winapinls.obj
 0002:000045d8       ??_C@_1M@PCMGMCGC@?$AAb?$AAg?$AA?9?$AAb?$AAg@ 00000001800c45d8     libcpmt:winapinls.obj
 0002:000045e8       ??_C@_1M@BJBMFGOB@?$AAb?$AAn?$AA?9?$AAi?$AAn@ 00000001800c45e8     libcpmt:winapinls.obj
 0002:000045f8       ??_C@_1BG@EAKMMACD@?$AAb?$AAs?$AA?9?$AAb?$AAa?$AA?9?$AAl?$AAa?$AAt?$AAn@ 00000001800c45f8     libcpmt:winapinls.obj
 0002:00004610       ??_C@_1M@KGADAODK@?$AAc?$AAa?$AA?9?$AAe?$AAs@ 00000001800c4610     libcpmt:winapinls.obj
 0002:00004620       ??_C@_1M@COAJPDHI@?$AAc?$AAs?$AA?9?$AAc?$AAz@ 00000001800c4620     libcpmt:winapinls.obj
 0002:00004630       ??_C@_1M@DHBHFONH@?$AAc?$AAy?$AA?9?$AAg?$AAb@ 00000001800c4630     libcpmt:winapinls.obj
 0002:00004640       ??_C@_1M@IMGKELGA@?$AAd?$AAa?$AA?9?$AAd?$AAk@ 00000001800c4640     libcpmt:winapinls.obj
 0002:00004650       ??_C@_1M@NNDGDNGA@?$AAd?$AAe?$AA?9?$AAa?$AAt@ 00000001800c4650     libcpmt:winapinls.obj
 0002:00004660       ??_C@_1M@IKDBHEEM@?$AAd?$AAe?$AA?9?$AAc?$AAh@ 00000001800c4660     libcpmt:winapinls.obj
 0002:00004670       ??_C@_1M@GFFOJMCJ@?$AAd?$AAe?$AA?9?$AAd?$AAe@ 00000001800c4670     libcpmt:winapinls.obj
 0002:00004680       ??_C@_1M@MDNLKBPM@?$AAd?$AAe?$AA?9?$AAl?$AAi@ 00000001800c4680     libcpmt:winapinls.obj
 0002:00004690       ??_C@_1M@NJBEEJNL@?$AAd?$AAe?$AA?9?$AAl?$AAu@ 00000001800c4690     libcpmt:winapinls.obj
 0002:000046a0       ??_C@_1O@GNNELBAP@?$AAd?$AAi?$AAv?$AA?9?$AAm?$AAv@ 00000001800c46a0     libcpmt:winapinls.obj
 0002:000046b0       ??_C@_1M@EJLEOGAE@?$AAe?$AAl?$AA?9?$AAg?$AAr@ 00000001800c46b0     libcpmt:winapinls.obj
 0002:000046c0       ??_C@_1M@GMPONJN@?$AAe?$AAn?$AA?9?$AAa?$AAu@ 00000001800c46c0     libcpmt:winapinls.obj
 0002:000046d0       ??_C@_1M@NIDIIPGF@?$AAe?$AAn?$AA?9?$AAb?$AAz@ 00000001800c46d0     libcpmt:winapinls.obj
 0002:000046e0       ??_C@_1M@JEHMIMFO@?$AAe?$AAn?$AA?9?$AAc?$AAa@ 00000001800c46e0     libcpmt:winapinls.obj
 0002:000046f0       ??_C@_1M@IGMJCDLA@?$AAe?$AAn?$AA?9?$AAc?$AAb@ 00000001800c46f0     libcpmt:winapinls.obj
 0002:00004700       ??_C@_1M@BNFIGBKG@?$AAe?$AAn?$AA?9?$AAg?$AAb@ 00000001800c4700     libcpmt:winapinls.obj
 0002:00004710       ??_C@_1M@LKIFDIGP@?$AAe?$AAn?$AA?9?$AAi?$AAe@ 00000001800c4710     libcpmt:winapinls.obj
 0002:00004720       ??_C@_1M@PJKFGCCO@?$AAe?$AAn?$AA?9?$AAj?$AAm@ 00000001800c4720     libcpmt:winapinls.obj
 0002:00004730       ??_C@_1M@KPPKEPBO@?$AAe?$AAn?$AA?9?$AAn?$AAz@ 00000001800c4730     libcpmt:winapinls.obj
 0002:00004740       ??_C@_1M@GMDGLDOB@?$AAe?$AAn?$AA?9?$AAp?$AAh@ 00000001800c4740     libcpmt:winapinls.obj
 0002:00004750       ??_C@_1M@ONGIBJNA@?$AAe?$AAn?$AA?9?$AAt?$AAt@ 00000001800c4750     libcpmt:winapinls.obj
 0002:00004760       ??_C@_1M@LLODPCMM@?$AAe?$AAn?$AA?9?$AAu?$AAs@ 00000001800c4760     libcpmt:winapinls.obj
 0002:00004770       ??_C@_1M@LAKFNPAN@?$AAe?$AAn?$AA?9?$AAz?$AAa@ 00000001800c4770     libcpmt:winapinls.obj
 0002:00004780       ??_C@_1M@MFNHNHEO@?$AAe?$AAn?$AA?9?$AAz?$AAw@ 00000001800c4780     libcpmt:winapinls.obj
 0002:00004790       ??_C@_1M@EJEINPHM@?$AAe?$AAs?$AA?9?$AAa?$AAr@ 00000001800c4790     libcpmt:winapinls.obj
 0002:000047a0       ??_C@_1M@GNKPCCJA@?$AAe?$AAs?$AA?9?$AAb?$AAo@ 00000001800c47a0     libcpmt:winapinls.obj
 0002:000047b0       ??_C@_1M@LEEGFONL@?$AAe?$AAs?$AA?9?$AAc?$AAl@ 00000001800c47b0     libcpmt:winapinls.obj
 0002:000047c0       ??_C@_1M@KGPDPBDF@?$AAe?$AAs?$AA?9?$AAc?$AAo@ 00000001800c47c0     libcpmt:winapinls.obj
 0002:000047d0       ??_C@_1M@EIAHOHH@?$AAe?$AAs?$AA?9?$AAc?$AAr@ 00000001800c47d0     libcpmt:winapinls.obj
 0002:000047e0       ??_C@_1M@LLPGMBIN@?$AAe?$AAs?$AA?9?$AAd?$AAo@ 00000001800c47e0     libcpmt:winapinls.obj
 0002:000047f0       ??_C@_1M@DKHMKNJA@?$AAe?$AAs?$AA?9?$AAe?$AAc@ 00000001800c47f0     libcpmt:winapinls.obj
 0002:00004800       ??_C@_1M@GKGFPKAP@?$AAe?$AAs?$AA?9?$AAe?$AAs@ 00000001800c4800     libcpmt:winapinls.obj
 0002:00004810       ??_C@_1M@LKHKGDLN@?$AAe?$AAs?$AA?9?$AAg?$AAt@ 00000001800c4810     libcpmt:winapinls.obj
 0002:00004820       ??_C@_1M@HEIIGGJD@?$AAe?$AAs?$AA?9?$AAh?$AAn@ 00000001800c4820     libcpmt:winapinls.obj
 0002:00004830       ??_C@_1M@FBDHPPGD@?$AAe?$AAs?$AA?9?$AAm?$AAx@ 00000001800c4830     libcpmt:winapinls.obj
 0002:00004840       ??_C@_1M@DPAGLNDH@?$AAe?$AAs?$AA?9?$AAn?$AAi@ 00000001800c4840     libcpmt:winapinls.obj
 0002:00004850       ??_C@_1M@MDGOPGDD@?$AAe?$AAs?$AA?9?$AAp?$AAa@ 00000001800c4850     libcpmt:winapinls.obj
 0002:00004860       ??_C@_1M@EMAMGBGE@?$AAe?$AAs?$AA?9?$AAp?$AAe@ 00000001800c4860     libcpmt:winapinls.obj
 0002:00004870       ??_C@_1M@IBMCAOEC@?$AAe?$AAs?$AA?9?$AAp?$AAr@ 00000001800c4870     libcpmt:winapinls.obj
 0002:00004880       ??_C@_1M@FGMDIJED@?$AAe?$AAs?$AA?9?$AAp?$AAy@ 00000001800c4880     libcpmt:winapinls.obj
 0002:00004890       ??_C@_1M@IIDEOLLL@?$AAe?$AAs?$AA?9?$AAs?$AAv@ 00000001800c4890     libcpmt:winapinls.obj
 0002:000048a0       ??_C@_1M@GAOBIPA@?$AAe?$AAs?$AA?9?$AAu?$AAy@ 00000001800c48a0     libcpmt:winapinls.obj
 0002:000048b0       ??_C@_1M@JKFFICHJ@?$AAe?$AAs?$AA?9?$AAv?$AAe@ 00000001800c48b0     libcpmt:winapinls.obj
 0002:000048c0       ??_C@_1M@PNMLOJDF@?$AAe?$AAt?$AA?9?$AAe?$AAe@ 00000001800c48c0     libcpmt:winapinls.obj
 0002:000048d0       ??_C@_1M@GHHLIKEI@?$AAe?$AAu?$AA?9?$AAe?$AAs@ 00000001800c48d0     libcpmt:winapinls.obj
 0002:000048e0       ??_C@_1M@PBNONODE@?$AAf?$AAa?$AA?9?$AAi?$AAr@ 00000001800c48e0     libcpmt:winapinls.obj
 0002:000048f0       ??_C@_1M@JEEHPMIL@?$AAf?$AAi?$AA?9?$AAf?$AAi@ 00000001800c48f0     libcpmt:winapinls.obj
 0002:00004900       ??_C@_1M@LMDCNDBA@?$AAf?$AAo?$AA?9?$AAf?$AAo@ 00000001800c4900     libcpmt:winapinls.obj
 0002:00004910       ??_C@_1M@JKEOHLDK@?$AAf?$AAr?$AA?9?$AAb?$AAe@ 00000001800c4910     libcpmt:winapinls.obj
 0002:00004920       ??_C@_1M@NOHADPMI@?$AAf?$AAr?$AA?9?$AAc?$AAa@ 00000001800c4920     libcpmt:winapinls.obj
 0002:00004930       ??_C@_1M@KDHIHAEC@?$AAf?$AAr?$AA?9?$AAc?$AAh@ 00000001800c4930     libcpmt:winapinls.obj
 0002:00004940       ??_C@_1M@MMBBFGAK@?$AAf?$AAr?$AA?9?$AAf?$AAr@ 00000001800c4940     libcpmt:winapinls.obj
 0002:00004950       ??_C@_1M@PAFNENNF@?$AAf?$AAr?$AA?9?$AAl?$AAu@ 00000001800c4950     libcpmt:winapinls.obj
 0002:00004960       ??_C@_1M@EOHDJGDD@?$AAf?$AAr?$AA?9?$AAm?$AAc@ 00000001800c4960     libcpmt:winapinls.obj
 0002:00004970       ??_C@_1M@FAPLLOPF@?$AAg?$AAl?$AA?9?$AAe?$AAs@ 00000001800c4970     libcpmt:winapinls.obj
 0002:00004980       ??_C@_1M@FOPBFLOO@?$AAg?$AAu?$AA?9?$AAi?$AAn@ 00000001800c4980     libcpmt:winapinls.obj
 0002:00004990       ??_C@_1M@KBMCINPM@?$AAh?$AAe?$AA?9?$AAi?$AAl@ 00000001800c4990     libcpmt:winapinls.obj
 0002:000049a0       ??_C@_1M@BBPHKFPJ@?$AAh?$AAi?$AA?9?$AAi?$AAn@ 00000001800c49a0     libcpmt:winapinls.obj
 0002:000049b0       ??_C@_1M@PMBNDPHD@?$AAh?$AAr?$AA?9?$AAb?$AAa@ 00000001800c49b0     libcpmt:winapinls.obj
 0002:000049c0       ??_C@_1M@BPCKOEGE@?$AAh?$AAr?$AA?9?$AAh?$AAr@ 00000001800c49c0     libcpmt:winapinls.obj
 0002:000049d0       ??_C@_1M@GACBMHKE@?$AAh?$AAu?$AA?9?$AAh?$AAu@ 00000001800c49d0     libcpmt:winapinls.obj
 0002:000049e0       ??_C@_1M@MILPAJJC@?$AAh?$AAy?$AA?9?$AAa?$AAm@ 00000001800c49e0     libcpmt:winapinls.obj
 0002:000049f0       ??_C@_1M@BABBICEC@?$AAi?$AAd?$AA?9?$AAi?$AAd@ 00000001800c49f0     libcpmt:winapinls.obj
 0002:00004a00       ??_C@_1M@BIKNHHPF@?$AAi?$AAs?$AA?9?$AAi?$AAs@ 00000001800c4a00     libcpmt:winapinls.obj
 0002:00004a10       ??_C@_1M@NMPCJPHE@?$AAi?$AAt?$AA?9?$AAc?$AAh@ 00000001800c4a10     libcpmt:winapinls.obj
 0002:00004a20       ??_C@_1M@GHKGFEDF@?$AAi?$AAt?$AA?9?$AAi?$AAt@ 00000001800c4a20     libcpmt:winapinls.obj
 0002:00004a30       ??_C@_1M@NIEJCJJA@?$AAj?$AAa?$AA?9?$AAj?$AAp@ 00000001800c4a30     libcpmt:winapinls.obj
 0002:00004a40       ??_C@_1M@JILFNBIM@?$AAk?$AAa?$AA?9?$AAg?$AAe@ 00000001800c4a40     libcpmt:winapinls.obj
 0002:00004a50       ??_C@_1M@PACPMGPH@?$AAk?$AAk?$AA?9?$AAk?$AAz@ 00000001800c4a50     libcpmt:winapinls.obj
 0002:00004a60       ??_C@_1M@IELFGMHA@?$AAk?$AAn?$AA?9?$AAi?$AAn@ 00000001800c4a60     libcpmt:winapinls.obj
 0002:00004a70       ??_C@_1M@DMHAEOGC@?$AAk?$AAo?$AA?9?$AAk?$AAr@ 00000001800c4a70     libcpmt:winapinls.obj
 0002:00004a80       ??_C@_1O@IBBJHCH@?$AAk?$AAo?$AAk?$AA?9?$AAi?$AAn@ 00000001800c4a80     libcpmt:winapinls.obj
 0002:00004a90       ??_C@_1M@HBAHBIGA@?$AAk?$AAy?$AA?9?$AAk?$AAg@ 00000001800c4a90     libcpmt:winapinls.obj
 0002:00004aa0       ??_C@_1M@KPMILCJG@?$AAl?$AAt?$AA?9?$AAl?$AAt@ 00000001800c4aa0     libcpmt:winapinls.obj
 0002:00004ab0       ??_C@_1M@BDEKKCA@?$AAl?$AAv?$AA?9?$AAl?$AAv@ 00000001800c4ab0     libcpmt:winapinls.obj
 0002:00004ac0       ??_C@_1M@ELCKCCJJ@?$AAm?$AAi?$AA?9?$AAn?$AAz@ 00000001800c4ac0     libcpmt:winapinls.obj
 0002:00004ad0       ??_C@_1M@CBOOLAPA@?$AAm?$AAk?$AA?9?$AAm?$AAk@ 00000001800c4ad0     libcpmt:winapinls.obj
 0002:00004ae0       ??_C@_1M@GPHNBJKN@?$AAm?$AAl?$AA?9?$AAi?$AAn@ 00000001800c4ae0     libcpmt:winapinls.obj
 0002:00004af0       ??_C@_1M@PABJILIG@?$AAm?$AAn?$AA?9?$AAm?$AAn@ 00000001800c4af0     libcpmt:winapinls.obj
 0002:00004b00       ??_C@_1M@FGBKKIPG@?$AAm?$AAr?$AA?9?$AAi?$AAn@ 00000001800c4b00     libcpmt:winapinls.obj
 0002:00004b10       ??_C@_1M@NDBPDDAL@?$AAm?$AAs?$AA?9?$AAb?$AAn@ 00000001800c4b10     libcpmt:winapinls.obj
 0002:00004b20       ??_C@_1M@OPIHOOPI@?$AAm?$AAs?$AA?9?$AAm?$AAy@ 00000001800c4b20     libcpmt:winapinls.obj
 0002:00004b30       ??_C@_1M@PPDBCNFM@?$AAm?$AAt?$AA?9?$AAm?$AAt@ 00000001800c4b30     libcpmt:winapinls.obj
 0002:00004b40       ??_C@_1M@KDJDKMDD@?$AAn?$AAb?$AA?9?$AAn?$AAo@ 00000001800c4b40     libcpmt:winapinls.obj
 0002:00004b50       ??_C@_1M@KFCFLMJP@?$AAn?$AAl?$AA?9?$AAb?$AAe@ 00000001800c4b50     libcpmt:winapinls.obj
 0002:00004b60       ??_C@_1M@KPOPDDGO@?$AAn?$AAl?$AA?9?$AAn?$AAl@ 00000001800c4b60     libcpmt:winapinls.obj
 0002:00004b70       ??_C@_1M@LJKPEMLN@?$AAn?$AAn?$AA?9?$AAn?$AAo@ 00000001800c4b70     libcpmt:winapinls.obj
 0002:00004b80       ??_C@_1M@BDGHHBFL@?$AAn?$AAs?$AA?9?$AAz?$AAa@ 00000001800c4b80     libcpmt:winapinls.obj
 0002:00004b90       ??_C@_1M@IDEHOAP@?$AAp?$AAa?$AA?9?$AAi?$AAn@ 00000001800c4b90     libcpmt:winapinls.obj
 0002:00004ba0       ??_C@_1M@HDBKGOGH@?$AAp?$AAl?$AA?9?$AAp?$AAl@ 00000001800c4ba0     libcpmt:winapinls.obj
 0002:00004bb0       ??_C@_1M@LJLLCMEH@?$AAp?$AAt?$AA?9?$AAb?$AAr@ 00000001800c4bb0     libcpmt:winapinls.obj
 0002:00004bc0       ??_C@_1M@NCMONAAL@?$AAp?$AAt?$AA?9?$AAp?$AAt@ 00000001800c4bc0     libcpmt:winapinls.obj
 0002:00004bd0       ??_C@_1O@EAKMAJDN@?$AAq?$AAu?$AAz?$AA?9?$AAb?$AAo@ 00000001800c4bd0     libcpmt:winapinls.obj
 0002:00004be0       ??_C@_1O@BHHPIGDN@?$AAq?$AAu?$AAz?$AA?9?$AAe?$AAc@ 00000001800c4be0     libcpmt:winapinls.obj
 0002:00004bf0       ??_C@_1O@GBAPEKMJ@?$AAq?$AAu?$AAz?$AA?9?$AAp?$AAe@ 00000001800c4bf0     libcpmt:winapinls.obj
 0002:00004c00       ??_C@_1M@CLGLEFBO@?$AAr?$AAo?$AA?9?$AAr?$AAo@ 00000001800c4c00     libcpmt:winapinls.obj
 0002:00004c10       ??_C@_1M@CEEDODME@?$AAr?$AAu?$AA?9?$AAr?$AAu@ 00000001800c4c10     libcpmt:winapinls.obj
 0002:00004c20       ??_C@_1M@HPKKKMPP@?$AAs?$AAa?$AA?9?$AAi?$AAn@ 00000001800c4c20     libcpmt:winapinls.obj
 0002:00004c30       ??_C@_1M@BKMAIGOJ@?$AAs?$AAe?$AA?9?$AAf?$AAi@ 00000001800c4c30     libcpmt:winapinls.obj
 0002:00004c40       ??_C@_1M@NDPIFLFI@?$AAs?$AAe?$AA?9?$AAn?$AAo@ 00000001800c4c40     libcpmt:winapinls.obj
 0002:00004c50       ??_C@_1M@DANKKHJ@?$AAs?$AAe?$AA?9?$AAs?$AAe@ 00000001800c4c50     libcpmt:winapinls.obj
 0002:00004c60       ??_C@_1M@PNBLONPJ@?$AAs?$AAk?$AA?9?$AAs?$AAk@ 00000001800c4c60     libcpmt:winapinls.obj
 0002:00004c70       ??_C@_1M@LFMODOAL@?$AAs?$AAl?$AA?9?$AAs?$AAi@ 00000001800c4c70     libcpmt:winapinls.obj
 0002:00004c80       ??_C@_1O@DFKOMPG@?$AAs?$AAm?$AAa?$AA?9?$AAn?$AAo@ 00000001800c4c80     libcpmt:winapinls.obj
 0002:00004c90       ??_C@_1O@NDKPBNNH@?$AAs?$AAm?$AAa?$AA?9?$AAs?$AAe@ 00000001800c4c90     libcpmt:winapinls.obj
 0002:00004ca0       ??_C@_1O@PLLKBHAB@?$AAs?$AAm?$AAj?$AA?9?$AAn?$AAo@ 00000001800c4ca0     libcpmt:winapinls.obj
 0002:00004cb0       ??_C@_1O@CLEPOGCA@?$AAs?$AAm?$AAj?$AA?9?$AAs?$AAe@ 00000001800c4cb0     libcpmt:winapinls.obj
 0002:00004cc0       ??_C@_1O@DLGJGKMK@?$AAs?$AAm?$AAn?$AA?9?$AAf?$AAi@ 00000001800c4cc0     libcpmt:winapinls.obj
 0002:00004cd0       ??_C@_1O@OJDJGAJC@?$AAs?$AAm?$AAs?$AA?9?$AAf?$AAi@ 00000001800c4cd0     libcpmt:winapinls.obj
 0002:00004ce0       ??_C@_1M@BOFOGHPB@?$AAs?$AAq?$AA?9?$AAa?$AAl@ 00000001800c4ce0     libcpmt:winapinls.obj
 0002:00004cf0       ??_C@_1BG@LJBBIPGB@?$AAs?$AAr?$AA?9?$AAb?$AAa?$AA?9?$AAc?$AAy?$AAr?$AAl@ 00000001800c4cf0     libcpmt:winapinls.obj
 0002:00004d08       ??_C@_1BG@JLBENFOE@?$AAs?$AAr?$AA?9?$AAb?$AAa?$AA?9?$AAl?$AAa?$AAt?$AAn@ 00000001800c4d08     libcpmt:winapinls.obj
 0002:00004d20       ??_C@_1BG@KODPNHE@?$AAs?$AAr?$AA?9?$AAs?$AAp?$AA?9?$AAc?$AAy?$AAr?$AAl@ 00000001800c4d20     libcpmt:winapinls.obj
 0002:00004d38       ??_C@_1BG@CIOGKHPB@?$AAs?$AAr?$AA?9?$AAs?$AAp?$AA?9?$AAl?$AAa?$AAt?$AAn@ 00000001800c4d38     libcpmt:winapinls.obj
 0002:00004d50       ??_C@_1M@NGFJLMAC@?$AAs?$AAv?$AA?9?$AAf?$AAi@ 00000001800c4d50     libcpmt:winapinls.obj
 0002:00004d60       ??_C@_1M@MPJEJAJC@?$AAs?$AAv?$AA?9?$AAs?$AAe@ 00000001800c4d60     libcpmt:winapinls.obj
 0002:00004d70       ??_C@_1M@MPNDHLFK@?$AAs?$AAw?$AA?9?$AAk?$AAe@ 00000001800c4d70     libcpmt:winapinls.obj
 0002:00004d80       ??_C@_1O@KOHBJJI@?$AAs?$AAy?$AAr?$AA?9?$AAs?$AAy@ 00000001800c4d80     libcpmt:winapinls.obj
 0002:00004d90       ??_C@_1M@LDCEFHA@?$AAt?$AAa?$AA?9?$AAi?$AAn@ 00000001800c4d90     libcpmt:winapinls.obj
 0002:00004da0       ??_C@_1M@CNJOFAK@?$AAt?$AAe?$AA?9?$AAi?$AAn@ 00000001800c4da0     libcpmt:winapinls.obj
 0002:00004db0       ??_C@_1M@GNAECACD@?$AAt?$AAh?$AA?9?$AAt?$AAh@ 00000001800c4db0     libcpmt:winapinls.obj
 0002:00004dc0       ??_C@_1M@CHBIHOJO@?$AAt?$AAn?$AA?9?$AAz?$AAa@ 00000001800c4dc0     libcpmt:winapinls.obj
 0002:00004dd0       ??_C@_1M@GCCMIGPJ@?$AAt?$AAr?$AA?9?$AAt?$AAr@ 00000001800c4dd0     libcpmt:winapinls.obj
 0002:00004de0       ??_C@_1M@CELMCNBK@?$AAt?$AAt?$AA?9?$AAr?$AAu@ 00000001800c4de0     libcpmt:winapinls.obj
 0002:00004df0       ??_C@_1M@KLMCELGA@?$AAu?$AAk?$AA?9?$AAu?$AAa@ 00000001800c4df0     libcpmt:winapinls.obj
 0002:00004e00       ??_C@_1M@EPAJJAJF@?$AAu?$AAr?$AA?9?$AAp?$AAk@ 00000001800c4e00     libcpmt:winapinls.obj
 0002:00004e10       ??_C@_1BG@GEGPMCDJ@?$AAu?$AAz?$AA?9?$AAu?$AAz?$AA?9?$AAc?$AAy?$AAr?$AAl@ 00000001800c4e10     libcpmt:winapinls.obj
 0002:00004e28       ??_C@_1BG@EGGKJILM@?$AAu?$AAz?$AA?9?$AAu?$AAz?$AA?9?$AAl?$AAa?$AAt?$AAn@ 00000001800c4e28     libcpmt:winapinls.obj
 0002:00004e40       ??_C@_1M@GFOCLFF@?$AAv?$AAi?$AA?9?$AAv?$AAn@ 00000001800c4e40     libcpmt:winapinls.obj
 0002:00004e50       ??_C@_1M@CPAMEDFI@?$AAx?$AAh?$AA?9?$AAz?$AAa@ 00000001800c4e50     libcpmt:winapinls.obj
 0002:00004e60       ??_C@_1O@EBKIFIGN@?$AAz?$AAh?$AA?9?$AAc?$AAh?$AAs@ 00000001800c4e60     libcpmt:winapinls.obj
 0002:00004e70       ??_C@_1O@NMHPGANE@?$AAz?$AAh?$AA?9?$AAc?$AAh?$AAt@ 00000001800c4e70     libcpmt:winapinls.obj
 0002:00004e80       ??_C@_1M@LPINJOMC@?$AAz?$AAh?$AA?9?$AAc?$AAn@ 00000001800c4e80     libcpmt:winapinls.obj
 0002:00004e90       ??_C@_1M@OCJEJODD@?$AAz?$AAh?$AA?9?$AAh?$AAk@ 00000001800c4e90     libcpmt:winapinls.obj
 0002:00004ea0       ??_C@_1M@DNDLJINH@?$AAz?$AAh?$AA?9?$AAm?$AAo@ 00000001800c4ea0     libcpmt:winapinls.obj
 0002:00004eb0       ??_C@_1M@MBFDNDND@?$AAz?$AAh?$AA?9?$AAs?$AAg@ 00000001800c4eb0     libcpmt:winapinls.obj
 0002:00004ec0       ??_C@_1M@IMEPLEPE@?$AAz?$AAh?$AA?9?$AAt?$AAw@ 00000001800c4ec0     libcpmt:winapinls.obj
 0002:00004ed0       ??_C@_1M@BBGHNHJP@?$AAz?$AAu?$AA?9?$AAz?$AAa@ 00000001800c4ed0     libcpmt:winapinls.obj
 0002:00004ee8       ??_7type_info@@6B@         00000001800c4ee8     LIBCMT:std_type_info_static.obj
 0002:00004ef0       __xmm@ffffffffffffffffffffffffffffffff 00000001800c4ef0     LIBCMT:utility.obj
 0002:00004f00       _pDefaultRawDllMain        00000001800c4f00     LIBCMT:dll_dllmain.obj
 0002:00004f00       _pRawDllMain               00000001800c4f00     LIBCMT:dll_dllmain.obj
 0002:00004f18       ?s_negLengthTab@FH4@@3QBCB 00000001800c4f18     libvcruntime:risctrnsctrl.obj
 0002:00004f28       ?s_shiftTab@FH4@@3QBEB     00000001800c4f28     libvcruntime:risctrnsctrl.obj
 0002:00005078       _pDestructExceptionObject  00000001800c5078     libvcruntime:ehhelpers.obj
 0002:00005088       ??_7bad_typeid@std@@6B@    00000001800c5088     libvcruntime:rtti.obj
 0002:000050a0       ??_7__non_rtti_object@std@@6B@ 00000001800c50a0     libvcruntime:rtti.obj
 0002:000050b0       ??_C@_0CB@CGKGGDFI@Access?5violation?5?9?5no?5RTTI?5data@ 00000001800c50b0     libvcruntime:rtti.obj
 0002:000050d8       ??_C@_0CH@OLLMPELC@Attempted?5a?5typeid?5of?5nullptr?5p@ 00000001800c50d8     libvcruntime:rtti.obj
 0002:00005100       ??_C@_0CB@EEENAAHH@Bad?5read?5pointer?5?9?5no?5RTTI?5data@ 00000001800c5100     libvcruntime:rtti.obj
 0002:00005130       ??_7bad_exception@std@@6B@ 00000001800c5130     libvcruntime:frame.obj
 0002:00005140       ??_C@_0O@DPKOEFFH@bad?5exception@ 00000001800c5140     libvcruntime:frame.obj
 0002:00005850       ??_C@_08EHJDFFNH@__based?$CI@ 00000001800c5850     libvcruntime:undname.obj
 0002:00005860       ??_C@_07KOLFKCDI@__cdecl@  00000001800c5860     libvcruntime:undname.obj
 0002:00005868       ??_C@_08GHMPAG@__pascal@   00000001800c5868     libvcruntime:undname.obj
 0002:00005878       ??_C@_09IFJBGAPI@__stdcall@ 00000001800c5878     libvcruntime:undname.obj
 0002:00005888       ??_C@_0L@NPHFGOKO@__thiscall@ 00000001800c5888     libvcruntime:undname.obj
 0002:00005898       ??_C@_0L@JMKHOMEK@__fastcall@ 00000001800c5898     libvcruntime:undname.obj
 0002:000058a8       ??_C@_0N@BCKKPABJ@__vectorcall@ 00000001800c58a8     libvcruntime:undname.obj
 0002:000058b8       ??_C@_09HIJEGCPM@__clrcall@ 00000001800c58b8     libvcruntime:undname.obj
 0002:000058c4       ??_C@_06GHPCKEAG@__eabi@   00000001800c58c4     libvcruntime:undname.obj
 0002:000058d0       ??_C@_09IOPIDJLG@__swift_1@ 00000001800c58d0     libvcruntime:undname.obj
 0002:000058e0       ??_C@_09KFNFGKHF@__swift_2@ 00000001800c58e0     libvcruntime:undname.obj
 0002:000058f0       ??_C@_07JOMMBBKO@__ptr64@  00000001800c58f0     libvcruntime:undname.obj
 0002:000058f8       ??_C@_0L@PILCLIHE@__restrict@ 00000001800c58f8     libvcruntime:undname.obj
 0002:00005908       ??_C@_0M@GFIIJFMG@__unaligned@ 00000001800c5908     libvcruntime:undname.obj
 0002:00005918       ??_C@_09DHDLOLLB@restrict?$CI@ 00000001800c5918     libvcruntime:undname.obj
 0002:00005924       ??_C@_04NIHEBCM@?5new@     00000001800c5924     libvcruntime:undname.obj
 0002:00005930       ??_C@_07FPCDHGMM@?5delete@ 00000001800c5930     libvcruntime:undname.obj
 0002:00005938       ??_C@_01NEMOKFLO@?$DN@     00000001800c5938     libvcruntime:undname.obj
 0002:0000593c       ??_C@_02GPIOPFAK@?$DO?$DO@ 00000001800c593c     libvcruntime:undname.obj
 0002:00005940       ??_C@_02FODMEDOG@?$DM?$DM@ 00000001800c5940     libvcruntime:undname.obj
 0002:00005944       ??_C@_01DCLJPIOD@?$CB@     00000001800c5944     libvcruntime:undname.obj
 0002:00005948       ??_C@_02EGOFBIJA@?$DN?$DN@ 00000001800c5948     libvcruntime:undname.obj
 0002:0000594c       ??_C@_02FDNJECIE@?$CB?$DN@ 00000001800c594c     libvcruntime:undname.obj
 0002:00005950       ??_C@_02GPECMEKF@?$FL?$FN@ 00000001800c5950     libvcruntime:undname.obj
 0002:00005958       ??_C@_08LHJFAFGD@operator@ 00000001800c5958     libvcruntime:undname.obj
 0002:00005964       ??_C@_02HBOOOICD@?9?$DO@   00000001800c5964     libvcruntime:undname.obj
 0002:00005968       ??_C@_02ECNGHCIF@?$CL?$CL@ 00000001800c5968     libvcruntime:undname.obj
 0002:0000596c       ??_C@_02BAABKJLB@?9?9@     00000001800c596c     libvcruntime:undname.obj
 0002:00005970       ??_C@_01MIFGBAGJ@?$CL@     00000001800c5970     libvcruntime:undname.obj
 0002:00005974       ??_C@_01HNPIGOCE@?$CG@     00000001800c5974     libvcruntime:undname.obj
 0002:00005978       ??_C@_03MNHNFDLC@?9?$DO?$CK@ 00000001800c5978     libvcruntime:undname.obj
 0002:0000597c       ??_C@_01KMDKNFGN@?1@       00000001800c597c     libvcruntime:undname.obj
 0002:00005980       ??_C@_01FGNFDNOH@?$CF@     00000001800c5980     libvcruntime:undname.obj
 0002:00005984       ??_C@_01MNNFJEPP@?$DM@     00000001800c5984     libvcruntime:undname.obj
 0002:00005988       ??_C@_02EHCHHCKH@?$DM?$DN@ 00000001800c5988     libvcruntime:undname.obj
 0002:0000598c       ??_C@_01PPODPGHN@?$DO@     00000001800c598c     libvcruntime:undname.obj
 0002:00005990       ??_C@_02EEKDKGMJ@?$DO?$DN@ 00000001800c5990     libvcruntime:undname.obj
 0002:00005994       ??_C@_01IHBHIGKO@?0@       00000001800c5994     libvcruntime:undname.obj
 0002:00005998       ??_C@_02HCKGKOFO@?$CI?$CJ@ 00000001800c5998     libvcruntime:undname.obj
 0002:0000599c       ??_C@_01PJKLJHI@?$HO@      00000001800c599c     libvcruntime:undname.obj
 0002:000059a0       ??_C@_01JKBOJNNK@?$FO@     00000001800c59a0     libvcruntime:undname.obj
 0002:000059a4       ??_C@_01DNKMNLPK@?$HM@     00000001800c59a4     libvcruntime:undname.obj
 0002:000059a8       ??_C@_02PPKAJPJL@?$CG?$CG@ 00000001800c59a8     libvcruntime:undname.obj
 0002:000059ac       ??_C@_02NONPIBCD@?$HM?$HM@ 00000001800c59ac     libvcruntime:undname.obj
 0002:000059b0       ??_C@_02FPIMKNGF@?$CK?$DN@ 00000001800c59b0     libvcruntime:undname.obj
 0002:000059b4       ??_C@_02FOEOMHFC@?$CL?$DN@ 00000001800c59b4     libvcruntime:undname.obj
 0002:000059b8       ??_C@_02FKMDLLOA@?9?$DN@   00000001800c59b8     libvcruntime:undname.obj
 0002:000059bc       ??_C@_02FJEHGPIO@?1?$DN@   00000001800c59bc     libvcruntime:undname.obj
 0002:000059c0       ??_C@_02FENAOKFI@?$CF?$DN@ 00000001800c59c0     libvcruntime:undname.obj
 0002:000059c4       ??_C@_03IKFCCPFF@?$DO?$DO?$DN@ 00000001800c59c4     libvcruntime:undname.obj
 0002:000059c8       ??_C@_03CDNPDDLA@?$DM?$DM?$DN@ 00000001800c59c8     libvcruntime:undname.obj
 0002:000059cc       ??_C@_02FGJGFEAB@?$CG?$DN@ 00000001800c59cc     libvcruntime:undname.obj
 0002:000059d0       ??_C@_02DHLNPPGH@?$HM?$DN@ 00000001800c59d0     libvcruntime:undname.obj
 0002:000059d4       ??_C@_02MHEGNOJ@?$FO?$DN@  00000001800c59d4     libvcruntime:undname.obj
 0002:000059d8       ??_C@_09IFPLHPGF@?$GAvftable?8@ 00000001800c59d8     libvcruntime:undname.obj
 0002:000059e8       ??_C@_09BLBHBJP@?$GAvbtable?8@ 00000001800c59e8     libvcruntime:undname.obj
 0002:000059f8       ??_C@_07FEEIOKP@?$GAvcall?8@ 00000001800c59f8     libvcruntime:undname.obj
 0002:00005a00       ??_C@_08LLFFHHDJ@?$GAtypeof?8@ 00000001800c5a00     libvcruntime:undname.obj
 0002:00005a10       ??_C@_0BF@KDPPACIK@?$GAlocal?5static?5guard?8@ 00000001800c5a10     libvcruntime:undname.obj
 0002:00005a28       ??_C@_08OBABFOLI@?$GAstring?8@ 00000001800c5a28     libvcruntime:undname.obj
 0002:00005a38       ??_C@_0BD@JDLKDPAB@?$GAvbase?5destructor?8@ 00000001800c5a38     libvcruntime:undname.obj
 0002:00005a50       ??_C@_0BN@DEGPLNFK@?$GAvector?5deleting?5destructor?8@ 00000001800c5a50     libvcruntime:undname.obj
 0002:00005a70       ??_C@_0BO@OBMKPJIG@?$GAdefault?5constructor?5closure?8@ 00000001800c5a70     libvcruntime:undname.obj
 0002:00005a90       ??_C@_0BN@IMDCHIKM@?$GAscalar?5deleting?5destructor?8@ 00000001800c5a90     libvcruntime:undname.obj
 0002:00005ab0       ??_C@_0BO@PFGOCPJJ@?$GAvector?5constructor?5iterator?8@ 00000001800c5ab0     libvcruntime:undname.obj
 0002:00005ad0       ??_C@_0BN@LFPFMEDL@?$GAvector?5destructor?5iterator?8@ 00000001800c5ad0     libvcruntime:undname.obj
 0002:00005af0       ??_C@_0CE@IKBNEHA@?$GAvector?5vbase?5constructor?5itera@ 00000001800c5af0     libvcruntime:undname.obj
 0002:00005b18       ??_C@_0BL@NILFHHPC@?$GAvirtual?5displacement?5map?8@ 00000001800c5b18     libvcruntime:undname.obj
 0002:00005b38       ??_C@_0CB@JONCMFFK@?$GAeh?5vector?5constructor?5iterator@ 00000001800c5b38     libvcruntime:undname.obj
 0002:00005b60       ??_C@_0CA@GCEOPDGL@?$GAeh?5vector?5destructor?5iterator?8@ 00000001800c5b60     libvcruntime:undname.obj
 0002:00005b80       ??_C@_0CH@OOJPLCPH@?$GAeh?5vector?5vbase?5constructor?5it@ 00000001800c5b80     libvcruntime:undname.obj
 0002:00005ba8       ??_C@_0BL@LLKPOHJI@?$GAcopy?5constructor?5closure?8@ 00000001800c5ba8     libvcruntime:undname.obj
 0002:00005bc8       ??_C@_0BA@KBCDOMBN@?$GAudt?5returning?8@ 00000001800c5bc8     libvcruntime:undname.obj
 0002:00005bd8       ??_C@_03KLGMFNMG@?$GAEH@   00000001800c5bd8     libvcruntime:undname.obj
 0002:00005bdc       ??_C@_05KHLCHHI@?$GARTTI@  00000001800c5bdc     libvcruntime:undname.obj
 0002:00005be8       ??_C@_0BA@KKLDJDLB@?$GAlocal?5vftable?8@ 00000001800c5be8     libvcruntime:undname.obj
 0002:00005bf8       ??_C@_0CE@IIHCMGGL@?$GAlocal?5vftable?5constructor?5clos@ 00000001800c5bf8     libvcruntime:undname.obj
 0002:00005c1c       ??_C@_06FHBGPFGH@?5new?$FL?$FN@ 00000001800c5c1c     libvcruntime:undname.obj
 0002:00005c28       ??_C@_09LBNFPBCA@?5delete?$FL?$FN@ 00000001800c5c28     libvcruntime:undname.obj
 0002:00005c38       ??_C@_0P@HJKNJFNN@?$GAomni?5callsig?8@ 00000001800c5c38     libvcruntime:undname.obj
 0002:00005c48       ??_C@_0BL@CNOONJFP@?$GAplacement?5delete?5closure?8@ 00000001800c5c48     libvcruntime:undname.obj
 0002:00005c68       ??_C@_0BN@CKNJLHMB@?$GAplacement?5delete?$FL?$FN?5closure?8@ 00000001800c5c68     libvcruntime:undname.obj
 0002:00005c88       ??_C@_0CG@CFDHKGGD@?$GAmanaged?5vector?5constructor?5ite@ 00000001800c5c88     libvcruntime:undname.obj
 0002:00005cb0       ??_C@_0CF@IMGKMJNO@?$GAmanaged?5vector?5destructor?5iter@ 00000001800c5cb0     libvcruntime:undname.obj
 0002:00005cd8       ??_C@_0CG@HLDDJMAG@?$GAeh?5vector?5copy?5constructor?5ite@ 00000001800c5cd8     libvcruntime:undname.obj
 0002:00005d00       ??_C@_0CM@FCBBDIGB@?$GAeh?5vector?5vbase?5copy?5construct@ 00000001800c5d00     libvcruntime:undname.obj
 0002:00005d30       ??_C@_0BL@CLIPGLGB@?$GAdynamic?5initializer?5for?5?8@ 00000001800c5d30     libvcruntime:undname.obj
 0002:00005d50       ??_C@_0CB@PDBIFEP@?$GAdynamic?5atexit?5destructor?5for?5@ 00000001800c5d50     libvcruntime:undname.obj
 0002:00005d78       ??_C@_0CD@CGAJBKEJ@?$GAvector?5copy?5constructor?5iterat@ 00000001800c5d78     libvcruntime:undname.obj
 0002:00005da0       ??_C@_0CJ@GJELGAMM@?$GAvector?5vbase?5copy?5constructor?5@ 00000001800c5da0     libvcruntime:undname.obj
 0002:00005dd0       ??_C@_0CL@FGIJHLCE@?$GAmanaged?5vector?5copy?5constructo@ 00000001800c5dd0     libvcruntime:undname.obj
 0002:00005e00       ??_C@_0BM@PMGGMLDN@?$GAlocal?5static?5thread?5guard?8@ 00000001800c5e00     libvcruntime:undname.obj
 0002:00005e20       ??_C@_0N@BDNMDMOL@operator?5?$CC?$CC?5@ 00000001800c5e20     libvcruntime:undname.obj
 0002:00005e30       ??_C@_0BC@GGEBGALA@operator?5co_await@ 00000001800c5e30     libvcruntime:undname.obj
 0002:00005e48       ??_C@_0M@GAAIMMOH@operator?$DM?$DN?$DO@ 00000001800c5e48     libvcruntime:undname.obj
 0002:00005e58       ??_C@_0BC@DAFEJGAK@?5Type?5Descriptor?8@ 00000001800c5e58     libvcruntime:undname.obj
 0002:00005e70       ??_C@_0BM@LDKODKLH@?5Base?5Class?5Descriptor?5at?5?$CI@ 00000001800c5e70     libvcruntime:undname.obj
 0002:00005e90       ??_C@_0BD@LGICGFMM@?5Base?5Class?5Array?8@ 00000001800c5e90     libvcruntime:undname.obj
 0002:00005ea8       ??_C@_0BN@MECKDCOJ@?5Class?5Hierarchy?5Descriptor?8@ 00000001800c5ea8     libvcruntime:undname.obj
 0002:00005ec8       ??_C@_0BK@CFCOFLF@?5Complete?5Object?5Locator?8@ 00000001800c5ec8     libvcruntime:undname.obj
 0002:00005ee8       ??_C@_0BG@JNJLAMPM@?$GAanonymous?5namespace?8@ 00000001800c5ee8     libvcruntime:undname.obj
 0002:00005f28       ??_C@_04HEJADOOB@CV?3?5@   00000001800c5f28     libvcruntime:undname.obj
 0002:00005f30       ??_C@_02MOLJINC@?3?3@      00000001800c5f30     libvcruntime:undname.obj
 0002:00005f38       ??_C@_0BE@JAEOCHPE@template?9parameter?9@ 00000001800c5f38     libvcruntime:undname.obj
 0002:00005f50       ??_C@_0BF@LNLGBBNL@?$GAtemplate?9parameter?9@ 00000001800c5f50     libvcruntime:undname.obj
 0002:00005f68       ??_C@_0O@KHGCOMHP@generic?9type?9@ 00000001800c5f68     libvcruntime:undname.obj
 0002:00005f78       ??_C@_0P@ODDENDLM@?$GAgeneric?9type?9@ 00000001800c5f78     libvcruntime:undname.obj
 0002:00005f88       ??_C@_02OHHJMEON@?8?8@     00000001800c5f88     libvcruntime:undname.obj
 0002:00005f90       ??_C@_0BN@IBLMMFAP@?$GAnon?9type?9template?9parameter@ 00000001800c5f90     libvcruntime:undname.obj
 0002:00005fb0       ??_C@_03KHICJKCI@?4?4?4@   00000001800c5fb0     libvcruntime:undname.obj
 0002:00005fb4       ??_C@_04HIBGFPH@NULL@      00000001800c5fb4     libvcruntime:undname.obj
 0002:00005fbc       ??_C@_02DPKJAMEF@?$CFd@    00000001800c5fbc     libvcruntime:undname.obj
 0002:00005fc0       ??_C@_0BK@IHCCFNEL@?$GAtemplate?9type?9parameter?9@ 00000001800c5fc0     libvcruntime:undname.obj
 0002:00005fe0       ??_C@_0BK@OFCNNNKO@?$GAgeneric?9class?9parameter?9@ 00000001800c5fe0     libvcruntime:undname.obj
 0002:00006000       ??_C@_0BL@NGJBLFIL@?$GAgeneric?9method?9parameter?9@ 00000001800c6000     libvcruntime:undname.obj
 0002:0000601c       ??_C@_04GKJNKENE@void@     00000001800c601c     libvcruntime:undname.obj
 0002:00006028       ??_C@_0BE@EODMJLIF@?$GAtemplate?9parameter@ 00000001800c6028     libvcruntime:undname.obj
 0002:0000603c       ??_C@_03OPGICMGF@?$HN?8?5@ 00000001800c603c     libvcruntime:undname.obj
 0002:00006040       ??_C@_02IGFCGPIL@?$HN?8@   00000001800c6040     libvcruntime:undname.obj
 0002:00006048       ??_C@_0N@CBHHHENL@?$GAvtordispex?$HL@ 00000001800c6048     libvcruntime:undname.obj
 0002:00006058       ??_C@_0L@GHPFDFH@?$GAvtordisp?$HL@ 00000001800c6058     libvcruntime:undname.obj
 0002:00006068       ??_C@_0L@HNGCOGAE@?$GAadjustor?$HL@ 00000001800c6068     libvcruntime:undname.obj
 0002:00006078       ??_C@_0CB@KJDOOODE@?$GAlocal?5static?5destructor?5helper@ 00000001800c6078     libvcruntime:undname.obj
 0002:000060a0       ??_C@_0DB@ILEFOCIJ@?$GAtemplate?5static?5data?5member?5co@ 00000001800c60a0     libvcruntime:undname.obj
 0002:000060d8       ??_C@_0DA@HGFJFBBE@?$GAtemplate?5static?5data?5member?5de@ 00000001800c60d8     libvcruntime:undname.obj
 0002:00006108       ??_C@_07PGOEDBHP@static?5@ 00000001800c6108     libvcruntime:undname.obj
 0002:00006110       ??_C@_08NIEOINHE@virtual?5@ 00000001800c6110     libvcruntime:undname.obj
 0002:00006120       ??_C@_09LAPHOOG@private?3?5@ 00000001800c6120     libvcruntime:undname.obj
 0002:00006130       ??_C@_0M@GAIFPFIP@protected?3?5@ 00000001800c6130     libvcruntime:undname.obj
 0002:00006140       ??_C@_08GPDDCMKI@public?3?5@ 00000001800c6140     libvcruntime:undname.obj
 0002:00006150       ??_C@_08KJLFOPNE@?$FLthunk?$FN?3@ 00000001800c6150     libvcruntime:undname.obj
 0002:00006160       ??_C@_0M@DHNBOJMP@extern?5?$CCC?$CC?5@ 00000001800c6160     libvcruntime:undname.obj
 0002:0000616c       ??_C@_02KCKGHPCA@?$CJ?5@   00000001800c616c     libvcruntime:undname.obj
 0002:00006170       ??_C@_05CIHEBHNO@char?5@   00000001800c6170     libvcruntime:undname.obj
 0002:00006178       ??_C@_06EHJMALKF@short?5@  00000001800c6178     libvcruntime:undname.obj
 0002:00006180       ??_C@_04LAHKHJMA@int?5@    00000001800c6180     libvcruntime:undname.obj
 0002:00006188       ??_C@_05CJIMAING@long?5@   00000001800c6188     libvcruntime:undname.obj
 0002:00006190       ??_C@_09EBBEKKIH@unsigned?5@ 00000001800c6190     libvcruntime:undname.obj
 0002:0000619c       ??_C@_05BEFAKPML@void?5@   00000001800c619c     libvcruntime:undname.obj
 0002:000061a8       ??_C@_09GAIEOBLP@volatile?5@ 00000001800c61a8     libvcruntime:undname.obj
 0002:000061b8       ??_C@_08PABEKFH@volatile@  00000001800c61b8     libvcruntime:undname.obj
 0002:000061c8       ??_C@_0BA@LKIJLKPP@std?3?3nullptr_t?5@ 00000001800c61c8     libvcruntime:undname.obj
 0002:000061d8       ??_C@_0P@GCOCNKDM@std?3?3nullptr_t@ 00000001800c61d8     libvcruntime:undname.obj
 0002:000061e8       ??_C@_0L@EGPHHEKN@?$DMellipsis?$DO@ 00000001800c61e8     libvcruntime:undname.obj
 0002:000061f4       ??_C@_04EENFHACM@?0?4?4?4@ 00000001800c61f4     libvcruntime:undname.obj
 0002:00006200       ??_C@_0M@ELJOJFFH@?0?$DMellipsis?$DO@ 00000001800c6200     libvcruntime:undname.obj
 0002:00006210       ??_C@_09DNHFEOJI@?5noexcept@ 00000001800c6210     libvcruntime:undname.obj
 0002:0000621c       ??_C@_03PBJBJNON@cpu@      00000001800c621c     libvcruntime:undname.obj
 0002:00006220       ??_C@_03DCBBJBAA@amp@      00000001800c6220     libvcruntime:undname.obj
 0002:00006224       ??_C@_02KEGNLNML@?0?5@     00000001800c6224     libvcruntime:undname.obj
 0002:00006228       ??_C@_04ENMBGAPA@char@     00000001800c6228     libvcruntime:undname.obj
 0002:00006230       ??_C@_05BFKKPKCG@short@    00000001800c6230     libvcruntime:undname.obj
 0002:00006238       ??_C@_03JBIPMCLC@int@      00000001800c6238     libvcruntime:undname.obj
 0002:0000623c       ??_C@_04GOKPGOLB@long@     00000001800c623c     libvcruntime:undname.obj
 0002:00006244       ??_C@_05KNFBNCOH@float@    00000001800c6244     libvcruntime:undname.obj
 0002:0000624c       ??_C@_06BNJCAIGJ@double@   00000001800c624c     libvcruntime:undname.obj
 0002:00006254       ??_C@_04DDKJGDCM@bool@     00000001800c6254     libvcruntime:undname.obj
 0002:0000625c       ??_C@_06EBGKOKIG@__int8@   00000001800c625c     libvcruntime:undname.obj
 0002:00006268       ??_C@_07ICFHOGAF@__int16@  00000001800c6268     libvcruntime:undname.obj
 0002:00006270       ??_C@_07OFLPPHGP@__int32@  00000001800c6270     libvcruntime:undname.obj
 0002:00006278       ??_C@_07LFCOJCAC@__int64@  00000001800c6278     libvcruntime:undname.obj
 0002:00006280       ??_C@_08GAHOLHEO@__int128@ 00000001800c6280     libvcruntime:undname.obj
 0002:00006290       ??_C@_09EEKGDCPH@?$DMunknown?$DO@ 00000001800c6290     libvcruntime:undname.obj
 0002:000062a0       ??_C@_07CFHGOPCN@char8_t@  00000001800c62a0     libvcruntime:undname.obj
 0002:000062a8       ??_C@_08HBIPOFJB@char16_t@ 00000001800c62a8     libvcruntime:undname.obj
 0002:000062b8       ??_C@_08IECNCBKG@char32_t@ 00000001800c62b8     libvcruntime:undname.obj
 0002:000062c8       ??_C@_07CLGGIAMF@wchar_t@  00000001800c62c8     libvcruntime:undname.obj
 0002:000062d0       ??_C@_06GCICPBLB@__w64?5@  00000001800c62d0     libvcruntime:undname.obj
 0002:000062d8       ??_C@_07NFANNNEC@UNKNOWN@  00000001800c62d8     libvcruntime:undname.obj
 0002:000062e0       ??_C@_07EDHNAJHC@signed?5@ 00000001800c62e0     libvcruntime:undname.obj
 0002:000062e8       ??_C@_05BNCCCJPP@const@    00000001800c62e8     libvcruntime:undname.obj
 0002:000062f0       ??_C@_09EFNPDFFP@?5volatile@ 00000001800c62f0     libvcruntime:undname.obj
 0002:00006300       ??_C@_0P@GCIFDJCJ@?$GAunknown?5ecsu?8@ 00000001800c6300     libvcruntime:undname.obj
 0002:00006310       ??_C@_06MOJHIBMG@union?5@  00000001800c6310     libvcruntime:undname.obj
 0002:00006318       ??_C@_07DIBCDNGL@struct?5@ 00000001800c6318     libvcruntime:undname.obj
 0002:00006320       ??_C@_06LJBABKPM@class?5@  00000001800c6320     libvcruntime:undname.obj
 0002:00006328       ??_C@_08KOFANOFK@coclass?5@ 00000001800c6328     libvcruntime:undname.obj
 0002:00006338       ??_C@_0N@DLIEFKNA@cointerface?5@ 00000001800c6338     libvcruntime:undname.obj
 0002:00006348       ??_C@_05LJGMCFOG@enum?5@   00000001800c6348     libvcruntime:undname.obj
 0002:00006350       ??_C@_06LIJLOJAG@const?5@  00000001800c6350     libvcruntime:undname.obj
 0002:00006358       ??_C@_02KJPKDIBN@?$CG?5@   00000001800c6358     libvcruntime:undname.obj
 0002:0000635c       ??_C@_03PCKGMOPB@?$CG?$CG?5@ 00000001800c635c     libvcruntime:undname.obj
 0002:00006360       ??_C@_0M@EALIELKG@cli?3?3array?$DM@ 00000001800c6360     libvcruntime:undname.obj
 0002:00006370       ??_C@_0O@GKABPPIF@cli?3?3pin_ptr?$DM@ 00000001800c6370     libvcruntime:undname.obj
 0002:00006380       ??_C@_02GOGNNPBN@?$CJ?$FL@ 00000001800c6380     libvcruntime:undname.obj
 0002:00006384       ??_C@_06EEGAIFAK@?$HLflat?$HN@ 00000001800c6384     libvcruntime:undname.obj
 0002:0000638c       ??_C@_05JIBOFOHK@?$HLfor?5@ 00000001800c638c     libvcruntime:undname.obj
 0002:00006394       ??_C@_02MDINNEEG@s?5@      00000001800c6394     libvcruntime:undname.obj
 0002:000063a0       ??_7charNode@@6B@          00000001800c63a0     libvcruntime:undname.obj
 0002:000063c8       ??_7pcharNode@@6B@         00000001800c63c8     libvcruntime:undname.obj
 0002:000063f0       ??_7pDNameNode@@6B@        00000001800c63f0     libvcruntime:undname.obj
 0002:00006418       ??_7DNameStatusNode@@6B@   00000001800c6418     libvcruntime:undname.obj
 0002:00006440       ??_7pairNode@@6B@          00000001800c6440     libvcruntime:undname.obj
 0002:00006560       ??_C@_04OKOHEJBO@?5?$DP?$DP?5@ 00000001800c6560     libvcruntime:undname.obj
 0002:00006570       ?nodes@?1??make@DNameStatusNode@@SAPEBV2@W4DNameStatus@@@Z@4QBV2@B 00000001800c6570     libvcruntime:undname.obj
 0002:000065c8       ??_C@_1DM@KHCHBNEB@?$AAa?$AAp?$AAi?$AA?9?$AAm?$AAs?$AA?9?$AAw?$AAi?$AAn?$AA?9?$AAc?$AAo?$AAr?$AAe@ 00000001800c65c8     libvcruntime:winapi_downlevel.obj
 0002:00006608       ??_C@_1DK@LPPGFMPP@?$AAa?$AAp?$AAi?$AA?9?$AAm?$AAs?$AA?9?$AAw?$AAi?$AAn?$AA?9?$AAc?$AAo?$AAr?$AAe@ 00000001800c6608     libvcruntime:winapi_downlevel.obj
 0002:00006648       ??_C@_1BC@GDMECMAK@?$AAk?$AAe?$AAr?$AAn?$AAe?$AAl?$AA3?$AA2@ 00000001800c6648     libvcruntime:winapi_downlevel.obj
 0002:00006660       ??_C@_1BA@PFFKHIOG@?$AAa?$AAp?$AAi?$AA?9?$AAm?$AAs?$AA?9@ 00000001800c6660     libvcruntime:winapi_downlevel.obj
 0002:000066a0       format_validation_lookup_table 00000001800c66a0     libucrt:output.obj
 0002:00006700       ??_C@_1O@CEDCILHN@?$AA?$CI?$AAn?$AAu?$AAl?$AAl?$AA?$CJ@ 00000001800c6700     libucrt:output.obj
 0002:00006710       ??_C@_06OJHGLDPL@?$CInull?$CJ@ 00000001800c6710     libucrt:output.obj
 0002:00006718       __real@0000000000000000    00000001800c6718     libucrt:frexp.obj
 0002:00006720       __real@3ff0000000000000    00000001800c6720     libucrt:frexp.obj
 0002:00006728       __real@8000000000000000    00000001800c6728     libucrt:frexp.obj
 0002:000068a0       __newctype                 00000001800c68a0     libucrt:ctype.obj
 0002:00006ba0       __newclmap                 00000001800c6ba0     libucrt:ctype.obj
 0002:00006d20       __newcumap                 00000001800c6d20     libucrt:ctype.obj
 0002:00006ea0       _wctype                    00000001800c6ea0     libucrt:ctype.obj
 0002:000070b0       ?large_power_data@?1??multiply_by_power_of_ten@__crt_strtox@@YA_NAEAUbig_integer@2@I@Z@4QBIB 00000001800c70b0     libucrt:strtod.obj
 0002:000079b8       ?small_powers_of_ten@?1??multiply_by_power_of_ten@__crt_strtox@@YA_NAEAUbig_integer@2@I@Z@4QBIB 00000001800c79b8     libucrt:strtod.obj
 0002:00009690       __acrt_exception_action_table 00000001800c9690     libucrt:exception_filter.obj
 0002:00009750       __acrt_signal_action_table_count 00000001800c9750     libucrt:exception_filter.obj
 0002:00009758       __acrt_signal_action_first_fpe_index 00000001800c9758     libucrt:exception_filter.obj
 0002:00009760       __acrt_signal_action_fpe_count 00000001800c9760     libucrt:exception_filter.obj
 0002:00009768       ??_C@_1BI@BGOHAHKC@?$AAm?$AAs?$AAc?$AAo?$AAr?$AAe?$AAe?$AA?4?$AAd?$AAl?$AAl@ 00000001800c9768     libucrt:exit.obj
 0002:00009780       ??_C@_0P@MIGLKIOC@CorExitProcess@ 00000001800c9780     libucrt:exit.obj
 0002:00009910       __lc_category              00000001800c9910     libucrt:wsetlocale.obj
 0002:000099a0       ??_C@_1O@GIFLHMA@?$AAL?$AAC?$AA_?$AAA?$AAL?$AAL@ 00000001800c99a0     libucrt:wsetlocale.obj
 0002:000099b0       ??_C@_1BG@PPOMIBNJ@?$AAL?$AAC?$AA_?$AAC?$AAO?$AAL?$AAL?$AAA?$AAT?$AAE@ 00000001800c99b0     libucrt:wsetlocale.obj
 0002:000099c8       ??_C@_1BC@FFJGAPJM@?$AAL?$AAC?$AA_?$AAC?$AAT?$AAY?$AAP?$AAE@ 00000001800c99c8     libucrt:wsetlocale.obj
 0002:000099e0       ??_C@_1BI@PCKFNJFB@?$AAL?$AAC?$AA_?$AAM?$AAO?$AAN?$AAE?$AAT?$AAA?$AAR?$AAY@ 00000001800c99e0     libucrt:wsetlocale.obj
 0002:000099f8       ??_C@_1BG@ENIEDKID@?$AAL?$AAC?$AA_?$AAN?$AAU?$AAM?$AAE?$AAR?$AAI?$AAC@ 00000001800c99f8     libucrt:wsetlocale.obj
 0002:00009a10       ??_C@_1BA@HAAOMIIG@?$AAL?$AAC?$AA_?$AAT?$AAI?$AAM?$AAE@ 00000001800c9a10     libucrt:wsetlocale.obj
 0002:00009a20       ??_C@_15NBPDDFIP@?$AA?$DN?$AA?$DL@ 00000001800c9a20     libucrt:wsetlocale.obj
 0002:00009a28       ??_C@_17EFJLDFDO@?$AA?9?$AA_?$AA?4@ 00000001800c9a28     libucrt:wsetlocale.obj
 0002:00009a30       ??_C@_17MBJJLFDM@?$AA_?$AA?4?$AA?0@ 00000001800c9a30     libucrt:wsetlocale.obj
 0002:00009a40       __lc_time_c                00000001800c9a40     libucrt:nlsdata.obj
 0002:00009d00       ??_C@_03KOEHGMDN@Sun@      00000001800c9d00     libucrt:nlsdata.obj
 0002:00009d04       ??_C@_03PDAGKDH@Mon@       00000001800c9d04     libucrt:nlsdata.obj
 0002:00009d08       ??_C@_03NAGEINEP@Tue@      00000001800c9d08     libucrt:nlsdata.obj
 0002:00009d0c       ??_C@_03MHOMLAJA@Wed@      00000001800c9d0c     libucrt:nlsdata.obj
 0002:00009d10       ??_C@_03IOFIKPDN@Thu@      00000001800c9d10     libucrt:nlsdata.obj
 0002:00009d14       ??_C@_03IDIOELNC@Fri@      00000001800c9d14     libucrt:nlsdata.obj
 0002:00009d18       ??_C@_03FEFJNEK@Sat@       00000001800c9d18     libucrt:nlsdata.obj
 0002:00009d1c       ??_C@_06OOPIFAJ@Sunday@    00000001800c9d1c     libucrt:nlsdata.obj
 0002:00009d24       ??_C@_06JLEDEDGH@Monday@   00000001800c9d24     libucrt:nlsdata.obj
 0002:00009d30       ??_C@_07BAAGCFCM@Tuesday@  00000001800c9d30     libucrt:nlsdata.obj
 0002:00009d38       ??_C@_09DLIGFAKA@Wednesday@ 00000001800c9d38     libucrt:nlsdata.obj
 0002:00009d48       ??_C@_08HACCIKIA@Thursday@ 00000001800c9d48     libucrt:nlsdata.obj
 0002:00009d54       ??_C@_06JECMNKMI@Friday@   00000001800c9d54     libucrt:nlsdata.obj
 0002:00009d60       ??_C@_08INBOOONO@Saturday@ 00000001800c9d60     libucrt:nlsdata.obj
 0002:00009d6c       ??_C@_03JIHJHPIE@Jan@      00000001800c9d6c     libucrt:nlsdata.obj
 0002:00009d70       ??_C@_03HJBDCHOM@Feb@      00000001800c9d70     libucrt:nlsdata.obj
 0002:00009d74       ??_C@_03ODNJBKGA@Mar@      00000001800c9d74     libucrt:nlsdata.obj
 0002:00009d78       ??_C@_03LEOLGMJP@Apr@      00000001800c9d78     libucrt:nlsdata.obj
 0002:00009d7c       ??_C@_03CNMDKL@May@        00000001800c9d7c     libucrt:nlsdata.obj
 0002:00009d80       ??_C@_03IDFGHECI@Jun@      00000001800c9d80     libucrt:nlsdata.obj
 0002:00009d84       ??_C@_03LBGABGKK@Jul@      00000001800c9d84     libucrt:nlsdata.obj
 0002:00009d88       ??_C@_03IFJFEIGA@Aug@      00000001800c9d88     libucrt:nlsdata.obj
 0002:00009d8c       ??_C@_03GGCAPAJC@Sep@      00000001800c9d8c     libucrt:nlsdata.obj
 0002:00009d90       ??_C@_03BMAOKBAD@Oct@      00000001800c9d90     libucrt:nlsdata.obj
 0002:00009d94       ??_C@_03JPJOFNIA@Nov@      00000001800c9d94     libucrt:nlsdata.obj
 0002:00009d98       ??_C@_03MKABNOCG@Dec@      00000001800c9d98     libucrt:nlsdata.obj
 0002:00009da0       ??_C@_07CGJPFGJA@January@  00000001800c9da0     libucrt:nlsdata.obj
 0002:00009da8       ??_C@_08GNJGEPFN@February@ 00000001800c9da8     libucrt:nlsdata.obj
 0002:00009db4       ??_C@_05HPCKOFNC@March@    00000001800c9db4     libucrt:nlsdata.obj
 0002:00009dbc       ??_C@_05DMJDNLEJ@April@    00000001800c9dbc     libucrt:nlsdata.obj
 0002:00009dc4       ??_C@_04CNLMGBGM@June@     00000001800c9dc4     libucrt:nlsdata.obj
 0002:00009dcc       ??_C@_04MIEPOIFP@July@     00000001800c9dcc     libucrt:nlsdata.obj
 0002:00009dd4       ??_C@_06LBBHFDDG@August@   00000001800c9dd4     libucrt:nlsdata.obj
 0002:00009de0       ??_C@_09BHHEALKD@September@ 00000001800c9de0     libucrt:nlsdata.obj
 0002:00009df0       ??_C@_07JJNFCEND@October@  00000001800c9df0     libucrt:nlsdata.obj
 0002:00009df8       ??_C@_08HCHEGEOA@November@ 00000001800c9df8     libucrt:nlsdata.obj
 0002:00009e08       ??_C@_08EDHMEBNP@December@ 00000001800c9e08     libucrt:nlsdata.obj
 0002:00009e14       ??_C@_02DEDBPAFC@AM@       00000001800c9e14     libucrt:nlsdata.obj
 0002:00009e18       ??_C@_02CJNFDJBF@PM@       00000001800c9e18     libucrt:nlsdata.obj
 0002:00009e20       ??_C@_08BPBNCDIB@MM?1dd?1yy@ 00000001800c9e20     libucrt:nlsdata.obj
 0002:00009e30       ??_C@_0BE@CKGJFCPC@dddd?0?5MMMM?5dd?0?5yyyy@ 00000001800c9e30     libucrt:nlsdata.obj
 0002:00009e48       ??_C@_08JCCMCCIL@HH?3mm?3ss@ 00000001800c9e48     libucrt:nlsdata.obj
 0002:00009e58       ??_C@_17MBGCMIPB@?$AAS?$AAu?$AAn@ 00000001800c9e58     libucrt:nlsdata.obj
 0002:00009e60       ??_C@_17KBOMKBF@?$AAM?$AAo?$AAn@ 00000001800c9e60     libucrt:nlsdata.obj
 0002:00009e68       ??_C@_17BMKGEGOJ@?$AAT?$AAu?$AAe@ 00000001800c9e68     libucrt:nlsdata.obj
 0002:00009e70       ??_C@_17CJEDCEPE@?$AAW?$AAe?$AAd@ 00000001800c9e70     libucrt:nlsdata.obj
 0002:00009e78       ??_C@_17PDPHAADD@?$AAT?$AAh?$AAu@ 00000001800c9e78     libucrt:nlsdata.obj
 0002:00009e80       ??_C@_17HFOLPPLP@?$AAF?$AAr?$AAi@ 00000001800c9e80     libucrt:nlsdata.obj
 0002:00009e88       ??_C@_17GGIBDPIH@?$AAS?$AAa?$AAt@ 00000001800c9e88     libucrt:nlsdata.obj
 0002:00009e90       ??_C@_1O@IHNHDHPB@?$AAS?$AAu?$AAn?$AAd?$AAa?$AAy@ 00000001800c9e90     libucrt:nlsdata.obj
 0002:00009ea0       ??_C@_1O@MMNBFLIA@?$AAM?$AAo?$AAn?$AAd?$AAa?$AAy@ 00000001800c9ea0     libucrt:nlsdata.obj
 0002:00009eb0       ??_C@_1BA@ENFBFFEK@?$AAT?$AAu?$AAe?$AAs?$AAd?$AAa?$AAy@ 00000001800c9eb0     libucrt:nlsdata.obj
 0002:00009ec0       ??_C@_1BE@EBOGMDOH@?$AAW?$AAe?$AAd?$AAn?$AAe?$AAs?$AAd?$AAa?$AAy@ 00000001800c9ec0     libucrt:nlsdata.obj
 0002:00009ed8       ??_C@_1BC@HHMNLIHE@?$AAT?$AAh?$AAu?$AAr?$AAs?$AAd?$AAa?$AAy@ 00000001800c9ed8     libucrt:nlsdata.obj
 0002:00009ef0       ??_C@_1O@PDICJHAG@?$AAF?$AAr?$AAi?$AAd?$AAa?$AAy@ 00000001800c9ef0     libucrt:nlsdata.obj
 0002:00009f00       ??_C@_1BC@ENMNNPAJ@?$AAS?$AAa?$AAt?$AAu?$AAr?$AAd?$AAa?$AAy@ 00000001800c9f00     libucrt:nlsdata.obj
 0002:00009f18       ??_C@_17DKNBKCHM@?$AAJ?$AAa?$AAn@ 00000001800c9f18     libucrt:nlsdata.obj
 0002:00009f20       ??_C@_17LMDJEKJN@?$AAF?$AAe?$AAb@ 00000001800c9f20     libucrt:nlsdata.obj
 0002:00009f28       ??_C@_17CKNLEDEC@?$AAM?$AAa?$AAr@ 00000001800c9f28     libucrt:nlsdata.obj
 0002:00009f30       ??_C@_17LFPOIHDD@?$AAA?$AAp?$AAr@ 00000001800c9f30     libucrt:nlsdata.obj
 0002:00009f38       ??_C@_17PNNKMEED@?$AAM?$AAa?$AAy@ 00000001800c9f38     libucrt:nlsdata.obj
 0002:00009f40       ??_C@_17KCJGOCPB@?$AAJ?$AAu?$AAn@ 00000001800c9f40     libucrt:nlsdata.obj
 0002:00009f48       ??_C@_17IJPCKHK@?$AAJ?$AAu?$AAl@ 00000001800c9f48     libucrt:nlsdata.obj
 0002:00009f50       ??_C@_17ICPELBCN@?$AAA?$AAu?$AAg@ 00000001800c9f50     libucrt:nlsdata.obj
 0002:00009f58       ??_C@_17HCHCOKMG@?$AAS?$AAe?$AAp@ 00000001800c9f58     libucrt:nlsdata.obj
 0002:00009f60       ??_C@_17FNLKOI@?$AAO?$AAc?$AAt@ 00000001800c9f60     libucrt:nlsdata.obj
 0002:00009f68       ??_C@_17BBDMLCIG@?$AAN?$AAo?$AAv@ 00000001800c9f68     libucrt:nlsdata.obj
 0002:00009f70       ??_C@_17EGKACKIF@?$AAD?$AAe?$AAc@ 00000001800c9f70     libucrt:nlsdata.obj
 0002:00009f78       ??_C@_1BA@EFMEIEBA@?$AAJ?$AAa?$AAn?$AAu?$AAa?$AAr?$AAy@ 00000001800c9f78     libucrt:nlsdata.obj
 0002:00009f88       ??_C@_1BC@JGDDFFAM@?$AAF?$AAe?$AAb?$AAr?$AAu?$AAa?$AAr?$AAy@ 00000001800c9f88     libucrt:nlsdata.obj
 0002:00009fa0       ??_C@_1M@IKEENEDF@?$AAM?$AAa?$AAr?$AAc?$AAh@ 00000001800c9fa0     libucrt:nlsdata.obj
 0002:00009fb0       ??_C@_1M@GJNLMHFD@?$AAA?$AAp?$AAr?$AAi?$AAl@ 00000001800c9fb0     libucrt:nlsdata.obj
 0002:00009fc0       ??_C@_19EPFLPGAP@?$AAJ?$AAu?$AAn?$AAe@ 00000001800c9fc0     libucrt:nlsdata.obj
 0002:00009fd0       ??_C@_19BIFMLPCD@?$AAJ?$AAu?$AAl?$AAy@ 00000001800c9fd0     libucrt:nlsdata.obj
 0002:00009fe0       ??_C@_1O@PAHLKOAC@?$AAA?$AAu?$AAg?$AAu?$AAs?$AAt@ 00000001800c9fe0     libucrt:nlsdata.obj
 0002:00009ff0       ??_C@_1BE@DKAAMBJL@?$AAS?$AAe?$AAp?$AAt?$AAe?$AAm?$AAb?$AAe?$AAr@ 00000001800c9ff0     libucrt:nlsdata.obj
 0002:0000a008       ??_C@_1BA@EPANDLNG@?$AAO?$AAc?$AAt?$AAo?$AAb?$AAe?$AAr@ 00000001800ca008     libucrt:nlsdata.obj
 0002:0000a018       ??_C@_1BC@BGLIFPF@?$AAN?$AAo?$AAv?$AAe?$AAm?$AAb?$AAe?$AAr@ 00000001800ca018     libucrt:nlsdata.obj
 0002:0000a030       ??_C@_1BC@FEMKIFH@?$AAD?$AAe?$AAc?$AAe?$AAm?$AAb?$AAe?$AAr@ 00000001800ca030     libucrt:nlsdata.obj
 0002:0000a044       ??_C@_15ODEHAHHF@?$AAA?$AAM@ 00000001800ca044     libucrt:nlsdata.obj
 0002:0000a04c       ??_C@_15CLMNNGEL@?$AAP?$AAM@ 00000001800ca04c     libucrt:nlsdata.obj
 0002:0000a058       ??_C@_1BC@IEBCMHCM@?$AAM?$AAM?$AA?1?$AAd?$AAd?$AA?1?$AAy?$AAy@ 00000001800ca058     libucrt:nlsdata.obj
 0002:0000a070       ??_C@_1CI@KNAKOEBC@?$AAd?$AAd?$AAd?$AAd?$AA?0?$AA?5?$AAM?$AAM?$AAM?$AAM?$AA?5?$AAd?$AAd?$AA?0?$AA?5@ 00000001800ca070     libucrt:nlsdata.obj
 0002:0000a098       ??_C@_1BC@GDGBMEMK@?$AAH?$AAH?$AA?3?$AAm?$AAm?$AA?3?$AAs?$AAs@ 00000001800ca098     libucrt:nlsdata.obj
 0002:0000a130       ??_C@_03OEIAHPBN@INF@      00000001800ca130     libucrt:cvt.obj
 0002:0000a134       ??_C@_03OJHLLCGB@inf@      00000001800ca134     libucrt:cvt.obj
 0002:0000a138       ??_C@_03LKNCIKJB@NAN@      00000001800ca138     libucrt:cvt.obj
 0002:0000a13c       ??_C@_03LHCJEHON@nan@      00000001800ca13c     libucrt:cvt.obj
 0002:0000a140       ??_C@_09OFJJIMPC@NAN?$CISNAN?$CJ@ 00000001800ca140     libucrt:cvt.obj
 0002:0000a150       ??_C@_09IPFBKMDL@nan?$CIsnan?$CJ@ 00000001800ca150     libucrt:cvt.obj
 0002:0000a160       ??_C@_08IKHNHAJ@NAN?$CIIND?$CJ@ 00000001800ca160     libucrt:cvt.obj
 0002:0000a170       ??_C@_08OFCDMILK@nan?$CIind?$CJ@ 00000001800ca170     libucrt:cvt.obj
 0002:0000a17c       ??_C@_05KLBDPFGC@e?$CL000@ 00000001800ca17c     libucrt:cvt.obj
 0002:0000a360       ??_C@_03KHJOGHMM@exp@      00000001800ca360     libucrt:fpexcept.obj
 0002:0000a364       ??_C@_03JGHBODFD@pow@      00000001800ca364     libucrt:fpexcept.obj
 0002:0000a368       ??_C@_03MGHMBJCF@log@      00000001800ca368     libucrt:fpexcept.obj
 0002:0000a36c       ??_C@_05HGHHAHAP@log10@    00000001800ca36c     libucrt:fpexcept.obj
 0002:0000a374       ??_C@_04COOMCNPB@sinh@     00000001800ca374     libucrt:fpexcept.obj
 0002:0000a37c       ??_C@_04HPJJNFIM@cosh@     00000001800ca37c     libucrt:fpexcept.obj
 0002:0000a384       ??_C@_04FJHINJAO@tanh@     00000001800ca384     libucrt:fpexcept.obj
 0002:0000a38c       ??_C@_04FIHNOPOL@asin@     00000001800ca38c     libucrt:fpexcept.obj
 0002:0000a394       ??_C@_04PDIFKINK@acos@     00000001800ca394     libucrt:fpexcept.obj
 0002:0000a39c       ??_C@_04MLLJIGOK@atan@     00000001800ca39c     libucrt:fpexcept.obj
 0002:0000a3a4       ??_C@_05KNGEOGJB@atan2@    00000001800ca3a4     libucrt:fpexcept.obj
 0002:0000a3ac       ??_C@_04EIAKFFMI@sqrt@     00000001800ca3ac     libucrt:fpexcept.obj
 0002:0000a3b4       ??_C@_03BLEJJJBH@sin@      00000001800ca3b4     libucrt:fpexcept.obj
 0002:0000a3b8       ??_C@_03LALBNOCG@cos@      00000001800ca3b8     libucrt:fpexcept.obj
 0002:0000a3bc       ??_C@_03IIINPABG@tan@      00000001800ca3bc     libucrt:fpexcept.obj
 0002:0000a3c0       ??_C@_04GFPJNGEK@ceil@     00000001800ca3c0     libucrt:fpexcept.obj
 0002:0000a3c8       ??_C@_05PBJFFIGL@floor@    00000001800ca3c8     libucrt:fpexcept.obj
 0002:0000a3d0       ??_C@_04ODHECPBC@fabs@     00000001800ca3d0     libucrt:fpexcept.obj
 0002:0000a3d8       ??_C@_04EHEDPDJG@modf@     00000001800ca3d8     libucrt:fpexcept.obj
 0002:0000a3e0       ??_C@_05CEJMAHNP@ldexp@    00000001800ca3e0     libucrt:fpexcept.obj
 0002:0000a3e8       ??_C@_05KBKMEMPO@_cabs@    00000001800ca3e8     libucrt:fpexcept.obj
 0002:0000a3f0       ??_C@_06MEIMCGCF@_hypot@   00000001800ca3f0     libucrt:fpexcept.obj
 0002:0000a3f8       ??_C@_04KEPJIHGP@fmod@     00000001800ca3f8     libucrt:fpexcept.obj
 0002:0000a400       ??_C@_05GKKHEGJL@frexp@    00000001800ca400     libucrt:fpexcept.obj
 0002:0000a408       ??_C@_03MJLDFKDL@_y0@      00000001800ca408     libucrt:fpexcept.obj
 0002:0000a40c       ??_C@_03NAKIGLHK@_y1@      00000001800ca40c     libucrt:fpexcept.obj
 0002:0000a410       ??_C@_03ONILCKOB@_yn@      00000001800ca410     libucrt:fpexcept.obj
 0002:0000a414       ??_C@_05JGDBENOH@_logb@    00000001800ca414     libucrt:fpexcept.obj
 0002:0000a420       ??_C@_0L@KDOEJCKC@_nextafter@ 00000001800ca420     libucrt:fpexcept.obj
 0002:0000a430       _d_inf                     00000001800ca430     libucrt:util.obj
 0002:0000a438       _d_max                     00000001800ca438     libucrt:util.obj
 0002:0000a510       ??_C@_1EA@JGEFHKEI@?$AAa?$AAp?$AAi?$AA?9?$AAm?$AAs?$AA?9?$AAw?$AAi?$AAn?$AA?9?$AAc?$AAo?$AAr?$AAe@ 00000001800ca510     libucrt:winapi_thunks.obj
 0002:0000a550       ??_C@_1DI@IJCEHOCB@?$AAa?$AAp?$AAi?$AA?9?$AAm?$AAs?$AA?9?$AAw?$AAi?$AAn?$AA?9?$AAc?$AAo?$AAr?$AAe@ 00000001800ca550     libucrt:winapi_thunks.obj
 0002:0000a590       ??_C@_1EI@MPIAOHOC@?$AAa?$AAp?$AAi?$AA?9?$AAm?$AAs?$AA?9?$AAw?$AAi?$AAn?$AA?9?$AAc?$AAo?$AAr?$AAe@ 00000001800ca590     libucrt:winapi_thunks.obj
 0002:0000a5e0       ??_C@_1FK@FPHCKFIE@?$AAa?$AAp?$AAi?$AA?9?$AAm?$AAs?$AA?9?$AAw?$AAi?$AAn?$AA?9?$AAc?$AAo?$AAr?$AAe@ 00000001800ca5e0     libucrt:winapi_thunks.obj
 0002:0000a640       ??_C@_1EM@DILCGIIO@?$AAa?$AAp?$AAi?$AA?9?$AAm?$AAs?$AA?9?$AAw?$AAi?$AAn?$AA?9?$AAc?$AAo?$AAr?$AAe@ 00000001800ca640     libucrt:winapi_thunks.obj
 0002:0000a690       ??_C@_1DM@LNCGDDPN@?$AAa?$AAp?$AAi?$AA?9?$AAm?$AAs?$AA?9?$AAw?$AAi?$AAn?$AA?9?$AAc?$AAo?$AAr?$AAe@ 00000001800ca690     libucrt:winapi_thunks.obj
 0002:0000a6d0       ??_C@_1DO@FPAPJEMD@?$AAa?$AAp?$AAi?$AA?9?$AAm?$AAs?$AA?9?$AAw?$AAi?$AAn?$AA?9?$AAc?$AAo?$AAr?$AAe@ 00000001800ca6d0     libucrt:winapi_thunks.obj
 0002:0000a710       ??_C@_1DK@NDHNAHIO@?$AAa?$AAp?$AAi?$AA?9?$AAm?$AAs?$AA?9?$AAw?$AAi?$AAn?$AA?9?$AAc?$AAo?$AAr?$AAe@ 00000001800ca710     libucrt:winapi_thunks.obj
 0002:0000a750       ??_C@_1DM@KGHDGBCM@?$AAa?$AAp?$AAi?$AA?9?$AAm?$AAs?$AA?9?$AAw?$AAi?$AAn?$AA?9?$AAc?$AAo?$AAr?$AAe@ 00000001800ca750     libucrt:winapi_thunks.obj
 0002:0000a790       ??_C@_1EO@IJIOEFOH@?$AAa?$AAp?$AAi?$AA?9?$AAm?$AAs?$AA?9?$AAw?$AAi?$AAn?$AA?9?$AAr?$AAt?$AAc?$AAo@ 00000001800ca790     libucrt:winapi_thunks.obj
 0002:0000a7e0       ??_C@_1FG@HHGEKANL@?$AAa?$AAp?$AAi?$AA?9?$AAm?$AAs?$AA?9?$AAw?$AAi?$AAn?$AA?9?$AAs?$AAe?$AAc?$AAu@ 00000001800ca7e0     libucrt:winapi_thunks.obj
 0002:0000a840       ??_C@_1EG@DBIOJECG@?$AAe?$AAx?$AAt?$AA?9?$AAm?$AAs?$AA?9?$AAw?$AAi?$AAn?$AA?9?$AAn?$AAt?$AAu?$AAs@ 00000001800ca840     libucrt:winapi_thunks.obj
 0002:0000a890       ??_C@_1EO@FIHMJCLF@?$AAe?$AAx?$AAt?$AA?9?$AAm?$AAs?$AA?9?$AAw?$AAi?$AAn?$AA?9?$AAn?$AAt?$AAu?$AAs@ 00000001800ca890     libucrt:winapi_thunks.obj
 0002:0000a8e0       ??_C@_1BC@DNHGCMLG@?$AAa?$AAd?$AAv?$AAa?$AAp?$AAi?$AA3?$AA2@ 00000001800ca8e0     libucrt:winapi_thunks.obj
 0002:0000a8f8       ??_C@_1M@OAIMIKLP@?$AAn?$AAt?$AAd?$AAl?$AAl@ 00000001800ca8f8     libucrt:winapi_thunks.obj
 0002:0000a910       ??_C@_1EG@DPGNFKGC@?$AAa?$AAp?$AAi?$AA?9?$AAm?$AAs?$AA?9?$AAw?$AAi?$AAn?$AA?9?$AAa?$AAp?$AAp?$AAm@ 00000001800ca910     libucrt:winapi_thunks.obj
 0002:0000a958       ??_C@_1O@BCCLBEOE@?$AAu?$AAs?$AAe?$AAr?$AA3?$AA2@ 00000001800ca958     libucrt:winapi_thunks.obj
 0002:0000a968       ??_C@_1BA@IAIFMGEF@?$AAe?$AAx?$AAt?$AA?9?$AAm?$AAs?$AA?9@ 00000001800ca968     libucrt:winapi_thunks.obj
 0002:0000a980       ??_C@_0BA@FHFNEAED@AreFileApisANSI@ 00000001800ca980     libucrt:winapi_thunks.obj
 0002:0000a9a0       ??_C@_0BE@LJANKFHF@EnumSystemLocalesEx@ 00000001800ca9a0     libucrt:winapi_thunks.obj
 0002:0000a9e0       ??_C@_0BA@EPCJIIPD@GetDateFormatEx@ 00000001800ca9e0     libucrt:winapi_thunks.obj
 0002:0000aa00       ??_C@_0BA@CIJJKCJJ@GetTimeFormatEx@ 00000001800caa00     libucrt:winapi_thunks.obj
 0002:0000aa18       ??_C@_0BJ@PBCCBIPI@GetUserDefaultLocaleName@ 00000001800caa18     libucrt:winapi_thunks.obj
 0002:0000aa48       ??_C@_0BC@CELBKLLA@IsValidLocaleName@ 00000001800caa48     libucrt:winapi_thunks.obj
 0002:0000aa70       ??_C@_0BB@CDHDDLLP@LCIDToLocaleName@ 00000001800caa70     libucrt:winapi_thunks.obj
 0002:0000aa90       ??_C@_0BB@HBDEELFH@LocaleNameToLCID@ 00000001800caa90     libucrt:winapi_thunks.obj
 0002:0000aaa8       ??_C@_0CF@OJOFEIGO@AppPolicyGetProcessTerminationM@ 00000001800caaa8     libucrt:winapi_thunks.obj
 0002:0000aad0       __log_256_lead             00000001800caad0     libucrt:log_256_lead_tail_table.obj
 0002:0000b2e0       __log_256_tail             00000001800cb2e0     libucrt:log_256_lead_tail_table.obj
 0002:0000baf0       __two_to_jby64_head_table  00000001800cbaf0     libucrt:two_to_jby64_head_tail_table.obj
 0002:0000bcf0       __two_to_jby64_tail_table  00000001800cbcf0     libucrt:two_to_jby64_head_tail_table.obj
 0002:0000bef0       ??_C@_04MBFDLNIM@powf@     00000001800cbef0     libucrt:pow_special.obj
 0002:0000bf00       __two_to_jby64_table       00000001800cbf00     libucrt:two_to_jby64_table.obj
 0002:0000c100       __log_F_inv_qword          00000001800cc100     libucrt:log_f_inv_qword_table.obj
 0002:0000c930       __acrt_rg_language         00000001800cc930     libucrt:get_qualified_locale.obj
 0002:0000cd40       __acrt_rg_language_count   00000001800ccd40     libucrt:get_qualified_locale.obj
 0002:0000cd50       __acrt_rg_country          00000001800ccd50     libucrt:get_qualified_locale.obj
 0002:0000cec0       __acrt_rg_country_count    00000001800ccec0     libucrt:get_qualified_locale.obj
 0002:0000cec8       ??_C@_1BC@LLOKLNP@?$AAa?$AAm?$AAe?$AAr?$AAi?$AAc?$AAa?$AAn@ 00000001800ccec8     libucrt:get_qualified_locale.obj
 0002:0000cee0       ??_C@_1CC@HEIGCDGG@?$AAa?$AAm?$AAe?$AAr?$AAi?$AAc?$AAa?$AAn?$AA?5?$AAe?$AAn?$AAg?$AAl?$AAi?$AAs@ 00000001800ccee0     libucrt:get_qualified_locale.obj
 0002:0000cf08       ??_C@_1CC@IHCNOMIN@?$AAa?$AAm?$AAe?$AAr?$AAi?$AAc?$AAa?$AAn?$AA?9?$AAe?$AAn?$AAg?$AAl?$AAi?$AAs@ 00000001800ccf08     libucrt:get_qualified_locale.obj
 0002:0000cf30       ??_C@_1BG@GKAGPCGG@?$AAa?$AAu?$AAs?$AAt?$AAr?$AAa?$AAl?$AAi?$AAa?$AAn@ 00000001800ccf30     libucrt:get_qualified_locale.obj
 0002:0000cf48       ??_C@_1BA@GMENCENF@?$AAb?$AAe?$AAl?$AAg?$AAi?$AAa?$AAn@ 00000001800ccf48     libucrt:get_qualified_locale.obj
 0002:0000cf58       ??_C@_1BC@PJMIIAAN@?$AAc?$AAa?$AAn?$AAa?$AAd?$AAi?$AAa?$AAn@ 00000001800ccf58     libucrt:get_qualified_locale.obj
 0002:0000cf70       ??_C@_17NOIMNFBF@?$AAc?$AAh?$AAh@ 00000001800ccf70     libucrt:get_qualified_locale.obj
 0002:0000cf78       ??_C@_17GGDALCHA@?$AAc?$AAh?$AAi@ 00000001800ccf78     libucrt:get_qualified_locale.obj
 0002:0000cf80       ??_C@_1BA@NPNJKIBL@?$AAc?$AAh?$AAi?$AAn?$AAe?$AAs?$AAe@ 00000001800ccf80     libucrt:get_qualified_locale.obj
 0002:0000cf90       ??_C@_1CC@DINBAMMJ@?$AAc?$AAh?$AAi?$AAn?$AAe?$AAs?$AAe?$AA?9?$AAh?$AAo?$AAn?$AAg?$AAk?$AAo?$AAn@ 00000001800ccf90     libucrt:get_qualified_locale.obj
 0002:0000cfb8       ??_C@_1CG@IOBJPACO@?$AAc?$AAh?$AAi?$AAn?$AAe?$AAs?$AAe?$AA?9?$AAs?$AAi?$AAm?$AAp?$AAl?$AAi?$AAf@ 00000001800ccfb8     libucrt:get_qualified_locale.obj
 0002:0000cfe0       ??_C@_1CE@GAJNDCKG@?$AAc?$AAh?$AAi?$AAn?$AAe?$AAs?$AAe?$AA?9?$AAs?$AAi?$AAn?$AAg?$AAa?$AAp?$AAo@ 00000001800ccfe0     libucrt:get_qualified_locale.obj
 0002:0000d008       ??_C@_1CI@PAJPIOOD@?$AAc?$AAh?$AAi?$AAn?$AAe?$AAs?$AAe?$AA?9?$AAt?$AAr?$AAa?$AAd?$AAi?$AAt?$AAi@ 00000001800cd008     libucrt:get_qualified_locale.obj
 0002:0000d030       ??_C@_1BM@NILJBMMD@?$AAd?$AAu?$AAt?$AAc?$AAh?$AA?9?$AAb?$AAe?$AAl?$AAg?$AAi?$AAa?$AAn@ 00000001800cd030     libucrt:get_qualified_locale.obj
 0002:0000d050       ??_C@_1CC@OOJPJNEJ@?$AAe?$AAn?$AAg?$AAl?$AAi?$AAs?$AAh?$AA?9?$AAa?$AAm?$AAe?$AAr?$AAi?$AAc?$AAa@ 00000001800cd050     libucrt:get_qualified_locale.obj
 0002:0000d078       ??_C@_1BI@IOLFEEM@?$AAe?$AAn?$AAg?$AAl?$AAi?$AAs?$AAh?$AA?9?$AAa?$AAu?$AAs@ 00000001800cd078     libucrt:get_qualified_locale.obj
 0002:0000d090       ??_C@_1BO@HFFNLENJ@?$AAe?$AAn?$AAg?$AAl?$AAi?$AAs?$AAh?$AA?9?$AAb?$AAe?$AAl?$AAi?$AAz?$AAe@ 00000001800cd090     libucrt:get_qualified_locale.obj
 0002:0000d0b0       ??_C@_1BI@HAPKJMPO@?$AAe?$AAn?$AAg?$AAl?$AAi?$AAs?$AAh?$AA?9?$AAc?$AAa?$AAn@ 00000001800cd0b0     libucrt:get_qualified_locale.obj
 0002:0000d0c8       ??_C@_1CE@HLNDMIOJ@?$AAe?$AAn?$AAg?$AAl?$AAi?$AAs?$AAh?$AA?9?$AAc?$AAa?$AAr?$AAi?$AAb?$AAb?$AAe@ 00000001800cd0c8     libucrt:get_qualified_locale.obj
 0002:0000d0f0       ??_C@_1BI@LDHJHHAC@?$AAe?$AAn?$AAg?$AAl?$AAi?$AAs?$AAh?$AA?9?$AAi?$AAr?$AAe@ 00000001800cd0f0     libucrt:get_qualified_locale.obj
 0002:0000d108       ??_C@_1CA@NJMMCFOC@?$AAe?$AAn?$AAg?$AAl?$AAi?$AAs?$AAh?$AA?9?$AAj?$AAa?$AAm?$AAa?$AAi?$AAc?$AAa@ 00000001800cd108     libucrt:get_qualified_locale.obj
 0002:0000d128       ??_C@_1BG@BHJEBBGG@?$AAe?$AAn?$AAg?$AAl?$AAi?$AAs?$AAh?$AA?9?$AAn?$AAz@ 00000001800cd128     libucrt:get_qualified_locale.obj
 0002:0000d140       ??_C@_1CK@FGOEJJCO@?$AAe?$AAn?$AAg?$AAl?$AAi?$AAs?$AAh?$AA?9?$AAs?$AAo?$AAu?$AAt?$AAh?$AA?5?$AAa@ 00000001800cd140     libucrt:get_qualified_locale.obj
 0002:0000d170       ??_C@_1DE@PDBJPCJ@?$AAe?$AAn?$AAg?$AAl?$AAi?$AAs?$AAh?$AA?9?$AAt?$AAr?$AAi?$AAn?$AAi?$AAd?$AAa@ 00000001800cd170     libucrt:get_qualified_locale.obj
 0002:0000d1a8       ??_C@_1BG@JGCANDME@?$AAe?$AAn?$AAg?$AAl?$AAi?$AAs?$AAh?$AA?9?$AAu?$AAk@ 00000001800cd1a8     libucrt:get_qualified_locale.obj
 0002:0000d1c0       ??_C@_1BG@DINKMLE@?$AAe?$AAn?$AAg?$AAl?$AAi?$AAs?$AAh?$AA?9?$AAu?$AAs@ 00000001800cd1c0     libucrt:get_qualified_locale.obj
 0002:0000d1d8       ??_C@_1BI@NMFDBHJE@?$AAe?$AAn?$AAg?$AAl?$AAi?$AAs?$AAh?$AA?9?$AAu?$AAs?$AAa@ 00000001800cd1d8     libucrt:get_qualified_locale.obj
 0002:0000d1f0       ??_C@_1BO@OIHKJKII@?$AAf?$AAr?$AAe?$AAn?$AAc?$AAh?$AA?9?$AAb?$AAe?$AAl?$AAg?$AAi?$AAa?$AAn@ 00000001800cd1f0     libucrt:get_qualified_locale.obj
 0002:0000d210       ??_C@_1CA@NKAELJKI@?$AAf?$AAr?$AAe?$AAn?$AAc?$AAh?$AA?9?$AAc?$AAa?$AAn?$AAa?$AAd?$AAi?$AAa?$AAn@ 00000001800cd210     libucrt:get_qualified_locale.obj
 0002:0000d230       ??_C@_1CE@MGKCNLGN@?$AAf?$AAr?$AAe?$AAn?$AAc?$AAh?$AA?9?$AAl?$AAu?$AAx?$AAe?$AAm?$AAb?$AAo?$AAu@ 00000001800cd230     libucrt:get_qualified_locale.obj
 0002:0000d258       ??_C@_1BK@CEGEAILM@?$AAf?$AAr?$AAe?$AAn?$AAc?$AAh?$AA?9?$AAs?$AAw?$AAi?$AAs?$AAs@ 00000001800cd258     libucrt:get_qualified_locale.obj
 0002:0000d278       ??_C@_1CA@PAFKEOCC@?$AAg?$AAe?$AAr?$AAm?$AAa?$AAn?$AA?9?$AAa?$AAu?$AAs?$AAt?$AAr?$AAi?$AAa?$AAn@ 00000001800cd278     libucrt:get_qualified_locale.obj
 0002:0000d298       ??_C@_1CI@HCFHGOFD@?$AAg?$AAe?$AAr?$AAm?$AAa?$AAn?$AA?9?$AAl?$AAi?$AAc?$AAh?$AAt?$AAe?$AAn?$AAs@ 00000001800cd298     libucrt:get_qualified_locale.obj
 0002:0000d2c0       ??_C@_1CE@FEDDNPDG@?$AAg?$AAe?$AAr?$AAm?$AAa?$AAn?$AA?9?$AAl?$AAu?$AAx?$AAe?$AAm?$AAb?$AAo?$AAu@ 00000001800cd2c0     libucrt:get_qualified_locale.obj
 0002:0000d2e8       ??_C@_1BK@LIMINNMN@?$AAg?$AAe?$AAr?$AAm?$AAa?$AAn?$AA?9?$AAs?$AAw?$AAi?$AAs?$AAs@ 00000001800cd2e8     libucrt:get_qualified_locale.obj
 0002:0000d308       ??_C@_1BM@LGMDBEPD@?$AAi?$AAr?$AAi?$AAs?$AAh?$AA?9?$AAe?$AAn?$AAg?$AAl?$AAi?$AAs?$AAh@ 00000001800cd308     libucrt:get_qualified_locale.obj
 0002:0000d328       ??_C@_1BM@NNCFBAEE@?$AAi?$AAt?$AAa?$AAl?$AAi?$AAa?$AAn?$AA?9?$AAs?$AAw?$AAi?$AAs?$AAs@ 00000001800cd328     libucrt:get_qualified_locale.obj
 0002:0000d348       ??_C@_1BE@FEDJNPIB@?$AAn?$AAo?$AAr?$AAw?$AAe?$AAg?$AAi?$AAa?$AAn@ 00000001800cd348     libucrt:get_qualified_locale.obj
 0002:0000d360       ??_C@_1CC@CILKDEIE@?$AAn?$AAo?$AAr?$AAw?$AAe?$AAg?$AAi?$AAa?$AAn?$AA?9?$AAb?$AAo?$AAk?$AAm?$AAa@ 00000001800cd360     libucrt:get_qualified_locale.obj
 0002:0000d388       ??_C@_1CE@DHMMHEPL@?$AAn?$AAo?$AAr?$AAw?$AAe?$AAg?$AAi?$AAa?$AAn?$AA?9?$AAn?$AAy?$AAn?$AAo?$AAr@ 00000001800cd388     libucrt:get_qualified_locale.obj
 0002:0000d3b0       ??_C@_1CK@OPNMHECD@?$AAp?$AAo?$AAr?$AAt?$AAu?$AAg?$AAu?$AAe?$AAs?$AAe?$AA?9?$AAb?$AAr?$AAa?$AAz@ 00000001800cd3b0     libucrt:get_qualified_locale.obj
 0002:0000d3e0       ??_C@_1CE@KEEHCDB@?$AAs?$AAp?$AAa?$AAn?$AAi?$AAs?$AAh?$AA?9?$AAa?$AAr?$AAg?$AAe?$AAn?$AAt?$AAi@ 00000001800cd3e0     libucrt:get_qualified_locale.obj
 0002:0000d408       ??_C@_1CA@GIAOLHJD@?$AAs?$AAp?$AAa?$AAn?$AAi?$AAs?$AAh?$AA?9?$AAb?$AAo?$AAl?$AAi?$AAv?$AAi?$AAa@ 00000001800cd408     libucrt:get_qualified_locale.obj
 0002:0000d428       ??_C@_1BM@OJNDFNPD@?$AAs?$AAp?$AAa?$AAn?$AAi?$AAs?$AAh?$AA?9?$AAc?$AAh?$AAi?$AAl?$AAe@ 00000001800cd428     libucrt:get_qualified_locale.obj
 0002:0000d448       ??_C@_1CC@OCOLPALL@?$AAs?$AAp?$AAa?$AAn?$AAi?$AAs?$AAh?$AA?9?$AAc?$AAo?$AAl?$AAo?$AAm?$AAb?$AAi@ 00000001800cd448     libucrt:get_qualified_locale.obj
 0002:0000d470       ??_C@_1CG@BPOFMKBB@?$AAs?$AAp?$AAa?$AAn?$AAi?$AAs?$AAh?$AA?9?$AAc?$AAo?$AAs?$AAt?$AAa?$AA?5?$AAr@ 00000001800cd470     libucrt:get_qualified_locale.obj
 0002:0000d498       ??_C@_1DG@IGOBAPBB@?$AAs?$AAp?$AAa?$AAn?$AAi?$AAs?$AAh?$AA?9?$AAd?$AAo?$AAm?$AAi?$AAn?$AAi?$AAc@ 00000001800cd498     libucrt:get_qualified_locale.obj
 0002:0000d4d0       ??_C@_1CA@JHAPGEGI@?$AAs?$AAp?$AAa?$AAn?$AAi?$AAs?$AAh?$AA?9?$AAe?$AAc?$AAu?$AAa?$AAd?$AAo?$AAr@ 00000001800cd4d0     libucrt:get_qualified_locale.obj
 0002:0000d4f0       ??_C@_1CI@LAPALJPP@?$AAs?$AAp?$AAa?$AAn?$AAi?$AAs?$AAh?$AA?9?$AAe?$AAl?$AA?5?$AAs?$AAa?$AAl?$AAv@ 00000001800cd4f0     libucrt:get_qualified_locale.obj
 0002:0000d518       ??_C@_1CE@PDGBOFOM@?$AAs?$AAp?$AAa?$AAn?$AAi?$AAs?$AAh?$AA?9?$AAg?$AAu?$AAa?$AAt?$AAe?$AAm?$AAa@ 00000001800cd518     libucrt:get_qualified_locale.obj
 0002:0000d540       ??_C@_1CC@NBEBAODI@?$AAs?$AAp?$AAa?$AAn?$AAi?$AAs?$AAh?$AA?9?$AAh?$AAo?$AAn?$AAd?$AAu?$AAr?$AAa@ 00000001800cd540     libucrt:get_qualified_locale.obj
 0002:0000d568       ??_C@_1CA@LLKGHBMF@?$AAs?$AAp?$AAa?$AAn?$AAi?$AAs?$AAh?$AA?9?$AAm?$AAe?$AAx?$AAi?$AAc?$AAa?$AAn@ 00000001800cd568     libucrt:get_qualified_locale.obj
 0002:0000d588       ??_C@_1BO@LKNDOIGD@?$AAs?$AAp?$AAa?$AAn?$AAi?$AAs?$AAh?$AA?9?$AAm?$AAo?$AAd?$AAe?$AAr?$AAn@ 00000001800cd588     libucrt:get_qualified_locale.obj
 0002:0000d5a8       ??_C@_1CE@NMDMOEEB@?$AAs?$AAp?$AAa?$AAn?$AAi?$AAs?$AAh?$AA?9?$AAn?$AAi?$AAc?$AAa?$AAr?$AAa?$AAg@ 00000001800cd5a8     libucrt:get_qualified_locale.obj
 0002:0000d5d0       ??_C@_1BO@LLCBEJGB@?$AAs?$AAp?$AAa?$AAn?$AAi?$AAs?$AAh?$AA?9?$AAp?$AAa?$AAn?$AAa?$AAm?$AAa@ 00000001800cd5d0     libucrt:get_qualified_locale.obj
 0002:0000d5f0       ??_C@_1CC@FKPGGIHO@?$AAs?$AAp?$AAa?$AAn?$AAi?$AAs?$AAh?$AA?9?$AAp?$AAa?$AAr?$AAa?$AAg?$AAu?$AAa@ 00000001800cd5f0     libucrt:get_qualified_locale.obj
 0002:0000d618       ??_C@_1BK@CDEIHOOP@?$AAs?$AAp?$AAa?$AAn?$AAi?$AAs?$AAh?$AA?9?$AAp?$AAe?$AAr?$AAu@ 00000001800cd618     libucrt:get_qualified_locale.obj
 0002:0000d638       ??_C@_1CI@GAHAKKGP@?$AAs?$AAp?$AAa?$AAn?$AAi?$AAs?$AAh?$AA?9?$AAp?$AAu?$AAe?$AAr?$AAt?$AAo?$AA?5@ 00000001800cd638     libucrt:get_qualified_locale.obj
 0002:0000d660       ??_C@_1CA@NKJBCAGP@?$AAs?$AAp?$AAa?$AAn?$AAi?$AAs?$AAh?$AA?9?$AAu?$AAr?$AAu?$AAg?$AAu?$AAa?$AAy@ 00000001800cd660     libucrt:get_qualified_locale.obj
 0002:0000d680       ??_C@_1CE@ODILCONM@?$AAs?$AAp?$AAa?$AAn?$AAi?$AAs?$AAh?$AA?9?$AAv?$AAe?$AAn?$AAe?$AAz?$AAu?$AAe@ 00000001800cd680     libucrt:get_qualified_locale.obj
 0002:0000d6a8       ??_C@_1CA@OBNMCGFO@?$AAs?$AAw?$AAe?$AAd?$AAi?$AAs?$AAh?$AA?9?$AAf?$AAi?$AAn?$AAl?$AAa?$AAn?$AAd@ 00000001800cd6a8     libucrt:get_qualified_locale.obj
 0002:0000d6c8       ??_C@_1M@PIPDDPPI@?$AAs?$AAw?$AAi?$AAs?$AAs@ 00000001800cd6c8     libucrt:get_qualified_locale.obj
 0002:0000d6d4       ??_C@_15GMFIMNFM@?$AAu?$AAs@ 00000001800cd6d4     libucrt:get_qualified_locale.obj
 0002:0000d6e0       ??_C@_17HAEBFAGL@?$AAu?$AAs?$AAa@ 00000001800cd6e0     libucrt:get_qualified_locale.obj
 0002:0000d6e8       ??_C@_1BA@DPFJEPHB@?$AAa?$AAm?$AAe?$AAr?$AAi?$AAc?$AAa@ 00000001800cd6e8     libucrt:get_qualified_locale.obj
 0002:0000d6f8       ??_C@_1BA@ELOGGFK@?$AAb?$AAr?$AAi?$AAt?$AAa?$AAi?$AAn@ 00000001800cd6f8     libucrt:get_qualified_locale.obj
 0002:0000d708       ??_C@_1M@GHBGIGDA@?$AAc?$AAh?$AAi?$AAn?$AAa@ 00000001800cd708     libucrt:get_qualified_locale.obj
 0002:0000d718       ??_C@_1M@NCHEJOPO@?$AAc?$AAz?$AAe?$AAc?$AAh@ 00000001800cd718     libucrt:get_qualified_locale.obj
 0002:0000d728       ??_C@_1BA@BKPAPBLA@?$AAe?$AAn?$AAg?$AAl?$AAa?$AAn?$AAd@ 00000001800cd728     libucrt:get_qualified_locale.obj
 0002:0000d738       ??_C@_1BM@HKBCKIPC@?$AAg?$AAr?$AAe?$AAa?$AAt?$AA?5?$AAb?$AAr?$AAi?$AAt?$AAa?$AAi?$AAn@ 00000001800cd738     libucrt:get_qualified_locale.obj
 0002:0000d758       ??_C@_1BA@PPCHPGJB@?$AAh?$AAo?$AAl?$AAl?$AAa?$AAn?$AAd@ 00000001800cd758     libucrt:get_qualified_locale.obj
 0002:0000d768       ??_C@_1BE@JBMPEGDG@?$AAh?$AAo?$AAn?$AAg?$AA?9?$AAk?$AAo?$AAn?$AAg@ 00000001800cd768     libucrt:get_qualified_locale.obj
 0002:0000d780       ??_C@_1BI@KOELBBPJ@?$AAn?$AAe?$AAw?$AA?9?$AAz?$AAe?$AAa?$AAl?$AAa?$AAn?$AAd@ 00000001800cd780     libucrt:get_qualified_locale.obj
 0002:0000d798       ??_C@_15HIEBHAIO@?$AAn?$AAz@ 00000001800cd798     libucrt:get_qualified_locale.obj
 0002:0000d7a0       ??_C@_1BC@CHBCPFPI@?$AAp?$AAr?$AA?5?$AAc?$AAh?$AAi?$AAn?$AAa@ 00000001800cd7a0     libucrt:get_qualified_locale.obj
 0002:0000d7b8       ??_C@_1BC@JAOIIFKD@?$AAp?$AAr?$AA?9?$AAc?$AAh?$AAi?$AAn?$AAa@ 00000001800cd7b8     libucrt:get_qualified_locale.obj
 0002:0000d7d0       ??_C@_1BI@BEHPPHKC@?$AAp?$AAu?$AAe?$AAr?$AAt?$AAo?$AA?9?$AAr?$AAi?$AAc?$AAo@ 00000001800cd7d0     libucrt:get_qualified_locale.obj
 0002:0000d7e8       ??_C@_1O@PAEOFKDI@?$AAs?$AAl?$AAo?$AAv?$AAa?$AAk@ 00000001800cd7e8     libucrt:get_qualified_locale.obj
 0002:0000d7f8       ??_C@_1BK@FIHMCKAM@?$AAs?$AAo?$AAu?$AAt?$AAh?$AA?5?$AAa?$AAf?$AAr?$AAi?$AAc?$AAa@ 00000001800cd7f8     libucrt:get_qualified_locale.obj
 0002:0000d818       ??_C@_1BI@NAEOODKB@?$AAs?$AAo?$AAu?$AAt?$AAh?$AA?5?$AAk?$AAo?$AAr?$AAe?$AAa@ 00000001800cd818     libucrt:get_qualified_locale.obj
 0002:0000d830       ??_C@_1BK@FBDGGIFF@?$AAs?$AAo?$AAu?$AAt?$AAh?$AA?9?$AAa?$AAf?$AAr?$AAi?$AAc?$AAa@ 00000001800cd830     libucrt:get_qualified_locale.obj
 0002:0000d850       ??_C@_1BI@GHLEJDPK@?$AAs?$AAo?$AAu?$AAt?$AAh?$AA?9?$AAk?$AAo?$AAr?$AAe?$AAa@ 00000001800cd850     libucrt:get_qualified_locale.obj
 0002:0000d868       ??_C@_1CE@PLHLOMJF@?$AAt?$AAr?$AAi?$AAn?$AAi?$AAd?$AAa?$AAd?$AA?5?$AA?$CG?$AA?5?$AAt?$AAo?$AAb?$AAa@ 00000001800cd868     libucrt:get_qualified_locale.obj
 0002:0000d890       ??_C@_1BO@MODIMHHI@?$AAu?$AAn?$AAi?$AAt?$AAe?$AAd?$AA?9?$AAk?$AAi?$AAn?$AAg?$AAd?$AAo?$AAm@ 00000001800cd890     libucrt:get_qualified_locale.obj
 0002:0000d8b0       ??_C@_1BM@FFHJONBJ@?$AAu?$AAn?$AAi?$AAt?$AAe?$AAd?$AA?9?$AAs?$AAt?$AAa?$AAt?$AAe?$AAs@ 00000001800cd8b0     libucrt:get_qualified_locale.obj
 0002:0000d8d0       ??_C@_19MPDNHKDG@?$AAu?$AAt?$AAf?$AA8@ 00000001800cd8d0     libucrt:get_qualified_locale.obj
 0002:0000d8e0       ??_C@_17DNCLJFIF@?$AAA?$AAC?$AAP@ 00000001800cd8e0     libucrt:get_qualified_locale.obj
 0002:0000d8e8       ??_C@_1M@FPEIIFAM@?$AAu?$AAt?$AAf?$AA?9?$AA8@ 00000001800cd8e8     libucrt:get_qualified_locale.obj
 0002:0000d8f8       ??_C@_17CIKBIHLH@?$AAO?$AAC?$AAP@ 00000001800cd8f8     libucrt:get_qualified_locale.obj
 0002:0000d900       __rglangidNotDefault       00000001800cd900     libucrt:getqloc_downlevel.obj
 0002:0000d9b8       ??_C@_01GBGANLPD@0@        00000001800cd9b8     libucrt:cfout.obj
 0002:0000d9bc       ??_C@_05DNEBIAHO@1?$CDINF@ 00000001800cd9bc     libucrt:cfout.obj
 0002:0000d9c4       ??_C@_06IMKFLFPG@1?$CDQNAN@ 00000001800cd9c4     libucrt:cfout.obj
 0002:0000d9cc       ??_C@_06PGGFOGJG@1?$CDSNAN@ 00000001800cd9cc     libucrt:cfout.obj
 0002:0000d9d4       ??_C@_05PHHOCPM@1?$CDIND@  00000001800cd9d4     libucrt:cfout.obj
 0002:0000f8c0       __log10_256_lead           00000001800cf8c0     libucrt:log10_256_lead_tail_table.obj
 0002:000100d0       __log10_256_tail           00000001800d00d0     libucrt:log10_256_lead_tail_table.obj
 0002:000108d8       ??_C@_1BA@BALFACEM@?$AAC?$AAO?$AAN?$AAO?$AAU?$AAT?$AA$@ 00000001800d08d8     libucrt:initcon.obj
 0002:000108e8       ??_C@_0CE@FILPLMEH@C?3?2src?2plugins?2arclite?2comutils@ 00000001800d08e8     archive.obj
 0002:00010910       ??_C@_19HNCGHLOK@?$AAC?$AAo?$AAp?$AAy@ 00000001800d0910     archive.obj
 0002:00010920       ??_C@_19MMHLLJED@?$AAL?$AAZ?$AAM?$AAA@ 00000001800d0920     archive.obj
 0002:00010930       ??_C@_1M@DDMLOLLP@?$AAL?$AAZ?$AAM?$AAA?$AA2@ 00000001800d0930     archive.obj
 0002:00010940       ??_C@_19FHPHDENP@?$AAP?$AAP?$AAM?$AAD@ 00000001800d0940     archive.obj
 0002:00010950       ??_C@_19DOGDICKI@?$AA?4?$AAe?$AAx?$AAe@ 00000001800d0950     archive.obj
 0002:00010960       ??_C@_19IEMBGPPO@?$AA?4?$AA0?$AA0?$AA1@ 00000001800d0960     archive.obj
 0002:0001096c       ??_C@_13PAHNCFBL@?$PP?$JC@ 00000001800d096c     archive.obj
 0002:00010970       ??_C@_0N@DLJIDING@CreateObject@ 00000001800d0970     archive.obj
 0002:00010980       ??_C@_0O@HMDGOOC@CreateDecoder@ 00000001800d0980     archive.obj
 0002:00010990       ??_C@_0O@MJGODKIG@CreateEncoder@ 00000001800d0990     archive.obj
 0002:000109a0       ??_C@_0BD@HEPKNIHJ@GetNumberOfMethods@ 00000001800d09a0     archive.obj
 0002:000109b8       ??_C@_0BC@OJPJFIMA@GetMethodProperty@ 00000001800d09b8     archive.obj
 0002:000109d0       ??_C@_0BD@GPKACDEP@GetNumberOfFormats@ 00000001800d09d0     archive.obj
 0002:000109e8       ??_C@_0BD@DAJFLGDO@GetHandlerProperty@ 00000001800d09e8     archive.obj
 0002:00010a00       ??_C@_0BE@CMCBNMGM@GetHandlerProperty2@ 00000001800d0a00     archive.obj
 0002:00010a18       ??_C@_08IPABKFMB@GetIsArc@ 00000001800d0a18     archive.obj
 0002:00010a28       ??_C@_09NCDAKKNI@SetCodecs@ 00000001800d0a28     archive.obj
 0002:00010a38       ??_C@_0L@FNFIFDEC@GetHashers@ 00000001800d0a38     archive.obj
 0002:00010a48       ??_C@_1O@CNEPMAPN@?$AA7?$AAz?$AA?4?$AAs?$AAf?$AAx@ 00000001800d0a48     archive.obj
 0002:00010a58       ??_C@_1BE@CPEIGPON@?$AA7?$AAz?$AAC?$AAo?$AAn?$AA?4?$AAs?$AAf?$AAx@ 00000001800d0a58     archive.obj
 0002:00010a70       ??_C@_1BA@GPHFCJDK@?$AA7?$AAz?$AAS?$AA?4?$AAs?$AAf?$AAx@ 00000001800d0a70     archive.obj
 0002:00010a80       ??_C@_1BC@EKJIHECG@?$AA7?$AAz?$AAS?$AAD?$AA?4?$AAs?$AAf?$AAx@ 00000001800d0a80     archive.obj
 0002:00010a98       ??_C@_1BC@IBOPFADC@?$AA7?$AAz?$AAS?$AA2?$AA?4?$AAs?$AAf?$AAx@ 00000001800d0a98     archive.obj
 0002:00010ab0       ??_C@_1BI@JEMGCCOA@?$AA7?$AAz?$AAS?$AA2?$AAc?$AAo?$AAn?$AA?4?$AAs?$AAf?$AAx@ 00000001800d0ab0     archive.obj
 0002:00010ac8       ??_C@_13OHNMPHJM@?$AA?$FN@ 00000001800d0ac8     archive.obj
 0002:00010acc       ??_C@_15FFJNNDMJ@?$AA?5?$AA?$FL@ 00000001800d0acc     archive.obj
 0002:00010ad8       ??_C@_1M@HNNPBALB@?$AA?$CK?$AA?4?$AAd?$AAl?$AAl@ 00000001800d0ad8     archive.obj
 0002:00010ae8       ??_C@_1M@HFEBMLCN@?$AA?$CK?$AA?4?$AAs?$AAf?$AAx@ 00000001800d0ae8     archive.obj
 0002:00010af8       ??_C@_1BO@CHFBIDJD@?$AAS?$AAo?$AAf?$AAt?$AAw?$AAa?$AAr?$AAe?$AA?2?$AA7?$AA?9?$AAZ?$AAi?$AAp@ 00000001800d0af8     archive.obj
 0002:00010b18       ??_C@_19NHABCBNP@?$AAP?$AAa?$AAt?$AAh@ 00000001800d0b18     archive.obj
 0002:00010b28       ??_C@_1O@CFNBBLGB@?$AA7?$AAz?$AA?4?$AAd?$AAl?$AAl@ 00000001800d0b28     archive.obj
 0002:00010b38       ??_C@_1CC@DJBHBKGF@?$AAF?$AAo?$AAr?$AAm?$AAa?$AAt?$AAs?$AA?2?$AA?$CK?$AA?4?$AAf?$AAo?$AAr?$AAm?$AAa@ 00000001800d0b38     archive.obj
 0002:00010b60       ??_C@_1BO@IMACGJDG@?$AAC?$AAo?$AAd?$AAe?$AAc?$AAs?$AA?2?$AA?$CK?$AA?4?$AAc?$AAo?$AAd?$AAe?$AAc@ 00000001800d0b60     archive.obj
 0002:00010b80       ??_C@_13BBDEGPLJ@?$AA?$CK@ 00000001800d0b80     archive.obj
 0002:00010b88       ??_C@_0M@HIHBHGEM@archive?4cpp@ 00000001800d0b88     archive.obj
 0002:00010ba0       ??_C@_1GK@CKLFAJOB@?$AAS?$AAt?$AAr?$AAi?$AAn?$AAg?$AAF?$AAr?$AAo?$AAm?$AAG?$AAU?$AAI?$AAD?$AA2@ 00000001800d0ba0     archive.obj
 0002:00010c10       ??_C@_19LKKOIHJI@?$AA?4?$AAt?$AAm?$AAp@ 00000001800d0c10     archive.obj
 0002:00010c1c       ??_C@_15DDHGOCBH@?$AA?4?$AA?4@ 00000001800d0c1c     archive.obj
 0002:00010c24       ??_C@_13JOFGPIOO@?$AA?4@   00000001800d0c24     archive.obj
 0002:00010c28       ??_C@_1CM@CMIJFKHD@?$AAE?$AAn?$AAc?$AAr?$AAy?$AAp?$AAt?$AAe?$AAd?$AAH?$AAe?$AAa?$AAd?$AAe?$AAr@ 00000001800d0c28     archive.obj
 0002:00010c58       ??_C@_1CC@NJPIIGFF@?$AAU?$AAn?$AAc?$AAo?$AAn?$AAf?$AAi?$AAr?$AAm?$AAe?$AAd?$AAS?$AAt?$AAa?$AAr@ 00000001800d0c58     archive.obj
 0002:00010c80       ??_C@_1CG@NCCDFAEB@?$AAU?$AAn?$AAs?$AAu?$AAp?$AAp?$AAo?$AAr?$AAt?$AAe?$AAd?$AAF?$AAe?$AAa?$AAt@ 00000001800d0c80     archive.obj
 0002:00010ca8       ??_C@_1CA@KGIFCFON@?$AAU?$AAn?$AAk?$AAn?$AAo?$AAw?$AAn?$AA?5?$AAe?$AAr?$AAr?$AAo?$AAr?$AA?3?$AA?5@ 00000001800d0ca8     archive.obj
 0002:00010cc8       ??_C@_0BG@BBKNOMOH@invalid?5map?$DMK?0?5T?$DO?5key@ 00000001800d0cc8     archive.obj
 0002:00010ce0       ??_C@_0BA@FOIKENOD@vector?5too?5long@ 00000001800d0ce0     archive.obj
 0002:00010cf0       ??_C@_0BI@CFPLBAOH@invalid?5string?5position@ 00000001800d0cf0     archive.obj
 0002:00010d08       ??_C@_0O@NKNMEGII@list?5too?5long@ 00000001800d0d08     archive.obj
 0002:00010d18       ??_C@_0BC@KBDMBKEH@deque?$DMT?$DO?5too?5long@ 00000001800d0d18     archive.obj
 0002:00010d30       ??_C@_0BB@GCADKGJO@map?1set?5too?5long@ 00000001800d0d30     archive.obj
 0002:00010d48       IID_IOutArchive            00000001800d0d48     archive.obj
 0002:00010d58       IID_IInArchive             00000001800d0d58     archive.obj
 0002:00010dd0       ?c_volume_ext@@3PEB_WEB    00000001800d0dd0     archive.obj
 0002:00010dd8       ?c_sfx_ext@@3PEB_WEB       00000001800d0dd8     archive.obj
 0002:00010de0       ?c_min_volume_size@@3_KB   00000001800d0de0     archive.obj
 0002:00010f38       ?c_method_ppmd@@3PEB_WEB   00000001800d0f38     archive.obj
 0002:00010f40       ?c_method_lzma2@@3PEB_WEB  00000001800d0f40     archive.obj
 0002:00010f48       ?c_method_lzma@@3PEB_WEB   00000001800d0f48     archive.obj
 0002:00010f50       ?c_method_copy@@3PEB_WEB   00000001800d0f50     archive.obj
 0002:00010fa0       ?c_copy_opened_files_option@@3PEB_WEB 00000001800d0fa0     options.obj
 0002:00010fa8       ?c_esc_confirmation_option@@3PEB_WEB 00000001800d0fa8     options.obj
 0002:00011060       IID_IHashers               00000001800d1060     archive.obj
 0002:00011070       IID_ICompressCodecsInfo    00000001800d1070     archive.obj
 0002:00011088       ??_7MyCompressCodecsInfo@@6BComBase@@@ 00000001800d1088     archive.obj
 0002:000110b0       ??_7MyCompressCodecsInfo@@6BIHashers@@@ 00000001800d10b0     archive.obj
 0002:000110e8       ??_7MyCompressCodecsInfo@@6BICompressCodecsInfo@@@ 00000001800d10e8     archive.obj
 0002:00011128       ??_7ComBase@@6B@           00000001800d1128     archive.obj
 0002:00011148       ??_C@_0BA@JFNIOLAK@string?5too?5long@ 00000001800d1148     archive.obj
 0002:00011158       ??_C@_0BF@KINCDENJ@bad?5array?5new?5length@ 00000001800d1158     archive.obj
 0002:00011170       ??_C@_0BC@EOODALEL@Unknown?5exception@ 00000001800d1170     archive.obj
 0002:00011188       ??_C@_0CB@GHBAJPG@C?3?2src?2plugins?2arclite?2error?4hp@ 00000001800d1188     plugin.obj
 0002:000111b0       ??_C@_0L@MBOHGIBE@plugin?4cpp@ 00000001800d11b0     plugin.obj
 0002:000111bc       ??_C@_13EBCNDICG@?$AA?3@   00000001800d11bc     plugin.obj
 0002:000111c0       ??_C@_13FPGAJAPJ@?$AA?2@   00000001800d11c0     plugin.obj
 0002:000111d0       ??_C@_1FE@OHPOHPOP@?$AAF?$AAa?$AAr?$AA?3?$AA?3?$AAg?$AAe?$AAt?$AA_?$AAp?$AAa?$AAn?$AAe?$AAl?$AA_@ 00000001800d11d0     plugin.obj
 0002:00011224       ??_C@_13ENNFDPBH@?$AA_@    00000001800d1224     plugin.obj
 0002:00011230       ??_C@_1JK@FFADHFBH@?$AAg?$AAe?$AAt?$AA_?$AAa?$AAp?$AAp?$AA_?$AAo?$AAp?$AAt?$AAi?$AAo?$AAn?$AA?$CI@ 00000001800d1230     plugin.obj
 0002:000112cc       ??_C@_13LBAGMAIH@?$AA?6@   00000001800d12cc     plugin.obj
 0002:000112d0       ??_C@_1BA@BAPGAOIJ@?$AAA?$AAr?$AAc?$AAL?$AAi?$AAt?$AAe@ 00000001800d12d0     plugin.obj
 0002:000112e0       ??_C@_1FC@HPEFIKDA@?$AAA?$AAr?$AAc?$AAh?$AAi?$AAv?$AAe?$AA?5?$AAs?$AAu?$AAp?$AAp?$AAo?$AAr?$AAt@ 00000001800d12e0     plugin.obj
 0002:00011338       ??_C@_1DE@BGKMIKPD@?$AAE?$AAu?$AAg?$AAe?$AAn?$AAe?$AA?5?$AAR?$AAo?$AAs?$AAh?$AAa?$AAl?$AA?5?$AA?$CG@ 00000001800d1338     plugin.obj
 0002:00011370       ??_C@_1BC@ENICKDH@?$AAC?$AAo?$AAn?$AAt?$AAe?$AAn?$AAt?$AAs@ 00000001800d1370     plugin.obj
 0002:00011388       ??_C@_1CC@GBAAMIEE@?$AAK?$AAe?$AAy?$AAs?$AA?$CI?$AA?8?$AAC?$AAt?$AAr?$AAl?$AAP?$AAg?$AAD?$AAn?$AA?8@ 00000001800d1388     plugin.obj
 0002:000113b0       ??_C@_1O@GBAEOCCH@?$AAP?$AAr?$AAe?$AAf?$AAi?$AAx@ 00000001800d13b0     plugin.obj
 0002:000113f0       ??_7?$_Ref_count@VArchive@@@std@@6B@ 00000001800d13f0     plugin.obj
 0002:00011418       ??_7?$_Ref_count@V?$list@UError@@V?$allocator@UError@@@std@@@std@@@std@@6B@ 00000001800d1418     plugin.obj
 0002:00011438       ?empty@?1???$null_to_empty@_W@@YAPEB_WPEB_W@Z@4_WB 00000001800d1438     plugin.obj
 0002:00011438       ??_C@_11LOCGONAA@@         00000001800d1438     ui.obj
 0002:00011448       ??_7PluginPanelItems@?1??extract@Plugin@@QEAAXXZ@6B@ 00000001800d1448     plugin.obj
 0002:00011460       ??_7PluginPanelItems@?1??get_files@Plugin@@QEAAXPEBUPluginPanelItem@@_JHPEAPEB_W_K@Z@6B@ 00000001800d1460     plugin.obj
 0002:00011470       ??_C@_02LMMGGCAJ@?3?5@     00000001800d1470     plugin.obj
 0002:00011478       c_far_guid                 00000001800d1478     plugin.obj
 0002:00011488       c_format_library_info_dialog_guid 00000001800d1488     plugin.obj
 0002:00011498       c_multi_select_dialog_guid 00000001800d1498     plugin.obj
 0002:000114a8       c_update_params_saved_dialog_guid 00000001800d14a8     plugin.obj
 0002:000114b8       c_generic_guid             00000001800d14b8     plugin.obj
 0002:000114c8       c_save_profile_dialog_guid 00000001800d14c8     plugin.obj
 0002:000114d8       c_create_dir_dialog_guid   00000001800d14d8     plugin.obj
 0002:000114e8       c_arccmd_menu_guid         00000001800d14e8     plugin.obj
 0002:000114f8       c_main_menu_guid           00000001800d14f8     plugin.obj
 0002:00011508       c_format_menu_guid         00000001800d1508     plugin.obj
 0002:00011518       c_error_dialog_guid        00000001800d1518     plugin.obj
 0002:00011528       c_arc_path_eval_dialog_guid 00000001800d1528     plugin.obj
 0002:00011538       c_extract_params_saved_dialog_guid 00000001800d1538     plugin.obj
 0002:00011548       c_test_ok_dialog_guid      00000001800d1548     plugin.obj
 0002:00011558       c_delete_profile_dialog_guid 00000001800d1558     plugin.obj
 0002:00011568       c_error_log_dialog_guid    00000001800d1568     plugin.obj
 0002:00011578       c_retry_ignore_dialog_guid 00000001800d1578     plugin.obj
 0002:00011588       c_interrupt_dialog_guid    00000001800d1588     plugin.obj
 0002:00011598       c_progress_dialog_guid     00000001800d1598     plugin.obj
 0002:000115a8       c_overwrite_archive_dialog_guid 00000001800d15a8     plugin.obj
 0002:000115b8       c_delete_files_dialog_guid 00000001800d15b8     plugin.obj
 0002:000115c8       c_sfx_options_dialog_guid  00000001800d15c8     plugin.obj
 0002:000115d8       c_attr_dialog_guid         00000001800d15d8     plugin.obj
 0002:000115e8       c_settings_dialog_guid     00000001800d15e8     plugin.obj
 0002:000115f8       c_update_dialog_guid       00000001800d15f8     plugin.obj
 0002:00011608       c_extract_dialog_guid      00000001800d1608     plugin.obj
 0002:00011618       c_overwrite_dialog_guid    00000001800d1618     plugin.obj
 0002:00011628       c_password_dialog_guid     00000001800d1628     plugin.obj
 0002:00011638       c_plugin_config_guid       00000001800d1638     plugin.obj
 0002:00011648       c_plugin_menu_guid         00000001800d1648     plugin.obj
 0002:00011658       c_plugin_guid              00000001800d1658     plugin.obj
 0002:00011668       ??_C@_06NPJEFJLB@ui?4cpp@  00000001800d1668     ui.obj
 0002:00011670       ??_C@_1JG@OMFJPMPF@?$AAg?$AAe?$AAt?$AA_?$AAa?$AAp?$AAp?$AA_?$AAo?$AAp?$AAt?$AAi?$AAo?$AAn?$AA?$CI@ 00000001800d1670     ui.obj
 0002:00011708       ??_C@_17DMMFPNIF@?$AA?$CF?$AA?$HN?$AA?5@ 00000001800d1708     ui.obj
 0002:00011710       ??_C@_13GCIFAHHO@?$AA?$HL@ 00000001800d1710     ui.obj
 0002:00011714       ??_C@_15FOBPOKEL@?$AA?$FN?$AA?5@ 00000001800d1714     ui.obj
 0002:0001171c       ??_C@_13MCLHKIEA@?$AA?$FL@ 00000001800d171c     ui.obj
 0002:00011720       ??_C@_13NEIAEHFG@?$AA?$CC@ 00000001800d1720     ui.obj
 0002:00011728       ??_C@_1BA@DNNJDHAB@?$AAE?$AAx?$AAt?$AAr?$AAa?$AAc?$AAt@ 00000001800d1728     ui.obj
 0002:00011738       ??_C@_1CI@GPLIDJDI@?$AAa?$AAr?$AAc?$AAl?$AAi?$AAt?$AAe?$AA?4?$AAe?$AAx?$AAt?$AAr?$AAa?$AAc?$AAt@ 00000001800d1738     ui.obj
 0002:00011760       ??_C@_15IEGBJKPD@?$AA?3?$AA?6@ 00000001800d1760     ui.obj
 0002:00011768       ??_C@_15OJKDPEFE@?$AA?5?$AA?5@ 00000001800d1768     ui.obj
 0002:00011770       ??_C@_13NMPKAAJP@?$AA?$DN@ 00000001800d1770     ui.obj
 0002:00011778       ??_C@_1BG@PGBNDIAE@?$AA0?$AA1?$AA2?$AA3?$AA4?$AA5?$AA6?$AA7?$AA8?$AA9@ 00000001800d1778     ui.obj
 0002:00011790       ??_C@_13PJJBFPED@?$AA?$DL@ 00000001800d1790     ui.obj
 0002:000117a0       ??_C@_1GG@OEEJHDBB@?$AAs?$AAe?$AAn?$AAd?$AA_?$AAm?$AAe?$AAs?$AAs?$AAa?$AAg?$AAe?$AA?$CI?$AAD?$AAM@ 00000001800d17a0     ui.obj
 0002:00011808       ??_C@_1O@PBKAOOPF@?$AAU?$AAp?$AAd?$AAa?$AAt?$AAe@ 00000001800d1808     ui.obj
 0002:00011818       ??_C@_1CC@JHNGBHPE@?$AAa?$AAr?$AAc?$AAl?$AAi?$AAt?$AAe?$AA?4?$AAa?$AAr?$AAc?$AA_?$AAp?$AAa?$AAt@ 00000001800d1818     ui.obj
 0002:00011840       ??_C@_1CC@MEHHCPDF@?$AAa?$AAr?$AAc?$AAl?$AAi?$AAt?$AAe?$AA?4?$AAa?$AAd?$AAv?$AAa?$AAn?$AAc?$AAe@ 00000001800d1840     ui.obj
 0002:00011868       ??_C@_1CI@KIHLOCML@?$AAa?$AAr?$AAc?$AAl?$AAi?$AAt?$AAe?$AA?4?$AAv?$AAo?$AAl?$AAu?$AAm?$AAe?$AA_@ 00000001800d1868     ui.obj
 0002:00011890       ??_C@_1DM@DOHHEJNC@?$AAi?$AAt?$AAe?$AAm?$AA_?$AAc?$AAo?$AAl?$AAo?$AAr?$AAs?$AA?9?$AA?$DO?$AAC?$AAo@ 00000001800d1890     ui.obj
 0002:000118cc       ??_C@_13DEFPDAGF@?$AA?0@   00000001800d18cc     ui.obj
 0002:000118d0       ??_C@_1O@BJPKKLLM@?$AAC?$AAo?$AAn?$AAf?$AAi?$AAg@ 00000001800d18d0     ui.obj
 0002:000118e0       ??_C@_02BBAHNLBA@?$CFp@    00000001800d18e0     ui.obj
 0002:000118e4       ??_C@_02MDKMJEGG@eE@       00000001800d18e4     ui.obj
 0002:000118e8       ??_C@_02OOPEBDOJ@pP@       00000001800d18e8     ui.obj
 0002:000118f8       ??_7?$_Ref_count@VFileFilter@Far@@@std@@6B@ 00000001800d18f8     ui.obj
 0002:00011918       ??_C@_04LOAJBDKD@true@     00000001800d1918     ui.obj
 0002:00011920       ??_C@_05LAPONLG@false@     00000001800d1920     ui.obj
 0002:00011928       ??_C@_0BA@ELKIONDK@bad?5locale?5name@ 00000001800d1928     ui.obj
 0002:00011938       ??_C@_00CNPNBAHC@@         00000001800d1938     ui.obj
 0002:00011940       ??_C@_08EPJLHIJG@bad?5cast@ 00000001800d1940     ui.obj
 0002:00011950       ??_C@_0BF@PHHKMMFD@ios_base?3?3badbit?5set@ 00000001800d1950     ui.obj
 0002:00011968       ??_C@_0BG@FMKFHCIL@ios_base?3?3failbit?5set@ 00000001800d1968     ui.obj
 0002:00011980       ??_C@_0BF@OOHOMBOF@ios_base?3?3eofbit?5set@ 00000001800d1980     ui.obj
 0002:00011998       ??_C@_08LLGCOLLL@iostream@ 00000001800d1998     ui.obj
 0002:000119a8       ??_C@_0BG@PADBLCHM@iostream?5stream?5error@ 00000001800d19a8     ui.obj
 0002:000119c8       ??_7_Iostream_error_category@std@@6B@ 00000001800d19c8     ui.obj
 0002:00011a00       ??_7failure@ios_base@std@@6B@ 00000001800d1a00     ui.obj
 0002:00011a18       ??_7ios_base@std@@6B@      00000001800d1a18     ui.obj
 0002:00011a28       ??_7?$basic_ios@_WU?$char_traits@_W@std@@@std@@6B@ 00000001800d1a28     ui.obj
 0002:00011a38       ??_7?$basic_ostream@_WU?$char_traits@_W@std@@@std@@6B@ 00000001800d1a38     ui.obj
 0002:00011a40       ??_8?$basic_ostringstream@_WU?$char_traits@_W@std@@V?$allocator@_W@2@@std@@7B@ 00000001800d1a40     ui.obj
 0002:00011a50       ??_7?$basic_ostringstream@_WU?$char_traits@_W@std@@V?$allocator@_W@2@@std@@6B@ 00000001800d1a50     ui.obj
 0002:00011a60       ??_7?$basic_streambuf@_WU?$char_traits@_W@std@@@std@@6B@ 00000001800d1a60     ui.obj
 0002:00011ae0       ??_7?$basic_stringbuf@_WU?$char_traits@_W@std@@V?$allocator@_W@2@@std@@6B@ 00000001800d1ae0     ui.obj
 0002:00011b60       ??_7AttrDialog@@6B@        00000001800d1b60     ui.obj
 0002:00011b70       ??_7SettingsDialog@@6B@    00000001800d1b70     ui.obj
 0002:00011b80       ??_7FormatLibraryInfoDialog@@6B@ 00000001800d1b80     ui.obj
 0002:00011b90       ??_7MultiSelectDialog@@6B@ 00000001800d1b90     ui.obj
 0002:00011ba0       ??_7UpdateDialog@@6B@      00000001800d1ba0     ui.obj
 0002:00011bb0       ??_7ExtractDialog@@6B@     00000001800d1bb0     ui.obj
 0002:00011bc0       ??_7OverwriteDialog@@6B@   00000001800d1bc0     ui.obj
 0002:00011bd0       ??_7PasswordDialog@@6B@    00000001800d1bd0     ui.obj
 0002:00011c18       ??_7ProgressMonitor@@6B@   00000001800d1c18     ui.obj
 0002:00011c30       ??_7?$_Ref_count@V?$set@IU?$less@I@std@@V?$allocator@I@2@@std@@@std@@6B@ 00000001800d1c30     extract.obj
 0002:00011c58       ??_7?$_Ref_count@_N@std@@6B@ 00000001800d1c58     extract.obj
 0002:00011c80       ??_7?$_Ref_count@W4OverwriteAction@@@std@@6B@ 00000001800d1c80     extract.obj
 0002:00011ca8       ??_7?$_Ref_count@VExtractProgress@@@std@@6B@ 00000001800d1ca8     extract.obj
 0002:00011cd0       ??_7?$_Ref_count@VFileWriteCache@@@std@@6B@ 00000001800d1cd0     extract.obj
 0002:00011cf0       ??_C@_0N@FJHHFFAF@bad_weak_ptr@ 00000001800d1cf0     extract.obj
 0002:00011d08       ??_7bad_weak_ptr@std@@6B@  00000001800d1d08     extract.obj
 0002:00011d20       ??_7SetDirAttr@@6B@        00000001800d1d20     extract.obj
 0002:00011d38       ??_7PrepareExtract@@6B@    00000001800d1d38     extract.obj
 0002:00011d50       ??_7ICryptoGetTextPassword@@6B@ 00000001800d1d50     extract.obj
 0002:00011d78       ??_7IArchiveExtractCallback@@6B@ 00000001800d1d78     extract.obj
 0002:00011db8       IID_ICryptoGetTextPassword 00000001800d1db8     extract.obj
 0002:00011dc8       IID_IArchiveExtractCallback 00000001800d1dc8     extract.obj
 0002:00011dd8       IID_IProgress              00000001800d1dd8     extract.obj
 0002:00011df0       ??_7ArchiveExtractor@@6BComBase@@@ 00000001800d1df0     extract.obj
 0002:00011e18       ??_7ArchiveExtractor@@6BICryptoGetTextPassword@@@ 00000001800d1e18     extract.obj
 0002:00011e40       ??_7ArchiveExtractor@@6BIArchiveExtractCallback@@@ 00000001800d1e40     extract.obj
 0002:00011e80       IID_ISequentialOutStream   00000001800d1e80     extract.obj
 0002:00011e98       ??_7CachedFileExtractStream@@6BComBase@@@ 00000001800d1e98     extract.obj
 0002:00011ec0       ??_7CachedFileExtractStream@@6BISequentialOutStream@@@ 00000001800d1ec0     extract.obj
 0002:00011ee8       ??_7ExtractProgress@@6B@   00000001800d1ee8     extract.obj
 0002:00011ef8       ??_C@_15OKNMGNJN@?$AA?$AB?$AA?6@ 00000001800d1ef8     extract.obj
 0002:00011f00       ??_C@_17MMMBOHJC@?$AA?5?$AA?$EA?$AA?5@ 00000001800d1f00     extract.obj
 0002:00011f08       ??_C@_17DFGDFKBN@?$AA?5?$AA?1?$AA?5@ 00000001800d1f08     extract.obj
 0002:00011f10       ??_C@_19IDMFBI@?$AA?$CJ?$AA?5?$AA?1?$AA?5@ 00000001800d1f10     extract.obj
 0002:00011f20       ??_C@_17HIKLPLBG@?$AA?5?$AA?9?$AA?5@ 00000001800d1f20     extract.obj
 0002:00011f28       ??_C@_13LLDNKHDC@?$AA?$CI@ 00000001800d1f28     extract.obj
 0002:00011f30       ??_C@_0M@ELMNDOCL@extract?4cpp@ 00000001800d1f30     extract.obj
 0002:00011f40       ??_C@_08PBKAOBPC@open?4cpp@ 00000001800d1f40     open.obj
 0002:00011f4c       ??_C@_04BNEKHNHI@PK?$AF?$AG@ 00000001800d1f4c     open.obj
 0002:00011f58       ??_C@_1DC@IJGGMPKB@?$AAg?$AAe?$AAt?$AA_?$AAm?$AAa?$AAi?$AAn?$AA_?$AAf?$AAi?$AAl?$AAe?$AA?$CI?$AAm@ 00000001800d1f58     open.obj
 0002:00011f90       ??_C@_1FA@KJKBGIDM@?$AAg?$AAe?$AAt?$AA_?$AAs?$AAt?$AAr?$AAe?$AAa?$AAm?$AA?$CI?$AAm?$AAa?$AAi?$AAn@ 00000001800d1f90     open.obj
 0002:00011fe0       ??_C@_1EE@OOLOIHM@?$AAo?$AAp?$AAe?$AAn?$AA?$CI?$AAs?$AAu?$AAb?$AA_?$AAs?$AAt?$AAr?$AAe?$AAa?$AAm@ 00000001800d1fe0     open.obj
 0002:00012028       IID_IArchiveAllowTail      00000001800d2028     open.obj
 0002:00012038       IID_IInArchiveGetStream    00000001800d2038     open.obj
 0002:00012050       ??_7IArchiveOpenVolumeCallback@@6B@ 00000001800d2050     open.obj
 0002:00012080       ??_7IArchiveOpenCallback@@6B@ 00000001800d2080     open.obj
 0002:000120a8       IID_IArchiveOpenVolumeCallback 00000001800d20a8     open.obj
 0002:000120b8       IID_IArchiveOpenCallback   00000001800d20b8     open.obj
 0002:000120d0       ??_7ArchiveOpener@@6BProgressMonitor@@@ 00000001800d20d0     open.obj
 0002:000120e8       ??_7ArchiveOpener@@6BComBase@@@ 00000001800d20e8     open.obj
 0002:00012110       ??_7ArchiveOpener@@6BICryptoGetTextPassword@@@ 00000001800d2110     open.obj
 0002:00012138       ??_7ArchiveOpener@@6BIArchiveOpenVolumeCallback@@@ 00000001800d2138     open.obj
 0002:00012168       ??_7ArchiveOpener@@6BIArchiveOpenCallback@@@ 00000001800d2168     open.obj
 0002:00012198       ??_7ArchiveOpenStream@@6BComBase@@@ 00000001800d2198     open.obj
 0002:000121c0       ??_7ArchiveOpenStream@@6BIInStream@@@ 00000001800d21c0     open.obj
 0002:000121e8       IID_IInStream              00000001800d21e8     open.obj
 0002:000121f8       IID_ISequentialInStream    00000001800d21f8     open.obj
 0002:00012210       ??_7ArchiveSubStream@@6BComBase@@@ 00000001800d2210     open.obj
 0002:00012238       ??_7ArchiveSubStream@@6BIInStream@@@ 00000001800d2238     open.obj
 0002:00012260       ??_C@_15BLMJCMIJ@?$AA?5?$AA?9@ 00000001800d2260     update.obj
 0002:00012268       ??_C@_13EJFHHPOP@?$AA?$CF@ 00000001800d2268     update.obj
 0002:00012270       ??_C@_17HLHNPJIN@?$AA?5?$AA?$DN?$AA?5@ 00000001800d2270     update.obj
 0002:00012278       ??_C@_17GPJGFMAC@?$AA?5?$PP?$JC?$AA?5@ 00000001800d2278     update.obj
 0002:00012280       ??_C@_0L@JMDIPHEI@update?4cpp@ 00000001800d2280     update.obj
 0002:00012290       ??_C@_1CA@ODCKIHEE@?$AAw?$AAr?$AAi?$AAt?$AAe?$AA_?$AAs?$AAi?$AAz?$AAe?$AA?5?$AA?$CB?$AA?$DN?$AA?5?$AA0@ 00000001800d2290     update.obj
 0002:000122b0       ??_C@_13KHDBCPJB@?$AAs@    00000001800d22b0     update.obj
 0002:000122b4       ??_C@_15ILBMLOPH@?$AAs?$AA1@ 00000001800d22b4     update.obj
 0002:000122bc       ??_C@_15LELIAJAM@?$AAs?$AA?$CL@ 00000001800d22bc     update.obj
 0002:000122c8       ??_C@_19DNJINCAB@?$AAs?$AA?$DN?$AAo?$AAn@ 00000001800d22c8     update.obj
 0002:000122d4       ??_C@_15DDKANJJC@?$AAs?$AA0@ 00000001800d22d4     update.obj
 0002:000122dc       ??_C@_15JBNDFGNA@?$AAs?$AA?9@ 00000001800d22dc     update.obj
 0002:000122e8       ??_C@_1M@IDNIJFJD@?$AAs?$AA?$DN?$AAo?$AAf?$AAf@ 00000001800d22e8     update.obj
 0002:000122f4       ??_C@_15PHMJIPEK@?$AAq?$AAs@ 00000001800d22f4     update.obj
 0002:00012300       ??_C@_17DPAGFBDD@?$AAq?$AAs?$AA1@ 00000001800d2300     update.obj
 0002:00012308       ??_C@_17KCOGMI@?$AAq?$AAs?$AA?$CL@ 00000001800d2308     update.obj
 0002:00012310       ??_C@_1M@BKCILBID@?$AAq?$AAs?$AA?$DN?$AAo?$AAn@ 00000001800d2310     update.obj
 0002:00012320       ??_C@_17IHLKDGFG@?$AAq?$AAs?$AA0@ 00000001800d2320     update.obj
 0002:00012328       ??_C@_17CFMJLJBE@?$AAq?$AAs?$AA?9@ 00000001800d2328     update.obj
 0002:00012330       ??_C@_1O@FONGHIAI@?$AAq?$AAs?$AA?$DN?$AAo?$AAf?$AAf@ 00000001800d2330     update.obj
 0002:00012340       ??_C@_13HADAKIJA@?$AAx@    00000001800d2340     update.obj
 0002:00012344       ??_C@_13COJANIEC@?$AA0@    00000001800d2344     update.obj
 0002:00012348       ??_C@_13JGCMLPCH@?$AA1@    00000001800d2348     update.obj
 0002:00012350       ??_C@_17IMAACFJN@?$AAB?$AAC?$AAJ@ 00000001800d2350     update.obj
 0002:00012358       ??_C@_15KGGCNEFK@?$AAh?$AAe@ 00000001800d2358     update.obj
 0002:00012368       ??_7?$_Ref_count@V?$map@IUFileIndexInfo@@U?$less@I@std@@V?$allocator@U?$pair@$$CBIUFileIndexInfo@@@std@@@3@@std@@@std@@6B@ 00000001800d2368     update.obj
 0002:00012390       ??_7?$_Ref_count@VArchiveUpdateProgress@@@std@@6B@ 00000001800d2390     update.obj
 0002:000123b8       ??_7DeleteSrcFiles@@6B@    00000001800d23b8     update.obj
 0002:000123c8       IID_ISetProperties         00000001800d23c8     update.obj
 0002:000123d8       IID_ICryptoGetTextPassword2 00000001800d23d8     update.obj
 0002:000123e8       IID_IArchiveUpdateCallback 00000001800d23e8     update.obj
 0002:00012400       ??_7ArchiveUpdater@@6BComBase@@@ 00000001800d2400     update.obj
 0002:00012428       ??_7ArchiveUpdater@@6BICryptoGetTextPassword2@@@ 00000001800d2428     update.obj
 0002:00012450       ??_7ArchiveUpdater@@6BIArchiveUpdateCallback@@@ 00000001800d2450     update.obj
 0002:000124a0       ??_7PrepareUpdate@@6B@     00000001800d24a0     update.obj
 0002:000124b0       IID_IStreamGetSize         00000001800d24b0     update.obj
 0002:000124c8       ??_7FileReadStream@@6BComBase@@@ 00000001800d24c8     update.obj
 0002:000124f0       ??_7FileReadStream@@6BIStreamGetSize@@@ 00000001800d24f0     update.obj
 0002:00012518       ??_7FileReadStream@@6BIInStream@@@ 00000001800d2518     update.obj
 0002:00012548       ??_7MultiVolumeUpdateStream@@6BComBase@@@ 00000001800d2548     update.obj
 0002:00012570       ??_7MultiVolumeUpdateStream@@6BUpdateStream@@@ 00000001800d2570     update.obj
 0002:000125b8       ??_7SfxUpdateStream@@6BComBase@@@ 00000001800d25b8     update.obj
 0002:000125e0       ??_7SfxUpdateStream@@6BUpdateStream@@@ 00000001800d25e0     update.obj
 0002:00012620       IID_IOutStream             00000001800d2620     update.obj
 0002:00012638       ??_7SimpleUpdateStream@@6BComBase@@@ 00000001800d2638     update.obj
 0002:00012660       ??_7SimpleUpdateStream@@6BUpdateStream@@@ 00000001800d2660     update.obj
 0002:000126a8       ??_7UpdateStream@@6B@      00000001800d26a8     update.obj
 0002:000126f0       ??_7ArchiveUpdateProgress@@6B@ 00000001800d26f0     update.obj
 0002:00012700       ??_C@_0L@NFFAKAN@delete?4cpp@ 00000001800d2700     delete.obj
 0002:00012718       ??_7?$_Ref_count@VArchiveFileDeleterProgress@@@std@@6B@ 00000001800d2718     delete.obj
 0002:00012740       ??_7ArchiveFileDeleter@@6BComBase@@@ 00000001800d2740     delete.obj
 0002:00012768       ??_7ArchiveFileDeleter@@6BIArchiveUpdateCallback@@@ 00000001800d2768     delete.obj
 0002:000127b8       ??_7ArchiveFileDeleterStream@@6BComBase@@@ 00000001800d27b8     delete.obj
 0002:000127e0       ??_7ArchiveFileDeleterStream@@6BIOutStream@@@ 00000001800d27e0     delete.obj
 0002:00012818       ??_7ArchiveFileDeleterProgress@@6B@ 00000001800d2818     delete.obj
 0002:00012828       ??_C@_09ODAGPFND@Codecs?47z@ 00000001800d2828     options.obj
 0002:00012838       ??_C@_07KHIHFBFN@Options@  00000001800d2838     options.obj
 0002:00012840       ??_C@_0P@KHJJOKPN@max_check_size@ 00000001800d2840     options.obj
 0002:00012850       ??_C@_0BC@BPKCBNDI@correct_name_mode@ 00000001800d2850     options.obj
 0002:00012868       ??_C@_0O@BOFFKPJB@qs_by_default@ 00000001800d2868     options.obj
 0002:00012878       ??_C@_0M@DDNHBEON@strict_case@ 00000001800d2878     options.obj
 0002:00012884       ??_C@_05CCGOGOBM@range@    00000001800d2884     options.obj
 0002:0001288c       ??_C@_03PFFIEBLO@std@      00000001800d288c     options.obj
 0002:00012890       ??_C@_03JKBHOJDP@bcj@      00000001800d2890     options.obj
 0002:00012894       ??_C@_03GLJKANAJ@adv@      00000001800d2894     options.obj
 0002:00012898       ??_C@_1BI@PHELCDBJ@?$AAa?$AAr?$AAc?$AAl?$AAi?$AAt?$AAe?$AA?4?$AAx?$AAm?$AAl@ 00000001800d2898     options.obj
 0002:000128b0       ??_C@_1CG@FJDLGHGG@?$AAa?$AAr?$AAc?$AAl?$AAi?$AAt?$AAe?$AA?4?$AAx?$AAm?$AAl?$AA?4?$AAc?$AAu?$AAs@ 00000001800d28b0     options.obj
 0002:000128d8       ??_C@_1BK@IBHIPMBL@?$AA?$CF?$AAF?$AAA?$AAR?$AAP?$AAR?$AAO?$AAF?$AAI?$AAL?$AAE?$AA?$CF@ 00000001800d28d8     options.obj
 0002:000128f8       ??_C@_17OJOFHEJE@?$AAa?$AAr?$AAc@ 00000001800d28f8     options.obj
 0002:00012900       ??_C@_15FDMACJLB@?$AA7?$AAz@ 00000001800d2900     options.obj
 0002:00012910       ??_C@_1CGI@BLGKMGKC@?$AA?$CK?$AA?4?$AAz?$AAi?$AAp?$AA?0?$AA?$CK?$AA?4?$AAr?$AAa?$AAr?$AA?0?$AA?$CK?$AA?4?$AA?$FL@ 00000001800d2910     options.obj
 0002:00012b78       ??_C@_1BC@JCBBLHDN@?$AAs?$AAf?$AAx?$AA?4?$AAn?$AAa?$AAm?$AAe@ 00000001800d2b78     options.obj
 0002:00012b90       ??_C@_1CC@HONLGMMG@?$AAs?$AAf?$AAx?$AA?4?$AAr?$AAe?$AAp?$AAl?$AAa?$AAc?$AAe?$AA_?$AAi?$AAc?$AAo@ 00000001800d2b90     options.obj
 0002:00012bb8       ??_C@_1BM@JPIAFBBJ@?$AAs?$AAf?$AAx?$AA?4?$AAi?$AAc?$AAo?$AAn?$AA_?$AAp?$AAa?$AAt?$AAh@ 00000001800d2bb8     options.obj
 0002:00012bd8       ??_C@_1CI@JFOGOFA@?$AAs?$AAf?$AAx?$AA?4?$AAr?$AAe?$AAp?$AAl?$AAa?$AAc?$AAe?$AA_?$AAv?$AAe?$AAr@ 00000001800d2bd8     options.obj
 0002:00012c00       ??_C@_1CK@ELAOMKDG@?$AAs?$AAf?$AAx?$AA?4?$AAv?$AAe?$AAr?$AA_?$AAi?$AAn?$AAf?$AAo?$AA?4?$AAv?$AAe@ 00000001800d2c00     options.obj
 0002:00012c30       ??_C@_1CM@BEBJAOOB@?$AAs?$AAf?$AAx?$AA?4?$AAv?$AAe?$AAr?$AA_?$AAi?$AAn?$AAf?$AAo?$AA?4?$AAc?$AAo@ 00000001800d2c30     options.obj
 0002:00012c60       ??_C@_1DE@DCPPCPEM@?$AAs?$AAf?$AAx?$AA?4?$AAv?$AAe?$AAr?$AA_?$AAi?$AAn?$AAf?$AAo?$AA?4?$AAc?$AAo@ 00000001800d2c60     options.obj
 0002:00012c98       ??_C@_1DM@MFOMGNPE@?$AAs?$AAf?$AAx?$AA?4?$AAv?$AAe?$AAr?$AA_?$AAi?$AAn?$AAf?$AAo?$AA?4?$AAf?$AAi@ 00000001800d2c98     options.obj
 0002:00012cd8       ??_C@_1DK@HPCOKLKF@?$AAs?$AAf?$AAx?$AA?4?$AAv?$AAe?$AAr?$AA_?$AAi?$AAn?$AAf?$AAo?$AA?4?$AAl?$AAe@ 00000001800d2cd8     options.obj
 0002:00012d18       ??_C@_1DE@DEHPBBNH@?$AAs?$AAf?$AAx?$AA?4?$AAv?$AAe?$AAr?$AA_?$AAi?$AAn?$AAf?$AAo?$AA?4?$AAp?$AAr@ 00000001800d2d18     options.obj
 0002:00012d50       ??_C@_1DE@CMPJDOC@?$AAs?$AAf?$AAx?$AA?4?$AAa?$AAp?$AAp?$AAe?$AAn?$AAd?$AA_?$AAi?$AAn?$AAs?$AAt@ 00000001800d2d50     options.obj
 0002:00012d88       ??_C@_1DC@IBDCCCFH@?$AAs?$AAf?$AAx?$AA?4?$AAi?$AAn?$AAs?$AAt?$AAa?$AAl?$AAl?$AA_?$AAc?$AAo?$AAn@ 00000001800d2d88     options.obj
 0002:00012dc0       ??_C@_1EA@FHBMGOJC@?$AAs?$AAf?$AAx?$AA?4?$AAi?$AAn?$AAs?$AAt?$AAa?$AAl?$AAl?$AA_?$AAc?$AAo?$AAn@ 00000001800d2dc0     options.obj
 0002:00012e00       ??_C@_1DI@FGFGCAEP@?$AAs?$AAf?$AAx?$AA?4?$AAi?$AAn?$AAs?$AAt?$AAa?$AAl?$AAl?$AA_?$AAc?$AAo?$AAn@ 00000001800d2e00     options.obj
 0002:00012e38       ??_C@_1DO@EDLAEBAA@?$AAs?$AAf?$AAx?$AA?4?$AAi?$AAn?$AAs?$AAt?$AAa?$AAl?$AAl?$AA_?$AAc?$AAo?$AAn@ 00000001800d2e38     options.obj
 0002:00012e78       ??_C@_1DK@JGHNKBKG@?$AAs?$AAf?$AAx?$AA?4?$AAi?$AAn?$AAs?$AAt?$AAa?$AAl?$AAl?$AA_?$AAc?$AAo?$AAn@ 00000001800d2e78     options.obj
 0002:00012ec0       ??_C@_1EA@KNCOOEHK@?$AAs?$AAf?$AAx?$AA?4?$AAi?$AAn?$AAs?$AAt?$AAa?$AAl?$AAl?$AA_?$AAc?$AAo?$AAn@ 00000001800d2ec0     options.obj
 0002:00012f00       ??_C@_1EM@GLJDOHOC@?$AAs?$AAf?$AAx?$AA?4?$AAi?$AAn?$AAs?$AAt?$AAa?$AAl?$AAl?$AA_?$AAc?$AAo?$AAn@ 00000001800d2f00     options.obj
 0002:00012f50       ??_C@_1BM@BHABOEEP@?$AAh?$AAa?$AAn?$AAd?$AAl?$AAe?$AA_?$AAc?$AAr?$AAe?$AAa?$AAt?$AAe@ 00000001800d2f50     options.obj
 0002:00012f70       ??_C@_1CA@FIGILPCF@?$AAh?$AAa?$AAn?$AAd?$AAl?$AAe?$AA_?$AAc?$AAo?$AAm?$AAm?$AAa?$AAn?$AAd?$AAs@ 00000001800d2f70     options.obj
 0002:00012f90       ??_C@_1BM@IOCBKKLB@?$AAp?$AAl?$AAu?$AAg?$AAi?$AAn?$AA_?$AAp?$AAr?$AAe?$AAf?$AAi?$AAx@ 00000001800d2f90     options.obj
 0002:00012fb0       ??_C@_1BO@IEILHPMJ@?$AAm?$AAa?$AAx?$AA_?$AAc?$AAh?$AAe?$AAc?$AAk?$AA_?$AAs?$AAi?$AAz?$AAe@ 00000001800d2fb0     options.obj
 0002:00012fd0       ??_C@_1CM@CBFIHEKK@?$AAe?$AAx?$AAt?$AAr?$AAa?$AAc?$AAt?$AA_?$AAi?$AAg?$AAn?$AAo?$AAr?$AAe?$AA_@ 00000001800d2fd0     options.obj
 0002:00013000       ??_C@_1CE@HIFCNFIN@?$AAe?$AAx?$AAt?$AAr?$AAa?$AAc?$AAt?$AA_?$AAo?$AAv?$AAe?$AAr?$AAw?$AAr?$AAi@ 00000001800d3000     options.obj
 0002:00013028       ??_C@_1CK@CPALOIJF@?$AAe?$AAx?$AAt?$AAr?$AAa?$AAc?$AAt?$AA_?$AAs?$AAe?$AAp?$AAa?$AAr?$AAa?$AAt@ 00000001800d3028     options.obj
 0002:00013058       ??_C@_1CC@JIDFBFJI@?$AAe?$AAx?$AAt?$AAr?$AAa?$AAc?$AAt?$AA_?$AAo?$AAp?$AAe?$AAn?$AA_?$AAd?$AAi@ 00000001800d3058     options.obj
 0002:00013080       ??_C@_1CO@BOJMLONJ@?$AAu?$AAp?$AAd?$AAa?$AAt?$AAe?$AA_?$AAa?$AAr?$AAc?$AA_?$AAf?$AAo?$AAr?$AAm@ 00000001800d3080     options.obj
 0002:000130b0       ??_C@_1BK@CGJCKDIP@?$AAu?$AAp?$AAd?$AAa?$AAt?$AAe?$AA_?$AAl?$AAe?$AAv?$AAe?$AAl@ 00000001800d30b0     options.obj
 0002:000130d0       ??_C@_1BM@IKEOFPDG@?$AAu?$AAp?$AAd?$AAa?$AAt?$AAe?$AA_?$AAl?$AAe?$AAv?$AAe?$AAl?$AAs@ 00000001800d30d0     options.obj
 0002:000130f0       ??_C@_1BM@MDOLGGCE@?$AAu?$AAp?$AAd?$AAa?$AAt?$AAe?$AA_?$AAm?$AAe?$AAt?$AAh?$AAo?$AAd@ 00000001800d30f0     options.obj
 0002:00013110       ??_C@_1BK@BADBIELM@?$AAu?$AAp?$AAd?$AAa?$AAt?$AAe?$AA_?$AAs?$AAo?$AAl?$AAi?$AAd@ 00000001800d3110     options.obj
 0002:00013130       ??_C@_1CA@BLMBLMOL@?$AAu?$AAp?$AAd?$AAa?$AAt?$AAe?$AA_?$AAa?$AAd?$AAv?$AAa?$AAn?$AAc?$AAe?$AAd@ 00000001800d3130     options.obj
 0002:00013150       ??_C@_1BO@OHNABIDK@?$AAu?$AAp?$AAd?$AAa?$AAt?$AAe?$AA_?$AAe?$AAn?$AAc?$AAr?$AAy?$AAp?$AAt@ 00000001800d3150     options.obj
 0002:00013170       ??_C@_1CK@BCFJMECK@?$AAu?$AAp?$AAd?$AAa?$AAt?$AAe?$AA_?$AAs?$AAh?$AAo?$AAw?$AA_?$AAp?$AAa?$AAs@ 00000001800d3170     options.obj
 0002:000131a0       ??_C@_1CM@HPBKHKPI@?$AAu?$AAp?$AAd?$AAa?$AAt?$AAe?$AA_?$AAe?$AAn?$AAc?$AAr?$AAy?$AAp?$AAt?$AA_@ 00000001800d31a0     options.obj
 0002:000131d0       ??_C@_1CA@FGCOBLEE@?$AAu?$AAp?$AAd?$AAa?$AAt?$AAe?$AA_?$AAp?$AAa?$AAs?$AAs?$AAw?$AAo?$AAr?$AAd@ 00000001800d31d0     options.obj
 0002:000131f0       ??_C@_1CE@DJBPJNEE@?$AAu?$AAp?$AAd?$AAa?$AAt?$AAe?$AA_?$AAc?$AAr?$AAe?$AAa?$AAt?$AAe?$AA_?$AAs@ 00000001800d31f0     options.obj
 0002:00013218       ??_C@_1CM@CHAOPLGB@?$AAu?$AAp?$AAd?$AAa?$AAt?$AAe?$AA_?$AAe?$AAn?$AAa?$AAb?$AAl?$AAe?$AA_?$AAv@ 00000001800d3218     options.obj
 0002:00013248       ??_C@_1CG@KICFKBBP@?$AAu?$AAp?$AAd?$AAa?$AAt?$AAe?$AA_?$AAv?$AAo?$AAl?$AAu?$AAm?$AAe?$AA_?$AAs@ 00000001800d3248     options.obj
 0002:00013270       ??_C@_1CE@NAAPDECD@?$AAu?$AAp?$AAd?$AAa?$AAt?$AAe?$AA_?$AAm?$AAo?$AAv?$AAe?$AA_?$AAf?$AAi?$AAl@ 00000001800d3270     options.obj
 0002:00013298       ??_C@_1CK@ICOFBPBC@?$AAu?$AAp?$AAd?$AAa?$AAt?$AAe?$AA_?$AAi?$AAg?$AAn?$AAo?$AAr?$AAe?$AA_?$AAe@ 00000001800d3298     options.obj
 0002:000132c8       ??_C@_1CC@JJLCAMDI@?$AAu?$AAp?$AAd?$AAa?$AAt?$AAe?$AA_?$AAo?$AAv?$AAe?$AAr?$AAw?$AAr?$AAi?$AAt@ 00000001800d32c8     options.obj
 0002:000132f0       ??_C@_1CE@CFBHBNFH@?$AAu?$AAp?$AAd?$AAa?$AAt?$AAe?$AA_?$AAa?$AAp?$AAp?$AAe?$AAn?$AAd?$AA_?$AAe@ 00000001800d32f0     options.obj
 0002:00013318       ??_C@_1CI@LDHPGHDF@?$AAo?$AAw?$AAn?$AA_?$AAp?$AAa?$AAn?$AAe?$AAl?$AA_?$AAv?$AAi?$AAe?$AAw?$AA_@ 00000001800d3318     options.obj
 0002:00013340       ??_C@_1CA@BMEGBAGO@?$AAp?$AAa?$AAn?$AAe?$AAl?$AA_?$AAv?$AAi?$AAe?$AAw?$AA_?$AAm?$AAo?$AAd?$AAe@ 00000001800d3340     options.obj
 0002:00013360       ??_C@_1CA@FOAPJPME@?$AAp?$AAa?$AAn?$AAe?$AAl?$AA_?$AAs?$AAo?$AAr?$AAt?$AA_?$AAm?$AAo?$AAd?$AAe@ 00000001800d3360     options.obj
 0002:00013380       ??_C@_1CG@IMENIFAM@?$AAp?$AAa?$AAn?$AAe?$AAl?$AA_?$AAr?$AAe?$AAv?$AAe?$AAr?$AAs?$AAe?$AA_?$AAs@ 00000001800d3380     options.obj
 0002:000133a8       ??_C@_1CE@JGFBPPBK@?$AAu?$AAs?$AAe?$AA_?$AAi?$AAn?$AAc?$AAl?$AAu?$AAd?$AAe?$AA_?$AAm?$AAa?$AAs@ 00000001800d33a8     options.obj
 0002:000133d0       ??_C@_1BM@KFJICIME@?$AAi?$AAn?$AAc?$AAl?$AAu?$AAd?$AAe?$AA_?$AAm?$AAa?$AAs?$AAk?$AAs@ 00000001800d33d0     options.obj
 0002:000133f0       ??_C@_1CE@IKFGFEP@?$AAu?$AAs?$AAe?$AA_?$AAe?$AAx?$AAc?$AAl?$AAu?$AAd?$AAe?$AA_?$AAm?$AAa?$AAs@ 00000001800d33f0     options.obj
 0002:00013418       ??_C@_1BM@DLGMLCJB@?$AAe?$AAx?$AAc?$AAl?$AAu?$AAd?$AAe?$AA_?$AAm?$AAa?$AAs?$AAk?$AAs@ 00000001800d3418     options.obj
 0002:00013438       ??_C@_1BG@EHDBJMPF@?$AAp?$AAg?$AAd?$AAn?$AA_?$AAm?$AAa?$AAs?$AAk?$AAs@ 00000001800d3438     options.obj
 0002:00013450       ??_C@_1CI@EOKCLAPP@?$AAu?$AAs?$AAe?$AA_?$AAe?$AAn?$AAa?$AAb?$AAl?$AAe?$AAd?$AA_?$AAf?$AAo?$AAr@ 00000001800d3450     options.obj
 0002:00013478       ??_C@_1CA@KFAHFAPB@?$AAe?$AAn?$AAa?$AAb?$AAl?$AAe?$AAd?$AA_?$AAf?$AAo?$AAr?$AAm?$AAa?$AAt?$AAs@ 00000001800d3478     options.obj
 0002:00013498       ??_C@_1CK@JLKPDPGC@?$AAu?$AAs?$AAe?$AA_?$AAd?$AAi?$AAs?$AAa?$AAb?$AAl?$AAe?$AAd?$AA_?$AAf?$AAo@ 00000001800d3498     options.obj
 0002:000134c8       ??_C@_1CC@KFCGBLDB@?$AAd?$AAi?$AAs?$AAa?$AAb?$AAl?$AAe?$AAd?$AA_?$AAf?$AAo?$AAr?$AAm?$AAa?$AAt@ 00000001800d34c8     options.obj
 0002:000134f0       ??_C@_1BK@LLAIEAGG@?$AAp?$AAg?$AAd?$AAn?$AA_?$AAf?$AAo?$AAr?$AAm?$AAa?$AAt?$AAs@ 00000001800d34f0     options.obj
 0002:00013510       ??_C@_1O@CKCABMKB@?$AAs?$AAa?$AAv?$AAe?$AAC?$AAP@ 00000001800d3510     options.obj
 0002:00013520       ??_C@_1M@OAANMHNH@?$AAo?$AAe?$AAm?$AAC?$AAP@ 00000001800d3520     options.obj
 0002:00013530       ??_C@_1O@GOOOKFBK@?$AAa?$AAn?$AAs?$AAi?$AAC?$AAP@ 00000001800d3530     options.obj
 0002:00013540       ??_C@_1CE@PDJEHHLN@?$AAc?$AAo?$AAr?$AAr?$AAe?$AAc?$AAt?$AA_?$AAn?$AAa?$AAm?$AAe?$AA_?$AAm?$AAo@ 00000001800d3540     options.obj
 0002:00013568       ??_C@_1BM@MNDMAIMM@?$AAq?$AAs?$AA_?$AAb?$AAy?$AA_?$AAd?$AAe?$AAf?$AAa?$AAu?$AAl?$AAt@ 00000001800d3568     options.obj
 0002:00013588       ??_C@_1BI@EHINFBH@?$AAs?$AAt?$AAr?$AAi?$AAc?$AAt?$AA_?$AAc?$AAa?$AAs?$AAe@ 00000001800d3588     options.obj
 0002:000135a0       ??_C@_1BC@DNIPBCFP@?$AAa?$AAr?$AAc?$AA_?$AAt?$AAy?$AAp?$AAe@ 00000001800d35a0     options.obj
 0002:000135b8       ??_C@_1M@NNEKJJGI@?$AAl?$AAe?$AAv?$AAe?$AAl@ 00000001800d35b8     options.obj
 0002:000135c8       ??_C@_1O@BENICBGF@?$AAm?$AAe?$AAt?$AAh?$AAo?$AAd@ 00000001800d35c8     options.obj
 0002:000135d8       ??_C@_1M@OLOJLOFL@?$AAs?$AAo?$AAl?$AAi?$AAd@ 00000001800d35d8     options.obj
 0002:000135e8       ??_C@_1BC@OMIPJNBO@?$AAp?$AAa?$AAs?$AAs?$AAw?$AAo?$AAr?$AAd@ 00000001800d35e8     options.obj
 0002:00013600       ??_C@_1BA@OGAKGFHO@?$AAe?$AAn?$AAc?$AAr?$AAy?$AAp?$AAt@ 00000001800d3600     options.obj
 0002:00013610       ??_C@_1BO@KNNCBMKF@?$AAe?$AAn?$AAc?$AAr?$AAy?$AAp?$AAt?$AA_?$AAh?$AAe?$AAa?$AAd?$AAe?$AAr@ 00000001800d3610     options.obj
 0002:00013630       ??_C@_1BG@OELPMCIK@?$AAc?$AAr?$AAe?$AAa?$AAt?$AAe?$AA_?$AAs?$AAf?$AAx@ 00000001800d3630     options.obj
 0002:00013648       ??_C@_1BO@PFMGJNDM@?$AAe?$AAn?$AAa?$AAb?$AAl?$AAe?$AA_?$AAv?$AAo?$AAl?$AAu?$AAm?$AAe?$AAs@ 00000001800d3648     options.obj
 0002:00013668       ??_C@_1BI@GIIMKBK@?$AAv?$AAo?$AAl?$AAu?$AAm?$AAe?$AA_?$AAs?$AAi?$AAz?$AAe@ 00000001800d3668     options.obj
 0002:00013680       ??_C@_1BG@NKPGLON@?$AAm?$AAo?$AAv?$AAe?$AA_?$AAf?$AAi?$AAl?$AAe?$AAs@ 00000001800d3680     options.obj
 0002:00013698       ??_C@_1BM@NLHOIHKK@?$AAi?$AAg?$AAn?$AAo?$AAr?$AAe?$AA_?$AAe?$AAr?$AAr?$AAo?$AAr?$AAs@ 00000001800d3698     options.obj
 0002:000136b8       ??_C@_1BC@KBGADKLB@?$AAa?$AAd?$AAv?$AAa?$AAn?$AAc?$AAe?$AAd@ 00000001800d36b8     options.obj
 0002:000136d0       ??_C@_1BG@BBLLCINI@?$AAC?$AAo?$AAp?$AAy?$AAO?$AAp?$AAe?$AAn?$AAe?$AAd@ 00000001800d36d0     options.obj
 0002:000136e8       ??_C@_17FPIFMLJN@?$AAE?$AAs?$AAc@ 00000001800d36e8     options.obj
 0002:000136f0       ??_C@_0BJ@DHFDPMIM@invalid?5vector?5subscript@ 00000001800d36f0     options.obj
 0002:00013718       ??_7xml_parser@@6B@        00000001800d3718     options.obj
 0002:00013740       ??_7IParseCallback@SimpleXML@@6B@ 00000001800d3740     options.obj
 0002:00013760       ??_C@_0BG@EOMJEIFA@vector?$DMbool?$DO?5too?5long@ 00000001800d3760     msearch.obj
 0002:00013778       ??_C@_13HOIJIPNN@?$AA?5@   00000001800d3778     attr.obj
 0002:00013780       ??_C@_08IJFGBAA@attr?4cpp@ 00000001800d3780     attr.obj
 0002:00013790       ??_C@_08ENCNIKBI@test?4cpp@ 00000001800d3790     test.obj
 0002:000137a8       ??_7ArchiveTester@@6BProgressMonitor@@@ 00000001800d37a8     test.obj
 0002:000137c0       ??_7ArchiveTester@@6BComBase@@@ 00000001800d37c0     test.obj
 0002:000137e8       ??_7ArchiveTester@@6BICryptoGetTextPassword@@@ 00000001800d37e8     test.obj
 0002:00013810       ??_7ArchiveTester@@6BIArchiveExtractCallback@@@ 00000001800d3810     test.obj
 0002:00013850       ??_C@_1CA@PMIEPGIA@?$AA?$CJ?$AA?5?$AAK?$AAe?$AAy?$AAs?$AA?$CI?$AA?8?$AAE?$AAn?$AAt?$AAe?$AAr?$AA?8?$AA?$CJ@ 00000001800d3850     common.obj
 0002:00013870       ??_C@_1O@BBPMHPCD@?$AAp?$AAr?$AAi?$AAn?$AAt?$AA?$CI@ 00000001800d3870     common.obj
 0002:00013880       ??_C@_0L@PIMMLIEG@common?4cpp@ 00000001800d3880     common.obj
 0002:00013890       ??_C@_1CI@FOKFAKOH@?$AA?$DL?$AA?$CB?$AA?$EA?$AAI?$AAn?$AAs?$AAt?$AAa?$AAl?$AAl?$AA?$EA?$AA?$CB?$AAU?$AAT?$AAF@ 00000001800d3890     sfx.obj
 0002:000138b8       ??_C@_15GLOEBKAF@?$AA?$CC?$AA?6@ 00000001800d38b8     sfx.obj
 0002:000138c0       ??_C@_1BA@OLOEMDEM@?$AAT?$AAi?$AAt?$AAl?$AAe?$AA?$DN?$AA?$CC@ 00000001800d38c0     sfx.obj
 0002:000138d0       ??_C@_1BM@GIJJCMLO@?$AAB?$AAe?$AAg?$AAi?$AAn?$AAP?$AAr?$AAo?$AAm?$AAp?$AAt?$AA?$DN?$AA?$CC@ 00000001800d38d0     sfx.obj
 0002:000138f0       ??_C@_1BG@NCOBKEDJ@?$AAP?$AAr?$AAo?$AAg?$AAr?$AAe?$AAs?$AAs?$AA?$DN?$AA?$CC@ 00000001800d38f0     sfx.obj
 0002:00013908       ??_C@_1BK@KFKMPGNC@?$AAR?$AAu?$AAn?$AAP?$AAr?$AAo?$AAg?$AAr?$AAa?$AAm?$AA?$DN?$AA?$CC@ 00000001800d3908     sfx.obj
 0002:00013928       ??_C@_1BI@LDJDHMHI@?$AAD?$AAi?$AAr?$AAe?$AAc?$AAt?$AAo?$AAr?$AAy?$AA?$DN?$AA?$CC@ 00000001800d3928     sfx.obj
 0002:00013940       ??_C@_1BM@GCHJMPFL@?$AAE?$AAx?$AAe?$AAc?$AAu?$AAt?$AAe?$AAF?$AAi?$AAl?$AAe?$AA?$DN?$AA?$CC@ 00000001800d3940     sfx.obj
 0002:00013960       ??_C@_1CI@KHPPDIK@?$AAE?$AAx?$AAe?$AAc?$AAu?$AAt?$AAe?$AAP?$AAa?$AAr?$AAa?$AAm?$AAe?$AAt?$AAe@ 00000001800d3960     sfx.obj
 0002:00013988       ??_C@_1CC@OAOKHGML@?$AA?$DL?$AA?$CB?$AA?$EA?$AAI?$AAn?$AAs?$AAt?$AAa?$AAl?$AAl?$AAE?$AAn?$AAd?$AA?$EA?$AA?$CB@ 00000001800d3988     sfx.obj
 0002:000139b0       ??_C@_07JLLJJILI@sfx?4cpp@ 00000001800d39b0     sfx.obj
 0002:000139b8       ??_C@_1DM@BJNOLDOM@?$AAs?$AAf?$AAx?$AA_?$AAi?$AAd?$AA?5?$AA?$DM?$AA?5?$AAA?$AAr?$AAc?$AAA?$AAP?$AAI@ 00000001800d39b8     sfx.obj
 0002:00013a00       ??_C@_1GG@NAMIJFA@?$AAd?$AAs?$AAt?$AA_?$AAf?$AAi?$AAl?$AAe?$AA?4?$AAw?$AAr?$AAi?$AAt?$AAe?$AA?$CI@ 00000001800d3a00     sfx.obj
 0002:00013a68       ??_C@_17IHBDLLG@?$AAy?$AAe?$AAs@ 00000001800d3a68     sfx.obj
 0002:00013a70       ??_C@_15BPIGNHCD@?$AAn?$AAo@ 00000001800d3a70     sfx.obj
 0002:00013a78       ??_C@_1BG@HKPDLJKO@?$AAS?$AAf?$AAx?$AAO?$AAp?$AAt?$AAi?$AAo?$AAn?$AAs@ 00000001800d3a78     sfx.obj
 0002:00013a90       ??_C@_1CE@CCMGPAPF@?$AAa?$AAr?$AAc?$AAl?$AAi?$AAt?$AAe?$AA?4?$AAi?$AAc?$AAo?$AAn?$AA_?$AAp?$AAa@ 00000001800d3a90     sfx.obj
 0002:00013ac0       ??_7SfxOptionsDialog@@6B@  00000001800d3ac0     sfx.obj
 0002:00013ad0       ??_7AttachSfxModuleProgress@@6B@ 00000001800d3ad0     sfx.obj
 0002:00013ae0       ??_C@_13PHCIHIAO@?$AAc@    00000001800d3ae0     cmdline.obj
 0002:00013ae4       ??_C@_13ICFKHAEN@?$AAu@    00000001800d3ae4     cmdline.obj
 0002:00013ae8       ??_C@_13NCEDCHNC@?$AAe@    00000001800d3ae8     cmdline.obj
 0002:00013aec       ??_C@_13GKPPEALH@?$AAd@    00000001800d3aec     cmdline.obj
 0002:00013af0       ??_C@_13DKOGBHCI@?$AAt@    00000001800d3af0     cmdline.obj
 0002:00013af8       ??_C@_0M@ECEFEAAC@cmdline?4cpp@ 00000001800d3af8     cmdline.obj
 0002:00013b04       ??_C@_13FHBKNHDA@?$AAC@    00000001800d3b04     cmdline.obj
 0002:00013b08       ??_C@_13CCGINPHD@?$AAU@    00000001800d3b08     cmdline.obj
 0002:00013b0c       ??_C@_13NAACAHKO@?$AAX@    00000001800d3b0c     cmdline.obj
 0002:00013b10       ??_C@_13HCHBIIOM@?$AAE@    00000001800d3b10     cmdline.obj
 0002:00013b14       ??_C@_13MKMNOPIJ@?$AAD@    00000001800d3b14     cmdline.obj
 0002:00013b18       ??_C@_13JKNELIBG@?$AAT@    00000001800d3b18     cmdline.obj
 0002:00013b1c       ??_C@_13MIIMMPPF@?$AAy@    00000001800d3b1c     cmdline.obj
 0002:00013b20       ??_C@_13FECKAND@?$AAn@     00000001800d3b20     cmdline.obj
 0002:00013b24       ??_C@_13FNCBLAIF@?$AAa@    00000001800d3b24     cmdline.obj
 0002:00013b28       ??_C@_13LFIEIAHP@?$AAp@    00000001800d3b28     cmdline.obj
 0002:00013b30       ??_C@_19NNMOHCMN@?$AAl?$AAz?$AAm?$AAa@ 00000001800d3b30     cmdline.obj
 0002:00013b40       ??_C@_1M@JKHNFEPH@?$AAl?$AAz?$AAm?$AAa?$AA2@ 00000001800d3b40     cmdline.obj
 0002:00013b50       ??_C@_19EGECPPFB@?$AAp?$AAp?$AAm?$AAd@ 00000001800d3b50     cmdline.obj
 0002:00013b5c       ??_C@_15IECJDLIK@?$AAp?$AAr@ 00000001800d3b5c     cmdline.obj
 0002:00013b64       ??_C@_13KPELGIFI@?$AAl@    00000001800d3b64     cmdline.obj
 0002:00013b68       ??_C@_13BHPHAPDN@?$AAm@    00000001800d3b68     cmdline.obj
 0002:00013b6c       ??_C@_15OIJGBPFJ@?$AAe?$AAh@ 00000001800d3b6c     cmdline.obj
 0002:00013b78       ??_C@_17MICENCNB@?$AAs?$AAf?$AAx@ 00000001800d3b78     cmdline.obj
 0002:00013b80       ??_C@_13JAOPNPKD@?$AAv@    00000001800d3b80     cmdline.obj
 0002:00013b84       ??_C@_15OEBKOKAH@?$AAm?$AAf@ 00000001800d3b84     cmdline.obj
 0002:00013b8c       ??_C@_15GNDOAHPP@?$AAi?$AAe@ 00000001800d3b8c     cmdline.obj
 0002:00013b94       ??_C@_13LNPOMHLG@?$AAo@    00000001800d3b94     cmdline.obj
 0002:00013b98       ??_C@_17FLKNDCLP@?$AAa?$AAd?$AAv@ 00000001800d3b98     cmdline.obj
 0002:00013ba0       ??_C@_15KHFHDPFH@?$AA?9?$AA?9@ 00000001800d3ba0     cmdline.obj
 0002:00013ba8       ??_C@_13BPINEIPE@?$AAr@    00000001800d3ba8     cmdline.obj
 0002:00013bac       ??_C@_15HHMPEBGH@?$AAs?$AAd@ 00000001800d3bac     cmdline.obj
 0002:00013bb4       ??_C@_15FOMCIDHG@?$AAd?$AAa@ 00000001800d3bb4     cmdline.obj
 0002:00013bc0       ??_C@_17CMKEDJDI@?$AAo?$AAu?$AAt@ 00000001800d3bc0     cmdline.obj
 0002:00013bc8       ??_C@_08DMEHPCKJ@rsrc?4cpp@ 00000001800d3bc8     rsrc.obj
 0002:00013be0       ??_C@_1GK@MOFBPDLL@?$AAe?$AAn?$AAt?$AAr?$AAy?$AA?4?$AAi?$AAm?$AAa?$AAg?$AAe?$AA_?$AAo?$AAf?$AAf@ 00000001800d3be0     rsrc.obj
 0002:00013c50       ??_C@_1CA@FOECMPGO@?$AAV?$AAS?$AA_?$AAV?$AAE?$AAR?$AAS?$AAI?$AAO?$AAN?$AA_?$AAI?$AAN?$AAF?$AAO@ 00000001800d3c50     rsrc.obj
 0002:00013c70       ??_C@_1BO@PBBNDBNF@?$AAS?$AAt?$AAr?$AAi?$AAn?$AAg?$AAF?$AAi?$AAl?$AAe?$AAI?$AAn?$AAf?$AAo@ 00000001800d3c70     rsrc.obj
 0002:00013c90       ??_C@_19MABGBOMG@?$AA0?$AA4?$AAb?$AA0@ 00000001800d3c90     rsrc.obj
 0002:00013ca0       ??_C@_1BC@OJAINIIB@?$AAC?$AAo?$AAm?$AAm?$AAe?$AAn?$AAt?$AAs@ 00000001800d3ca0     rsrc.obj
 0002:00013cb8       ??_C@_1BI@KBKGFMKH@?$AAC?$AAo?$AAm?$AAp?$AAa?$AAn?$AAy?$AAN?$AAa?$AAm?$AAe@ 00000001800d3cb8     rsrc.obj
 0002:00013cd0       ??_C@_1CA@JGBAIPOO@?$AAF?$AAi?$AAl?$AAe?$AAD?$AAe?$AAs?$AAc?$AAr?$AAi?$AAp?$AAt?$AAi?$AAo?$AAn@ 00000001800d3cd0     rsrc.obj
 0002:00013cf0       ??_C@_1BI@HCCAONKE@?$AAF?$AAi?$AAl?$AAe?$AAV?$AAe?$AAr?$AAs?$AAi?$AAo?$AAn@ 00000001800d3cf0     rsrc.obj
 0002:00013d08       ??_C@_1BO@DAFANMIE@?$AAL?$AAe?$AAg?$AAa?$AAl?$AAC?$AAo?$AAp?$AAy?$AAr?$AAi?$AAg?$AAh?$AAt@ 00000001800d3d08     rsrc.obj
 0002:00013d28       ??_C@_1BI@CJGIOPAN@?$AAP?$AAr?$AAo?$AAd?$AAu?$AAc?$AAt?$AAN?$AAa?$AAm?$AAe@ 00000001800d3d28     rsrc.obj
 0002:00013d40       ??_C@_1BO@OKEPMKJE@?$AAP?$AAr?$AAo?$AAd?$AAu?$AAc?$AAt?$AAV?$AAe?$AAr?$AAs?$AAi?$AAo?$AAn@ 00000001800d3d40     rsrc.obj
 0002:00013d60       ??_C@_1BI@LJHFMFCG@?$AAV?$AAa?$AAr?$AAF?$AAi?$AAl?$AAe?$AAI?$AAn?$AAf?$AAo@ 00000001800d3d60     rsrc.obj
 0002:00013d78       ??_C@_1BI@OMFAJHAK@?$AAT?$AAr?$AAa?$AAn?$AAs?$AAl?$AAa?$AAt?$AAi?$AAo?$AAn@ 00000001800d3d78     rsrc.obj
 0002:00013d90       ??_C@_13CGOKJPIL@?$AA?1@   00000001800d3d90     farutils.obj
 0002:00013d98       ??_C@_0N@NEKDJBOO@farutils?4cpp@ 00000001800d3d98     farutils.obj
 0002:00013db0       ??_C@_1GM@ELBBCICA@?$AAs?$AAi?$AAz?$AAe?$AA?5?$AA?$DO?$AA?$DN?$AA?5?$AAs?$AAi?$AAz?$AAe?$AAo?$AAf?$AA?$CI@ 00000001800d3db0     farutils.obj
 0002:00013e20       ??_C@_1CG@GFKBHPGN@?$AAs?$AAi?$AAz?$AAe?$AA?5?$AA?$DN?$AA?$DN?$AA?5?$AAb?$AAu?$AAf?$AA?4?$AAs?$AAi?$AAz@ 00000001800d3e20     farutils.obj
 0002:00013e48       ??_C@_15FEDGKCDI@?$AAr?$AAu@ 00000001800d3e48     farutils.obj
 0002:00013e58       ??_7Dialog@Far@@6B@        00000001800d3e58     farutils.obj
 0002:00013e70       ??_C@_15LEKKCGMK@?$AA?2?$AA?2@ 00000001800d3e70     pathutils.obj
 0002:00013e78       ??_C@_15DKMKFLDO@?$AA?$DP?$AA?2@ 00000001800d3e78     pathutils.obj
 0002:00013e80       ??_C@_15PCEAIKAA@?$AA?4?$AA?2@ 00000001800d3e80     pathutils.obj
 0002:00013e88       ??_C@_1BA@BFGBFLGI@?$AA?2?$AA?2?$AA?$DP?$AA?2?$AAU?$AAN?$AAC@ 00000001800d3e88     pathutils.obj
 0002:00013e98       ??_C@_19MJCDBCKE@?$AA?2?$AA?2?$AA?$DP?$AA?2@ 00000001800d3e98     pathutils.obj
 0002:00013ea8       ??_C@_1O@IBEKDEPM@?$AA?$DP?$AA?2?$AAU?$AAN?$AAC?$AA?2@ 00000001800d3ea8     pathutils.obj
 0002:00013eb8       ??_C@_15GKAHMKIN@?$AA?3?$AA?2@ 00000001800d3eb8     pathutils.obj
 0002:00013ec0       ??_C@_17LIAKHCCP@?$AAC?$AAO?$AAN@ 00000001800d3ec0     pathutils.obj
 0002:00013ec8       ??_C@_17PFHGFFKC@?$AAP?$AAR?$AAN@ 00000001800d3ec8     pathutils.obj
 0002:00013ed0       ??_C@_17CNBAFMOM@?$AAA?$AAU?$AAX@ 00000001800d3ed0     pathutils.obj
 0002:00013ed8       ??_C@_17CLELIOII@?$AAN?$AAU?$AAL@ 00000001800d3ed8     pathutils.obj
 0002:00013ee0       ??_C@_19KHKAFFPC@?$AAC?$AAO?$AAM?$AA9@ 00000001800d3ee0     pathutils.obj
 0002:00013ef0       ??_C@_19NHOJHOKL@?$AAL?$AAP?$AAT?$AA9@ 00000001800d3ef0     pathutils.obj
 0002:00013f00       ??_C@_17LGKOMLJ@?$AA?4?$AA?4?$AA?4@ 00000001800d3f00     strutils.obj
 0002:00013f08       ??_C@_1BA@MDJFAEBM@?$AAw?$AAi?$AAn?$AAh?$AAt?$AAt?$AAp@ 00000001800d3f08     sysutils.obj
 0002:00013f18       ??_C@_13DIBMAFH@?$AA?$CJ@  00000001800d3f18     sysutils.obj
 0002:00013f20       ??_C@_19NDEKGCGE@?$AA?5?$AA?$CI?$AA0?$AAx@ 00000001800d3f20     sysutils.obj
 0002:00013f30       ??_C@_1BI@EPLLDPGF@?$AAH?$AAR?$AAE?$AAS?$AAU?$AAL?$AAT?$AA?3?$AA?5?$AA0?$AAx@ 00000001800d3f30     sysutils.obj
 0002:00013f48       ??_C@_0N@LGBBMAOF@sysutils?4cpp@ 00000001800d3f48     sysutils.obj
 0002:00013f58       ??_C@_1CE@MHDMOOMJ@?$AAl?$AAe?$AAn?$AA?5?$AA?$DM?$AA?$DN?$AA?5?$AAb?$AAu?$AAf?$AA?4?$AAs?$AAi?$AAz?$AAe@ 00000001800d3f58     sysutils.obj
 0002:00013f80       ??_C@_1CG@EKGDMFPK@?$AAs?$AAi?$AAz?$AAe?$AA?5?$AA?$DM?$AA?5?$AAp?$AAa?$AAt?$AAh?$AA?4?$AAs?$AAi?$AAz@ 00000001800d3f80     sysutils.obj
 0002:00013fb0       ??_7CriticalSection@@6B@   00000001800d3fb0     sysutils.obj
 0002:00014018       ??_C@_03PKPBNCAL@?o?$LL?$LP@ 00000001800d4018     SimpleXML.obj
 0002:0001401c       ??_C@_06CMNLMIOJ@?$DM?$DPxml?5@ 00000001800d401c     SimpleXML.obj
 0002:00014024       ??_C@_04FFDNBKGC@?$DM?$CB?9?9@ 00000001800d4024     SimpleXML.obj
 0002:00014030       ??_C@_09BLLNCBLF@?$DM?$CB?$FLCDATA?$FL@ 00000001800d4030     SimpleXML.obj
 0002:00014040       ??_C@_09PHEMGOEJ@?$DM?$CBDOCTYPE@ 00000001800d4040     SimpleXML.obj
 0002:00014050       __real@3fe0000000000000    00000001800d4050     common.obj
 0002:00014058       __real@4008000000000000    00000001800d4058     ui.obj
 0002:00014060       __real@404e000000000000    00000001800d4060     farutils.obj
 0002:00014068       __real@4059000000000000    00000001800d4068     common.obj
 0002:00014070       __real@4202a05f20000000    00000001800d4070     ui.obj
 0002:00014078       __real@43e0000000000000    00000001800d4078     update.obj
 0002:00014080       __real@7fefffffffffffff    00000001800d4080     ui.obj
 0002:00014090       __xmm@00000000000000070000000000000000 00000001800d4090     rsrc.obj
 0002:000140a0       __xmm@00000001000000010000000100000001 00000001800d40a0     update.obj
 0002:000140b0       __xmm@7fffffffffffffff7fffffffffffffff 00000001800d40b0     common.obj
 0002:000140c0       __xmm@ffffffffbfffffffffffffffbfffffff 00000001800d40c0     plugin.obj
 0002:000140f0       _load_config_used          00000001800d40f0     LIBCMT:loadcfg.obj
 0002:00014200       ??_R4logic_error@std@@6B@  00000001800d4200     libcpmt:xthrow.obj
 0002:00014228       ??_R3logic_error@std@@8    00000001800d4228     libcpmt:xthrow.obj
 0002:00014240       ??_R2logic_error@std@@8    00000001800d4240     libcpmt:xthrow.obj
 0002:00014258       ??_R1A@?0A@EA@logic_error@std@@8 00000001800d4258     libcpmt:xthrow.obj
 0002:00014280       ??_R4length_error@std@@6B@ 00000001800d4280     libcpmt:xthrow.obj
 0002:000142a8       ??_R3length_error@std@@8   00000001800d42a8     libcpmt:xthrow.obj
 0002:000142c0       ??_R2length_error@std@@8   00000001800d42c0     libcpmt:xthrow.obj
 0002:000142e0       ??_R1A@?0A@EA@length_error@std@@8 00000001800d42e0     libcpmt:xthrow.obj
 0002:00014308       ??_R4out_of_range@std@@6B@ 00000001800d4308     libcpmt:xthrow.obj
 0002:00014330       ??_R3out_of_range@std@@8   00000001800d4330     libcpmt:xthrow.obj
 0002:00014348       ??_R2out_of_range@std@@8   00000001800d4348     libcpmt:xthrow.obj
 0002:00014368       ??_R1A@?0A@EA@out_of_range@std@@8 00000001800d4368     libcpmt:xthrow.obj
 0002:00014390       ??_R4_Locimp@locale@std@@6B@ 00000001800d4390     libcpmt:locale0.obj
 0002:000143b8       ??_R3_Locimp@locale@std@@8 00000001800d43b8     libcpmt:locale0.obj
 0002:000143d0       ??_R2_Locimp@locale@std@@8 00000001800d43d0     libcpmt:locale0.obj
 0002:000143f8       ??_R1A@?0A@EA@_Locimp@locale@std@@8 00000001800d43f8     libcpmt:locale0.obj
 0002:00014420       ??_R4type_info@@6B@        00000001800d4420     LIBCMT:std_type_info_static.obj
 0002:00014448       ??_R3type_info@@8          00000001800d4448     LIBCMT:std_type_info_static.obj
 0002:00014460       ??_R2type_info@@8          00000001800d4460     LIBCMT:std_type_info_static.obj
 0002:00014470       ??_R1A@?0A@EA@type_info@@8 00000001800d4470     LIBCMT:std_type_info_static.obj
 0002:00014498       ??_R4bad_typeid@std@@6B@   00000001800d4498     libvcruntime:rtti.obj
 0002:000144c0       ??_R3bad_typeid@std@@8     00000001800d44c0     libvcruntime:rtti.obj
 0002:000144d8       ??_R2bad_typeid@std@@8     00000001800d44d8     libvcruntime:rtti.obj
 0002:000144f0       ??_R1A@?0A@EA@bad_typeid@std@@8 00000001800d44f0     libvcruntime:rtti.obj
 0002:00014518       ??_R4__non_rtti_object@std@@6B@ 00000001800d4518     libvcruntime:rtti.obj
 0002:00014540       ??_R3__non_rtti_object@std@@8 00000001800d4540     libvcruntime:rtti.obj
 0002:00014558       ??_R2__non_rtti_object@std@@8 00000001800d4558     libvcruntime:rtti.obj
 0002:00014578       ??_R1A@?0A@EA@__non_rtti_object@std@@8 00000001800d4578     libvcruntime:rtti.obj
 0002:000145a0       ??_R4bad_exception@std@@6B@ 00000001800d45a0     libvcruntime:frame.obj
 0002:000145c8       ??_R3bad_exception@std@@8  00000001800d45c8     libvcruntime:frame.obj
 0002:000145e0       ??_R2bad_exception@std@@8  00000001800d45e0     libvcruntime:frame.obj
 0002:000145f8       ??_R1A@?0A@EA@bad_exception@std@@8 00000001800d45f8     libvcruntime:frame.obj
 0002:00014620       ??_R3DNameNode@@8          00000001800d4620     libvcruntime:undname.obj
 0002:00014638       ??_R2DNameNode@@8          00000001800d4638     libvcruntime:undname.obj
 0002:00014648       ??_R1A@?0A@EA@DNameNode@@8 00000001800d4648     libvcruntime:undname.obj
 0002:00014670       ??_R4charNode@@6B@         00000001800d4670     libvcruntime:undname.obj
 0002:00014698       ??_R3charNode@@8           00000001800d4698     libvcruntime:undname.obj
 0002:000146b0       ??_R2charNode@@8           00000001800d46b0     libvcruntime:undname.obj
 0002:000146c8       ??_R1A@?0A@EA@charNode@@8  00000001800d46c8     libvcruntime:undname.obj
 0002:000146f0       ??_R4pcharNode@@6B@        00000001800d46f0     libvcruntime:undname.obj
 0002:00014718       ??_R3pcharNode@@8          00000001800d4718     libvcruntime:undname.obj
 0002:00014730       ??_R2pcharNode@@8          00000001800d4730     libvcruntime:undname.obj
 0002:00014748       ??_R1A@?0A@EA@pcharNode@@8 00000001800d4748     libvcruntime:undname.obj
 0002:00014770       ??_R4pDNameNode@@6B@       00000001800d4770     libvcruntime:undname.obj
 0002:00014798       ??_R3pDNameNode@@8         00000001800d4798     libvcruntime:undname.obj
 0002:000147b0       ??_R2pDNameNode@@8         00000001800d47b0     libvcruntime:undname.obj
 0002:000147c8       ??_R1A@?0A@EA@pDNameNode@@8 00000001800d47c8     libvcruntime:undname.obj
 0002:000147f0       ??_R4DNameStatusNode@@6B@  00000001800d47f0     libvcruntime:undname.obj
 0002:00014818       ??_R3DNameStatusNode@@8    00000001800d4818     libvcruntime:undname.obj
 0002:00014830       ??_R2DNameStatusNode@@8    00000001800d4830     libvcruntime:undname.obj
 0002:00014848       ??_R1A@?0A@EA@DNameStatusNode@@8 00000001800d4848     libvcruntime:undname.obj
 0002:00014870       ??_R4pairNode@@6B@         00000001800d4870     libvcruntime:undname.obj
 0002:00014898       ??_R3pairNode@@8           00000001800d4898     libvcruntime:undname.obj
 0002:000148b0       ??_R2pairNode@@8           00000001800d48b0     libvcruntime:undname.obj
 0002:000148c8       ??_R1A@?0A@EA@pairNode@@8  00000001800d48c8     libvcruntime:undname.obj
 0002:000148f0       ??_R2MyCompressCodecsInfo@@8 00000001800d48f0     archive.obj
 0002:00014930       ??_R2ComBase@@8            00000001800d4930     archive.obj
 0002:00014948       ??_R2IHashers@@8           00000001800d4948     archive.obj
 0002:00014960       ??_R2ICompressCodecsInfo@@8 00000001800d4960     archive.obj
 0002:00014978       ??_R2IUnknown@@8           00000001800d4978     archive.obj
 0002:00014988       ??_R1BA@?0A@EL@IUnknown@@8 00000001800d4988     archive.obj
 0002:000149b0       ??_R1BA@?0A@EN@ComBase@@8  00000001800d49b0     archive.obj
 0002:000149d8       ??_R17?0A@EC@IUnknown@@8   00000001800d49d8     archive.obj
 0002:00014a00       ??_R17?0A@EA@IHashers@@8   00000001800d4a00     archive.obj
 0002:00014a28       ??_R1A@?0A@EC@IUnknown@@8  00000001800d4a28     archive.obj
 0002:00014a50       ??_R1A@?0A@EA@MyCompressCodecsInfo@@8 00000001800d4a50     archive.obj
 0002:00014a78       ??_R1A@?0A@EA@ComBase@@8   00000001800d4a78     archive.obj
 0002:00014aa0       ??_R1A@?0A@EA@IHashers@@8  00000001800d4aa0     archive.obj
 0002:00014ac8       ??_R1A@?0A@EA@ICompressCodecsInfo@@8 00000001800d4ac8     archive.obj
 0002:00014af0       ??_R1A@?0A@EA@IUnknown@@8  00000001800d4af0     archive.obj
 0002:00014b18       ??_R3MyCompressCodecsInfo@@8 00000001800d4b18     archive.obj
 0002:00014b30       ??_R3ComBase@@8            00000001800d4b30     archive.obj
 0002:00014b48       ??_R3IHashers@@8           00000001800d4b48     archive.obj
 0002:00014b60       ??_R3ICompressCodecsInfo@@8 00000001800d4b60     archive.obj
 0002:00014b78       ??_R3IUnknown@@8           00000001800d4b78     archive.obj
 0002:00014b90       ??_R4MyCompressCodecsInfo@@6BComBase@@@ 00000001800d4b90     archive.obj
 0002:00014bb8       ??_R4MyCompressCodecsInfo@@6BIHashers@@@ 00000001800d4bb8     archive.obj
 0002:00014be0       ??_R4MyCompressCodecsInfo@@6BICompressCodecsInfo@@@ 00000001800d4be0     archive.obj
 0002:00014c08       ??_R4ComBase@@6B@          00000001800d4c08     archive.obj
 0002:00014c30       ??_R1A@?0A@EA@bad_array_new_length@std@@8 00000001800d4c30     archive.obj
 0002:00014c58       ??_R2bad_array_new_length@std@@8 00000001800d4c58     archive.obj
 0002:00014c78       ??_R3bad_array_new_length@std@@8 00000001800d4c78     archive.obj
 0002:00014c90       ??_R4bad_array_new_length@std@@6B@ 00000001800d4c90     archive.obj
 0002:00014cb8       ??_R1A@?0A@EA@bad_alloc@std@@8 00000001800d4cb8     archive.obj
 0002:00014ce0       ??_R2bad_alloc@std@@8      00000001800d4ce0     archive.obj
 0002:00014cf8       ??_R3bad_alloc@std@@8      00000001800d4cf8     archive.obj
 0002:00014d10       ??_R4bad_alloc@std@@6B@    00000001800d4d10     archive.obj
 0002:00014d38       ??_R1A@?0A@EA@exception@std@@8 00000001800d4d38     archive.obj
 0002:00014d60       ??_R2exception@std@@8      00000001800d4d60     archive.obj
 0002:00014d70       ??_R3exception@std@@8      00000001800d4d70     archive.obj
 0002:00014d88       ??_R4exception@std@@6B@    00000001800d4d88     archive.obj
 0002:00014dc8       ??_R2?$_Ref_count@V?$list@UError@@V?$allocator@UError@@@std@@@std@@@std@@8 00000001800d4dc8     plugin.obj
 0002:00014de0       ??_R2?$_Ref_count@VArchive@@@std@@8 00000001800d4de0     plugin.obj
 0002:00014df8       ??_R2PluginPanelItems@?1??extract@Plugin@@QEAAXXZ@8 00000001800d4df8     plugin.obj
 0002:00014e10       ??_R2PluginPanelItems@?1??get_files@Plugin@@QEAAXPEBUPluginPanelItem@@_JHPEAPEB_W_K@Z@8 00000001800d4e10     plugin.obj
 0002:00014e28       ??_R2PluginPanelItemAccessor@Plugin@@8 00000001800d4e28     plugin.obj
 0002:00014e60       ??_R1A@?0A@EA@?$_Ref_count@V?$list@UError@@V?$allocator@UError@@@std@@@std@@@std@@8 00000001800d4e60     plugin.obj
 0002:00014e88       ??_R2_Ref_count_base@std@@8 00000001800d4e88     plugin.obj
 0002:00014e98       ??_R3_Ref_count_base@std@@8 00000001800d4e98     plugin.obj
 0002:00014eb0       ??_R1A@?0A@EA@_Ref_count_base@std@@8 00000001800d4eb0     plugin.obj
 0002:00014ed8       ??_R1A@?0A@EA@?$_Ref_count@VArchive@@@std@@8 00000001800d4ed8     plugin.obj
 0002:00014f00       ??_R1A@?0A@EA@PluginPanelItems@?1??extract@Plugin@@QEAAXXZ@8 00000001800d4f00     plugin.obj
 0002:00014f28       ??_R1A@?0A@EA@PluginPanelItems@?1??get_files@Plugin@@QEAAXPEBUPluginPanelItem@@_JHPEAPEB_W_K@Z@8 00000001800d4f28     plugin.obj
 0002:00014f50       ??_R1A@?0A@EA@PluginPanelItemAccessor@Plugin@@8 00000001800d4f50     plugin.obj
 0002:00014f90       ??_R3?$_Ref_count@V?$list@UError@@V?$allocator@UError@@@std@@@std@@@std@@8 00000001800d4f90     plugin.obj
 0002:00014fa8       ??_R3?$_Ref_count@VArchive@@@std@@8 00000001800d4fa8     plugin.obj
 0002:00014fc0       ??_R3PluginPanelItems@?1??extract@Plugin@@QEAAXXZ@8 00000001800d4fc0     plugin.obj
 0002:00014fd8       ??_R3PluginPanelItems@?1??get_files@Plugin@@QEAAXPEBUPluginPanelItem@@_JHPEAPEB_W_K@Z@8 00000001800d4fd8     plugin.obj
 0002:00014ff0       ??_R3PluginPanelItemAccessor@Plugin@@8 00000001800d4ff0     plugin.obj
 0002:00015030       ??_R4?$_Ref_count@V?$list@UError@@V?$allocator@UError@@@std@@@std@@@std@@6B@ 00000001800d5030     plugin.obj
 0002:00015058       ??_R4?$_Ref_count@VArchive@@@std@@6B@ 00000001800d5058     plugin.obj
 0002:00015080       ??_R4PluginPanelItems@?1??extract@Plugin@@QEAAXXZ@6B@ 00000001800d5080     plugin.obj
 0002:000150a8       ??_R4PluginPanelItems@?1??get_files@Plugin@@QEAAXPEBUPluginPanelItem@@_JHPEAPEB_W_K@Z@6B@ 00000001800d50a8     plugin.obj
 0002:000150d0       ??_R2?$_Ref_count@VFileFilter@Far@@@std@@8 00000001800d50d0     ui.obj
 0002:000150e8       ??_R2?$numpunct@_W@std@@8  00000001800d50e8     ui.obj
 0002:00015110       ??_R2AttrDialog@@8         00000001800d5110     ui.obj
 0002:00015128       ??_R2SettingsDialog@@8     00000001800d5128     ui.obj
 0002:00015140       ??_R2FormatLibraryInfoDialog@@8 00000001800d5140     ui.obj
 0002:00015158       ??_R2MultiSelectDialog@@8  00000001800d5158     ui.obj
 0002:00015170       ??_R2UpdateDialog@@8       00000001800d5170     ui.obj
 0002:00015188       ??_R2?$num_put@_WV?$ostreambuf_iterator@_WU?$char_traits@_W@std@@@std@@@std@@8 00000001800d5188     ui.obj
 0002:000151b0       ??_R2ExtractDialog@@8      00000001800d51b0     ui.obj
 0002:000151c8       ??_R2OverwriteDialog@@8    00000001800d51c8     ui.obj
 0002:000151e0       ??_R2PasswordDialog@@8     00000001800d51e0     ui.obj
 0002:000151f8       ??_R2Dialog@Far@@8         00000001800d51f8     ui.obj
 0002:00015208       ??_R2ProgressMonitor@@8    00000001800d5208     ui.obj
 0002:00015220       ??_R2NonCopyable@@8        00000001800d5220     ui.obj
 0002:00015230       ??_R2?$basic_ostringstream@_WU?$char_traits@_W@std@@V?$allocator@_W@2@@std@@8 00000001800d5230     ui.obj
 0002:00015260       ??_R2?$basic_stringbuf@_WU?$char_traits@_W@std@@V?$allocator@_W@2@@std@@8 00000001800d5260     ui.obj
 0002:00015278       ??_R2?$basic_ostream@_WU?$char_traits@_W@std@@@std@@8 00000001800d5278     ui.obj
 0002:000152a0       ??_R2?$basic_streambuf@_WU?$char_traits@_W@std@@@std@@8 00000001800d52a0     ui.obj
 0002:000152b0       ??_R2?$basic_ios@_WU?$char_traits@_W@std@@@std@@8 00000001800d52b0     ui.obj
 0002:000152d0       ??_R1A@?0A@EA@?$_Ref_count@VFileFilter@Far@@@std@@8 00000001800d52d0     ui.obj
 0002:000152f8       ??_R1A@?0A@EA@?$numpunct@_W@std@@8 00000001800d52f8     ui.obj
 0002:00015320       ??_R1A@?0A@EA@AttrDialog@@8 00000001800d5320     ui.obj
 0002:00015348       ??_R1A@?0A@EA@SettingsDialog@@8 00000001800d5348     ui.obj
 0002:00015370       ??_R1A@?0A@EA@FormatLibraryInfoDialog@@8 00000001800d5370     ui.obj
 0002:00015398       ??_R1A@?0A@EA@MultiSelectDialog@@8 00000001800d5398     ui.obj
 0002:000153c0       ??_R1A@?0A@EA@UpdateDialog@@8 00000001800d53c0     ui.obj
 0002:000153e8       ??_R1A@?0A@EA@?$num_put@_WV?$ostreambuf_iterator@_WU?$char_traits@_W@std@@@std@@@std@@8 00000001800d53e8     ui.obj
 0002:00015410       ??_R1A@?0A@EA@ExtractDialog@@8 00000001800d5410     ui.obj
 0002:00015438       ??_R1A@?0A@EA@OverwriteDialog@@8 00000001800d5438     ui.obj
 0002:00015460       ??_R1A@?0A@EA@PasswordDialog@@8 00000001800d5460     ui.obj
 0002:00015488       ??_R1A@?0A@EA@Dialog@Far@@8 00000001800d5488     ui.obj
 0002:000154b0       ??_R1A@?0A@EA@ProgressMonitor@@8 00000001800d54b0     ui.obj
 0002:000154d8       ??_R17?0A@EN@NonCopyable@@8 00000001800d54d8     ui.obj
 0002:00015500       ??_R1A@?0A@EA@NonCopyable@@8 00000001800d5500     ui.obj
 0002:00015528       ??_R1A@?0A@EA@?$basic_ostringstream@_WU?$char_traits@_W@std@@V?$allocator@_W@2@@std@@8 00000001800d5528     ui.obj
 0002:00015550       ??_R1A@?0A@EA@?$basic_stringbuf@_WU?$char_traits@_W@std@@V?$allocator@_W@2@@std@@8 00000001800d5550     ui.obj
 0002:00015578       ??_R17A@3EA@?$_Iosb@H@std@@8 00000001800d5578     ui.obj
 0002:000155a0       ??_R1A@A@3EA@ios_base@std@@8 00000001800d55a0     ui.obj
 0002:000155c8       ??_R1A@A@3FA@?$basic_ios@_WU?$char_traits@_W@std@@@std@@8 00000001800d55c8     ui.obj
 0002:000155f0       ??_R1A@?0A@EA@?$basic_ostream@_WU?$char_traits@_W@std@@@std@@8 00000001800d55f0     ui.obj
 0002:00015618       ??_R1A@?0A@EA@?$basic_streambuf@_WU?$char_traits@_W@std@@@std@@8 00000001800d5618     ui.obj
 0002:00015640       ??_R1A@?0A@EA@?$basic_ios@_WU?$char_traits@_W@std@@@std@@8 00000001800d5640     ui.obj
 0002:00015668       ??_R3?$_Ref_count@VFileFilter@Far@@@std@@8 00000001800d5668     ui.obj
 0002:00015680       ??_R3?$numpunct@_W@std@@8  00000001800d5680     ui.obj
 0002:00015698       ??_R3AttrDialog@@8         00000001800d5698     ui.obj
 0002:000156b0       ??_R3SettingsDialog@@8     00000001800d56b0     ui.obj
 0002:000156c8       ??_R3FormatLibraryInfoDialog@@8 00000001800d56c8     ui.obj
 0002:000156e0       ??_R3MultiSelectDialog@@8  00000001800d56e0     ui.obj
 0002:000156f8       ??_R3UpdateDialog@@8       00000001800d56f8     ui.obj
 0002:00015710       ??_R3?$num_put@_WV?$ostreambuf_iterator@_WU?$char_traits@_W@std@@@std@@@std@@8 00000001800d5710     ui.obj
 0002:00015728       ??_R3ExtractDialog@@8      00000001800d5728     ui.obj
 0002:00015740       ??_R3OverwriteDialog@@8    00000001800d5740     ui.obj
 0002:00015758       ??_R3Dialog@Far@@8         00000001800d5758     ui.obj
 0002:00015770       ??_R3PasswordDialog@@8     00000001800d5770     ui.obj
 0002:00015788       ??_R3ProgressMonitor@@8    00000001800d5788     ui.obj
 0002:000157a0       ??_R3NonCopyable@@8        00000001800d57a0     ui.obj
 0002:000157b8       ??_R3?$basic_ostringstream@_WU?$char_traits@_W@std@@V?$allocator@_W@2@@std@@8 00000001800d57b8     ui.obj
 0002:000157d0       ??_R3?$basic_stringbuf@_WU?$char_traits@_W@std@@V?$allocator@_W@2@@std@@8 00000001800d57d0     ui.obj
 0002:000157e8       ??_R3?$basic_ostream@_WU?$char_traits@_W@std@@@std@@8 00000001800d57e8     ui.obj
 0002:00015800       ??_R3?$basic_streambuf@_WU?$char_traits@_W@std@@@std@@8 00000001800d5800     ui.obj
 0002:00015818       ??_R3?$basic_ios@_WU?$char_traits@_W@std@@@std@@8 00000001800d5818     ui.obj
 0002:00015830       ??_R4?$_Ref_count@VFileFilter@Far@@@std@@6B@ 00000001800d5830     ui.obj
 0002:00015858       ??_R4?$numpunct@_W@std@@6B@ 00000001800d5858     ui.obj
 0002:00015880       ??_R4AttrDialog@@6B@       00000001800d5880     ui.obj
 0002:000158a8       ??_R4SettingsDialog@@6B@   00000001800d58a8     ui.obj
 0002:000158d0       ??_R4FormatLibraryInfoDialog@@6B@ 00000001800d58d0     ui.obj
 0002:000158f8       ??_R4MultiSelectDialog@@6B@ 00000001800d58f8     ui.obj
 0002:00015920       ??_R4UpdateDialog@@6B@     00000001800d5920     ui.obj
 0002:00015948       ??_R4?$num_put@_WV?$ostreambuf_iterator@_WU?$char_traits@_W@std@@@std@@@std@@6B@ 00000001800d5948     ui.obj
 0002:00015970       ??_R4ExtractDialog@@6B@    00000001800d5970     ui.obj
 0002:00015998       ??_R4OverwriteDialog@@6B@  00000001800d5998     ui.obj
 0002:000159c0       ??_R4PasswordDialog@@6B@   00000001800d59c0     ui.obj
 0002:000159e8       ??_R4ProgressMonitor@@6B@  00000001800d59e8     ui.obj
 0002:00015a10       ??_R4?$basic_ostringstream@_WU?$char_traits@_W@std@@V?$allocator@_W@2@@std@@6B@ 00000001800d5a10     ui.obj
 0002:00015a38       ??_R4?$basic_stringbuf@_WU?$char_traits@_W@std@@V?$allocator@_W@2@@std@@6B@ 00000001800d5a38     ui.obj
 0002:00015a60       ??_R4?$basic_ostream@_WU?$char_traits@_W@std@@@std@@6B@ 00000001800d5a60     ui.obj
 0002:00015a88       ??_R4?$basic_streambuf@_WU?$char_traits@_W@std@@@std@@6B@ 00000001800d5a88     ui.obj
 0002:00015ab0       ??_R4?$basic_ios@_WU?$char_traits@_W@std@@@std@@6B@ 00000001800d5ab0     ui.obj
 0002:00015ad8       ??_R1A@?0A@EA@?$ctype@_W@std@@8 00000001800d5ad8     ui.obj
 0002:00015b00       ??_R2ctype_base@std@@8     00000001800d5b00     ui.obj
 0002:00015b28       ??_R3ctype_base@std@@8     00000001800d5b28     ui.obj
 0002:00015b40       ??_R1A@?0A@EA@ctype_base@std@@8 00000001800d5b40     ui.obj
 0002:00015b68       ??_R2?$ctype@_W@std@@8     00000001800d5b68     ui.obj
 0002:00015b98       ??_R3?$ctype@_W@std@@8     00000001800d5b98     ui.obj
 0002:00015bb0       ??_R4?$ctype@_W@std@@6B@   00000001800d5bb0     ui.obj
 0002:00015bd8       ??_R1A@?0A@EA@bad_cast@std@@8 00000001800d5bd8     ui.obj
 0002:00015c00       ??_R2bad_cast@std@@8       00000001800d5c00     ui.obj
 0002:00015c18       ??_R3bad_cast@std@@8       00000001800d5c18     ui.obj
 0002:00015c30       ??_R4bad_cast@std@@6B@     00000001800d5c30     ui.obj
 0002:00015c58       ??_R1A@?0A@EA@_Iostream_error_category@std@@8 00000001800d5c58     ui.obj
 0002:00015c80       ??_R2_Generic_error_category@std@@8 00000001800d5c80     ui.obj
 0002:00015c98       ??_R3_Generic_error_category@std@@8 00000001800d5c98     ui.obj
 0002:00015cb0       ??_R1A@?0A@EA@_Generic_error_category@std@@8 00000001800d5cb0     ui.obj
 0002:00015cd8       ??_R2error_category@std@@8 00000001800d5cd8     ui.obj
 0002:00015ce8       ??_R3error_category@std@@8 00000001800d5ce8     ui.obj
 0002:00015d00       ??_R1A@?0A@EA@error_category@std@@8 00000001800d5d00     ui.obj
 0002:00015d28       ??_R2_Iostream_error_category@std@@8 00000001800d5d28     ui.obj
 0002:00015d48       ??_R3_Iostream_error_category@std@@8 00000001800d5d48     ui.obj
 0002:00015d60       ??_R4_Iostream_error_category@std@@6B@ 00000001800d5d60     ui.obj
 0002:00015d88       ??_R1A@?0A@EA@failure@ios_base@std@@8 00000001800d5d88     ui.obj
 0002:00015db0       ??_R2failure@ios_base@std@@8 00000001800d5db0     ui.obj
 0002:00015de0       ??_R3failure@ios_base@std@@8 00000001800d5de0     ui.obj
 0002:00015df8       ??_R4failure@ios_base@std@@6B@ 00000001800d5df8     ui.obj
 0002:00015e20       ??_R1A@?0A@EA@system_error@std@@8 00000001800d5e20     ui.obj
 0002:00015e48       ??_R2system_error@std@@8   00000001800d5e48     ui.obj
 0002:00015e70       ??_R3system_error@std@@8   00000001800d5e70     ui.obj
 0002:00015e88       ??_R4system_error@std@@6B@ 00000001800d5e88     ui.obj
 0002:00015eb0       ??_R1A@?0A@EA@_System_error@std@@8 00000001800d5eb0     ui.obj
 0002:00015ed8       ??_R2_System_error@std@@8  00000001800d5ed8     ui.obj
 0002:00015ef8       ??_R3_System_error@std@@8  00000001800d5ef8     ui.obj
 0002:00015f10       ??_R4_System_error@std@@6B@ 00000001800d5f10     ui.obj
 0002:00015f38       ??_R1A@?0A@EA@runtime_error@std@@8 00000001800d5f38     ui.obj
 0002:00015f60       ??_R2runtime_error@std@@8  00000001800d5f60     ui.obj
 0002:00015f78       ??_R3runtime_error@std@@8  00000001800d5f78     ui.obj
 0002:00015f90       ??_R4runtime_error@std@@6B@ 00000001800d5f90     ui.obj
 0002:00015fb8       ??_R1A@?0A@EA@facet@locale@std@@8 00000001800d5fb8     ui.obj
 0002:00015fe0       ??_R1A@?0A@EA@_Crt_new_delete@std@@8 00000001800d5fe0     ui.obj
 0002:00016008       ??_R2_Crt_new_delete@std@@8 00000001800d6008     ui.obj
 0002:00016018       ??_R3_Crt_new_delete@std@@8 00000001800d6018     ui.obj
 0002:00016030       ??_R17?0A@EA@_Crt_new_delete@std@@8 00000001800d6030     ui.obj
 0002:00016058       ??_R2facet@locale@std@@8   00000001800d6058     ui.obj
 0002:00016078       ??_R3facet@locale@std@@8   00000001800d6078     ui.obj
 0002:00016090       ??_R1A@?0A@EA@ios_base@std@@8 00000001800d6090     ui.obj
 0002:000160b8       ??_R1A@?0A@EA@?$_Iosb@H@std@@8 00000001800d60b8     ui.obj
 0002:000160e0       ??_R2?$_Iosb@H@std@@8      00000001800d60e0     ui.obj
 0002:000160f0       ??_R3?$_Iosb@H@std@@8      00000001800d60f0     ui.obj
 0002:00016108       ??_R17?0A@EA@?$_Iosb@H@std@@8 00000001800d6108     ui.obj
 0002:00016130       ??_R2ios_base@std@@8       00000001800d6130     ui.obj
 0002:00016148       ??_R3ios_base@std@@8       00000001800d6148     ui.obj
 0002:00016160       ??_R4ios_base@std@@6B@     00000001800d6160     ui.obj
 0002:00016188       ??_R1A@?0A@EA@_Facet_base@std@@8 00000001800d6188     ui.obj
 0002:000161b0       ??_R2_Facet_base@std@@8    00000001800d61b0     ui.obj
 0002:000161c0       ??_R3_Facet_base@std@@8    00000001800d61c0     ui.obj
 0002:000161d8       ??_R4_Facet_base@std@@6B@  00000001800d61d8     ui.obj
 0002:00016200       ??_R2?$_Ref_count@V?$set@IU?$less@I@std@@V?$allocator@I@2@@std@@@std@@8 00000001800d6200     extract.obj
 0002:00016218       ??_R2?$_Ref_count@VFileWriteCache@@@std@@8 00000001800d6218     extract.obj
 0002:00016230       ??_R2?$_Ref_count@VExtractProgress@@@std@@8 00000001800d6230     extract.obj
 0002:00016248       ??_R2?$_Ref_count@W4OverwriteAction@@@std@@8 00000001800d6248     extract.obj
 0002:00016260       ??_R2?$_Ref_count@_N@std@@8 00000001800d6260     extract.obj
 0002:00016278       ??_R2SetDirAttr@@8         00000001800d6278     extract.obj
 0002:00016298       ??_R2PrepareExtract@@8     00000001800d6298     extract.obj
 0002:000162c0       ??_R2ArchiveExtractor@@8   00000001800d62c0     extract.obj
 0002:00016308       ??_R2CachedFileExtractStream@@8 00000001800d6308     extract.obj
 0002:00016338       ??_R2ExtractProgress@@8    00000001800d6338     extract.obj
 0002:00016358       ??_R2ICryptoGetTextPassword@@8 00000001800d6358     extract.obj
 0002:00016370       ??_R2IArchiveExtractCallback@@8 00000001800d6370     extract.obj
 0002:00016390       ??_R2ISequentialOutStream@@8 00000001800d6390     extract.obj
 0002:000163a8       ??_R2IProgress@@8          00000001800d63a8     extract.obj
 0002:000163c0       ??_R1A@?0A@EA@?$_Ref_count@V?$set@IU?$less@I@std@@V?$allocator@I@2@@std@@@std@@8 00000001800d63c0     extract.obj
 0002:000163e8       ??_R1A@?0A@EA@?$_Ref_count@VFileWriteCache@@@std@@8 00000001800d63e8     extract.obj
 0002:00016410       ??_R1A@?0A@EA@?$_Ref_count@VExtractProgress@@@std@@8 00000001800d6410     extract.obj
 0002:00016438       ??_R1A@?0A@EA@?$_Ref_count@W4OverwriteAction@@@std@@8 00000001800d6438     extract.obj
 0002:00016460       ??_R1A@?0A@EA@?$_Ref_count@_N@std@@8 00000001800d6460     extract.obj
 0002:00016488       ??_R1A@?0A@EA@SetDirAttr@@8 00000001800d6488     extract.obj
 0002:000164b0       ??_R1A@?0A@EA@PrepareExtract@@8 00000001800d64b0     extract.obj
 0002:000164d8       ??_R1BA@?0A@EC@IUnknown@@8 00000001800d64d8     extract.obj
 0002:00016500       ??_R1BA@?0A@EA@ComBase@@8  00000001800d6500     extract.obj
 0002:00016528       ??_R17?0A@EA@ICryptoGetTextPassword@@8 00000001800d6528     extract.obj
 0002:00016550       ??_R1A@?0A@EA@ArchiveExtractor@@8 00000001800d6550     extract.obj
 0002:00016578       ??_R17?0A@EA@ComBase@@8    00000001800d6578     extract.obj
 0002:000165a0       ??_R1A@?0A@EA@CachedFileExtractStream@@8 00000001800d65a0     extract.obj
 0002:000165c8       ??_R1A@?0A@EA@ExtractProgress@@8 00000001800d65c8     extract.obj
 0002:000165f0       ??_R1A@?0A@EA@ICryptoGetTextPassword@@8 00000001800d65f0     extract.obj
 0002:00016618       ??_R1A@?0A@EA@IArchiveExtractCallback@@8 00000001800d6618     extract.obj
 0002:00016640       ??_R1A@?0A@EA@ISequentialOutStream@@8 00000001800d6640     extract.obj
 0002:00016668       ??_R1A@?0A@EA@IProgress@@8 00000001800d6668     extract.obj
 0002:00016690       ??_R3?$_Ref_count@V?$set@IU?$less@I@std@@V?$allocator@I@2@@std@@@std@@8 00000001800d6690     extract.obj
 0002:000166a8       ??_R3?$_Ref_count@VFileWriteCache@@@std@@8 00000001800d66a8     extract.obj
 0002:000166c0       ??_R3?$_Ref_count@VExtractProgress@@@std@@8 00000001800d66c0     extract.obj
 0002:000166d8       ??_R3?$_Ref_count@W4OverwriteAction@@@std@@8 00000001800d66d8     extract.obj
 0002:000166f0       ??_R3?$_Ref_count@_N@std@@8 00000001800d66f0     extract.obj
 0002:00016708       ??_R3SetDirAttr@@8         00000001800d6708     extract.obj
 0002:00016720       ??_R3PrepareExtract@@8     00000001800d6720     extract.obj
 0002:00016738       ??_R3ArchiveExtractor@@8   00000001800d6738     extract.obj
 0002:00016750       ??_R3CachedFileExtractStream@@8 00000001800d6750     extract.obj
 0002:00016768       ??_R3ExtractProgress@@8    00000001800d6768     extract.obj
 0002:00016780       ??_R3ICryptoGetTextPassword@@8 00000001800d6780     extract.obj
 0002:00016798       ??_R3IArchiveExtractCallback@@8 00000001800d6798     extract.obj
 0002:000167b0       ??_R3ISequentialOutStream@@8 00000001800d67b0     extract.obj
 0002:000167c8       ??_R3IProgress@@8          00000001800d67c8     extract.obj
 0002:000167e0       ??_R4?$_Ref_count@V?$set@IU?$less@I@std@@V?$allocator@I@2@@std@@@std@@6B@ 00000001800d67e0     extract.obj
 0002:00016808       ??_R4?$_Ref_count@VFileWriteCache@@@std@@6B@ 00000001800d6808     extract.obj
 0002:00016830       ??_R4?$_Ref_count@VExtractProgress@@@std@@6B@ 00000001800d6830     extract.obj
 0002:00016858       ??_R4?$_Ref_count@W4OverwriteAction@@@std@@6B@ 00000001800d6858     extract.obj
 0002:00016880       ??_R4?$_Ref_count@_N@std@@6B@ 00000001800d6880     extract.obj
 0002:000168a8       ??_R4SetDirAttr@@6B@       00000001800d68a8     extract.obj
 0002:000168d0       ??_R4PrepareExtract@@6B@   00000001800d68d0     extract.obj
 0002:000168f8       ??_R4ArchiveExtractor@@6BComBase@@@ 00000001800d68f8     extract.obj
 0002:00016920       ??_R4ArchiveExtractor@@6BICryptoGetTextPassword@@@ 00000001800d6920     extract.obj
 0002:00016948       ??_R4ArchiveExtractor@@6BIArchiveExtractCallback@@@ 00000001800d6948     extract.obj
 0002:00016970       ??_R4CachedFileExtractStream@@6BComBase@@@ 00000001800d6970     extract.obj
 0002:00016998       ??_R4CachedFileExtractStream@@6BISequentialOutStream@@@ 00000001800d6998     extract.obj
 0002:000169c0       ??_R4ExtractProgress@@6B@  00000001800d69c0     extract.obj
 0002:000169e8       ??_R4ICryptoGetTextPassword@@6B@ 00000001800d69e8     extract.obj
 0002:00016a10       ??_R4IArchiveExtractCallback@@6B@ 00000001800d6a10     extract.obj
 0002:00016a38       ??_R1A@?0A@EA@bad_weak_ptr@std@@8 00000001800d6a38     extract.obj
 0002:00016a60       ??_R2bad_weak_ptr@std@@8   00000001800d6a60     extract.obj
 0002:00016a78       ??_R3bad_weak_ptr@std@@8   00000001800d6a78     extract.obj
 0002:00016a90       ??_R4bad_weak_ptr@std@@6B@ 00000001800d6a90     extract.obj
 0002:00016ac0       ??_R2ArchiveOpener@@8      00000001800d6ac0     open.obj
 0002:00016b20       ??_R2ArchiveOpenStream@@8  00000001800d6b20     open.obj
 0002:00016b68       ??_R2File@@8               00000001800d6b68     open.obj
 0002:00016b80       ??_R2ArchiveSubStream@@8   00000001800d6b80     open.obj
 0002:00016bb8       ??_R2IArchiveOpenVolumeCallback@@8 00000001800d6bb8     open.obj
 0002:00016bd0       ??_R2IArchiveOpenCallback@@8 00000001800d6bd0     open.obj
 0002:00016be8       ??_R2IInStream@@8          00000001800d6be8     open.obj
 0002:00016c08       ??_R2ISequentialInStream@@8 00000001800d6c08     open.obj
 0002:00016c20       ??_R1DA@?0A@EN@NonCopyable@@8 00000001800d6c20     open.obj
 0002:00016c48       ??_R1CI@?0A@EA@ProgressMonitor@@8 00000001800d6c48     open.obj
 0002:00016c70       ??_R1BI@?0A@EC@IUnknown@@8 00000001800d6c70     open.obj
 0002:00016c98       ??_R1BI@?0A@EA@ComBase@@8  00000001800d6c98     open.obj
 0002:00016cc0       ??_R1BA@?0A@EA@ICryptoGetTextPassword@@8 00000001800d6cc0     open.obj
 0002:00016ce8       ??_R17?0A@EA@IArchiveOpenVolumeCallback@@8 00000001800d6ce8     open.obj
 0002:00016d10       ??_R1A@?0A@EA@ArchiveOpener@@8 00000001800d6d10     open.obj
 0002:00016d38       ??_R1BI@?0A@EN@NonCopyable@@8 00000001800d6d38     open.obj
 0002:00016d60       ??_R1BI@?0A@EN@File@@8     00000001800d6d60     open.obj
 0002:00016d88       ??_R1A@?0A@EA@ArchiveOpenStream@@8 00000001800d6d88     open.obj
 0002:00016db0       ??_R1A@?0A@EN@NonCopyable@@8 00000001800d6db0     open.obj
 0002:00016dd8       ??_R1A@?0A@EA@File@@8      00000001800d6dd8     open.obj
 0002:00016e00       ??_R17?0A@EL@IUnknown@@8   00000001800d6e00     open.obj
 0002:00016e28       ??_R17?0A@EN@ComBase@@8    00000001800d6e28     open.obj
 0002:00016e50       ??_R1A@?0A@EA@ArchiveSubStream@@8 00000001800d6e50     open.obj
 0002:00016e78       ??_R1A@?0A@EA@IArchiveOpenVolumeCallback@@8 00000001800d6e78     open.obj
 0002:00016ea0       ??_R1A@?0A@EA@IArchiveOpenCallback@@8 00000001800d6ea0     open.obj
 0002:00016ec8       ??_R1A@?0A@EA@IInStream@@8 00000001800d6ec8     open.obj
 0002:00016ef0       ??_R1A@?0A@EA@ISequentialInStream@@8 00000001800d6ef0     open.obj
 0002:00016f18       ??_R3ArchiveOpener@@8      00000001800d6f18     open.obj
 0002:00016f30       ??_R3File@@8               00000001800d6f30     open.obj
 0002:00016f48       ??_R3ArchiveOpenStream@@8  00000001800d6f48     open.obj
 0002:00016f60       ??_R3ArchiveSubStream@@8   00000001800d6f60     open.obj
 0002:00016f78       ??_R3IArchiveOpenVolumeCallback@@8 00000001800d6f78     open.obj
 0002:00016f90       ??_R3IArchiveOpenCallback@@8 00000001800d6f90     open.obj
 0002:00016fa8       ??_R3IInStream@@8          00000001800d6fa8     open.obj
 0002:00016fc0       ??_R3ISequentialInStream@@8 00000001800d6fc0     open.obj
 0002:00016fd8       ??_R4ArchiveOpener@@6BProgressMonitor@@@ 00000001800d6fd8     open.obj
 0002:00017000       ??_R4ArchiveOpener@@6BComBase@@@ 00000001800d7000     open.obj
 0002:00017028       ??_R4ArchiveOpener@@6BICryptoGetTextPassword@@@ 00000001800d7028     open.obj
 0002:00017050       ??_R4ArchiveOpener@@6BIArchiveOpenVolumeCallback@@@ 00000001800d7050     open.obj
 0002:00017078       ??_R4ArchiveOpener@@6BIArchiveOpenCallback@@@ 00000001800d7078     open.obj
 0002:000170a0       ??_R4ArchiveOpenStream@@6BComBase@@@ 00000001800d70a0     open.obj
 0002:000170c8       ??_R4ArchiveOpenStream@@6BIInStream@@@ 00000001800d70c8     open.obj
 0002:000170f0       ??_R4ArchiveSubStream@@6BComBase@@@ 00000001800d70f0     open.obj
 0002:00017118       ??_R4ArchiveSubStream@@6BIInStream@@@ 00000001800d7118     open.obj
 0002:00017140       ??_R4IArchiveOpenVolumeCallback@@6B@ 00000001800d7140     open.obj
 0002:00017168       ??_R4IArchiveOpenCallback@@6B@ 00000001800d7168     open.obj
 0002:00017190       ??_R2?$_Ref_count@VArchiveUpdateProgress@@@std@@8 00000001800d7190     update.obj
 0002:000171a8       ??_R2?$_Ref_count@V?$map@IUFileIndexInfo@@U?$less@I@std@@V?$allocator@U?$pair@$$CBIUFileIndexInfo@@@std@@@3@@std@@@std@@8 00000001800d71a8     update.obj
 0002:000171c0       ??_R2DeleteSrcFiles@@8     00000001800d71c0     update.obj
 0002:000171e0       ??_R2ArchiveUpdater@@8     00000001800d71e0     update.obj
 0002:00017228       ??_R2PrepareUpdate@@8      00000001800d7228     update.obj
 0002:00017250       ??_R2FileReadStream@@8     00000001800d7250     update.obj
 0002:000172a8       ??_R2MultiVolumeUpdateStream@@8 00000001800d72a8     update.obj
 0002:000172f0       ??_R2SfxUpdateStream@@8    00000001800d72f0     update.obj
 0002:00017340       ??_R2SimpleUpdateStream@@8 00000001800d7340     update.obj
 0002:00017390       ??_R2UpdateStream@@8       00000001800d7390     update.obj
 0002:000173b8       ??_R2ArchiveUpdateProgress@@8 00000001800d73b8     update.obj
 0002:000173d8       ??_R2ICryptoGetTextPassword2@@8 00000001800d73d8     update.obj
 0002:000173f0       ??_R2IArchiveUpdateCallback@@8 00000001800d73f0     update.obj
 0002:00017410       ??_R2IStreamGetSize@@8     00000001800d7410     update.obj
 0002:00017428       ??_R2IOutStream@@8         00000001800d7428     update.obj
 0002:00017448       ??_R1A@?0A@EA@?$_Ref_count@VArchiveUpdateProgress@@@std@@8 00000001800d7448     update.obj
 0002:00017470       ??_R1A@?0A@EA@?$_Ref_count@V?$map@IUFileIndexInfo@@U?$less@I@std@@V?$allocator@U?$pair@$$CBIUFileIndexInfo@@@std@@@3@@std@@@std@@8 00000001800d7470     update.obj
 0002:00017498       ??_R1A@?0A@EA@DeleteSrcFiles@@8 00000001800d7498     update.obj
 0002:000174c0       ??_R17?0A@EA@ICryptoGetTextPassword2@@8 00000001800d74c0     update.obj
 0002:000174e8       ??_R1A@?0A@EA@ArchiveUpdater@@8 00000001800d74e8     update.obj
 0002:00017510       ??_R1A@?0A@EN@ProgressMonitor@@8 00000001800d7510     update.obj
 0002:00017538       ??_R1A@?0A@EA@PrepareUpdate@@8 00000001800d7538     update.obj
 0002:00017560       ??_R1CA@?0A@EN@NonCopyable@@8 00000001800d7560     update.obj
 0002:00017588       ??_R1CA@?0A@EN@File@@8     00000001800d7588     update.obj
 0002:000175b0       ??_R17?0A@EA@IStreamGetSize@@8 00000001800d75b0     update.obj
 0002:000175d8       ??_R1A@?0A@EA@FileReadStream@@8 00000001800d75d8     update.obj
 0002:00017600       ??_R1A@?0A@EA@MultiVolumeUpdateStream@@8 00000001800d7600     update.obj
 0002:00017628       ??_R1A@?0A@EA@SfxUpdateStream@@8 00000001800d7628     update.obj
 0002:00017650       ??_R1CI@?0A@EN@NonCopyable@@8 00000001800d7650     update.obj
 0002:00017678       ??_R1CI@?0A@EN@File@@8     00000001800d7678     update.obj
 0002:000176a0       ??_R1A@?0A@EA@SimpleUpdateStream@@8 00000001800d76a0     update.obj
 0002:000176c8       ??_R1A@?0A@EA@UpdateStream@@8 00000001800d76c8     update.obj
 0002:000176f0       ??_R1A@?0A@EA@ArchiveUpdateProgress@@8 00000001800d76f0     update.obj
 0002:00017718       ??_R1A@?0A@EA@ICryptoGetTextPassword2@@8 00000001800d7718     update.obj
 0002:00017740       ??_R1A@?0A@EA@IArchiveUpdateCallback@@8 00000001800d7740     update.obj
 0002:00017768       ??_R1A@?0A@EA@IStreamGetSize@@8 00000001800d7768     update.obj
 0002:00017790       ??_R1A@?0A@EA@IOutStream@@8 00000001800d7790     update.obj
 0002:000177b8       ??_R3?$_Ref_count@VArchiveUpdateProgress@@@std@@8 00000001800d77b8     update.obj
 0002:000177d0       ??_R3?$_Ref_count@V?$map@IUFileIndexInfo@@U?$less@I@std@@V?$allocator@U?$pair@$$CBIUFileIndexInfo@@@std@@@3@@std@@@std@@8 00000001800d77d0     update.obj
 0002:000177e8       ??_R3DeleteSrcFiles@@8     00000001800d77e8     update.obj
 0002:00017800       ??_R3ArchiveUpdater@@8     00000001800d7800     update.obj
 0002:00017818       ??_R3PrepareUpdate@@8      00000001800d7818     update.obj
 0002:00017830       ??_R3FileReadStream@@8     00000001800d7830     update.obj
 0002:00017848       ??_R3MultiVolumeUpdateStream@@8 00000001800d7848     update.obj
 0002:00017860       ??_R3SfxUpdateStream@@8    00000001800d7860     update.obj
 0002:00017878       ??_R3SimpleUpdateStream@@8 00000001800d7878     update.obj
 0002:00017890       ??_R3UpdateStream@@8       00000001800d7890     update.obj
 0002:000178a8       ??_R3ArchiveUpdateProgress@@8 00000001800d78a8     update.obj
 0002:000178c0       ??_R3ICryptoGetTextPassword2@@8 00000001800d78c0     update.obj
 0002:000178d8       ??_R3IArchiveUpdateCallback@@8 00000001800d78d8     update.obj
 0002:000178f0       ??_R3IStreamGetSize@@8     00000001800d78f0     update.obj
 0002:00017908       ??_R3IOutStream@@8         00000001800d7908     update.obj
 0002:00017920       ??_R4?$_Ref_count@VArchiveUpdateProgress@@@std@@6B@ 00000001800d7920     update.obj
 0002:00017948       ??_R4?$_Ref_count@V?$map@IUFileIndexInfo@@U?$less@I@std@@V?$allocator@U?$pair@$$CBIUFileIndexInfo@@@std@@@3@@std@@@std@@6B@ 00000001800d7948     update.obj
 0002:00017970       ??_R4DeleteSrcFiles@@6B@   00000001800d7970     update.obj
 0002:00017998       ??_R4ArchiveUpdater@@6BComBase@@@ 00000001800d7998     update.obj
 0002:000179c0       ??_R4ArchiveUpdater@@6BICryptoGetTextPassword2@@@ 00000001800d79c0     update.obj
 0002:000179e8       ??_R4ArchiveUpdater@@6BIArchiveUpdateCallback@@@ 00000001800d79e8     update.obj
 0002:00017a10       ??_R4PrepareUpdate@@6B@    00000001800d7a10     update.obj
 0002:00017a38       ??_R4FileReadStream@@6BComBase@@@ 00000001800d7a38     update.obj
 0002:00017a60       ??_R4FileReadStream@@6BIStreamGetSize@@@ 00000001800d7a60     update.obj
 0002:00017a88       ??_R4FileReadStream@@6BIInStream@@@ 00000001800d7a88     update.obj
 0002:00017ab0       ??_R4MultiVolumeUpdateStream@@6BComBase@@@ 00000001800d7ab0     update.obj
 0002:00017ad8       ??_R4MultiVolumeUpdateStream@@6BUpdateStream@@@ 00000001800d7ad8     update.obj
 0002:00017b00       ??_R4SfxUpdateStream@@6BComBase@@@ 00000001800d7b00     update.obj
 0002:00017b28       ??_R4SfxUpdateStream@@6BUpdateStream@@@ 00000001800d7b28     update.obj
 0002:00017b50       ??_R4SimpleUpdateStream@@6BComBase@@@ 00000001800d7b50     update.obj
 0002:00017b78       ??_R4SimpleUpdateStream@@6BUpdateStream@@@ 00000001800d7b78     update.obj
 0002:00017ba0       ??_R4UpdateStream@@6B@     00000001800d7ba0     update.obj
 0002:00017bc8       ??_R4ArchiveUpdateProgress@@6B@ 00000001800d7bc8     update.obj
 0002:00017bf0       ??_R2?$_Ref_count@VArchiveFileDeleterProgress@@@std@@8 00000001800d7bf0     delete.obj
 0002:00017c08       ??_R2ArchiveFileDeleter@@8 00000001800d7c08     delete.obj
 0002:00017c40       ??_R2ArchiveFileDeleterStream@@8 00000001800d7c40     delete.obj
 0002:00017c88       ??_R2ArchiveFileDeleterProgress@@8 00000001800d7c88     delete.obj
 0002:00017ca8       ??_R1A@?0A@EA@?$_Ref_count@VArchiveFileDeleterProgress@@@std@@8 00000001800d7ca8     delete.obj
 0002:00017cd0       ??_R1A@?0A@EA@ArchiveFileDeleter@@8 00000001800d7cd0     delete.obj
 0002:00017cf8       ??_R1A@?0A@EA@ArchiveFileDeleterStream@@8 00000001800d7cf8     delete.obj
 0002:00017d20       ??_R1A@?0A@EA@ArchiveFileDeleterProgress@@8 00000001800d7d20     delete.obj
 0002:00017d48       ??_R3?$_Ref_count@VArchiveFileDeleterProgress@@@std@@8 00000001800d7d48     delete.obj
 0002:00017d60       ??_R3ArchiveFileDeleter@@8 00000001800d7d60     delete.obj
 0002:00017d78       ??_R3ArchiveFileDeleterStream@@8 00000001800d7d78     delete.obj
 0002:00017d90       ??_R3ArchiveFileDeleterProgress@@8 00000001800d7d90     delete.obj
 0002:00017da8       ??_R4?$_Ref_count@VArchiveFileDeleterProgress@@@std@@6B@ 00000001800d7da8     delete.obj
 0002:00017dd0       ??_R4ArchiveFileDeleter@@6BComBase@@@ 00000001800d7dd0     delete.obj
 0002:00017df8       ??_R4ArchiveFileDeleter@@6BIArchiveUpdateCallback@@@ 00000001800d7df8     delete.obj
 0002:00017e20       ??_R4ArchiveFileDeleterStream@@6BComBase@@@ 00000001800d7e20     delete.obj
 0002:00017e48       ??_R4ArchiveFileDeleterStream@@6BIOutStream@@@ 00000001800d7e48     delete.obj
 0002:00017e70       ??_R4ArchiveFileDeleterProgress@@6B@ 00000001800d7e70     delete.obj
 0002:00017e98       ??_R2xml_parser@@8         00000001800d7e98     options.obj
 0002:00017eb0       ??_R2IParseCallback@SimpleXML@@8 00000001800d7eb0     options.obj
 0002:00017ec0       ??_R1A@?0A@EA@xml_parser@@8 00000001800d7ec0     options.obj
 0002:00017ee8       ??_R1A@?0A@EA@IParseCallback@SimpleXML@@8 00000001800d7ee8     options.obj
 0002:00017f10       ??_R3xml_parser@@8         00000001800d7f10     options.obj
 0002:00017f28       ??_R3IParseCallback@SimpleXML@@8 00000001800d7f28     options.obj
 0002:00017f40       ??_R4xml_parser@@6B@       00000001800d7f40     options.obj
 0002:00017f68       ??_R4IParseCallback@SimpleXML@@6B@ 00000001800d7f68     options.obj
 0002:00017f90       ??_R2ArchiveTester@@8      00000001800d7f90     test.obj
 0002:00017fe8       ??_R1CA@?0A@EA@ProgressMonitor@@8 00000001800d7fe8     test.obj
 0002:00018010       ??_R1A@?0A@EA@ArchiveTester@@8 00000001800d8010     test.obj
 0002:00018038       ??_R3ArchiveTester@@8      00000001800d8038     test.obj
 0002:00018050       ??_R4ArchiveTester@@6BProgressMonitor@@@ 00000001800d8050     test.obj
 0002:00018078       ??_R4ArchiveTester@@6BComBase@@@ 00000001800d8078     test.obj
 0002:000180a0       ??_R4ArchiveTester@@6BICryptoGetTextPassword@@@ 00000001800d80a0     test.obj
 0002:000180c8       ??_R4ArchiveTester@@6BIArchiveExtractCallback@@@ 00000001800d80c8     test.obj
 0002:000180f0       ??_R2SfxOptionsDialog@@8   00000001800d80f0     sfx.obj
 0002:00018108       ??_R2AttachSfxModuleProgress@@8 00000001800d8108     sfx.obj
 0002:00018128       ??_R1A@?0A@EA@SfxOptionsDialog@@8 00000001800d8128     sfx.obj
 0002:00018150       ??_R1A@?0A@EA@AttachSfxModuleProgress@@8 00000001800d8150     sfx.obj
 0002:00018178       ??_R3SfxOptionsDialog@@8   00000001800d8178     sfx.obj
 0002:00018190       ??_R3AttachSfxModuleProgress@@8 00000001800d8190     sfx.obj
 0002:000181a8       ??_R4SfxOptionsDialog@@6B@ 00000001800d81a8     sfx.obj
 0002:000181d0       ??_R4AttachSfxModuleProgress@@6B@ 00000001800d81d0     sfx.obj
 0002:000181f8       ??_R4Dialog@Far@@6B@       00000001800d81f8     farutils.obj
 0002:00018220       ??_R2CriticalSection@@8    00000001800d8220     sysutils.obj
 0002:00018240       ??_R2_RTL_CRITICAL_SECTION@@8 00000001800d8240     sysutils.obj
 0002:00018250       ??_R17?0A@EN@_RTL_CRITICAL_SECTION@@8 00000001800d8250     sysutils.obj
 0002:00018278       ??_R1A@?0A@EA@CriticalSection@@8 00000001800d8278     sysutils.obj
 0002:000182a0       ??_R1A@?0A@EA@_RTL_CRITICAL_SECTION@@8 00000001800d82a0     sysutils.obj
 0002:000182c8       ??_R3_RTL_CRITICAL_SECTION@@8 00000001800d82c8     sysutils.obj
 0002:000182e0       ??_R3CriticalSection@@8    00000001800d82e0     sysutils.obj
 0002:000182f8       ??_R4CriticalSection@@6B@  00000001800d82f8     sysutils.obj
 0002:00018648       __rtc_iaa                  00000001800d8648     LIBCMT:initsect.obj
 0002:00018650       __rtc_izz                  00000001800d8650     LIBCMT:initsect.obj
 0002:00018658       __rtc_taa                  00000001800d8658     LIBCMT:initsect.obj
 0002:00018660       __rtc_tzz                  00000001800d8660     LIBCMT:initsect.obj
 0002:000267a8       _TI2?AVbad_alloc@std@@     00000001800e67a8     libcpmt:xthrow.obj
 0002:000267c8       _CTA2?AVbad_alloc@std@@    00000001800e67c8     libcpmt:xthrow.obj
 0002:000267e0       _CT??_R0?AVlogic_error@std@@@8??0logic_error@std@@QEAA@AEBV01@@Z24 00000001800e67e0     libcpmt:xthrow.obj
 0002:00026808       _TI3?AVlength_error@std@@  00000001800e6808     libcpmt:xthrow.obj
 0002:00026828       _CTA3?AVlength_error@std@@ 00000001800e6828     libcpmt:xthrow.obj
 0002:00026848       _CT??_R0?AVlength_error@std@@@8??0length_error@std@@QEAA@AEBV01@@Z24 00000001800e6848     libcpmt:xthrow.obj
 0002:00026870       _TI3?AVout_of_range@std@@  00000001800e6870     libcpmt:xthrow.obj
 0002:00026890       _CTA3?AVout_of_range@std@@ 00000001800e6890     libcpmt:xthrow.obj
 0002:000268b0       _CT??_R0?AVout_of_range@std@@@8??0out_of_range@std@@QEAA@AEBV01@@Z24 00000001800e68b0     libcpmt:xthrow.obj
 0002:000268d8       _TI2?AVruntime_error@std@@ 00000001800e68d8     libcpmt:xthrow.obj
 0002:000268f8       _CTA2?AVruntime_error@std@@ 00000001800e68f8     libcpmt:xthrow.obj
 0002:00026910       _TI3?AV__non_rtti_object@std@@ 00000001800e6910     libvcruntime:rtti.obj
 0002:00026930       _CTA3?AV__non_rtti_object@std@@ 00000001800e6930     libvcruntime:rtti.obj
 0002:00026950       _CT??_R0?AV__non_rtti_object@std@@@8??0__non_rtti_object@std@@QEAA@AEBV01@@Z24 00000001800e6950     libvcruntime:rtti.obj
 0002:00026978       _CT??_R0?AVbad_typeid@std@@@8??0bad_typeid@std@@QEAA@AEBV01@@Z24 00000001800e6978     libvcruntime:rtti.obj
 0002:000269a0       _TI2?AVbad_typeid@std@@    00000001800e69a0     libvcruntime:rtti.obj
 0002:000269c0       _CTA2?AVbad_typeid@std@@   00000001800e69c0     libvcruntime:rtti.obj
 0002:000269d8       _TI2?AVbad_exception@std@@ 00000001800e69d8     libvcruntime:frame.obj
 0002:000269f8       _CTA2?AVbad_exception@std@@ 00000001800e69f8     libvcruntime:frame.obj
 0002:00026a10       _CT??_R0?AVbad_exception@std@@@8??0bad_exception@std@@QEAA@AEBV01@@Z24 00000001800e6a10     libvcruntime:frame.obj
 0002:00026a38       _CTA1?AUError@@            00000001800e6a38     archive.obj
 0002:00026a48       _CT??_R0?AUError@@@8??0Error@@QEAA@AEBU0@@Z72 00000001800e6a48     archive.obj
 0002:00026a70       _TI1?AUError@@             00000001800e6a70     archive.obj
 0002:00026a90       _CT??_R0?AVbad_array_new_length@std@@@8??0bad_array_new_length@std@@QEAA@AEBV01@@Z24 00000001800e6a90     archive.obj
 0002:00026ab8       _CT??_R0?AVbad_alloc@std@@@8??0bad_alloc@std@@QEAA@AEBV01@@Z24 00000001800e6ab8     archive.obj
 0002:00026ae0       _CT??_R0?AVexception@std@@@8??0exception@std@@QEAA@AEBV01@@Z24 00000001800e6ae0     archive.obj
 0002:00026b08       _CTA3?AVbad_array_new_length@std@@ 00000001800e6b08     archive.obj
 0002:00026b28       _TI3?AVbad_array_new_length@std@@ 00000001800e6b28     archive.obj
 0002:00026b48       _CT??_R0?AVbad_cast@std@@@8??0bad_cast@std@@QEAA@AEBV01@@Z24 00000001800e6b48     ui.obj
 0002:00026b70       _CTA2?AVbad_cast@std@@     00000001800e6b70     ui.obj
 0002:00026b88       _TI2?AVbad_cast@std@@      00000001800e6b88     ui.obj
 0002:00026ba8       _CT??_R0?AVfailure@ios_base@std@@@8??0failure@ios_base@std@@QEAA@AEBV012@@Z40 00000001800e6ba8     ui.obj
 0002:00026bd0       _CT??_R0?AVsystem_error@std@@@8??0system_error@std@@QEAA@AEBV01@@Z40 00000001800e6bd0     ui.obj
 0002:00026bf8       _CT??_R0?AV_System_error@std@@@8??0_System_error@std@@QEAA@AEBV01@@Z40 00000001800e6bf8     ui.obj
 0002:00026c20       _CT??_R0?AVruntime_error@std@@@8??0runtime_error@std@@QEAA@AEBV01@@Z24 00000001800e6c20     ui.obj
 0002:00026c48       _CTA5?AVfailure@ios_base@std@@ 00000001800e6c48     ui.obj
 0002:00026c78       _TI5?AVfailure@ios_base@std@@ 00000001800e6c78     ui.obj
 0002:00026c98       _CT??_R0?AVbad_weak_ptr@std@@@8??0bad_weak_ptr@std@@QEAA@AEBV01@@Z24 00000001800e6c98     extract.obj
 0002:00026cc0       _CTA2?AVbad_weak_ptr@std@@ 00000001800e6cc0     extract.obj
 0002:00026cd8       _TI2?AVbad_weak_ptr@std@@  00000001800e6cd8     extract.obj
 0002:00026cf8       _CTA1?AVParseException@SimpleXML@@ 00000001800e6cf8     SimpleXML.obj
 0002:00026d08       _CT??_R0?AVParseException@SimpleXML@@@816 00000001800e6d08     SimpleXML.obj
 0002:00026d30       _TI1?AVParseException@SimpleXML@@ 00000001800e6d30     SimpleXML.obj
 0002:00026f3c       __IMPORT_DESCRIPTOR_USER32 00000001800e6f3c     user32:USER32.dll
 0002:00026f50       __IMPORT_DESCRIPTOR_ADVAPI32 00000001800e6f50     advapi32:ADVAPI32.dll
 0002:00026f64       __IMPORT_DESCRIPTOR_ole32  00000001800e6f64     ole32:ole32.dll
 0002:00026f78       __IMPORT_DESCRIPTOR_OLEAUT32 00000001800e6f78     oleaut32:OLEAUT32.dll
 0002:00026f8c       __IMPORT_DESCRIPTOR_VERSION 00000001800e6f8c     version:VERSION.dll
 0002:00026fa0       __IMPORT_DESCRIPTOR_KERNEL32 00000001800e6fa0     kernel32:KERNEL32.dll
 0002:00026fb4       __NULL_IMPORT_DESCRIPTOR   00000001800e6fb4     user32:USER32.dll
 0003:00000000       ?_Sync@ios_base@std@@0_NA  00000001800e8000     libcpmt:ios.obj
 0003:00000010       __scrt_native_dllmain_reason 00000001800e8010     LIBCMT:utility.obj
 0003:00000018       __security_cookie_complement 00000001800e8018     LIBCMT:gs_cookie.obj
 0003:00000020       __security_cookie          00000001800e8020     LIBCMT:gs_cookie.obj
 0003:00000028       _fltused                   00000001800e8028     LIBCMT:fltused.obj
 0003:00000030       __isa_available            00000001800e8030     LIBCMT:cpu_disp.obj
 0003:00000034       __isa_enabled              00000001800e8034     LIBCMT:cpu_disp.obj
 0003:00000038       __memcpy_nt_iters          00000001800e8038     LIBCMT:cpu_disp.obj
 0003:00000040       __memset_nt_iters          00000001800e8040     LIBCMT:cpu_disp.obj
 0003:00000060       __acrt_lconv_c             00000001800e8060     libucrt:localeconv.obj
 0003:000000f8       __acrt_lconv               00000001800e80f8     libucrt:localeconv.obj
 0003:00000100       __acrt_lconv_static_decimal 00000001800e8100     libucrt:localeconv.obj
 0003:00000104       __acrt_lconv_static_W_decimal 00000001800e8104     libucrt:localeconv.obj
 0003:00000110       _pctype                    00000001800e8110     libucrt:ctype.obj
 0003:00000118       _pwctype                   00000001800e8118     libucrt:ctype.obj
 0003:00000120       __abort_behavior           00000001800e8120     libucrt:abort.obj
 0003:00000140       __acrt_initial_locale_data 00000001800e8140     libucrt:nlsdata.obj
 0003:00000298       __acrt_initial_locale_pointers 00000001800e8298     libucrt:nlsdata.obj
 0003:000002a8       __acrt_wide_c_locale_string 00000001800e82a8     libucrt:nlsdata.obj
 0003:000002ac       __mb_cur_max               00000001800e82ac     libucrt:nlsdata.obj
 0003:000002b0       _iob                       00000001800e82b0     libucrt:_file.obj
 0003:000003bc       __globallocalestatus       00000001800e83bc     libucrt:glstatus.obj
 0003:00000450       __acrt_initial_multibyte_data 00000001800e8450     libucrt:mbctype.obj
 0003:00000990       _lookuptrailbytes          00000001800e8990     libucrt:read.obj
 0003:00000aa0       ?g_detect_next_time@@3W4TriState@@A 00000001800e8aa0     plugin.obj
 0003:00000aa8       ?c_methods@@3PAPEB_WA      00000001800e8aa8     cmdline.obj
 0003:00000ac0       ?g_plugin_prefix@@3V?$basic_string@_WU?$char_traits@_W@std@@V?$allocator@_W@2@@std@@A 00000001800e8ac0     plugin.obj
 0003:00001250       ??_R0?AVlogic_error@std@@@8 00000001800e9250     libcpmt:xthrow.obj
 0003:00001278       ??_R0?AVlength_error@std@@@8 00000001800e9278     libcpmt:xthrow.obj
 0003:000012a0       ??_R0?AVout_of_range@std@@@8 00000001800e92a0     libcpmt:xthrow.obj
 0003:000012c8       ??_R0?AV_Locimp@locale@std@@@8 00000001800e92c8     libcpmt:locale0.obj
 0003:000012f8       ??_R0?AVtype_info@@@8      00000001800e92f8     LIBCMT:std_type_info_static.obj
 0003:00001318       ??_R0?AV__non_rtti_object@std@@@8 00000001800e9318     libvcruntime:rtti.obj
 0003:00001348       ??_R0?AVbad_typeid@std@@@8 00000001800e9348     libvcruntime:rtti.obj
 0003:00001370       ??_R0?AVbad_exception@std@@@8 00000001800e9370     libvcruntime:frame.obj
 0003:00001398       ??_R0?AVDNameNode@@@8      00000001800e9398     libvcruntime:undname.obj
 0003:000013b8       ??_R0?AVcharNode@@@8       00000001800e93b8     libvcruntime:undname.obj
 0003:000013d8       ??_R0?AVpcharNode@@@8      00000001800e93d8     libvcruntime:undname.obj
 0003:000013f8       ??_R0?AVpDNameNode@@@8     00000001800e93f8     libvcruntime:undname.obj
 0003:00001420       ??_R0?AVDNameStatusNode@@@8 00000001800e9420     libvcruntime:undname.obj
 0003:00001448       ??_R0?AVpairNode@@@8       00000001800e9448     libvcruntime:undname.obj
 0003:00001468       ??_R0?AVMyCompressCodecsInfo@@@8 00000001800e9468     archive.obj
 0003:00001498       ??_R0?AVComBase@@@8        00000001800e9498     archive.obj
 0003:000014b8       ??_R0?AUIHashers@@@8       00000001800e94b8     archive.obj
 0003:000014d8       ??_R0?AUICompressCodecsInfo@@@8 00000001800e94d8     archive.obj
 0003:00001508       ??_R0?AUIUnknown@@@8       00000001800e9508     archive.obj
 0003:00001528       ??_R0?AUError@@@8          00000001800e9528     archive.obj
 0003:00001548       ??_R0?AVbad_array_new_length@std@@@8 00000001800e9548     archive.obj
 0003:00001578       ??_R0?AVbad_alloc@std@@@8  00000001800e9578     archive.obj
 0003:000015a0       ??_R0?AVexception@std@@@8  00000001800e95a0     archive.obj
 0003:000015c8       ??_R0?AV_Ref_count_base@std@@@8 00000001800e95c8     plugin.obj
 0003:00001670       ??_R0?AV?$_Ref_count@V?$list@UError@@V?$allocator@UError@@@std@@@std@@@std@@@8 00000001800e9670     plugin.obj
 0003:000016d0       ??_R0?AV?$_Ref_count@VArchive@@@std@@@8 00000001800e96d0     plugin.obj
 0003:00001710       ??_R0?AVPluginPanelItems@?1??extract@Plugin@@QEAAXXZ@@8 00000001800e9710     plugin.obj
 0003:00001760       ??_R0?AVPluginPanelItems@?1??get_files@Plugin@@QEAAXPEBUPluginPanelItem@@_JHPEAPEB_W_K@Z@@8 00000001800e9760     plugin.obj
 0003:000017c8       ??_R0?AVPluginPanelItemAccessor@Plugin@@@8 00000001800e97c8     plugin.obj
