 ProcList

 Timestamp is 60492380 (Wed Mar 10 19:52:32 2021)

 Preferred load address is 0000000180000000

 Start         Length     Name                   Class
 0001:00000000 00000008H .CRT$XCA                CODE
 0001:00000008 00000018H .CRT$XCC                CODE
 0001:00000020 00000010H .CRT$XCL                CODE
 0001:00000030 00000018H .CRT$XCU                CODE
 0001:00000048 00000008H .CRT$XCZ                CODE
 0001:00000050 00000008H .CRT$XIA                CODE
 0001:00000058 00000030H .CRT$XIC                CODE
 0001:00000088 00000008H .CRT$XIZ                CODE
 0001:00000090 00000008H .CRT$XPA                CODE
 0001:00000098 00000010H .CRT$XPX                CODE
 0001:000000a8 00000008H .CRT$XPXA               CODE
 0001:000000b0 00000008H .CRT$XPZ                CODE
 0001:000000b8 00000008H .CRT$XTA                CODE
 0001:000000c0 00000010H .CRT$XTZ                CODE
 0001:000000c8 00000000H .gfids$y                CODE
 0001:000000d0 00011b88H .rdata                  CODE
 0001:00011c58 000007f4H .rdata$r                CODE
 0001:0001244c 0000032cH .rdata$zzzdbg           CODE
 0001:00012778 00000008H .rtc$IAA                CODE
 0001:00012780 00000008H .rtc$IZZ                CODE
 0001:00012788 00000008H .rtc$TAA                CODE
 0001:00012790 00000010H .rtc$TZZ                CODE
 0001:000127a0 00000090H .text$di                CODE
 0001:00012830 00045e80H .text$mn                CODE
 0001:000586b0 00000020H .text$mn$00             CODE
 0001:000586d0 00001640H .text$x                 CODE
 0001:00059d10 00000210H .text$yd                CODE
 0001:00059f20 000041c8H .xdata                  CODE
 0001:0005e0e8 000003d8H .xdata$x                CODE
 0001:0005e4c0 00000192H .edata                  CODE
 0002:00000000 00000d30H .data                   DATA
 0002:00000d30 000003d0H .data$r                 DATA
 0002:00001100 00003184H .bss                    DATA
 0003:00000000 000030b4H .pdata                  DATA
 0004:00000000 000004a0H .idata$5                DATA
 0004:000004a0 00000010H .00cfg                  DATA
 0004:000004b0 000000a0H .idata$2                DATA
 0004:00000550 00000018H .idata$3                DATA
 0004:00000568 000004a0H .idata$4                DATA
 0004:00000a08 00000a6eH .idata$6                DATA
 0005:00000000 00000094H _RDATA                  DATA
 0006:00000000 00000060H .rsrc$01                DATA
 0006:00000060 00000378H .rsrc$02                DATA

  Address         Publics by Value              Rva+Base               Lib:Object

 0000:00000000       __hybrid_code_map          0000000000000000     <absolute>
 0000:00000000       __hybrid_code_map_count    0000000000000000     <absolute>
 0000:00000000       __guard_fids_count         0000000000000000     <absolute>
 0000:00000000       __volatile_metadata        0000000000000000     <absolute>
 0000:00000000       __guard_longjmp_count      0000000000000000     <absolute>
 0000:00000000       __guard_longjmp_table      0000000000000000     <absolute>
 0000:00000000       __guard_iat_count          0000000000000000     <absolute>
 0000:00000000       __guard_iat_table          0000000000000000     <absolute>
 0000:00000000       ___safe_se_handler_count   0000000000000000     <absolute>
 0000:00000000       __enclave_config           0000000000000000     <absolute>
 0000:00000000       __AbsoluteZero             0000000000000000     <absolute>
 0000:00000000       ___safe_se_handler_table   0000000000000000     <absolute>
 0000:00000000       __guard_fids_table         0000000000000000     <absolute>
 0000:00000000       __hybrid_auxiliary_iat     0000000000000000     <absolute>
 0000:00000000       __dynamic_value_reloc_table 0000000000000000     <absolute>
 0000:00000100       __guard_flags              0000000000000100     <absolute>
 0000:00000000       __ImageBase                0000000180000000     <linker-defined>
 0001:00000000       __xc_a                     0000000180001000     LIBCMT:initializers.obj
 0001:00000048       __xc_z                     0000000180001048     LIBCMT:initializers.obj
 0001:00000050       __xi_a                     0000000180001050     LIBCMT:initializers.obj
 0001:00000068       __acrt_stdio_initializer   0000000180001068     libucrt:stdio_initializer.obj
 0001:00000070       __acrt_tran_fma3_initializer 0000000180001070     libucrt:fma3_initializer.obj
 0001:00000078       __acrt_timeset_initializer 0000000180001078     libucrt:timeset_initializer.obj
 0001:00000080       __acrt_multibyte_initializer 0000000180001080     libucrt:multibyte_initializer.obj
 0001:00000088       __xi_z                     0000000180001088     LIBCMT:initializers.obj
 0001:00000090       __xp_a                     0000000180001090     LIBCMT:initializers.obj
 0001:00000098       __acrt_locale_terminator   0000000180001098     libucrt:locale_initializer.obj
 0001:000000a0       __dcrt_console_output_terminator 00000001800010a0     libucrt:console_output_initializer.obj
 0001:000000a8       __acrt_stdio_terminator    00000001800010a8     libucrt:stdio_initializer.obj
 0001:000000b0       __xp_z                     00000001800010b0     LIBCMT:initializers.obj
 0001:000000b8       __xt_a                     00000001800010b8     LIBCMT:initializers.obj
 0001:000000c0       __xt_z                     00000001800010c0     LIBCMT:initializers.obj
 0001:000000d0       ?powers_of_10_64@?$basic_data@X@detail@v7@fmt@@2QB_KB 00000001800010d0     format.obj
 0001:00000170       ?zero_or_powers_of_10_32@?$basic_data@X@detail@v7@fmt@@2QBIB 0000000180001170     format.obj
 0001:000001a0       ?zero_or_powers_of_10_64@?$basic_data@X@detail@v7@fmt@@2QB_KB 00000001800011a0     format.obj
 0001:00000250       ?grisu_pow10_significands@?$basic_data@X@detail@v7@fmt@@2QB_KB 0000000180001250     format.obj
 0001:00000510       ?grisu_pow10_exponents@?$basic_data@X@detail@v7@fmt@@2QBFB 0000000180001510     format.obj
 0001:000005c0       ?divtest_table_for_pow5_32@?$basic_data@X@detail@v7@fmt@@2QBU?$divtest_table_entry@I@234@B 00000001800015c0     format.obj
 0001:00000620       ?divtest_table_for_pow5_64@?$basic_data@X@detail@v7@fmt@@2QBU?$divtest_table_entry@_K@234@B 0000000180001620     format.obj
 0001:000007a0       ?dragonbox_pow10_significands_64@?$basic_data@X@detail@v7@fmt@@2QB_KB 00000001800017a0     format.obj
 0001:00000a10       ?powers_of_5_64@?$basic_data@X@detail@v7@fmt@@2QB_KB 0000000180001a10     format.obj
 0001:00000af0       ?dragonbox_pow10_recovery_errors@?$basic_data@X@detail@v7@fmt@@2QBIB 0000000180001af0     format.obj
 0001:00000b90       ?digits@?$basic_data@X@detail@v7@fmt@@2QAY01$$CBDA 0000000180001b90     format.obj
 0001:00000c58       ?hex_digits@?$basic_data@X@detail@v7@fmt@@2QBDB 0000000180001c58     format.obj
 0001:00000c6c       ?signs@?$basic_data@X@detail@v7@fmt@@2QBDB 0000000180001c6c     format.obj
 0001:00000c70       ?left_padding_shifts@?$basic_data@X@detail@v7@fmt@@2QBDB 0000000180001c70     format.obj
 0001:00000c78       ?right_padding_shifts@?$basic_data@X@detail@v7@fmt@@2QBDB 0000000180001c78     format.obj
 0001:00000c80       ??_C@_0BC@EOODALEL@Unknown?5exception@ 0000000180001c80     format.obj
 0001:00000c98       ??_C@_0BF@KINCDENJ@bad?5array?5new?5length@ 0000000180001c98     format.obj
 0001:00000cb0       ??_C@_08EPJLHIJG@bad?5cast@ 0000000180001cb0     format.obj
 0001:00000cb9       ??_C@_00CNPNBAHC@@         0000000180001cb9     format.obj
 0001:00000cc0       ??_C@_0BA@ELKIONDK@bad?5locale?5name@ 0000000180001cc0     format.obj
 0001:00000cd0       ??_C@_05LAPONLG@false@     0000000180001cd0     format.obj
 0001:00000cd8       ??_C@_04LOAJBDKD@true@     0000000180001cd8     format.obj
 0001:00000ce0       ??_7format_error@v7@fmt@@6B@ 0000000180001ce0     format.obj
 0001:00000cf0       ?data@?1??bsr2log10@detail@v7@fmt@@YAGH@Z@4QBGB 0000000180001cf0     format.obj
 0001:00000d70       ??_7?$basic_memory_buffer@_W$0BPE@V?$allocator@_W@std@@@v7@fmt@@6B@ 0000000180001d70     format.obj
 0001:00000d78       ??_7?$basic_memory_buffer@D$0BPE@V?$allocator@D@std@@@v7@fmt@@6B@ 0000000180001d78     format.obj
 0001:00000d80       ??_7?$basic_memory_buffer@I$0CA@V?$allocator@I@std@@@v7@fmt@@6B@ 0000000180001d80     format.obj
 0001:00000d88       ??_C@_0BD@DBEDGLNA@argument?5not?5found@ 0000000180001d88     format.obj
 0001:00000da0       ??_C@_0BA@JFNIOLAK@string?5too?5long@ 0000000180001da0     format.obj
 0001:00000db0       ??_C@_0BP@NMGMJOEM@unmatched?5?8?$HN?8?5in?5format?5string@ 0000000180001db0     format.obj
 0001:00000dd0       ??_C@_0BG@PEJKJNLA@invalid?5format?5string@ 0000000180001dd0     format.obj
 0001:00000de8       ??_C@_0BJ@JNDNOEDN@unknown?5format?5specifier@ 0000000180001de8     format.obj
 0001:00000e08       ??_C@_0BN@JNLAGDD@missing?5?8?$HN?8?5in?5format?5string@ 0000000180001e08     format.obj
 0001:00000e28       ??_C@_0DJ@LMIJFHJI@cannot?5switch?5from?5automatic?5to@ 0000000180001e28     format.obj
 0001:00000e68       ??_C@_0BL@KNEDAEPA@invalid?5fill?5character?5?8?$HL?8@ 0000000180001e68     format.obj
 0001:00000e88       ??_C@_0CL@CFEEEDMP@format?5specifier?5requires?5numer@ 0000000180001e88     format.obj
 0001:00000eb8       ??_C@_0BC@MDEIBHGE@number?5is?5too?5big@ 0000000180001eb8     format.obj
 0001:00000ed0       ??_C@_0BH@CIKPCHEG@invalid?5type?5specifier@ 0000000180001ed0     format.obj
 0001:00000ee8       ??_C@_0CK@IBNNAPH@format?5specifier?5requires?5signe@ 0000000180001ee8     format.obj
 0001:00000f18       ??_C@_0N@EFEDKJEI@invalid?5fill@ 0000000180001f18     format.obj
 0001:00000f28       ??_C@_0DJ@GHJONFIH@cannot?5switch?5from?5manual?5to?5au@ 0000000180001f28     format.obj
 0001:00000f68       ??_C@_0BH@IEEDMHI@string?5pointer?5is?5null@ 0000000180001f68     format.obj
 0001:00000f80       ??_C@_0CC@ELFJMMCC@invalid?5format?5specifier?5for?5ch@ 0000000180001f80     format.obj
 0001:00000fa8       ??_C@_0BM@IEKLBNBK@missing?5precision?5specifier@ 0000000180001fa8     format.obj
 0001:00000fc8       ??_C@_0CN@KMEDLGAJ@precision?5not?5allowed?5for?5this?5@ 0000000180001fc8     format.obj
 0001:00000ff8       ??_C@_03OEIAHPBN@INF@      0000000180001ff8     format.obj
 0001:00000ffc       ??_C@_03OJHLLCGB@inf@      0000000180001ffc     format.obj
 0001:00001000       ??_C@_03LKNCIKJB@NAN@      0000000180002000     format.obj
 0001:00001004       ??_C@_03LHCJEHON@nan@      0000000180002004     format.obj
 0001:00001008       ??_C@_0BB@JGGOGLEG@0123456789ABCDEF@ 0000000180002008     format.obj
 0001:00001020       ??_C@_0BD@PKKFPMLC@negative?5precision@ 0000000180002020     format.obj
 0001:00001038       ??_C@_0P@DAPDPGEO@negative?5width@ 0000000180002038     format.obj
 0001:00001048       ??_C@_0BJ@KKLAKOOL@precision?5is?5not?5integer@ 0000000180002048     format.obj
 0001:00001068       ??_C@_0BF@KEAPHPPE@width?5is?5not?5integer@ 0000000180002068     format.obj
 0001:00001080       __xmm@80000000000000008000000000000000 0000000180002080     format.obj
 0001:00001090       __xmm@80000000800000008000000080000000 0000000180002090     format.obj
 0001:000010c8       ??_C@_11LOCGONAA@@         00000001800020c8     handles.obj
 0001:000010d0       ??_C@_1BA@NMDNJJOO@?$AAP?$AAr?$AAo?$AAc?$AAe?$AAs?$AAs@ 00000001800020d0     handles.obj
 0001:000010e0       ??_C@_1O@CDOGJPJJ@?$AAT?$AAh?$AAr?$AAe?$AAa?$AAd@ 00000001800020e0     handles.obj
 0001:000010f0       ??_C@_17KACEIPNC@?$AAK?$AAe?$AAy@ 00000001800020f0     handles.obj
 0001:000010f8       ??_C@_19DDLLJDOO@?$AAF?$AAi?$AAl?$AAe@ 00000001800020f8     handles.obj
 0001:00001108       ??_C@_1O@ECECHNAE@?$AA?$DM?$AAp?$AAi?$AAp?$AAe?$AA?$DO@ 0000000180002108     handles.obj
 0001:00001118       ??_C@_1BE@FGECLHKD@?$AA?$HL?$AA0?$AA?$HN?$AA?5?$AA?$CI?$AA?$HL?$AA1?$AA?$HN?$AA?$CJ@ 0000000180002118     handles.obj
 0001:00001130       ??_C@_1BC@HBCEGEJN@?$AAT?$AAI?$AAD?$AA?3?$AA?5?$AA?$HL?$AA0?$AA?$HN@ 0000000180002130     handles.obj
 0001:00001148       ??_C@_1BE@ELICABCK@?$AA?$DM?$AAu?$AAn?$AAk?$AAn?$AAo?$AAw?$AAn?$AA?$DO@ 0000000180002148     handles.obj
 0001:00001160       ??_C@_1DC@OIDKFHBF@?$AAM?$AAA?$AAC?$AAH?$AAI?$AAN?$AAE?$AA?2?$AAS?$AAO?$AAF?$AAT?$AAW?$AAA?$AAR@ 0000000180002160     handles.obj
 0001:00001198       ??_C@_19DIHHCHDI@?$AAH?$AAK?$AAU?$AA?2@ 0000000180002198     handles.obj
 0001:000011a8       ??_C@_19JAPAIJDE@?$AAH?$AAK?$AAC?$AAU@ 00000001800021a8     handles.obj
 0001:000011b8       ??_C@_1BK@OEABCBLA@?$AAH?$AAK?$AAC?$AAU?$AA?2?$AAC?$AAl?$AAa?$AAs?$AAs?$AAe?$AAs@ 00000001800021b8     handles.obj
 0001:000011d8       ??_C@_17PJOJPMPB@?$AAH?$AAK?$AAU@ 00000001800021d8     handles.obj
 0001:000011e0       ??_C@_19NCHLBIN@?$AAH?$AAK?$AAC?$AAR@ 00000001800021e0     handles.obj
 0001:000011f0       ??_C@_19PEALEEJB@?$AAH?$AAK?$AAL?$AAM@ 00000001800021f0     handles.obj
 0001:00001200       ??_C@_1DM@NGIMPLFP@?$AA?6?$AA?$HL?$AA0?$AA?$HN?$AA?3?$AA?6?$AA?$HL?$AA1?$AA?3?$AA6?$AA?$HN?$AA?5?$AA?$HL?$AA2?$AA?3@ 0000000180002200     handles.obj
 0001:00001240       ??_C@_1DG@HOLPNCNP@?$AA?$HL?$AA0?$AA?3?$AA6?$AAX?$AA?$HN?$AA?5?$AA?$HL?$AA1?$AA?3?$AA0?$AA8?$AAX?$AA?$HN?$AA?5@ 0000000180002240     handles.obj
 0001:00001278       ??_7PluginCheckBoxBinding@@6B@ 0000000180002278     Pcfg.obj
 0001:00001288       ??_C@_1O@BJPKKLLM@?$AAC?$AAo?$AAn?$AAf?$AAi?$AAg@ 0000000180002288     Pcfg.obj
 0001:00001298       ??_C@_1BO@NGDOFANC@?$AAA?$AAd?$AAd?$AAT?$AAo?$AAD?$AAi?$AAs?$AAk?$AAs?$AAM?$AAe?$AAn?$AAu@ 0000000180002298     Pcfg.obj
 0001:000012b8       ??_C@_1CC@PNNAOHJC@?$AAA?$AAd?$AAd?$AAT?$AAo?$AAP?$AAl?$AAu?$AAg?$AAi?$AAn?$AAs?$AAM?$AAe?$AAn@ 00000001800022b8     Pcfg.obj
 0001:000012e0       ??_C@_1CE@JIPJNDMD@?$AAE?$AAx?$AAp?$AAo?$AAr?$AAt?$AAE?$AAn?$AAv?$AAi?$AAr?$AAo?$AAn?$AAm?$AAe@ 00000001800022e0     Pcfg.obj
 0001:00001308       ??_C@_1CC@OABICAMP@?$AAE?$AAx?$AAp?$AAo?$AAr?$AAt?$AAM?$AAo?$AAd?$AAu?$AAl?$AAe?$AAI?$AAn?$AAf@ 0000000180002308     Pcfg.obj
 0001:00001330       ??_C@_1CI@OFLGHPDG@?$AAE?$AAx?$AAp?$AAo?$AAr?$AAt?$AAM?$AAo?$AAd?$AAu?$AAl?$AAe?$AAV?$AAe?$AAr@ 0000000180002330     Pcfg.obj
 0001:00001358       ??_C@_1CE@GNMOKOAL@?$AAE?$AAx?$AAp?$AAo?$AAr?$AAt?$AAP?$AAe?$AAr?$AAf?$AAo?$AAr?$AAm?$AAa?$AAn@ 0000000180002358     Pcfg.obj
 0001:00001380       ??_C@_1BM@KMCHODLM@?$AAE?$AAx?$AAp?$AAo?$AAr?$AAt?$AAH?$AAa?$AAn?$AAd?$AAl?$AAe?$AAs@ 0000000180002380     Pcfg.obj
 0001:000013a0       ??_C@_1CK@CLFOOHFA@?$AAE?$AAx?$AAp?$AAo?$AAr?$AAt?$AAH?$AAa?$AAn?$AAd?$AAl?$AAe?$AAs?$AAU?$AAn@ 00000001800023a0     Pcfg.obj
 0001:000013d0       ??_C@_1BE@PKILIDFH@?$AAE?$AAn?$AAa?$AAb?$AAl?$AAe?$AAW?$AAM?$AAI@ 00000001800023d0     Pcfg.obj
 0001:000013f0       __xmm@00000000000000020000000000000000 00000001800023f0     Pcfg.obj
 0001:00001400       __xmm@ffffffffffffffffffffffffffffffff 0000000180002400     Pcfg.obj
 0001:00001410       ??_7PluginEditFieldBinding@@6B@ 0000000180002410     Pclass.obj
 0001:00001420       ??_C@_1BK@GMMKGKID@?$AA?$HL?$AA0?$AA?$HN?$AA?4?$AA?$HL?$AA1?$AA?3?$AA0?$AA?$HL?$AA2?$AA?$HN?$AA?$HN@ 0000000180002420     Pclass.obj
 0001:00001440       ??_C@_1BA@BHJJFMCM@?$AAB?$AAK?$AAM?$AAG?$AAT?$AAP?$AAE@ 0000000180002440     Pclass.obj
 0001:00001450       ??_C@_1BC@HGOMHBK@?$AA?$HL?$AA0?$AA?3?$AA?$DM?$AA2?$AA1?$AA?$HN?$AA?5@ 0000000180002450     Pclass.obj
 0001:00001468       ??_C@_19LPDLLMEB@?$AA?$HL?$AA0?$AA?$HN?$AA?3@ 0000000180002468     Pclass.obj
 0001:00001478       ??_C@_1BC@IALIJCAM@?$AAS?$AAo?$AAr?$AAt?$AAM?$AAo?$AAd?$AAe@ 0000000180002478     Pclass.obj
 0001:00001490       ??_C@_1BO@OMKAPLPJ@?$AAS?$AAt?$AAa?$AAr?$AAt?$AAP?$AAa?$AAn?$AAe?$AAl?$AAM?$AAo?$AAd?$AAe@ 0000000180002490     Pclass.obj
 0001:000014d0       ??_C@_1BA@JOLGFBLP@?$AAM?$AAo?$AAd?$AAe?$AA?$HL?$AA0?$AA?$HN@ 00000001800024d0     Pclass.obj
 0001:000014e0       ??_C@_1CM@KGJLHHPG@?$AAN?$AA?0?$AAX?$AA1?$AA5?$AAF?$AA?0?$AAX?$AA1?$AA6?$AAF?$AA?0?$AAX?$AA1?$AA7@ 00000001800024e0     Pclass.obj
 0001:00001510       ??_C@_1BG@MNPGDOEP@?$AA1?$AA2?$AA?0?$AA0?$AA?0?$AA0?$AA?0?$AA0?$AA?0?$AA4@ 0000000180002510     Pclass.obj
 0001:00001528       ??_C@_1CG@OHFJBKLN@?$AAN?$AA?0?$AAX?$AAI?$AA?0?$AAX?$AAB?$AA?0?$AAX?$AAP?$AA?0?$AAX?$AA0?$AAS?$AA?0@ 0000000180002528     Pclass.obj
 0001:00001550       ??_C@_1BI@EFANNANC@?$AA0?$AA?0?$AA6?$AA?0?$AA2?$AA?0?$AA2?$AA?0?$AA3?$AA?0?$AA9@ 0000000180002550     Pclass.obj
 0001:00001568       ??_C@_17KNGPBKAK@?$AAN?$AA?0?$AAN@ 0000000180002568     Pclass.obj
 0001:00001570       ??_C@_17JPFFEOAH@?$AA0?$AA?0?$AA0@ 0000000180002570     Pclass.obj
 0001:00001578       ??_C@_1BO@JAFIOFIL@?$AAN?$AA?0?$AAX?$AAI?$AA?0?$AAX?$AAB?$AA?0?$AAX?$AAC?$AA?0?$AAD?$AA?0?$AAT@ 0000000180002578     Pclass.obj
 0001:00001598       ??_C@_1BI@LFIMKDME@?$AA0?$AA?0?$AA6?$AA?0?$AA2?$AA?0?$AA6?$AA?0?$AA0?$AA?0?$AA0@ 0000000180002598     Pclass.obj
 0001:000015b0       ??_C@_1BK@IEHCCPMO@?$AAN?$AA?0?$AAX?$AAI?$AA?0?$AAX?$AA4?$AAF?$AA?0?$AAX?$AA6?$AAF@ 00000001800025b0     Pclass.obj
 0001:000015d0       ??_C@_1BA@MMHHFCDG@?$AA0?$AA?0?$AA6?$AA?0?$AA9?$AA?0?$AA9@ 00000001800025d0     Pclass.obj
 0001:000015e0       ??_C@_1EA@CMHCGANC@?$AAN?$AA?0?$AAX?$AAI?$AA?0?$AAX?$AA4?$AAF?$AA?0?$AAX?$AA6?$AAF?$AA?0?$AAX?$AA1@ 00000001800025e0     Pclass.obj
 0001:00001620       ??_C@_1CE@LPFIEDMN@?$AA0?$AA?0?$AA6?$AA?0?$AA9?$AA?0?$AA9?$AA?0?$AA9?$AA?0?$AA9?$AA?0?$AA8?$AA?0?$AA8@ 0000000180002620     Pclass.obj
 0001:00001648       ??_C@_19ILLMDDHI@?$AAN?$AA?0?$AAZ?$AAD@ 0000000180002648     Pclass.obj
 0001:00001658       ??_C@_19NMOJBHGD@?$AA1?$AA2?$AA?0?$AA0@ 0000000180002658     Pclass.obj
 0001:00001670       ??_C@_1EC@OFLHMCFD@?$AAN?$AA?0?$AAX?$AAP?$AA?0?$AAX?$AA0?$AAS?$AA?0?$AAX?$AA1?$AAS?$AA?0?$AAX?$AA2@ 0000000180002670     Pclass.obj
 0001:000016b8       ??_C@_1CA@MGMNHCLL@?$AA0?$AA?0?$AA2?$AA?0?$AA3?$AA?0?$AA2?$AA?0?$AA2?$AA?0?$AA3?$AA?0?$AA4?$AA?0?$AA3@ 00000001800026b8     Pclass.obj
 0001:000016d8       ??_C@_1O@JGFFCAGM@?$AAN?$AA?0?$AAX?$AAI?$AA?0?$AAO@ 00000001800026d8     Pclass.obj
 0001:000016e8       ??_C@_1O@FLEOANAI@?$AA0?$AA?0?$AA6?$AA?0?$AA1?$AA5@ 00000001800026e8     Pclass.obj
 0001:000016f8       ??_C@_1CC@FANCGEGE@?$AAN?$AA?0?$AAX?$AAI?$AA?0?$AAX?$AAT?$AA?0?$AAX?$AA3?$AA?0?$AAX?$AAG?$AA?0?$AAX@ 00000001800026f8     Pclass.obj
 0001:00001720       ??_C@_1BI@PMPHDFGH@?$AA0?$AA?0?$AA6?$AA?0?$AA3?$AA?0?$AA4?$AA?0?$AA4?$AA?0?$AA4@ 0000000180002720     Pclass.obj
 0001:00001738       ??_C@_1BG@COBJEPBB@?$AAN?$AA?0?$AAX?$AAI?$AA?0?$AAX?$AAT?$AA?0?$AAX?$AA3@ 0000000180002738     Pclass.obj
 0001:00001750       ??_C@_1BA@KPNNJGCD@?$AA0?$AA?0?$AA6?$AA?0?$AA3?$AA?0?$AA4@ 0000000180002750     Pclass.obj
 0001:00001760       ??_C@_1CA@HLBJOHGN@?$AAF?$AAu?$AAl?$AAl?$AAS?$AAc?$AAr?$AAe?$AAe?$AAn?$AAL?$AAo?$AAc?$AAa?$AAl@ 0000000180002760     Pclass.obj
 0001:00001780       ??_C@_1CC@EBBNDNOD@?$AAF?$AAu?$AAl?$AAl?$AAS?$AAc?$AAr?$AAe?$AAe?$AAn?$AAR?$AAe?$AAm?$AAo?$AAt@ 0000000180002780     Pclass.obj
 0001:000017a8       ??_C@_1BK@HMOODHKK@?$AAC?$AAo?$AAl?$AAu?$AAm?$AAn?$AAs?$AAL?$AAo?$AAc?$AAa?$AAl@ 00000001800027a8     Pclass.obj
 0001:000017c8       ??_C@_1BM@EDHFKJEJ@?$AAC?$AAo?$AAl?$AAu?$AAm?$AAn?$AAs?$AAR?$AAe?$AAm?$AAo?$AAt?$AAe@ 00000001800027c8     Pclass.obj
 0001:000017e8       ??_C@_1BI@FOOHDOCI@?$AAW?$AAi?$AAd?$AAt?$AAh?$AAs?$AAL?$AAo?$AAc?$AAa?$AAl@ 00000001800027e8     Pclass.obj
 0001:00001800       ??_C@_1BK@DDBMMJCN@?$AAW?$AAi?$AAd?$AAt?$AAh?$AAs?$AAR?$AAe?$AAm?$AAo?$AAt?$AAe@ 0000000180002800     Pclass.obj
 0001:0000181c       ??_C@_13DEFPDAGF@?$AA?0@   000000018000281c     Pclass.obj
 0001:00001820       ??_C@_15LNKNCLHH@?$AAS?$AAs@ 0000000180002820     Pclass.obj
 0001:00001828       ??_C@_1M@PBHOFL@?$AA?5?$AA?$HL?$AA0?$AA?$HN?$AA?5@ 0000000180002828     Pclass.obj
 0001:00001838       ??_C@_1BE@JJMDGICA@?$AA?$HL?$AA0?$AA?$HN?$AA?3?$AA?5?$AA?$HL?$AA1?$AA?$HN?$AA?5@ 0000000180002838     Pclass.obj
 0001:0000184c       ??_C@_15JOGBDECP@?$AA?0?$AA?5@ 000000018000284c     Pclass.obj
 0001:00001854       ??_C@_15DNHPCDHG@?$AAT?$AAt@ 0000000180002854     Pclass.obj
 0001:0000185c       ??_C@_15IJHBBPPC@?$AAF?$AAf@ 000000018000285c     Pclass.obj
 0001:00001868       ??_C@_1BC@OMEIHGFC@?$AAW?$AAS?$AA_?$AAP?$AAO?$AAP?$AAU?$AAP@ 0000000180002868     Pclass.obj
 0001:00001880       ??_C@_1BC@ONEEOLLM@?$AAW?$AAS?$AA_?$AAC?$AAH?$AAI?$AAL?$AAD@ 0000000180002880     Pclass.obj
 0001:00001898       ??_C@_1BI@GHDIGAD@?$AAW?$AAS?$AA_?$AAM?$AAI?$AAN?$AAI?$AAM?$AAI?$AAZ?$AAE@ 0000000180002898     Pclass.obj
 0001:000018b0       ??_C@_1BG@KLPFHNBP@?$AAW?$AAS?$AA_?$AAV?$AAI?$AAS?$AAI?$AAB?$AAL?$AAE@ 00000001800028b0     Pclass.obj
 0001:000018c8       ??_C@_1BI@NKODCGOF@?$AAW?$AAS?$AA_?$AAD?$AAI?$AAS?$AAA?$AAB?$AAL?$AAE?$AAD@ 00000001800028c8     Pclass.obj
 0001:000018e0       ??_C@_1CA@PCFJBBHH@?$AAW?$AAS?$AA_?$AAC?$AAL?$AAI?$AAP?$AAS?$AAI?$AAB?$AAL?$AAI?$AAN?$AAG?$AAS@ 00000001800028e0     Pclass.obj
 0001:00001900       ??_C@_1CA@MPLGGIO@?$AAW?$AAS?$AA_?$AAC?$AAL?$AAI?$AAP?$AAC?$AAH?$AAI?$AAL?$AAD?$AAR?$AAE?$AAN@ 0000000180002900     Pclass.obj
 0001:00001920       ??_C@_1BI@OLBAGOJG@?$AAW?$AAS?$AA_?$AAM?$AAA?$AAX?$AAI?$AAM?$AAI?$AAZ?$AAE@ 0000000180002920     Pclass.obj
 0001:00001938       ??_C@_1BE@DAMMEKNP@?$AAW?$AAS?$AA_?$AAB?$AAO?$AAR?$AAD?$AAE?$AAR@ 0000000180002938     Pclass.obj
 0001:00001950       ??_C@_1BI@EDHINADK@?$AAW?$AAS?$AA_?$AAD?$AAL?$AAG?$AAF?$AAR?$AAA?$AAM?$AAE@ 0000000180002950     Pclass.obj
 0001:00001968       ??_C@_1BG@CKCLFGFA@?$AAW?$AAS?$AA_?$AAV?$AAS?$AAC?$AAR?$AAO?$AAL?$AAL@ 0000000180002968     Pclass.obj
 0001:00001980       ??_C@_1BG@OMIOJOGF@?$AAW?$AAS?$AA_?$AAH?$AAS?$AAC?$AAR?$AAO?$AAL?$AAL@ 0000000180002980     Pclass.obj
 0001:00001998       ??_C@_1BG@KJOBMDJC@?$AAW?$AAS?$AA_?$AAS?$AAY?$AAS?$AAM?$AAE?$AAN?$AAU@ 0000000180002998     Pclass.obj
 0001:000019b0       ??_C@_1BM@GPNNOPCH@?$AAW?$AAS?$AA_?$AAT?$AAH?$AAI?$AAC?$AAK?$AAF?$AAR?$AAA?$AAM?$AAE@ 00000001800029b0     Pclass.obj
 0001:000019d0       ??_C@_1BO@FODKBODI@?$AAW?$AAS?$AA_?$AAM?$AAI?$AAN?$AAI?$AAM?$AAI?$AAZ?$AAE?$AAB?$AAO?$AAX@ 00000001800029d0     Pclass.obj
 0001:000019f0       ??_C@_1BO@IDJMAOMI@?$AAW?$AAS?$AA_?$AAM?$AAA?$AAX?$AAI?$AAM?$AAI?$AAZ?$AAE?$AAB?$AAO?$AAX@ 00000001800029f0     Pclass.obj
 0001:00001a10       ??_C@_1CI@PKBCIOPN@?$AAW?$AAS?$AA_?$AAE?$AAX?$AA_?$AAD?$AAL?$AAG?$AAM?$AAO?$AAD?$AAA?$AAL?$AAF@ 0000000180002a10     Pclass.obj
 0001:00001a38       ??_C@_1CK@KJECLHMG@?$AAW?$AAS?$AA_?$AAE?$AAX?$AA_?$AAN?$AAO?$AAP?$AAA?$AAR?$AAE?$AAN?$AAT?$AAN@ 0000000180002a38     Pclass.obj
 0001:00001a68       ??_C@_1BM@OCBKBALE@?$AAW?$AAS?$AA_?$AAE?$AAX?$AA_?$AAT?$AAO?$AAP?$AAM?$AAO?$AAS?$AAT@ 0000000180002a68     Pclass.obj
 0001:00001a88       ??_C@_1CE@JIDMMICL@?$AAW?$AAS?$AA_?$AAE?$AAX?$AA_?$AAA?$AAC?$AAC?$AAE?$AAP?$AAT?$AAF?$AAI?$AAL@ 0000000180002a88     Pclass.obj
 0001:00001ab0       ??_C@_1CE@PFFPBMCF@?$AAW?$AAS?$AA_?$AAE?$AAX?$AA_?$AAT?$AAR?$AAA?$AAN?$AAS?$AAP?$AAA?$AAR?$AAE@ 0000000180002ab0     Pclass.obj
 0001:00001ad8       ??_C@_1BO@MEOEJPLO@?$AAW?$AAS?$AA_?$AAE?$AAX?$AA_?$AAM?$AAD?$AAI?$AAC?$AAH?$AAI?$AAL?$AAD@ 0000000180002ad8     Pclass.obj
 0001:00001af8       ??_C@_1CC@IEIGGJGG@?$AAW?$AAS?$AA_?$AAE?$AAX?$AA_?$AAT?$AAO?$AAO?$AAL?$AAW?$AAI?$AAN?$AAD?$AAO@ 0000000180002af8     Pclass.obj
 0001:00001b20       ??_C@_1CC@PLPNIKGL@?$AAW?$AAS?$AA_?$AAE?$AAX?$AA_?$AAW?$AAI?$AAN?$AAD?$AAO?$AAW?$AAE?$AAD?$AAG@ 0000000180002b20     Pclass.obj
 0001:00001b48       ??_C@_1CC@IAPGCLEG@?$AAW?$AAS?$AA_?$AAE?$AAX?$AA_?$AAC?$AAL?$AAI?$AAE?$AAN?$AAT?$AAE?$AAD?$AAG@ 0000000180002b48     Pclass.obj
 0001:00001b70       ??_C@_1CE@EANKNCIF@?$AAW?$AAS?$AA_?$AAE?$AAX?$AA_?$AAC?$AAO?$AAN?$AAT?$AAE?$AAX?$AAT?$AAH?$AAE@ 0000000180002b70     Pclass.obj
 0001:00001b98       ??_C@_1BI@GFIADCMK@?$AAW?$AAS?$AA_?$AAE?$AAX?$AA_?$AAR?$AAI?$AAG?$AAH?$AAT@ 0000000180002b98     Pclass.obj
 0001:00001bb0       ??_C@_1CC@JOFCJJPB@?$AAW?$AAS?$AA_?$AAE?$AAX?$AA_?$AAR?$AAT?$AAL?$AAR?$AAE?$AAA?$AAD?$AAI?$AAN@ 0000000180002bb0     Pclass.obj
 0001:00001bd8       ??_C@_1CI@EFLDECAB@?$AAW?$AAS?$AA_?$AAE?$AAX?$AA_?$AAL?$AAE?$AAF?$AAT?$AAS?$AAC?$AAR?$AAO?$AAL@ 0000000180002bd8     Pclass.obj
 0001:00001c00       ??_C@_1CI@CIFGFFJB@?$AAW?$AAS?$AA_?$AAE?$AAX?$AA_?$AAC?$AAO?$AAN?$AAT?$AAR?$AAO?$AAL?$AAP?$AAA@ 0000000180002c00     Pclass.obj
 0001:00001c28       ??_C@_1CC@BGEPLDCA@?$AAW?$AAS?$AA_?$AAE?$AAX?$AA_?$AAS?$AAT?$AAA?$AAT?$AAI?$AAC?$AAE?$AAD?$AAG@ 0000000180002c28     Pclass.obj
 0001:00001c50       ??_C@_1CA@DOAIHHLO@?$AAW?$AAS?$AA_?$AAE?$AAX?$AA_?$AAA?$AAP?$AAP?$AAW?$AAI?$AAN?$AAD?$AAO?$AAW@ 0000000180002c50     Pclass.obj
 0001:00001c70       ??_C@_1BM@FAODAMGD@?$AAW?$AAS?$AA_?$AAE?$AAX?$AA_?$AAL?$AAA?$AAY?$AAE?$AAR?$AAE?$AAD@ 0000000180002c70     Pclass.obj
 0001:00001c90       ??_C@_1CM@DJKNBOGD@?$AAW?$AAS?$AA_?$AAE?$AAX?$AA_?$AAN?$AAO?$AAI?$AAN?$AAH?$AAE?$AAR?$AAI?$AAT@ 0000000180002c90     Pclass.obj
 0001:00001cc0       ??_C@_1CA@KMHLBMFI@?$AAW?$AAS?$AA_?$AAE?$AAX?$AA_?$AAL?$AAA?$AAY?$AAO?$AAU?$AAT?$AAR?$AAT?$AAL@ 0000000180002cc0     Pclass.obj
 0001:00001ce0       ??_C@_1CC@LOFMDOPL@?$AAW?$AAS?$AA_?$AAE?$AAX?$AA_?$AAN?$AAO?$AAA?$AAC?$AAT?$AAI?$AAV?$AAA?$AAT@ 0000000180002ce0     Pclass.obj
 0001:00001d08       ??_C@_1BA@PCPLEJNM@?$AA?$HL?$AA0?$AA?3?$AA2?$AA0?$AA?$HN?$AA?6@ 0000000180002d08     Pclass.obj
 0001:00001d18       ??_C@_1CA@PGPHFLML@?$AA?$HL?$AA0?$AA?3?$AA?$DO?$AA2?$AA0?$AA?$HN?$AA?5?$AA?$HL?$AA1?$AA?3?$AA7?$AA?$HN?$AA?$CF?$AA?6@ 0000000180002d18     Pclass.obj
 0001:00001d38       ??_C@_1CE@BCAPNIMO@?$AA?$HL?$AA0?$AA?3?$AA2?$AA0?$AA?$HN?$AA?5?$AA?5?$AA?$HL?$AA1?$AA?3?$AA7?$AA?$HN?$AA?$HL?$AA2@ 0000000180002d38     Pclass.obj
 0001:00001d78       ??_C@_1CA@CGMHBFCH@?$AA?$HL?$AA0?$AA?$HN?$AA?$HL?$AA1?$AA?$HN?$AA?0?$AA?5?$AA?$HL?$AA2?$AA?$HN?$AA?$HL?$AA3?$AA?$HN?$AA?6@ 0000000180002d78     Pclass.obj
 0001:00001d98       ??_C@_1BA@BIAFDLFH@?$AA?$HL?$AA0?$AA?$HN?$AA?$HL?$AA1?$AA?$HN?$AA?6@ 0000000180002d98     Pclass.obj
 0001:00001da8       ??_C@_1BI@DHFBAHCI@?$AA?$HL?$AA0?$AA?$HN?$AA?5?$AA?5?$AA?$CI?$AA?$HL?$AA1?$AA?$HN?$AA?$CJ?$AA?6@ 0000000180002da8     Pclass.obj
 0001:00001dc0       ??_C@_19EPBAEEOA@?$AA?$HL?$AA0?$AA?$HN?$AA?6@ 0000000180002dc0     Pclass.obj
 0001:00001dd0       ??_C@_1BK@FKNCLDML@?$AA?6?$AA?$HL?$AA0?$AA?$HN?$AA?$HL?$AA1?$AA?$HN?$AA?5?$AA?$HL?$AA2?$AA?$HN?$AA?6@ 0000000180002dd0     Pclass.obj
 0001:00001df0       ??_C@_1BC@IBCAHKMA@?$AA?6?$AA?$HL?$AA0?$AA?$HN?$AA?$HL?$AA1?$AA?$HN?$AA?6@ 0000000180002df0     Pclass.obj
 0001:00001e08       ??_C@_1BG@JEKFNBAO@?$AA?6?$AA?$HL?$AA0?$AA?$HN?$AA?3?$AA?6?$AA?$HL?$AA1?$AA?$HN?$AA?6@ 0000000180002e08     Pclass.obj
 0001:00001e20       ??_C@_1CA@MEPGLLIO@?$AA?$HL?$AA0?$AA?$HN?$AA?$HL?$AA1?$AA?3?$AA0?$AA8?$AAX?$AA?$HN?$AA?5?$AA?$HL?$AA2?$AA?$HN?$AA?6@ 0000000180002e20     Pclass.obj
 0001:00001e40       ??_C@_1DG@MNBLGAON@?$AA?6?$AA?$HL?$AA0?$AA?$HN?$AA?3?$AA?6?$AA?$HL?$AA1?$AA?3?$AA?$DM?$AA?$HL?$AA2?$AA?$HN?$AA?$HN?$AA?5@ 0000000180002e40     Pclass.obj
 0001:00001e78       ??_C@_19GGNHIDOH@?$AA?4?$AAt?$AAx?$AAt@ 0000000180002e78     Pclass.obj
 0001:00001e88       ??_C@_19OPNPIOHE@?$AAH?$AAW?$AAN?$AAD@ 0000000180002e88     Pclass.obj
 0001:00001e94       ??_C@_15GKIJICBO@?$AAZ?$AAC@ 0000000180002e94     Pclass.obj
 0001:00001ea0       ??_C@_17JJIMNMHK@?$AA?5?$AA?$CG?$AA?$FO@ 0000000180002ea0     Pclass.obj
 0001:00001ea8       ??_C@_13HOIJIPNN@?$AA?5@   0000000180002ea8     Pclass.obj
 0001:00001eac       ??_C@_15LEKKCGMK@?$AA?2?$AA?2@ 0000000180002eac     Pclass.obj
 0001:00001ed0       ??_C@_1M@CHPAGEIC@?$AA?$CF?$AA?5?$AA?$HL?$AA0?$AA?$HN@ 0000000180002ed0     Pclass.obj
 0001:00001ee0       ??_C@_1O@DLMEBHDD@?$AA?$HL?$AA0?$AA?$HN?$AA?$HL?$AA1?$AA?$HN@ 0000000180002ee0     Pclass.obj
 0001:00001ef0       ??_C@_15DDHGOCBH@?$AA?4?$AA?4@ 0000000180002ef0     Pclass.obj
 0001:00001ef8       ??_C@_17FJPEEFCB@?$AAp?$AAr?$AAc@ 0000000180002ef8     Pclass.obj
 0001:00001f00       ??_C@_1BC@ENICKDH@?$AAC?$AAo?$AAn?$AAt?$AAe?$AAn?$AAt?$AAs@ 0000000180002f00     Pclass.obj
 0001:00001f18       ??_C@_1CK@DGKCELDD@?$AAP?$AAr?$AAo?$AAc?$AAe?$AAs?$AAs?$AAL?$AAi?$AAs?$AAt?$AA?4?$AAC?$AAo?$AAm@ 0000000180002f18     Pclass.obj
 0001:00001f48       ??_C@_1CK@ECJCGOEK@?$AAP?$AAr?$AAo?$AAc?$AAe?$AAs?$AAs?$AAL?$AAi?$AAs?$AAt?$AA?4?$AAU?$AAs?$AAe@ 0000000180002f48     Pclass.obj
 0001:00001f80       ??_C@_1EA@IELLPLEF@?$AA?$HL?$AA0?$AA?$HN?$AA?5?$AA?$HL?$AA1?$AA?3?$AA0?$AA2?$AA?$HN?$AA?3?$AA?$HL?$AA2?$AA?3?$AA0@ 0000000180002f80     Pclass.obj
 0001:00001fc0       ??_C@_1DI@BCOMPFMM@?$AA?$HL?$AA0?$AA?3?$AA0?$AA2?$AA?$HN?$AA?3?$AA?$HL?$AA1?$AA?3?$AA0?$AA2?$AA?$HN?$AA?3?$AA?$HL@ 0000000180002fc0     Pclass.obj
 0001:00002000       ??_C@_1EA@HECKBAAG@?$AA?2?$AAS?$AAt?$AAr?$AAi?$AAn?$AAg?$AAF?$AAi?$AAl?$AAe?$AAI?$AAn?$AAf?$AAo@ 0000000180003000     Pclass.obj
 0001:00002040       ??_C@_19JHEHLFPM@?$AA?2?$AA?$DP?$AA?$DP?$AA?2@ 0000000180003040     Pclass.obj
 0001:00002050       ??_C@_1DC@HCLBMGIA@?$AA?2?$AAV?$AAa?$AAr?$AAF?$AAi?$AAl?$AAe?$AAI?$AAn?$AAf?$AAo?$AA?2?$AAT?$AAr@ 0000000180003050     Pclass.obj
 0001:00002088       ??_C@_1BI@HCCAONKE@?$AAF?$AAi?$AAl?$AAe?$AAV?$AAe?$AAr?$AAs?$AAi?$AAo?$AAn@ 0000000180003088     Pclass.obj
 0001:000020a0       ??_C@_1CA@JGBAIPOO@?$AAF?$AAi?$AAl?$AAe?$AAD?$AAe?$AAs?$AAc?$AAr?$AAi?$AAp?$AAt?$AAi?$AAo?$AAn@ 00000001800030a0     Pclass.obj
 0001:000020c0       ??_C@_19KBHGBEJO@?$AA?$HL?$AA0?$AA?$HN?$AA?2@ 00000001800030c0     Pclass.obj
 0001:000020d0       ??_C@_1O@BMPPIAFP@?$AA?5?$AA?$CI?$AA?$HL?$AA0?$AA?$HN?$AA?$CJ@ 00000001800030d0     Pclass.obj
 0001:000020e0       ??_C@_1BC@OMEIBLAI@?$AAw?$AAb?$AAe?$AAm?$AAc?$AAo?$AAm?$AAn@ 00000001800030e0     Pclass.obj
 0001:000020f8       ??_C@_0BA@FOIKENOD@vector?5too?5long@ 00000001800030f8     Pclass.obj
 0001:00002108       ??_C@_0BI@CFPLBAOH@invalid?5string?5position@ 0000000180003108     Pclass.obj
 0001:00002120       ??_C@_15LGINNLBP@?$AA?$HL?$AA?$HN@ 0000000180003120     Pclass.obj
 0001:00002128       ??_C@_0BL@GOIGLPKN@unordered_map?1set?5too?5long@ 0000000180003128     Pclass.obj
 0001:00002148       ??_C@_0BK@OGNNAFAB@invalid?5hash?5bucket?5count@ 0000000180003148     Pclass.obj
 0001:00002164       __real@3f800000            0000000180003164     Pclass.obj
 0001:00002168       __real@4024000000000000    0000000180003168     Pclass.obj
 0001:00002170       __real@43e0000000000000    0000000180003170     Pclass.obj
 0001:00002178       __real@5f000000            0000000180003178     Pclass.obj
 0001:00002180       ?Counters@@3QBUcounters@@B 0000000180003180     perfthread.obj
 0001:000022e0       ??_C@_1CC@DNHMJIKH@?$AA?$CF?$AA?5?$AAP?$AAr?$AAo?$AAc?$AAe?$AAs?$AAs?$AAo?$AAr?$AA?5?$AAT?$AAi?$AAm@ 00000001800032e0     perfthread.obj
 0001:00002308       ??_C@_1CE@FNEMIHOD@?$AA?$CF?$AA?5?$AAP?$AAr?$AAi?$AAv?$AAi?$AAl?$AAe?$AAg?$AAe?$AAd?$AA?5?$AAT?$AAi@ 0000000180003308     perfthread.obj
 0001:00002330       ??_C@_1BI@IIOPEKIO@?$AA?$CF?$AA?5?$AAU?$AAs?$AAe?$AAr?$AA?5?$AAT?$AAi?$AAm?$AAe@ 0000000180003330     perfthread.obj
 0001:00002348       ??_C@_1BK@FAAJNJIB@?$AAH?$AAa?$AAn?$AAd?$AAl?$AAe?$AA?5?$AAC?$AAo?$AAu?$AAn?$AAt@ 0000000180003348     perfthread.obj
 0001:00002368       ??_C@_1CA@KJMNGIDJ@?$AAP?$AAa?$AAg?$AAe?$AA?5?$AAF?$AAi?$AAl?$AAe?$AA?5?$AAB?$AAy?$AAt?$AAe?$AAs@ 0000000180003368     perfthread.obj
 0001:00002388       ??_C@_1CK@FGGMBBIH@?$AAP?$AAa?$AAg?$AAe?$AA?5?$AAF?$AAi?$AAl?$AAe?$AA?5?$AAB?$AAy?$AAt?$AAe?$AAs@ 0000000180003388     perfthread.obj
 0001:000023b8       ??_C@_1BI@GCOMDKEO@?$AAW?$AAo?$AAr?$AAk?$AAi?$AAn?$AAg?$AA?5?$AAS?$AAe?$AAt@ 00000001800033b8     perfthread.obj
 0001:000023d0       ??_C@_1CC@OFJLEPCP@?$AAW?$AAo?$AAr?$AAk?$AAi?$AAn?$AAg?$AA?5?$AAS?$AAe?$AAt?$AA?5?$AAP?$AAe?$AAa@ 00000001800033d0     perfthread.obj
 0001:000023f8       ??_C@_1CI@LLKMGPEG@?$AAP?$AAo?$AAo?$AAl?$AA?5?$AAN?$AAo?$AAn?$AAp?$AAa?$AAg?$AAe?$AAd?$AA?5?$AAB@ 00000001800033f8     perfthread.obj
 0001:00002420       ??_C@_1CC@IMBAECJF@?$AAP?$AAo?$AAo?$AAl?$AA?5?$AAP?$AAa?$AAg?$AAe?$AAd?$AA?5?$AAB?$AAy?$AAt?$AAe@ 0000000180003420     perfthread.obj
 0001:00002448       ??_C@_1BM@DGDPAMAA@?$AAP?$AAr?$AAi?$AAv?$AAa?$AAt?$AAe?$AA?5?$AAB?$AAy?$AAt?$AAe?$AAs@ 0000000180003448     perfthread.obj
 0001:00002468       ??_C@_1CA@GADAGCME@?$AAP?$AAa?$AAg?$AAe?$AA?5?$AAF?$AAa?$AAu?$AAl?$AAt?$AAs?$AA?1?$AAs?$AAe?$AAc@ 0000000180003468     perfthread.obj
 0001:00002488       ??_C@_1BM@FMIOMJAE@?$AAV?$AAi?$AAr?$AAt?$AAu?$AAa?$AAl?$AA?5?$AAB?$AAy?$AAt?$AAe?$AAs@ 0000000180003488     perfthread.obj
 0001:000024a8       ??_C@_1CG@KJOKFONA@?$AAV?$AAi?$AAr?$AAt?$AAu?$AAa?$AAl?$AA?5?$AAB?$AAy?$AAt?$AAe?$AAs?$AA?5?$AAP@ 00000001800034a8     perfthread.obj
 0001:000024d0       ??_C@_1CE@DFDFLLAO@?$AAI?$AAO?$AA?5?$AAD?$AAa?$AAt?$AAa?$AA?5?$AAB?$AAy?$AAt?$AAe?$AAs?$AA?1?$AAs@ 00000001800034d0     perfthread.obj
 0001:000024f8       ??_C@_1CE@EFLEKJAB@?$AAI?$AAO?$AA?5?$AAR?$AAe?$AAa?$AAd?$AA?5?$AAB?$AAy?$AAt?$AAe?$AAs?$AA?1?$AAs@ 00000001800034f8     perfthread.obj
 0001:00002520       ??_C@_1CG@MEJHKKKF@?$AAI?$AAO?$AA?5?$AAW?$AAr?$AAi?$AAt?$AAe?$AA?5?$AAB?$AAy?$AAt?$AAe?$AAs?$AA?1@ 0000000180003520     perfthread.obj
 0001:00002548       ??_C@_1CG@LBBBPCJA@?$AAI?$AAO?$AA?5?$AAO?$AAt?$AAh?$AAe?$AAr?$AA?5?$AAB?$AAy?$AAt?$AAe?$AAs?$AA?1@ 0000000180003548     perfthread.obj
 0001:00002570       ??_C@_1CO@LIEOHDCC@?$AAI?$AAO?$AA?5?$AAD?$AAa?$AAt?$AAa?$AA?5?$AAO?$AAp?$AAe?$AAr?$AAa?$AAt?$AAi@ 0000000180003570     perfthread.obj
 0001:000025a0       ??_C@_1CO@LIIKBHDH@?$AAI?$AAO?$AA?5?$AAR?$AAe?$AAa?$AAd?$AA?5?$AAO?$AAp?$AAe?$AAr?$AAa?$AAt?$AAi@ 00000001800035a0     perfthread.obj
 0001:000025d0       ??_C@_1DA@HICMAFKK@?$AAI?$AAO?$AA?5?$AAW?$AAr?$AAi?$AAt?$AAe?$AA?5?$AAO?$AAp?$AAe?$AAr?$AAa?$AAt@ 00000001800035d0     perfthread.obj
 0001:00002600       ??_C@_1DA@BEHINMGJ@?$AAI?$AAO?$AA?5?$AAO?$AAt?$AAh?$AAe?$AAr?$AA?5?$AAO?$AAp?$AAe?$AAr?$AAa?$AAt@ 0000000180003600     perfthread.obj
 0001:00002630       ??_C@_1BA@MGJGGMO@?$AAC?$AAo?$AAu?$AAn?$AAt?$AAe?$AAr@ 0000000180003630     perfthread.obj
 0001:00002640       ??_C@_1BG@NKNJPBCD@?$AAI?$AAD?$AA?5?$AAP?$AAr?$AAo?$AAc?$AAe?$AAs?$AAs@ 0000000180003640     perfthread.obj
 0001:00002658       ??_C@_1BM@KCAKLHJN@?$AAP?$AAr?$AAi?$AAo?$AAr?$AAi?$AAt?$AAy?$AA?5?$AAB?$AAa?$AAs?$AAe@ 0000000180003658     perfthread.obj
 0001:00002678       ??_C@_1BK@KCHPPKHP@?$AAT?$AAh?$AAr?$AAe?$AAa?$AAd?$AA?5?$AAC?$AAo?$AAu?$AAn?$AAt@ 0000000180003678     perfthread.obj
 0001:00002698       ??_C@_1CI@FNIEMNAI@?$AAC?$AAr?$AAe?$AAa?$AAt?$AAi?$AAn?$AAg?$AA?5?$AAP?$AAr?$AAo?$AAc?$AAe?$AAs@ 0000000180003698     perfthread.obj
 0001:000026c0       ??_C@_1BK@IKAFHKBD@?$AAE?$AAl?$AAa?$AAp?$AAs?$AAe?$AAd?$AA?5?$AAT?$AAi?$AAm?$AAe@ 00000001800036c0     perfthread.obj
 0001:000026e0       ??_C@_19DLCFHDFF@?$AAP?$AAE?$AAR?$AAF@ 00000001800036e0     perfthread.obj
 0001:000026f0       ??_C@_19DOGDICKI@?$AA?4?$AAe?$AAx?$AAe@ 00000001800036f0     perfthread.obj
 0001:00002700       ??_C@_1O@NKAIMMPD@?$AA_?$AAT?$AAo?$AAt?$AAa?$AAl@ 0000000180003700     Plist.obj
 0001:00002710       ??_C@_1CC@DMDJMJLM@?$AAS?$AAe?$AAD?$AAe?$AAb?$AAu?$AAg?$AAP?$AAr?$AAi?$AAv?$AAi?$AAl?$AAe?$AAg@ 0000000180003710     Plist.obj
 0001:00002738       ??_C@_1BE@KEEKBEOD@?$AA?$HL?$AA0?$AA?$HN?$AA?3?$AA?6?$AA?$HL?$AA1?$AA?$HN?$AA?6@ 0000000180003738     Plist.obj
 0001:00002750       ??_C@_1O@DMFBLLIP@?$AA?6?$AA?$HL?$AA0?$AA?$HN?$AA?3?$AA?6@ 0000000180003750     Plist.obj
 0001:00002760       ??_C@_1BG@JBKHLPML@?$AA?$HL?$AA0?$AA?$HN?$AA?5?$AA?$HL?$AA1?$AA?3?$AA8?$AAX?$AA?$HN@ 0000000180003760     Plist.obj
 0001:00002778       ??_C@_19DPDNGGHD@?$AA?5?$AA?$HL?$AA0?$AA?$HN@ 0000000180003778     Plist.obj
 0001:00002788       ??_C@_1BE@EMDGEBAH@?$AA?$HL?$AA0?$AA?3?$AA0?$AA?$HL?$AA1?$AA?$HN?$AAX?$AA?$HN@ 0000000180003788     Plist.obj
 0001:000027d0       ??_7?$_Func_impl_no_alloc@V<lambda_c6a5923e4ab0669d9f7c2a6c892502eb>@@_NPEA_W_K@std@@6B@ 00000001800037d0     Plist.obj
 0001:00002800       ??_C@_1CA@CCAFOKCB@?$AAE?$AAr?$AAr?$AAo?$AAr?$AA?5?$AA0?$AAx?$AA?$HL?$AA0?$AA?3?$AA0?$AA8?$AAX?$AA?$HN@ 0000000180003800     Pmix.obj
 0001:00002820       ??_C@_15JNBOKNOG@?$AA?$AN?$AA?6@ 0000000180003820     Pmix.obj
 0001:00002828       IID_IWbemLocator           0000000180003828     WMI.obj
 0001:00002838       CLSID_WbemLocator          0000000180003838     WMI.obj
 0001:00002848       ??_C@_1DC@LAIEFOLO@?$AAW?$AAi?$AAn?$AA3?$AA2?$AA_?$AAP?$AAr?$AAo?$AAc?$AAe?$AAs?$AAs?$AA?4?$AAH@ 0000000180003848     WMI.obj
 0001:00002880       ??_C@_1BO@CLCOBGDE@?$AAE?$AAx?$AAe?$AAc?$AAu?$AAt?$AAa?$AAb?$AAl?$AAe?$AAP?$AAa?$AAt?$AAh@ 0000000180003880     WMI.obj
 0001:000028a0       ??_C@_1BI@LPJNJKGA@?$AAC?$AAo?$AAm?$AAm?$AAa?$AAn?$AAd?$AAL?$AAi?$AAn?$AAe@ 00000001800038a0     WMI.obj
 0001:000028b8       ??_C@_1BC@JHNNEHFE@?$AAP?$AAr?$AAi?$AAo?$AAr?$AAi?$AAt?$AAy@ 00000001800038b8     WMI.obj
 0001:000028d0       ??_C@_1BC@HJJANEGO@?$AAG?$AAe?$AAt?$AAO?$AAw?$AAn?$AAe?$AAr@ 00000001800038d0     WMI.obj
 0001:000028e8       ??_C@_19PIJILKAI@?$AAU?$AAs?$AAe?$AAr@ 00000001800038e8     WMI.obj
 0001:000028f8       ??_C@_1O@OAMNPMOM@?$AAD?$AAo?$AAm?$AAa?$AAi?$AAn@ 00000001800038f8     WMI.obj
 0001:00002908       ??_C@_1BI@OIPNMPCL@?$AAG?$AAe?$AAt?$AAO?$AAw?$AAn?$AAe?$AAr?$AAS?$AAi?$AAd@ 0000000180003908     WMI.obj
 0001:00002920       ??_C@_17NKMLOKHF@?$AAS?$AAi?$AAd@ 0000000180003920     WMI.obj
 0001:00002928       ??_C@_1BE@CFEJJKFE@?$AAS?$AAe?$AAs?$AAs?$AAi?$AAo?$AAn?$AAI?$AAd@ 0000000180003928     WMI.obj
 0001:00002940       ??_C@_1BM@MLGLIGHJ@?$AAW?$AAi?$AAn?$AA3?$AA2?$AA_?$AAP?$AAr?$AAo?$AAc?$AAe?$AAs?$AAs@ 0000000180003940     WMI.obj
 0001:00002960       ??_C@_1BI@FLOHINJE@?$AAR?$AAe?$AAt?$AAu?$AAr?$AAn?$AAV?$AAa?$AAl?$AAu?$AAe@ 0000000180003960     WMI.obj
 0001:00002978       ??_C@_1BI@NKNJJIDM@?$AAS?$AAe?$AAt?$AAP?$AAr?$AAi?$AAo?$AAr?$AAi?$AAt?$AAy@ 0000000180003978     WMI.obj
 0001:00002990       ??_C@_1O@GGHBFGJC@?$AAR?$AAe?$AAa?$AAs?$AAo?$AAn@ 0000000180003990     WMI.obj
 0001:000029a0       ??_C@_1BE@PBPGMODO@?$AAT?$AAe?$AAr?$AAm?$AAi?$AAn?$AAa?$AAt?$AAe@ 00000001800039a0     WMI.obj
 0001:000029b8       ??_C@_1CC@OGNCBAIB@?$AA?2?$AA?2?$AA?$HL?$AA0?$AA?$HN?$AA?2?$AAr?$AAo?$AAo?$AAt?$AA?2?$AAc?$AAi?$AAm?$AAv@ 00000001800039b8     WMI.obj
 0001:000029dc       ??_C@_13JOFGPIOO@?$AA?4@   00000001800039dc     WMI.obj
 0001:00002a40       MainGuid                   0000000180003a40     Proclist.obj
 0001:00002a50       MenuGuid                   0000000180003a50     Proclist.obj
 0001:00002a60       ConfigDialogGuid           0000000180003a60     Proclist.obj
 0001:00002a70       ??_C@_1M@OAIMIKLP@?$AAn?$AAt?$AAd?$AAl?$AAl@ 0000000180003a70     Proclist.obj
 0001:00002a80       ??_C@_0BK@EGDDIFMK@NtQueryInformationProcess@ 0000000180003a80     Proclist.obj
 0001:00002aa0       ??_C@_0BJ@HKKELGGC@NtQueryInformationThread@ 0000000180003aa0     Proclist.obj
 0001:00002ac0       ??_C@_0O@IFMDHOMC@NtQueryObject@ 0000000180003ac0     Proclist.obj
 0001:00002ad0       ??_C@_0BJ@NDLOPGCH@NtQuerySystemInformation@ 0000000180003ad0     Proclist.obj
 0001:00002af0       ??_C@_0BH@DLPGICA@NtQueryInformationFile@ 0000000180003af0     Proclist.obj
 0001:00002b08       ??_C@_0CB@GDPHBMJN@NtWow64QueryInformationProcess6@ 0000000180003b08     Proclist.obj
 0001:00002b30       ??_C@_0BL@NJDHCDMK@NtWow64ReadVirtualMemory64@ 0000000180003b30     Proclist.obj
 0001:00002b50       ??_C@_1BC@GDMECMAK@?$AAk?$AAe?$AAr?$AAn?$AAe?$AAl?$AA3?$AA2@ 0000000180003b50     Proclist.obj
 0001:00002b68       ??_C@_0P@LKABJJMO@IsWow64Process@ 0000000180003b68     Proclist.obj
 0001:00002b78       ??_C@_1BC@DNHGCMLG@?$AAa?$AAd?$AAv?$AAa?$AAp?$AAi?$AA3?$AA2@ 0000000180003b78     Proclist.obj
 0001:00002b90       ??_C@_0L@KJHKJIPF@IsValidSid@ 0000000180003b90     Proclist.obj
 0001:00002ba0       ??_C@_0BK@FIHGNING@GetSidIdentifierAuthority@ 0000000180003ba0     Proclist.obj
 0001:00002bc0       ??_C@_0BI@LPFJALDI@GetSidSubAuthorityCount@ 0000000180003bc0     Proclist.obj
 0001:00002bd8       ??_C@_0BD@LMGFHOAE@GetSidSubAuthority@ 0000000180003bd8     Proclist.obj
 0001:00002bf0       ??_C@_1O@BCCLBEOE@?$AAu?$AAs?$AAe?$AAr?$AA3?$AA2@ 0000000180003bf0     Proclist.obj
 0001:00002c00       ??_C@_0BA@FKGDNIJG@GetGuiResources@ 0000000180003c00     Proclist.obj
 0001:00002c10       ??_C@_1M@FFPAMFOB@?$AAo?$AAl?$AAe?$AA3?$AA2@ 0000000180003c10     Proclist.obj
 0001:00002c20       ??_C@_0BC@IOEGILCE@CoSetProxyBlanket@ 0000000180003c20     Proclist.obj
 0001:00002c38       ??_C@_1M@OMFDJDJC@?$AAp?$AAs?$AAa?$AAp?$AAi@ 0000000180003c38     Proclist.obj
 0001:00002c48       ??_C@_0BF@LEEEDPDK@EnumProcessModulesEx@ 0000000180003c48     Proclist.obj
 0001:00002c60       ??_C@_1BC@PDEABLIN@?$AAP?$AAr?$AAo?$AAc?$AAL?$AAi?$AAs?$AAt@ 0000000180003c60     Proclist.obj
 0001:00002c78       ??_C@_1DK@DCAMPEPJ@?$AAP?$AAr?$AAo?$AAc?$AAe?$AAs?$AAs?$AA?5?$AAL?$AAi?$AAs?$AAt?$AA?5?$AAf?$AAo@ 0000000180003c78     Proclist.obj
 0001:00002cb8       ??_C@_1DE@BGKMIKPD@?$AAE?$AAu?$AAg?$AAe?$AAn?$AAe?$AA?5?$AAR?$AAo?$AAs?$AAh?$AAa?$AAl?$AA?5?$AA?$CG@ 0000000180003cb8     Proclist.obj
 0001:00002cf0       ??_C@_1M@MNPEKPKO@?$AAp?$AAl?$AAi?$AAs?$AAt@ 0000000180003cf0     Proclist.obj
 0001:00002d08       ??_7exception@std@@6B@     0000000180003d08     libcpmt:xthrow.obj
 0001:00002d20       ??_7bad_alloc@std@@6B@     0000000180003d20     libcpmt:xthrow.obj
 0001:00002d30       ??_C@_0P@GHFPNOJB@bad?5allocation@ 0000000180003d30     libcpmt:xthrow.obj
 0001:00002d48       ??_7logic_error@std@@6B@   0000000180003d48     libcpmt:xthrow.obj
 0001:00002d60       ??_7length_error@std@@6B@  0000000180003d60     libcpmt:xthrow.obj
 0001:00002d78       ??_7out_of_range@std@@6B@  0000000180003d78     libcpmt:xthrow.obj
 0001:00002d90       ??_7runtime_error@std@@6B@ 0000000180003d90     libcpmt:xthrow.obj
 0001:00002da8       ??_7bad_function_call@std@@6B@ 0000000180003da8     libcpmt:xthrow.obj
 0001:00002db8       ??_C@_0BC@DPJNKNAF@bad?5function?5call@ 0000000180003db8     libcpmt:xthrow.obj
 0001:00002e00       ??_7_Facet_base@std@@6B@   0000000180003e00     libcpmt:locale0.obj
 0001:00002e20       ??_7_Locimp@locale@std@@6B@ 0000000180003e20     libcpmt:locale0.obj
 0001:00002e38       ??_C@_01NBENCBCI@?$CK@     0000000180003e38     libcpmt:locale0.obj
 0001:00002e3c       ??_C@_01GFHCPBMG@C@        0000000180003e3c     libcpmt:locale0.obj
 0001:00002e48       ??_7bad_array_new_length@std@@6B@ 0000000180003e48     libcpmt:locale.obj
 0001:00002e60       ??_7bad_cast@std@@6B@      0000000180003e60     libcpmt:locale.obj
 0001:00002e98       ??_C@_1BK@MGMFAEKH@?$AAk?$AAe?$AAr?$AAn?$AAe?$AAl?$AA3?$AA2?$AA?4?$AAd?$AAl?$AAl@ 0000000180003e98     libcpmt:winapisupp.obj
 0001:00002eb8       ??_C@_08KNHFBNJ@FlsAlloc@  0000000180003eb8     libcpmt:winapisupp.obj
 0001:00002ec8       ??_C@_07PEJMOBNF@FlsFree@  0000000180003ec8     libcpmt:winapisupp.obj
 0001:00002ed0       ??_C@_0M@GDNOONDI@FlsGetValue@ 0000000180003ed0     libcpmt:winapisupp.obj
 0001:00002ee0       ??_C@_0M@JCPCPOEF@FlsSetValue@ 0000000180003ee0     libcpmt:winapisupp.obj
 0001:00002ef0       ??_C@_0BM@HCFOFFN@InitializeCriticalSectionEx@ 0000000180003ef0     libcpmt:winapisupp.obj
 0001:00002f10       ??_C@_0BE@GPLMMCMH@InitOnceExecuteOnce@ 0000000180003f10     libcpmt:winapisupp.obj
 0001:00002f28       ??_C@_0P@DLHPPCNH@CreateEventExW@ 0000000180003f28     libcpmt:winapisupp.obj
 0001:00002f38       ??_C@_0BB@MEFPJLHN@CreateSemaphoreW@ 0000000180003f38     libcpmt:winapisupp.obj
 0001:00002f50       ??_C@_0BD@KIEEOEEH@CreateSemaphoreExW@ 0000000180003f50     libcpmt:winapisupp.obj
 0001:00002f68       ??_C@_0BG@OGFAJCKC@CreateThreadpoolTimer@ 0000000180003f68     libcpmt:winapisupp.obj
 0001:00002f80       ??_C@_0BD@LPLEMMDI@SetThreadpoolTimer@ 0000000180003f80     libcpmt:winapisupp.obj
 0001:00002f98       ??_C@_0CA@FMNJENH@WaitForThreadpoolTimerCallbacks@ 0000000180003f98     libcpmt:winapisupp.obj
 0001:00002fb8       ??_C@_0BF@DCFCCNOC@CloseThreadpoolTimer@ 0000000180003fb8     libcpmt:winapisupp.obj
 0001:00002fd0       ??_C@_0BF@FLABGKKM@CreateThreadpoolWait@ 0000000180003fd0     libcpmt:winapisupp.obj
 0001:00002fe8       ??_C@_0BC@MGCOHNA@SetThreadpoolWait@ 0000000180003fe8     libcpmt:winapisupp.obj
 0001:00003000       ??_C@_0BE@OCIOMIMP@CloseThreadpoolWait@ 0000000180004000     libcpmt:winapisupp.obj
 0001:00003018       ??_C@_0BJ@LKGHFHBO@FlushProcessWriteBuffers@ 0000000180004018     libcpmt:winapisupp.obj
 0001:00003038       ??_C@_0BP@KALKKPMO@FreeLibraryWhenCallbackReturns@ 0000000180004038     libcpmt:winapisupp.obj
 0001:00003058       ??_C@_0BK@DFNBACLA@GetCurrentProcessorNumber@ 0000000180004058     libcpmt:winapisupp.obj
 0001:00003078       ??_C@_0BE@FKKLLFLM@CreateSymbolicLinkW@ 0000000180004078     libcpmt:winapisupp.obj
 0001:00003090       ??_C@_0BE@JOGNEJCI@GetCurrentPackageId@ 0000000180004090     libcpmt:winapisupp.obj
 0001:000030a8       ??_C@_0P@CDHHOHKP@GetTickCount64@ 00000001800040a8     libcpmt:winapisupp.obj
 0001:000030b8       ??_C@_0BN@NEEHBBPO@GetFileInformationByHandleEx@ 00000001800040b8     libcpmt:winapisupp.obj
 0001:000030d8       ??_C@_0BL@KBBHGKCM@SetFileInformationByHandle@ 00000001800040d8     libcpmt:winapisupp.obj
 0001:000030f8       ??_C@_0BP@FPNJPEJC@GetSystemTimePreciseAsFileTime@ 00000001800040f8     libcpmt:winapisupp.obj
 0001:00003118       ??_C@_0BM@HLJJNPAH@InitializeConditionVariable@ 0000000180004118     libcpmt:winapisupp.obj
 0001:00003138       ??_C@_0BG@BFNILBLN@WakeConditionVariable@ 0000000180004138     libcpmt:winapisupp.obj
 0001:00003150       ??_C@_0BJ@PGPPEPCC@WakeAllConditionVariable@ 0000000180004150     libcpmt:winapisupp.obj
 0001:00003170       ??_C@_0BJ@JEBJOJFJ@SleepConditionVariableCS@ 0000000180004170     libcpmt:winapisupp.obj
 0001:00003190       ??_C@_0BC@MMLHEBPB@InitializeSRWLock@ 0000000180004190     libcpmt:winapisupp.obj
 0001:000031a8       ??_C@_0BI@OMNLIJDB@AcquireSRWLockExclusive@ 00000001800041a8     libcpmt:winapisupp.obj
 0001:000031c0       ??_C@_0BL@OGHFEMNA@TryAcquireSRWLockExclusive@ 00000001800041c0     libcpmt:winapisupp.obj
 0001:000031e0       ??_C@_0BI@HMIEPCNJ@ReleaseSRWLockExclusive@ 00000001800041e0     libcpmt:winapisupp.obj
 0001:000031f8       ??_C@_0BK@LGACAGIC@SleepConditionVariableSRW@ 00000001800041f8     libcpmt:winapisupp.obj
 0001:00003218       ??_C@_0BF@GGPHFPJA@CreateThreadpoolWork@ 0000000180004218     libcpmt:winapisupp.obj
 0001:00003230       ??_C@_0BF@NHDAIMMO@SubmitThreadpoolWork@ 0000000180004230     libcpmt:winapisupp.obj
 0001:00003248       ??_C@_0BE@NPHIPNPD@CloseThreadpoolWork@ 0000000180004248     libcpmt:winapisupp.obj
 0001:00003260       ??_C@_0BA@IHGNDAEB@CompareStringEx@ 0000000180004260     libcpmt:winapisupp.obj
 0001:00003270       ??_C@_0BA@ONOKGCMP@GetLocaleInfoEx@ 0000000180004270     libcpmt:winapisupp.obj
 0001:00003280       ??_C@_0O@KKBNKAPF@LCMapStringEx@ 0000000180004280     libcpmt:winapisupp.obj
 0001:00003298       ??_7?$numpunct@_W@std@@6B@ 0000000180004298     libcpmt:wlocale.obj
 0001:000032d8       ??_C@_13IMODFHAA@?$AA?9@   00000001800042d8     libcpmt:wlocale.obj
 0001:000032dc       ??_C@_01JOAMLHOP@?9@       00000001800042dc     libcpmt:wlocale.obj
 0001:00005000       ??_C@_15EMKDOKLE@?$AAa?$AAr@ 0000000180006000     libcpmt:winapinls.obj
 0001:00005008       ??_C@_15KNPADPLH@?$AAb?$AAg@ 0000000180006008     libcpmt:winapinls.obj
 0001:00005010       ??_C@_15EDMHLDMO@?$AAc?$AAa@ 0000000180006010     libcpmt:winapinls.obj
 0001:00005018       ??_C@_1O@BPEAJADD@?$AAz?$AAh?$AA?9?$AAC?$AAH?$AAS@ 0000000180006018     libcpmt:winapinls.obj
 0001:00005028       ??_C@_15LJNHCMNK@?$AAc?$AAs@ 0000000180006028     libcpmt:winapinls.obj
 0001:00005030       ??_C@_15FOMCIDHG@?$AAd?$AAa@ 0000000180006030     libcpmt:winapinls.obj
 0001:00005038       ??_C@_15NBKABECB@?$AAd?$AAe@ 0000000180006038     libcpmt:winapinls.obj
 0001:00005040       ??_C@_15GHPEIIAO@?$AAe?$AAl@ 0000000180006040     libcpmt:winapinls.obj
 0001:00005048       ??_C@_15MNPNEAIF@?$AAe?$AAn@ 0000000180006048     libcpmt:winapinls.obj
 0001:00005050       ??_C@_15GPIOMPMH@?$AAe?$AAs@ 0000000180006050     libcpmt:winapinls.obj
 0001:00005058       ??_C@_15NGLOAKJC@?$AAf?$AAi@ 0000000180006058     libcpmt:winapinls.obj
 0001:00005060       ??_C@_15FBKGNKAM@?$AAf?$AAr@ 0000000180006060     libcpmt:winapinls.obj
 0001:00005068       ??_C@_15KGGCNEFK@?$AAh?$AAe@ 0000000180006068     libcpmt:winapinls.obj
 0001:00005070       ??_C@_15PGHLIDMF@?$AAh?$AAu@ 0000000180006070     libcpmt:winapinls.obj
 0001:00005078       ??_C@_15BIEMAPLM@?$AAi?$AAs@ 0000000180006078     libcpmt:winapinls.obj
 0001:00005080       ??_C@_15IFJLDHAF@?$AAi?$AAt@ 0000000180006080     libcpmt:winapinls.obj
 0001:00005088       ??_C@_15GEMIOCAG@?$AAj?$AAa@ 0000000180006088     libcpmt:winapinls.obj
 0001:00005090       ??_C@_15EPELEGJA@?$AAk?$AAo@ 0000000180006090     libcpmt:winapinls.obj
 0001:00005098       ??_C@_15NDDHIMN@?$AAn?$AAl@ 0000000180006098     libcpmt:winapinls.obj
 0001:000050a0       ??_C@_15BPIGNHCD@?$AAn?$AAo@ 00000001800060a0     libcpmt:winapinls.obj
 0001:000050a8       ??_C@_15DEOPBLCG@?$AAp?$AAl@ 00000001800060a8     libcpmt:winapinls.obj
 0001:000050b0       ??_C@_15KBECGEFG@?$AAp?$AAt@ 00000001800060b0     libcpmt:winapinls.obj
 0001:000050b8       ??_C@_15GLJCBFMD@?$AAr?$AAo@ 00000001800060b8     libcpmt:winapinls.obj
 0001:000050c0       ??_C@_15FEDGKCDI@?$AAr?$AAu@ 00000001800060c0     libcpmt:winapinls.obj
 0001:000050c8       ??_C@_15GLKMLLHM@?$AAh?$AAr@ 00000001800060c8     libcpmt:winapinls.obj
 0001:000050d0       ??_C@_15CPKMFBDB@?$AAs?$AAk@ 00000001800060d0     libcpmt:winapinls.obj
 0001:000050d8       ??_C@_15BAAIOGMK@?$AAs?$AAq@ 00000001800060d8     libcpmt:winapinls.obj
 0001:000050e0       ??_C@_15INNPNOHD@?$AAs?$AAv@ 00000001800060e0     libcpmt:winapinls.obj
 0001:000050e8       ??_C@_15CABMMOGH@?$AAt?$AAh@ 00000001800060e8     libcpmt:winapinls.obj
 0001:000050f0       ??_C@_15BPLIHJJM@?$AAt?$AAr@ 00000001800060f0     libcpmt:winapinls.obj
 0001:000050f8       ??_C@_15NEOEKKDJ@?$AAu?$AAr@ 00000001800060f8     libcpmt:winapinls.obj
 0001:00005100       ??_C@_15NFICGAJK@?$AAi?$AAd@ 0000000180006100     libcpmt:winapinls.obj
 0001:00005108       ??_C@_15PJPFLCCM@?$AAu?$AAk@ 0000000180006108     libcpmt:winapinls.obj
 0001:00005110       ??_C@_15HPJPHDM@?$AAb?$AAe@ 0000000180006110     libcpmt:winapinls.obj
 0001:00005118       ??_C@_15LCHLGJII@?$AAs?$AAl@ 0000000180006118     libcpmt:winapinls.obj
 0001:00005120       ??_C@_15PCFJPHHO@?$AAe?$AAt@ 0000000180006120     libcpmt:winapinls.obj
 0001:00005128       ??_C@_15HPFPGODN@?$AAl?$AAv@ 0000000180006128     libcpmt:winapinls.obj
 0001:00005130       ??_C@_15NFFGKGLG@?$AAl?$AAt@ 0000000180006130     libcpmt:winapinls.obj
 0001:00005138       ??_C@_15BDAKCCHN@?$AAf?$AAa@ 0000000180006138     libcpmt:winapinls.obj
 0001:00005140       ??_C@_15NFGIAIAJ@?$AAv?$AAi@ 0000000180006140     libcpmt:winapinls.obj
 0001:00005148       ??_C@_15LMKNDMHN@?$AAh?$AAy@ 0000000180006148     libcpmt:winapinls.obj
 0001:00005150       ??_C@_15IJBHMCFL@?$AAa?$AAz@ 0000000180006150     libcpmt:winapinls.obj
 0001:00005158       ??_C@_15EKOFJABL@?$AAe?$AAu@ 0000000180006158     libcpmt:winapinls.obj
 0001:00005160       ??_C@_15BGHADCNK@?$AAm?$AAk@ 0000000180006160     libcpmt:winapinls.obj
 0001:00005168       ??_C@_15JDNICKHM@?$AAa?$AAf@ 0000000180006168     libcpmt:winapinls.obj
 0001:00005170       ??_C@_15KPJEDBKD@?$AAk?$AAa@ 0000000180006170     libcpmt:winapinls.obj
 0001:00005178       ??_C@_15PDNFFFEO@?$AAf?$AAo@ 0000000180006178     libcpmt:winapinls.obj
 0001:00005180       ??_C@_15OMLEGLOC@?$AAh?$AAi@ 0000000180006180     libcpmt:winapinls.obj
 0001:00005188       ??_C@_15IDNNENKK@?$AAm?$AAs@ 0000000180006188     libcpmt:winapinls.obj
 0001:00005190       ??_C@_15MACJNBMH@?$AAk?$AAk@ 0000000180006190     libcpmt:winapinls.obj
 0001:00005198       ??_C@_15DKDJEOND@?$AAk?$AAy@ 0000000180006198     libcpmt:winapinls.obj
 0001:000051a0       ??_C@_15DFGDLJBG@?$AAs?$AAw@ 00000001800061a0     libcpmt:winapinls.obj
 0001:000051a8       ??_C@_15BBFAICNG@?$AAu?$AAz@ 00000001800061a8     libcpmt:winapinls.obj
 0001:000051b0       ??_C@_15DKNDCGEA@?$AAt?$AAt@ 00000001800061b0     libcpmt:winapinls.obj
 0001:000051b8       ??_C@_15MGIFMDPL@?$AAp?$AAa@ 00000001800061b8     libcpmt:winapinls.obj
 0001:000051c0       ??_C@_15HCNDBBA@?$AAg?$AAu@ 00000001800061c0     libcpmt:winapinls.obj
 0001:000051c8       ??_C@_15FNBEIBON@?$AAt?$AAa@ 00000001800061c8     libcpmt:winapinls.obj
 0001:000051d0       ??_C@_15NCHGBGLK@?$AAt?$AAe@ 00000001800061d0     libcpmt:winapinls.obj
 0001:000051d8       ??_C@_15PHPHCBPF@?$AAk?$AAn@ 00000001800061d8     libcpmt:winapinls.obj
 0001:000051e0       ??_C@_15DLGBCKMP@?$AAm?$AAr@ 00000001800061e0     libcpmt:winapinls.obj
 0001:000051e8       ??_C@_15EABBLBFF@?$AAs?$AAa@ 00000001800061e8     libcpmt:winapinls.obj
 0001:000051f0       ??_C@_15CBKOMCOI@?$AAm?$AAn@ 00000001800061f0     libcpmt:winapinls.obj
 0001:000051f8       ??_C@_15CKDMCJAF@?$AAg?$AAl@ 00000001800061f8     libcpmt:winapinls.obj
 0001:00005200       ??_C@_17CNJFBPG@?$AAk?$AAo?$AAk@ 0000000180006200     libcpmt:winapinls.obj
 0001:00005208       ??_C@_17FFBJICPL@?$AAs?$AAy?$AAr@ 0000000180006208     libcpmt:winapinls.obj
 0001:00005210       ??_C@_17KPNDCPAF@?$AAd?$AAi?$AAv@ 0000000180006210     libcpmt:winapinls.obj
 0001:00005218       ??_C@_1M@OKAHONE@?$AAa?$AAr?$AA?9?$AAS?$AAA@ 0000000180006218     libcpmt:winapinls.obj
 0001:00005228       ??_C@_1M@FFFIGIGK@?$AAb?$AAg?$AA?9?$AAB?$AAG@ 0000000180006228     libcpmt:winapinls.obj
 0001:00005238       ??_C@_1M@BJNKEDC@?$AAc?$AAa?$AA?9?$AAE?$AAS@ 0000000180006238     libcpmt:winapinls.obj
 0001:00005248       ??_C@_1M@CLNBBOPM@?$AAz?$AAh?$AA?9?$AAT?$AAW@ 0000000180006248     libcpmt:winapinls.obj
 0001:00005258       ??_C@_1M@IJJHFJHA@?$AAc?$AAs?$AA?9?$AAC?$AAZ@ 0000000180006258     libcpmt:winapinls.obj
 0001:00005268       ??_C@_1M@CLPEOBGI@?$AAd?$AAa?$AA?9?$AAD?$AAK@ 0000000180006268     libcpmt:winapinls.obj
 0001:00005278       ??_C@_1M@MCMADGCB@?$AAd?$AAe?$AA?9?$AAD?$AAE@ 0000000180006278     libcpmt:winapinls.obj
 0001:00005288       ??_C@_1M@OOCKEMAM@?$AAe?$AAl?$AA?9?$AAG?$AAR@ 0000000180006288     libcpmt:winapinls.obj
 0001:00005298       ??_C@_1M@BMHNFIME@?$AAe?$AAn?$AA?9?$AAU?$AAS@ 0000000180006298     libcpmt:winapinls.obj
 0001:000052a8       ??_C@_1M@DDNJFGID@?$AAf?$AAi?$AA?9?$AAF?$AAI@ 00000001800062a8     libcpmt:winapinls.obj
 0001:000052b8       ??_C@_1M@GLIPPMAC@?$AAf?$AAr?$AA?9?$AAF?$AAR@ 00000001800062b8     libcpmt:winapinls.obj
 0001:000052c8       ??_C@_1M@GFMCHPE@?$AAh?$AAe?$AA?9?$AAI?$AAL@ 00000001800062c8     libcpmt:winapinls.obj
 0001:000052d8       ??_C@_1M@MHLPGNKM@?$AAh?$AAu?$AA?9?$AAH?$AAU@ 00000001800062d8     libcpmt:winapinls.obj
 0001:000052e8       ??_C@_1M@LPDDNNPN@?$AAi?$AAs?$AA?9?$AAI?$AAS@ 00000001800062e8     libcpmt:winapinls.obj
 0001:000052f8       ??_C@_1M@MADIPODN@?$AAi?$AAt?$AA?9?$AAI?$AAT@ 00000001800062f8     libcpmt:winapinls.obj
 0001:00005308       ??_C@_1M@HPNHIDJI@?$AAj?$AAa?$AA?9?$AAJ?$AAP@ 0000000180006308     libcpmt:winapinls.obj
 0001:00005318       ??_C@_1M@JLOOOEGK@?$AAk?$AAo?$AA?9?$AAK?$AAR@ 0000000180006318     libcpmt:winapinls.obj
 0001:00005328       ??_C@_1M@IHBJJGG@?$AAn?$AAl?$AA?9?$AAN?$AAL@ 0000000180006328     libcpmt:winapinls.obj
 0001:00005338       ??_C@_1M@EANAGDL@?$AAn?$AAb?$AA?9?$AAN?$AAO@ 0000000180006338     libcpmt:winapinls.obj
 0001:00005348       ??_C@_1M@NEIEMEGP@?$AAp?$AAl?$AA?9?$AAP?$AAL@ 0000000180006348     libcpmt:winapinls.obj
 0001:00005358       ??_C@_1M@BOCFIGEP@?$AAp?$AAt?$AA?9?$AAB?$AAR@ 0000000180006358     libcpmt:winapinls.obj
 0001:00005368       ??_C@_1M@IMPFOPBG@?$AAr?$AAo?$AA?9?$AAR?$AAO@ 0000000180006368     libcpmt:winapinls.obj
 0001:00005378       ??_C@_1M@IDNNEJMM@?$AAr?$AAu?$AA?9?$AAR?$AAU@ 0000000180006378     libcpmt:winapinls.obj
 0001:00005388       ??_C@_1M@LILEEOGM@?$AAh?$AAr?$AA?9?$AAH?$AAR@ 0000000180006388     libcpmt:winapinls.obj
 0001:00005398       ??_C@_1M@FKIFEHPB@?$AAs?$AAk?$AA?9?$AAS?$AAK@ 0000000180006398     libcpmt:winapinls.obj
 0001:000053a8       ??_C@_1M@LJMAMNPJ@?$AAs?$AAq?$AA?9?$AAA?$AAL@ 00000001800063a8     libcpmt:winapinls.obj
 0001:000053b8       ??_C@_1M@GIAKDKJK@?$AAs?$AAv?$AA?9?$AAS?$AAE@ 00000001800063b8     libcpmt:winapinls.obj
 0001:000053c8       ??_C@_1M@MKJKIKCL@?$AAt?$AAh?$AA?9?$AAT?$AAH@ 00000001800063c8     libcpmt:winapinls.obj
 0001:000053d8       ??_C@_1M@MFLCCMPB@?$AAt?$AAr?$AA?9?$AAT?$AAR@ 00000001800063d8     libcpmt:winapinls.obj
 0001:000053e8       ??_C@_1M@OIJHDKJN@?$AAu?$AAr?$AA?9?$AAP?$AAK@ 00000001800063e8     libcpmt:winapinls.obj
 0001:000053f8       ??_C@_1M@LHIPCIEK@?$AAi?$AAd?$AA?9?$AAI?$AAD@ 00000001800063f8     libcpmt:winapinls.obj
 0001:00005408       ??_C@_1M@MFMOBGI@?$AAu?$AAk?$AA?9?$AAU?$AAA@ 0000000180006408     libcpmt:winapinls.obj
 0001:00005418       ??_C@_1M@OBGLJIPL@?$AAb?$AAe?$AA?9?$AAB?$AAY@ 0000000180006418     libcpmt:winapinls.obj
 0001:00005428       ??_C@_1M@BCFAJEAD@?$AAs?$AAl?$AA?9?$AAS?$AAI@ 0000000180006428     libcpmt:winapinls.obj
 0001:00005438       ??_C@_1M@FKFFEDDN@?$AAe?$AAt?$AA?9?$AAE?$AAE@ 0000000180006438     libcpmt:winapinls.obj
 0001:00005448       ??_C@_1M@KGKKAACI@?$AAl?$AAv?$AA?9?$AAL?$AAV@ 0000000180006448     libcpmt:winapinls.obj
 0001:00005458       ??_C@_1M@IFGBIJO@?$AAl?$AAt?$AA?9?$AAL?$AAT@ 0000000180006458     libcpmt:winapinls.obj
 0001:00005468       ??_C@_1M@FGEAHEDM@?$AAf?$AAa?$AA?9?$AAI?$AAR@ 0000000180006468     libcpmt:winapinls.obj
 0001:00005478       ??_C@_1M@KBMAIBFN@?$AAv?$AAi?$AA?9?$AAV?$AAN@ 0000000180006478     libcpmt:winapinls.obj
 0001:00005488       ??_C@_1M@GPCBKDJK@?$AAh?$AAy?$AA?9?$AAA?$AAM@ 0000000180006488     libcpmt:winapinls.obj
 0001:00005498       ??_C@_1BG@BECMDDJB@?$AAa?$AAz?$AA?9?$AAA?$AAZ?$AA?9?$AAL?$AAa?$AAt?$AAn@ 0000000180006498     libcpmt:winapinls.obj
 0001:000054b0       ??_C@_1M@MAOFCAEA@?$AAe?$AAu?$AA?9?$AAE?$AAS@ 00000001800064b0     libcpmt:winapinls.obj
 0001:000054c0       ??_C@_1M@IGHABKPI@?$AAm?$AAk?$AA?9?$AAM?$AAK@ 00000001800064c0     libcpmt:winapinls.obj
 0001:000054d0       ??_C@_1M@IAIGNEJG@?$AAt?$AAn?$AA?9?$AAZ?$AAA@ 00000001800064d0     libcpmt:winapinls.obj
 0001:000054e0       ??_C@_1M@IIJCOJFA@?$AAx?$AAh?$AA?9?$AAZ?$AAA@ 00000001800064e0     libcpmt:winapinls.obj
 0001:000054f0       ??_C@_1M@LGPJHNJH@?$AAz?$AAu?$AA?9?$AAZ?$AAA@ 00000001800064f0     libcpmt:winapinls.obj
 0001:00005500       ??_C@_1M@HOKAOIO@?$AAa?$AAf?$AA?9?$AAZ?$AAA@ 0000000180006500     libcpmt:winapinls.obj
 0001:00005510       ??_C@_1M@DPCLHLIE@?$AAk?$AAa?$AA?9?$AAG?$AAE@ 0000000180006510     libcpmt:winapinls.obj
 0001:00005520       ??_C@_1M@BLKMHJBI@?$AAf?$AAo?$AA?9?$AAF?$AAO@ 0000000180006520     libcpmt:winapinls.obj
 0001:00005530       ??_C@_1M@LGGJAPPB@?$AAh?$AAi?$AA?9?$AAI?$AAN@ 0000000180006530     libcpmt:winapinls.obj
 0001:00005540       ??_C@_1M@FIKPIHFE@?$AAm?$AAt?$AA?9?$AAM?$AAT@ 0000000180006540     libcpmt:winapinls.obj
 0001:00005550       ??_C@_1M@HEGGPBFA@?$AAs?$AAe?$AA?9?$AAN?$AAO@ 0000000180006550     libcpmt:winapinls.obj
 0001:00005560       ??_C@_1M@EIBJEEPA@?$AAm?$AAs?$AA?9?$AAM?$AAY@ 0000000180006560     libcpmt:winapinls.obj
 0001:00005570       ??_C@_1M@FHLBGMPP@?$AAk?$AAk?$AA?9?$AAK?$AAZ@ 0000000180006570     libcpmt:winapinls.obj
 0001:00005580       ??_C@_1M@NGJJLCGI@?$AAk?$AAy?$AA?9?$AAK?$AAG@ 0000000180006580     libcpmt:winapinls.obj
 0001:00005590       ??_C@_1M@GIENNBFC@?$AAs?$AAw?$AA?9?$AAK?$AAE@ 0000000180006590     libcpmt:winapinls.obj
 0001:000055a0       ??_C@_1BG@NDGMJIMJ@?$AAu?$AAz?$AA?9?$AAU?$AAZ?$AA?9?$AAL?$AAa?$AAt?$AAn@ 00000001800065a0     libcpmt:winapinls.obj
 0001:000055b8       ??_C@_1M@IDCCIHBC@?$AAt?$AAt?$AA?9?$AAR?$AAU@ 00000001800065b8     libcpmt:winapinls.obj
 0001:000055c8       ??_C@_1M@LOICPMOJ@?$AAb?$AAn?$AA?9?$AAI?$AAN@ 00000001800065c8     libcpmt:winapinls.obj
 0001:000055d8       ??_C@_1M@KPKKNEAH@?$AAp?$AAa?$AA?9?$AAI?$AAN@ 00000001800065d8     libcpmt:winapinls.obj
 0001:000055e8       ??_C@_1M@PJGPPBOG@?$AAg?$AAu?$AA?9?$AAI?$AAN@ 00000001800065e8     libcpmt:winapinls.obj
 0001:000055f8       ??_C@_1M@KMKMOPHI@?$AAt?$AAa?$AA?9?$AAI?$AAN@ 00000001800065f8     libcpmt:winapinls.obj
 0001:00005608       ??_C@_1M@KFEHEPAC@?$AAt?$AAe?$AA?9?$AAI?$AAN@ 0000000180006608     libcpmt:winapinls.obj
 0001:00005618       ??_C@_1M@CDCLMGHI@?$AAk?$AAn?$AA?9?$AAI?$AAN@ 0000000180006618     libcpmt:winapinls.obj
 0001:00005628       ??_C@_1M@MIODLDKF@?$AAm?$AAl?$AA?9?$AAI?$AAN@ 0000000180006628     libcpmt:winapinls.obj
 0001:00005638       ??_C@_1M@PBIEACPO@?$AAm?$AAr?$AA?9?$AAI?$AAN@ 0000000180006638     libcpmt:winapinls.obj
 0001:00005648       ??_C@_1M@NIDEAGPH@?$AAs?$AAa?$AA?9?$AAI?$AAN@ 0000000180006648     libcpmt:winapinls.obj
 0001:00005658       ??_C@_1M@FHIHCBIO@?$AAm?$AAn?$AA?9?$AAM?$AAN@ 0000000180006658     libcpmt:winapinls.obj
 0001:00005668       ??_C@_1M@JAIJPENP@?$AAc?$AAy?$AA?9?$AAG?$AAB@ 0000000180006668     libcpmt:winapinls.obj
 0001:00005678       ??_C@_1M@PHGFBEPN@?$AAg?$AAl?$AA?9?$AAE?$AAS@ 0000000180006678     libcpmt:winapinls.obj
 0001:00005688       ??_C@_1O@KPIPDNCP@?$AAk?$AAo?$AAk?$AA?9?$AAI?$AAN@ 0000000180006688     libcpmt:winapinls.obj
 0001:00005698       ??_C@_1O@KNHJLDJA@?$AAs?$AAy?$AAr?$AA?9?$AAS?$AAY@ 0000000180006698     libcpmt:winapinls.obj
 0001:000056a8       ??_C@_1O@MKEKBLAH@?$AAd?$AAi?$AAv?$AA?9?$AAM?$AAV@ 00000001800066a8     libcpmt:winapinls.obj
 0001:000056b8       ??_C@_1O@OHDCKDDF@?$AAq?$AAu?$AAz?$AA?9?$AAB?$AAO@ 00000001800066b8     libcpmt:winapinls.obj
 0001:000056c8       ??_C@_1M@LEPJNLFD@?$AAn?$AAs?$AA?9?$AAZ?$AAA@ 00000001800066c8     libcpmt:winapinls.obj
 0001:000056d8       ??_C@_1M@OMLEIIJB@?$AAm?$AAi?$AA?9?$AAN?$AAZ@ 00000001800066d8     libcpmt:winapinls.obj
 0001:000056e8       ??_C@_1M@PMPEAILG@?$AAa?$AAr?$AA?9?$AAI?$AAQ@ 00000001800066e8     libcpmt:winapinls.obj
 0001:000056f8       ??_C@_1M@BIBDDEMK@?$AAz?$AAh?$AA?9?$AAC?$AAN@ 00000001800066f8     libcpmt:winapinls.obj
 0001:00005708       ??_C@_1M@CNKPNOEE@?$AAd?$AAe?$AA?9?$AAC?$AAH@ 0000000180006708     libcpmt:winapinls.obj
 0001:00005718       ??_C@_1M@LKMGMLKO@?$AAe?$AAn?$AA?9?$AAG?$AAB@ 0000000180006718     libcpmt:winapinls.obj
 0001:00005728       ??_C@_1M@PGKJFFGL@?$AAe?$AAs?$AA?9?$AAM?$AAX@ 0000000180006728     libcpmt:winapinls.obj
 0001:00005738       ??_C@_1M@DNNANBDC@?$AAf?$AAr?$AA?9?$AAB?$AAE@ 0000000180006738     libcpmt:winapinls.obj
 0001:00005748       ??_C@_1M@HLGMDFHM@?$AAi?$AAt?$AA?9?$AAC?$AAH@ 0000000180006748     libcpmt:winapinls.obj
 0001:00005758       ??_C@_1M@CLLBGJH@?$AAn?$AAl?$AA?9?$AAB?$AAE@ 0000000180006758     libcpmt:winapinls.obj
 0001:00005768       ??_C@_1M@BODBOGLF@?$AAn?$AAn?$AA?9?$AAN?$AAO@ 0000000180006768     libcpmt:winapinls.obj
 0001:00005778       ??_C@_1M@HFFAHKAD@?$AAp?$AAt?$AA?9?$AAP?$AAT@ 0000000180006778     libcpmt:winapinls.obj
 0001:00005788       ??_C@_1BG@LNOAKHIE@?$AAs?$AAr?$AA?9?$AAS?$AAP?$AA?9?$AAL?$AAa?$AAt?$AAn@ 0000000180006788     libcpmt:winapinls.obj
 0001:000057a0       ??_C@_1M@HBMHBGAK@?$AAs?$AAv?$AA?9?$AAF?$AAI@ 00000001800067a0     libcpmt:winapinls.obj
 0001:000057b0       ??_C@_1BG@DGCJGJBE@?$AAa?$AAz?$AA?9?$AAA?$AAZ?$AA?9?$AAC?$AAy?$AAr?$AAl@ 00000001800067b0     libcpmt:winapinls.obj
 0001:000057c8       ??_C@_1M@KEJDAAHB@?$AAs?$AAe?$AA?9?$AAS?$AAE@ 00000001800067c8     libcpmt:winapinls.obj
 0001:000057d8       ??_C@_1M@HEIBJJAD@?$AAm?$AAs?$AA?9?$AAB?$AAN@ 00000001800067d8     libcpmt:winapinls.obj
 0001:000057e8       ??_C@_1BG@PBGJMCEM@?$AAu?$AAz?$AA?9?$AAU?$AAZ?$AA?9?$AAC?$AAy?$AAr?$AAl@ 00000001800067e8     libcpmt:winapinls.obj
 0001:00005800       ??_C@_1O@LAOBCMDF@?$AAq?$AAu?$AAz?$AA?9?$AAE?$AAC@ 0000000180006800     libcpmt:winapinls.obj
 0001:00005810       ??_C@_1M@POEEMAIO@?$AAa?$AAr?$AA?9?$AAE?$AAG@ 0000000180006810     libcpmt:winapinls.obj
 0001:00005820       ??_C@_1M@EFAKDEDL@?$AAz?$AAh?$AA?9?$AAH?$AAK@ 0000000180006820     libcpmt:winapinls.obj
 0001:00005830       ??_C@_1M@HKKIJHGI@?$AAd?$AAe?$AA?9?$AAA?$AAT@ 0000000180006830     libcpmt:winapinls.obj
 0001:00005840       ??_C@_1M@KBFBEHJF@?$AAe?$AAn?$AA?9?$AAA?$AAU@ 0000000180006840     libcpmt:winapinls.obj
 0001:00005850       ??_C@_1M@MNPLFAAH@?$AAe?$AAs?$AA?9?$AAE?$AAS@ 0000000180006850     libcpmt:winapinls.obj
 0001:00005860       ??_C@_1M@HJOOJFMA@?$AAf?$AAr?$AA?9?$AAC?$AAA@ 0000000180006860     libcpmt:winapinls.obj
 0001:00005870       ??_C@_1BG@JPOFPNAB@?$AAs?$AAr?$AA?9?$AAS?$AAP?$AA?9?$AAC?$AAy?$AAr?$AAl@ 0000000180006870     libcpmt:winapinls.obj
 0001:00005888       ??_C@_1M@LNFOCMOB@?$AAs?$AAe?$AA?9?$AAF?$AAI@ 0000000180006888     libcpmt:winapinls.obj
 0001:00005898       ??_C@_1O@MGJBOAMB@?$AAq?$AAu?$AAz?$AA?9?$AAP?$AAE@ 0000000180006898     libcpmt:winapinls.obj
 0001:000058a8       ??_C@_1M@GJINLBOK@?$AAa?$AAr?$AA?9?$AAL?$AAY@ 00000001800068a8     libcpmt:winapinls.obj
 0001:000058b8       ??_C@_1M@GGMNHJNL@?$AAz?$AAh?$AA?9?$AAS?$AAG@ 00000001800068b8     libcpmt:winapinls.obj
 0001:000058c8       ??_C@_1M@HOIKODND@?$AAd?$AAe?$AA?9?$AAL?$AAU@ 00000001800068c8     libcpmt:winapinls.obj
 0001:000058d8       ??_C@_1M@DDOCCGFG@?$AAe?$AAn?$AA?9?$AAC?$AAA@ 00000001800068d8     libcpmt:winapinls.obj
 0001:000058e8       ??_C@_1M@BNOEMJLF@?$AAe?$AAs?$AA?9?$AAG?$AAT@ 00000001800068e8     libcpmt:winapinls.obj
 0001:000058f8       ??_C@_1M@EOGNKEK@?$AAf?$AAr?$AA?9?$AAC?$AAH@ 00000001800068f8     libcpmt:winapinls.obj
 0001:00005908       ??_C@_1M@FLIDJFHL@?$AAh?$AAr?$AA?9?$AAB?$AAA@ 0000000180006908     libcpmt:winapinls.obj
 0001:00005918       ??_C@_1O@FMCELNAJ@?$AAs?$AAm?$AAj?$AA?9?$AAN?$AAO@ 0000000180006918     libcpmt:winapinls.obj
 0001:00005928       ??_C@_1M@JHGLJMGJ@?$AAa?$AAr?$AA?9?$AAD?$AAZ@ 0000000180006928     libcpmt:winapinls.obj
 0001:00005938       ??_C@_1M@JKKFDCNP@?$AAz?$AAh?$AA?9?$AAM?$AAO@ 0000000180006938     libcpmt:winapinls.obj
 0001:00005948       ??_C@_1M@GEEFALPE@?$AAd?$AAe?$AA?9?$AAL?$AAI@ 0000000180006948     libcpmt:winapinls.obj
 0001:00005958       ??_C@_1M@IGEOFBG@?$AAe?$AAn?$AA?9?$AAN?$AAZ@ 0000000180006958     libcpmt:winapinls.obj
 0001:00005968       ??_C@_1M@KDBONEHP@?$AAe?$AAs?$AA?9?$AAC?$AAR@ 0000000180006968     libcpmt:winapinls.obj
 0001:00005978       ??_C@_1M@FHMDOHNN@?$AAf?$AAr?$AA?9?$AAL?$AAU@ 0000000180006978     libcpmt:winapinls.obj
 0001:00005988       ??_C@_1BG@NFKKMAFG@?$AAb?$AAs?$AA?9?$AAB?$AAA?$AA?9?$AAL?$AAa?$AAt?$AAn@ 0000000180006988     libcpmt:winapinls.obj
 0001:000059a0       ??_C@_1O@IMNBEMCI@?$AAs?$AAm?$AAj?$AA?9?$AAS?$AAE@ 00000001800069a0     libcpmt:winapinls.obj
 0001:000059b0       ??_C@_1M@DHHMBNDP@?$AAa?$AAr?$AA?9?$AAM?$AAA@ 00000001800069b0     libcpmt:winapinls.obj
 0001:000059c0       ??_C@_1M@BNBLJCGH@?$AAe?$AAn?$AA?9?$AAI?$AAE@ 00000001800069c0     libcpmt:winapinls.obj
 0001:000059d0       ??_C@_1M@GEPAFMDL@?$AAe?$AAs?$AA?9?$AAP?$AAA@ 00000001800069d0     libcpmt:winapinls.obj
 0001:000059e0       ??_C@_1M@OJONDMDL@?$AAf?$AAr?$AA?9?$AAM?$AAC@ 00000001800069e0     libcpmt:winapinls.obj
 0001:000059f0       ??_C@_1BG@OBCNFJB@?$AAs?$AAr?$AA?9?$AAB?$AAA?$AA?9?$AAL?$AAa?$AAt?$AAn@ 00000001800069f0     libcpmt:winapinls.obj
 0001:00005a08       ??_C@_1O@KEMEEGPO@?$AAs?$AAm?$AAa?$AA?9?$AAN?$AAO@ 0000000180006a08     libcpmt:winapinls.obj
 0001:00005a18       ??_C@_1M@ELMGFODK@?$AAa?$AAr?$AA?9?$AAT?$AAN@ 0000000180006a18     libcpmt:winapinls.obj
 0001:00005a28       ??_C@_1M@BHDLHFAF@?$AAe?$AAn?$AA?9?$AAZ?$AAA@ 0000000180006a28     libcpmt:winapinls.obj
 0001:00005a38       ??_C@_1M@BMGIGLIF@?$AAe?$AAs?$AA?9?$AAD?$AAO@ 0000000180006a38     libcpmt:winapinls.obj
 0001:00005a48       ??_C@_1BG@CMBHIPBE@?$AAs?$AAr?$AA?9?$AAB?$AAA?$AA?9?$AAC?$AAy?$AAr?$AAl@ 0000000180006a48     libcpmt:winapinls.obj
 0001:00005a60       ??_C@_1O@HEDBLHNP@?$AAs?$AAm?$AAa?$AA?9?$AAS?$AAE@ 0000000180006a60     libcpmt:winapinls.obj
 0001:00005a70       ??_C@_1M@DAGCADIM@?$AAa?$AAr?$AA?9?$AAO?$AAM@ 0000000180006a70     libcpmt:winapinls.obj
 0001:00005a80       ??_C@_1M@FODLMICG@?$AAe?$AAn?$AA?9?$AAJ?$AAM@ 0000000180006a80     libcpmt:winapinls.obj
 0001:00005a90       ??_C@_1M@DNMLCIHB@?$AAe?$AAs?$AA?9?$AAV?$AAE@ 0000000180006a90     libcpmt:winapinls.obj
 0001:00005aa0       ??_C@_1O@EOKHMKJK@?$AAs?$AAm?$AAs?$AA?9?$AAF?$AAI@ 0000000180006aa0     libcpmt:winapinls.obj
 0001:00005ab0       ??_C@_1M@CAFJMKOF@?$AAa?$AAr?$AA?9?$AAY?$AAE@ 0000000180006ab0     libcpmt:winapinls.obj
 0001:00005ac0       ??_C@_1M@CBFHIJLI@?$AAe?$AAn?$AA?9?$AAC?$AAB@ 0000000180006ac0     libcpmt:winapinls.obj
 0001:00005ad0       ??_C@_1M@BGNFLDN@?$AAe?$AAs?$AA?9?$AAC?$AAO@ 0000000180006ad0     libcpmt:winapinls.obj
 0001:00005ae0       ??_C@_1O@JMPHMAMC@?$AAs?$AAm?$AAn?$AA?9?$AAF?$AAI@ 0000000180006ae0     libcpmt:winapinls.obj
 0001:00005af0       ??_C@_1M@JLANABKE@?$AAa?$AAr?$AA?9?$AAS?$AAY@ 0000000180006af0     libcpmt:winapinls.obj
 0001:00005b00       ??_C@_1M@HPKGCFGN@?$AAe?$AAn?$AA?9?$AAB?$AAZ@ 0000000180006b00     libcpmt:winapinls.obj
 0001:00005b10       ??_C@_1M@OLJCMLGM@?$AAe?$AAs?$AA?9?$AAP?$AAE@ 0000000180006b10     libcpmt:winapinls.obj
 0001:00005b20       ??_C@_1M@MKKGFKLE@?$AAa?$AAr?$AA?9?$AAJ?$AAO@ 0000000180006b20     libcpmt:winapinls.obj
 0001:00005b30       ??_C@_1M@EKPGLDNI@?$AAe?$AAn?$AA?9?$AAT?$AAT@ 0000000180006b30     libcpmt:winapinls.obj
 0001:00005b40       ??_C@_1M@OONGHFHE@?$AAe?$AAs?$AA?9?$AAA?$AAR@ 0000000180006b40     libcpmt:winapinls.obj
 0001:00005b50       ??_C@_1M@OOJFGBHE@?$AAa?$AAr?$AA?9?$AAL?$AAB@ 0000000180006b50     libcpmt:winapinls.obj
 0001:00005b60       ??_C@_1M@GCEJHNEG@?$AAe?$AAn?$AA?9?$AAZ?$AAW@ 0000000180006b60     libcpmt:winapinls.obj
 0001:00005b70       ??_C@_1M@JNOCAHJI@?$AAe?$AAs?$AA?9?$AAE?$AAC@ 0000000180006b70     libcpmt:winapinls.obj
 0001:00005b80       ??_C@_1M@JEFHPGGB@?$AAa?$AAr?$AA?9?$AAK?$AAW@ 0000000180006b80     libcpmt:winapinls.obj
 0001:00005b90       ??_C@_1M@MLKIBJOJ@?$AAe?$AAn?$AA?9?$AAP?$AAH@ 0000000180006b90     libcpmt:winapinls.obj
 0001:00005ba0       ??_C@_1M@BDNIPEND@?$AAe?$AAs?$AA?9?$AAC?$AAL@ 0000000180006ba0     libcpmt:winapinls.obj
 0001:00005bb0       ??_C@_1M@MPNMEKBD@?$AAa?$AAr?$AA?9?$AAA?$AAE@ 0000000180006bb0     libcpmt:winapinls.obj
 0001:00005bc0       ??_C@_1M@KBJALCPI@?$AAe?$AAs?$AA?9?$AAU?$AAY@ 0000000180006bc0     libcpmt:winapinls.obj
 0001:00005bd0       ??_C@_1M@LLCCOAGA@?$AAa?$AAr?$AA?9?$AAB?$AAH@ 0000000180006bd0     libcpmt:winapinls.obj
 0001:00005be0       ??_C@_1M@PBFNCDEL@?$AAe?$AAs?$AA?9?$AAP?$AAY@ 0000000180006be0     libcpmt:winapinls.obj
 0001:00005bf0       ??_C@_1M@EDGINPNP@?$AAa?$AAr?$AA?9?$AAQ?$AAA@ 0000000180006bf0     libcpmt:winapinls.obj
 0001:00005c00       ??_C@_1M@MKDBIIJI@?$AAe?$AAs?$AA?9?$AAB?$AAO@ 0000000180006c00     libcpmt:winapinls.obj
 0001:00005c10       ??_C@_1M@CPKKEBLD@?$AAe?$AAs?$AA?9?$AAS?$AAV@ 0000000180006c10     libcpmt:winapinls.obj
 0001:00005c20       ??_C@_1M@NDBGMMJL@?$AAe?$AAs?$AA?9?$AAH?$AAN@ 0000000180006c20     libcpmt:winapinls.obj
 0001:00005c30       ??_C@_1M@JIJIBHDP@?$AAe?$AAs?$AA?9?$AAN?$AAI@ 0000000180006c30     libcpmt:winapinls.obj
 0001:00005c40       ??_C@_1M@CGFMKEEK@?$AAe?$AAs?$AA?9?$AAP?$AAR@ 0000000180006c40     libcpmt:winapinls.obj
 0001:00005c50       ??_C@_1O@ICJHKIIK@?$AAz?$AAh?$AA?9?$AAC?$AAH?$AAT@ 0000000180006c50     libcpmt:winapinls.obj
 0001:00005c60       ??_C@_15CLNEJCE@?$AAs?$AAr@ 0000000180006c60     libcpmt:winapinls.obj
 0001:00005c68       ??_C@_1M@KAHEKEIG@?$AAa?$AAf?$AA?9?$AAz?$AAa@ 0000000180006c68     libcpmt:winapinls.obj
 0001:00005c78       ??_C@_1M@GIECOABL@?$AAa?$AAr?$AA?9?$AAa?$AAe@ 0000000180006c78     libcpmt:winapinls.obj
 0001:00005c88       ??_C@_1M@BMLMEKGI@?$AAa?$AAr?$AA?9?$AAb?$AAh@ 0000000180006c88     libcpmt:winapinls.obj
 0001:00005c98       ??_C@_1M@DAPFDGGB@?$AAa?$AAr?$AA?9?$AAd?$AAz@ 0000000180006c98     libcpmt:winapinls.obj
 0001:00005ca8       ??_C@_1M@FJNKGKIG@?$AAa?$AAr?$AA?9?$AAe?$AAg@ 0000000180006ca8     libcpmt:winapinls.obj
 0001:00005cb8       ??_C@_1M@FLGKKCLO@?$AAa?$AAr?$AA?9?$AAi?$AAq@ 0000000180006cb8     libcpmt:winapinls.obj
 0001:00005cc8       ??_C@_1M@GNDIPALM@?$AAa?$AAr?$AA?9?$AAj?$AAo@ 0000000180006cc8     libcpmt:winapinls.obj
 0001:00005cd8       ??_C@_1M@DDMJFMGJ@?$AAa?$AAr?$AA?9?$AAk?$AAw@ 0000000180006cd8     libcpmt:winapinls.obj
 0001:00005ce8       ??_C@_1M@EJALMLHM@?$AAa?$AAr?$AA?9?$AAl?$AAb@ 0000000180006ce8     libcpmt:winapinls.obj
 0001:00005cf8       ??_C@_1M@MOBDBLOC@?$AAa?$AAr?$AA?9?$AAl?$AAy@ 0000000180006cf8     libcpmt:winapinls.obj
 0001:00005d08       ??_C@_1M@JAOCLHDH@?$AAa?$AAr?$AA?9?$AAm?$AAa@ 0000000180006d08     libcpmt:winapinls.obj
 0001:00005d18       ??_C@_1M@JHPMKJIE@?$AAa?$AAr?$AA?9?$AAo?$AAm@ 0000000180006d18     libcpmt:winapinls.obj
 0001:00005d28       ??_C@_1M@OEPGHFNH@?$AAa?$AAr?$AA?9?$AAq?$AAa@ 0000000180006d28     libcpmt:winapinls.obj
 0001:00005d38       ??_C@_1M@KJDONENM@?$AAa?$AAr?$AA?9?$AAs?$AAa@ 0000000180006d38     libcpmt:winapinls.obj
 0001:00005d48       ??_C@_1M@DMJDKLKM@?$AAa?$AAr?$AA?9?$AAs?$AAy@ 0000000180006d48     libcpmt:winapinls.obj
 0001:00005d58       ??_C@_1M@OMFIPEDC@?$AAa?$AAr?$AA?9?$AAt?$AAn@ 0000000180006d58     libcpmt:winapinls.obj
 0001:00005d68       ??_C@_1M@IHMHGAON@?$AAa?$AAr?$AA?9?$AAy?$AAe@ 0000000180006d68     libcpmt:winapinls.obj
 0001:00005d78       ??_C@_1BG@KDCPGJGB@?$AAa?$AAz?$AA?9?$AAa?$AAz?$AA?9?$AAc?$AAy?$AAr?$AAl@ 0000000180006d78     libcpmt:winapinls.obj
 0001:00005d90       ??_C@_1BG@IBCKDDOE@?$AAa?$AAz?$AA?9?$AAa?$AAz?$AA?9?$AAl?$AAa?$AAt?$AAn@ 0000000180006d90     libcpmt:winapinls.obj
 0001:00005da8       ??_C@_1M@EGPFDCPD@?$AAb?$AAe?$AA?9?$AAb?$AAy@ 0000000180006da8     libcpmt:winapinls.obj
 0001:00005db8       ??_C@_1M@PCMGMCGC@?$AAb?$AAg?$AA?9?$AAb?$AAg@ 0000000180006db8     libcpmt:winapinls.obj
 0001:00005dc8       ??_C@_1M@BJBMFGOB@?$AAb?$AAn?$AA?9?$AAi?$AAn@ 0000000180006dc8     libcpmt:winapinls.obj
 0001:00005dd8       ??_C@_1BG@EAKMMACD@?$AAb?$AAs?$AA?9?$AAb?$AAa?$AA?9?$AAl?$AAa?$AAt?$AAn@ 0000000180006dd8     libcpmt:winapinls.obj
 0001:00005df0       ??_C@_1M@KGADAODK@?$AAc?$AAa?$AA?9?$AAe?$AAs@ 0000000180006df0     libcpmt:winapinls.obj
 0001:00005e00       ??_C@_1M@COAJPDHI@?$AAc?$AAs?$AA?9?$AAc?$AAz@ 0000000180006e00     libcpmt:winapinls.obj
 0001:00005e10       ??_C@_1M@DHBHFONH@?$AAc?$AAy?$AA?9?$AAg?$AAb@ 0000000180006e10     libcpmt:winapinls.obj
 0001:00005e20       ??_C@_1M@IMGKELGA@?$AAd?$AAa?$AA?9?$AAd?$AAk@ 0000000180006e20     libcpmt:winapinls.obj
 0001:00005e30       ??_C@_1M@NNDGDNGA@?$AAd?$AAe?$AA?9?$AAa?$AAt@ 0000000180006e30     libcpmt:winapinls.obj
 0001:00005e40       ??_C@_1M@IKDBHEEM@?$AAd?$AAe?$AA?9?$AAc?$AAh@ 0000000180006e40     libcpmt:winapinls.obj
 0001:00005e50       ??_C@_1M@GFFOJMCJ@?$AAd?$AAe?$AA?9?$AAd?$AAe@ 0000000180006e50     libcpmt:winapinls.obj
 0001:00005e60       ??_C@_1M@MDNLKBPM@?$AAd?$AAe?$AA?9?$AAl?$AAi@ 0000000180006e60     libcpmt:winapinls.obj
 0001:00005e70       ??_C@_1M@NJBEEJNL@?$AAd?$AAe?$AA?9?$AAl?$AAu@ 0000000180006e70     libcpmt:winapinls.obj
 0001:00005e80       ??_C@_1O@GNNELBAP@?$AAd?$AAi?$AAv?$AA?9?$AAm?$AAv@ 0000000180006e80     libcpmt:winapinls.obj
 0001:00005e90       ??_C@_1M@EJLEOGAE@?$AAe?$AAl?$AA?9?$AAg?$AAr@ 0000000180006e90     libcpmt:winapinls.obj
 0001:00005ea0       ??_C@_1M@GMPONJN@?$AAe?$AAn?$AA?9?$AAa?$AAu@ 0000000180006ea0     libcpmt:winapinls.obj
 0001:00005eb0       ??_C@_1M@NIDIIPGF@?$AAe?$AAn?$AA?9?$AAb?$AAz@ 0000000180006eb0     libcpmt:winapinls.obj
 0001:00005ec0       ??_C@_1M@JEHMIMFO@?$AAe?$AAn?$AA?9?$AAc?$AAa@ 0000000180006ec0     libcpmt:winapinls.obj
 0001:00005ed0       ??_C@_1M@IGMJCDLA@?$AAe?$AAn?$AA?9?$AAc?$AAb@ 0000000180006ed0     libcpmt:winapinls.obj
 0001:00005ee0       ??_C@_1M@BNFIGBKG@?$AAe?$AAn?$AA?9?$AAg?$AAb@ 0000000180006ee0     libcpmt:winapinls.obj
 0001:00005ef0       ??_C@_1M@LKIFDIGP@?$AAe?$AAn?$AA?9?$AAi?$AAe@ 0000000180006ef0     libcpmt:winapinls.obj
 0001:00005f00       ??_C@_1M@PJKFGCCO@?$AAe?$AAn?$AA?9?$AAj?$AAm@ 0000000180006f00     libcpmt:winapinls.obj
 0001:00005f10       ??_C@_1M@KPPKEPBO@?$AAe?$AAn?$AA?9?$AAn?$AAz@ 0000000180006f10     libcpmt:winapinls.obj
 0001:00005f20       ??_C@_1M@GMDGLDOB@?$AAe?$AAn?$AA?9?$AAp?$AAh@ 0000000180006f20     libcpmt:winapinls.obj
 0001:00005f30       ??_C@_1M@ONGIBJNA@?$AAe?$AAn?$AA?9?$AAt?$AAt@ 0000000180006f30     libcpmt:winapinls.obj
 0001:00005f40       ??_C@_1M@LLODPCMM@?$AAe?$AAn?$AA?9?$AAu?$AAs@ 0000000180006f40     libcpmt:winapinls.obj
 0001:00005f50       ??_C@_1M@LAKFNPAN@?$AAe?$AAn?$AA?9?$AAz?$AAa@ 0000000180006f50     libcpmt:winapinls.obj
 0001:00005f60       ??_C@_1M@MFNHNHEO@?$AAe?$AAn?$AA?9?$AAz?$AAw@ 0000000180006f60     libcpmt:winapinls.obj
 0001:00005f70       ??_C@_1M@EJEINPHM@?$AAe?$AAs?$AA?9?$AAa?$AAr@ 0000000180006f70     libcpmt:winapinls.obj
 0001:00005f80       ??_C@_1M@GNKPCCJA@?$AAe?$AAs?$AA?9?$AAb?$AAo@ 0000000180006f80     libcpmt:winapinls.obj
 0001:00005f90       ??_C@_1M@LEEGFONL@?$AAe?$AAs?$AA?9?$AAc?$AAl@ 0000000180006f90     libcpmt:winapinls.obj
 0001:00005fa0       ??_C@_1M@KGPDPBDF@?$AAe?$AAs?$AA?9?$AAc?$AAo@ 0000000180006fa0     libcpmt:winapinls.obj
 0001:00005fb0       ??_C@_1M@EIAHOHH@?$AAe?$AAs?$AA?9?$AAc?$AAr@ 0000000180006fb0     libcpmt:winapinls.obj
 0001:00005fc0       ??_C@_1M@LLPGMBIN@?$AAe?$AAs?$AA?9?$AAd?$AAo@ 0000000180006fc0     libcpmt:winapinls.obj
 0001:00005fd0       ??_C@_1M@DKHMKNJA@?$AAe?$AAs?$AA?9?$AAe?$AAc@ 0000000180006fd0     libcpmt:winapinls.obj
 0001:00005fe0       ??_C@_1M@GKGFPKAP@?$AAe?$AAs?$AA?9?$AAe?$AAs@ 0000000180006fe0     libcpmt:winapinls.obj
 0001:00005ff0       ??_C@_1M@LKHKGDLN@?$AAe?$AAs?$AA?9?$AAg?$AAt@ 0000000180006ff0     libcpmt:winapinls.obj
 0001:00006000       ??_C@_1M@HEIIGGJD@?$AAe?$AAs?$AA?9?$AAh?$AAn@ 0000000180007000     libcpmt:winapinls.obj
 0001:00006010       ??_C@_1M@FBDHPPGD@?$AAe?$AAs?$AA?9?$AAm?$AAx@ 0000000180007010     libcpmt:winapinls.obj
 0001:00006020       ??_C@_1M@DPAGLNDH@?$AAe?$AAs?$AA?9?$AAn?$AAi@ 0000000180007020     libcpmt:winapinls.obj
 0001:00006030       ??_C@_1M@MDGOPGDD@?$AAe?$AAs?$AA?9?$AAp?$AAa@ 0000000180007030     libcpmt:winapinls.obj
 0001:00006040       ??_C@_1M@EMAMGBGE@?$AAe?$AAs?$AA?9?$AAp?$AAe@ 0000000180007040     libcpmt:winapinls.obj
 0001:00006050       ??_C@_1M@IBMCAOEC@?$AAe?$AAs?$AA?9?$AAp?$AAr@ 0000000180007050     libcpmt:winapinls.obj
 0001:00006060       ??_C@_1M@FGMDIJED@?$AAe?$AAs?$AA?9?$AAp?$AAy@ 0000000180007060     libcpmt:winapinls.obj
 0001:00006070       ??_C@_1M@IIDEOLLL@?$AAe?$AAs?$AA?9?$AAs?$AAv@ 0000000180007070     libcpmt:winapinls.obj
 0001:00006080       ??_C@_1M@GAOBIPA@?$AAe?$AAs?$AA?9?$AAu?$AAy@ 0000000180007080     libcpmt:winapinls.obj
 0001:00006090       ??_C@_1M@JKFFICHJ@?$AAe?$AAs?$AA?9?$AAv?$AAe@ 0000000180007090     libcpmt:winapinls.obj
 0001:000060a0       ??_C@_1M@PNMLOJDF@?$AAe?$AAt?$AA?9?$AAe?$AAe@ 00000001800070a0     libcpmt:winapinls.obj
 0001:000060b0       ??_C@_1M@GHHLIKEI@?$AAe?$AAu?$AA?9?$AAe?$AAs@ 00000001800070b0     libcpmt:winapinls.obj
 0001:000060c0       ??_C@_1M@PBNONODE@?$AAf?$AAa?$AA?9?$AAi?$AAr@ 00000001800070c0     libcpmt:winapinls.obj
 0001:000060d0       ??_C@_1M@JEEHPMIL@?$AAf?$AAi?$AA?9?$AAf?$AAi@ 00000001800070d0     libcpmt:winapinls.obj
 0001:000060e0       ??_C@_1M@LMDCNDBA@?$AAf?$AAo?$AA?9?$AAf?$AAo@ 00000001800070e0     libcpmt:winapinls.obj
 0001:000060f0       ??_C@_1M@JKEOHLDK@?$AAf?$AAr?$AA?9?$AAb?$AAe@ 00000001800070f0     libcpmt:winapinls.obj
 0001:00006100       ??_C@_1M@NOHADPMI@?$AAf?$AAr?$AA?9?$AAc?$AAa@ 0000000180007100     libcpmt:winapinls.obj
 0001:00006110       ??_C@_1M@KDHIHAEC@?$AAf?$AAr?$AA?9?$AAc?$AAh@ 0000000180007110     libcpmt:winapinls.obj
 0001:00006120       ??_C@_1M@MMBBFGAK@?$AAf?$AAr?$AA?9?$AAf?$AAr@ 0000000180007120     libcpmt:winapinls.obj
 0001:00006130       ??_C@_1M@PAFNENNF@?$AAf?$AAr?$AA?9?$AAl?$AAu@ 0000000180007130     libcpmt:winapinls.obj
 0001:00006140       ??_C@_1M@EOHDJGDD@?$AAf?$AAr?$AA?9?$AAm?$AAc@ 0000000180007140     libcpmt:winapinls.obj
 0001:00006150       ??_C@_1M@FAPLLOPF@?$AAg?$AAl?$AA?9?$AAe?$AAs@ 0000000180007150     libcpmt:winapinls.obj
 0001:00006160       ??_C@_1M@FOPBFLOO@?$AAg?$AAu?$AA?9?$AAi?$AAn@ 0000000180007160     libcpmt:winapinls.obj
 0001:00006170       ??_C@_1M@KBMCINPM@?$AAh?$AAe?$AA?9?$AAi?$AAl@ 0000000180007170     libcpmt:winapinls.obj
 0001:00006180       ??_C@_1M@BBPHKFPJ@?$AAh?$AAi?$AA?9?$AAi?$AAn@ 0000000180007180     libcpmt:winapinls.obj
 0001:00006190       ??_C@_1M@PMBNDPHD@?$AAh?$AAr?$AA?9?$AAb?$AAa@ 0000000180007190     libcpmt:winapinls.obj
 0001:000061a0       ??_C@_1M@BPCKOEGE@?$AAh?$AAr?$AA?9?$AAh?$AAr@ 00000001800071a0     libcpmt:winapinls.obj
 0001:000061b0       ??_C@_1M@GACBMHKE@?$AAh?$AAu?$AA?9?$AAh?$AAu@ 00000001800071b0     libcpmt:winapinls.obj
 0001:000061c0       ??_C@_1M@MILPAJJC@?$AAh?$AAy?$AA?9?$AAa?$AAm@ 00000001800071c0     libcpmt:winapinls.obj
 0001:000061d0       ??_C@_1M@BABBICEC@?$AAi?$AAd?$AA?9?$AAi?$AAd@ 00000001800071d0     libcpmt:winapinls.obj
 0001:000061e0       ??_C@_1M@BIKNHHPF@?$AAi?$AAs?$AA?9?$AAi?$AAs@ 00000001800071e0     libcpmt:winapinls.obj
 0001:000061f0       ??_C@_1M@NMPCJPHE@?$AAi?$AAt?$AA?9?$AAc?$AAh@ 00000001800071f0     libcpmt:winapinls.obj
 0001:00006200       ??_C@_1M@GHKGFEDF@?$AAi?$AAt?$AA?9?$AAi?$AAt@ 0000000180007200     libcpmt:winapinls.obj
 0001:00006210       ??_C@_1M@NIEJCJJA@?$AAj?$AAa?$AA?9?$AAj?$AAp@ 0000000180007210     libcpmt:winapinls.obj
 0001:00006220       ??_C@_1M@JILFNBIM@?$AAk?$AAa?$AA?9?$AAg?$AAe@ 0000000180007220     libcpmt:winapinls.obj
 0001:00006230       ??_C@_1M@PACPMGPH@?$AAk?$AAk?$AA?9?$AAk?$AAz@ 0000000180007230     libcpmt:winapinls.obj
 0001:00006240       ??_C@_1M@IELFGMHA@?$AAk?$AAn?$AA?9?$AAi?$AAn@ 0000000180007240     libcpmt:winapinls.obj
 0001:00006250       ??_C@_1M@DMHAEOGC@?$AAk?$AAo?$AA?9?$AAk?$AAr@ 0000000180007250     libcpmt:winapinls.obj
 0001:00006260       ??_C@_1O@IBBJHCH@?$AAk?$AAo?$AAk?$AA?9?$AAi?$AAn@ 0000000180007260     libcpmt:winapinls.obj
 0001:00006270       ??_C@_1M@HBAHBIGA@?$AAk?$AAy?$AA?9?$AAk?$AAg@ 0000000180007270     libcpmt:winapinls.obj
 0001:00006280       ??_C@_1M@KPMILCJG@?$AAl?$AAt?$AA?9?$AAl?$AAt@ 0000000180007280     libcpmt:winapinls.obj
 0001:00006290       ??_C@_1M@BDEKKCA@?$AAl?$AAv?$AA?9?$AAl?$AAv@ 0000000180007290     libcpmt:winapinls.obj
 0001:000062a0       ??_C@_1M@ELCKCCJJ@?$AAm?$AAi?$AA?9?$AAn?$AAz@ 00000001800072a0     libcpmt:winapinls.obj
 0001:000062b0       ??_C@_1M@CBOOLAPA@?$AAm?$AAk?$AA?9?$AAm?$AAk@ 00000001800072b0     libcpmt:winapinls.obj
 0001:000062c0       ??_C@_1M@GPHNBJKN@?$AAm?$AAl?$AA?9?$AAi?$AAn@ 00000001800072c0     libcpmt:winapinls.obj
 0001:000062d0       ??_C@_1M@PABJILIG@?$AAm?$AAn?$AA?9?$AAm?$AAn@ 00000001800072d0     libcpmt:winapinls.obj
 0001:000062e0       ??_C@_1M@FGBKKIPG@?$AAm?$AAr?$AA?9?$AAi?$AAn@ 00000001800072e0     libcpmt:winapinls.obj
 0001:000062f0       ??_C@_1M@NDBPDDAL@?$AAm?$AAs?$AA?9?$AAb?$AAn@ 00000001800072f0     libcpmt:winapinls.obj
 0001:00006300       ??_C@_1M@OPIHOOPI@?$AAm?$AAs?$AA?9?$AAm?$AAy@ 0000000180007300     libcpmt:winapinls.obj
 0001:00006310       ??_C@_1M@PPDBCNFM@?$AAm?$AAt?$AA?9?$AAm?$AAt@ 0000000180007310     libcpmt:winapinls.obj
 0001:00006320       ??_C@_1M@KDJDKMDD@?$AAn?$AAb?$AA?9?$AAn?$AAo@ 0000000180007320     libcpmt:winapinls.obj
 0001:00006330       ??_C@_1M@KFCFLMJP@?$AAn?$AAl?$AA?9?$AAb?$AAe@ 0000000180007330     libcpmt:winapinls.obj
 0001:00006340       ??_C@_1M@KPOPDDGO@?$AAn?$AAl?$AA?9?$AAn?$AAl@ 0000000180007340     libcpmt:winapinls.obj
 0001:00006350       ??_C@_1M@LJKPEMLN@?$AAn?$AAn?$AA?9?$AAn?$AAo@ 0000000180007350     libcpmt:winapinls.obj
 0001:00006360       ??_C@_1M@BDGHHBFL@?$AAn?$AAs?$AA?9?$AAz?$AAa@ 0000000180007360     libcpmt:winapinls.obj
 0001:00006370       ??_C@_1M@IDEHOAP@?$AAp?$AAa?$AA?9?$AAi?$AAn@ 0000000180007370     libcpmt:winapinls.obj
 0001:00006380       ??_C@_1M@HDBKGOGH@?$AAp?$AAl?$AA?9?$AAp?$AAl@ 0000000180007380     libcpmt:winapinls.obj
 0001:00006390       ??_C@_1M@LJLLCMEH@?$AAp?$AAt?$AA?9?$AAb?$AAr@ 0000000180007390     libcpmt:winapinls.obj
 0001:000063a0       ??_C@_1M@NCMONAAL@?$AAp?$AAt?$AA?9?$AAp?$AAt@ 00000001800073a0     libcpmt:winapinls.obj
 0001:000063b0       ??_C@_1O@EAKMAJDN@?$AAq?$AAu?$AAz?$AA?9?$AAb?$AAo@ 00000001800073b0     libcpmt:winapinls.obj
 0001:000063c0       ??_C@_1O@BHHPIGDN@?$AAq?$AAu?$AAz?$AA?9?$AAe?$AAc@ 00000001800073c0     libcpmt:winapinls.obj
 0001:000063d0       ??_C@_1O@GBAPEKMJ@?$AAq?$AAu?$AAz?$AA?9?$AAp?$AAe@ 00000001800073d0     libcpmt:winapinls.obj
 0001:000063e0       ??_C@_1M@CLGLEFBO@?$AAr?$AAo?$AA?9?$AAr?$AAo@ 00000001800073e0     libcpmt:winapinls.obj
 0001:000063f0       ??_C@_1M@CEEDODME@?$AAr?$AAu?$AA?9?$AAr?$AAu@ 00000001800073f0     libcpmt:winapinls.obj
 0001:00006400       ??_C@_1M@HPKKKMPP@?$AAs?$AAa?$AA?9?$AAi?$AAn@ 0000000180007400     libcpmt:winapinls.obj
 0001:00006410       ??_C@_1M@BKMAIGOJ@?$AAs?$AAe?$AA?9?$AAf?$AAi@ 0000000180007410     libcpmt:winapinls.obj
 0001:00006420       ??_C@_1M@NDPIFLFI@?$AAs?$AAe?$AA?9?$AAn?$AAo@ 0000000180007420     libcpmt:winapinls.obj
 0001:00006430       ??_C@_1M@DANKKHJ@?$AAs?$AAe?$AA?9?$AAs?$AAe@ 0000000180007430     libcpmt:winapinls.obj
 0001:00006440       ??_C@_1M@PNBLONPJ@?$AAs?$AAk?$AA?9?$AAs?$AAk@ 0000000180007440     libcpmt:winapinls.obj
 0001:00006450       ??_C@_1M@LFMODOAL@?$AAs?$AAl?$AA?9?$AAs?$AAi@ 0000000180007450     libcpmt:winapinls.obj
 0001:00006460       ??_C@_1O@DFKOMPG@?$AAs?$AAm?$AAa?$AA?9?$AAn?$AAo@ 0000000180007460     libcpmt:winapinls.obj
 0001:00006470       ??_C@_1O@NDKPBNNH@?$AAs?$AAm?$AAa?$AA?9?$AAs?$AAe@ 0000000180007470     libcpmt:winapinls.obj
 0001:00006480       ??_C@_1O@PLLKBHAB@?$AAs?$AAm?$AAj?$AA?9?$AAn?$AAo@ 0000000180007480     libcpmt:winapinls.obj
 0001:00006490       ??_C@_1O@CLEPOGCA@?$AAs?$AAm?$AAj?$AA?9?$AAs?$AAe@ 0000000180007490     libcpmt:winapinls.obj
 0001:000064a0       ??_C@_1O@DLGJGKMK@?$AAs?$AAm?$AAn?$AA?9?$AAf?$AAi@ 00000001800074a0     libcpmt:winapinls.obj
 0001:000064b0       ??_C@_1O@OJDJGAJC@?$AAs?$AAm?$AAs?$AA?9?$AAf?$AAi@ 00000001800074b0     libcpmt:winapinls.obj
 0001:000064c0       ??_C@_1M@BOFOGHPB@?$AAs?$AAq?$AA?9?$AAa?$AAl@ 00000001800074c0     libcpmt:winapinls.obj
 0001:000064d0       ??_C@_1BG@LJBBIPGB@?$AAs?$AAr?$AA?9?$AAb?$AAa?$AA?9?$AAc?$AAy?$AAr?$AAl@ 00000001800074d0     libcpmt:winapinls.obj
 0001:000064e8       ??_C@_1BG@JLBENFOE@?$AAs?$AAr?$AA?9?$AAb?$AAa?$AA?9?$AAl?$AAa?$AAt?$AAn@ 00000001800074e8     libcpmt:winapinls.obj
 0001:00006500       ??_C@_1BG@KODPNHE@?$AAs?$AAr?$AA?9?$AAs?$AAp?$AA?9?$AAc?$AAy?$AAr?$AAl@ 0000000180007500     libcpmt:winapinls.obj
 0001:00006518       ??_C@_1BG@CIOGKHPB@?$AAs?$AAr?$AA?9?$AAs?$AAp?$AA?9?$AAl?$AAa?$AAt?$AAn@ 0000000180007518     libcpmt:winapinls.obj
 0001:00006530       ??_C@_1M@NGFJLMAC@?$AAs?$AAv?$AA?9?$AAf?$AAi@ 0000000180007530     libcpmt:winapinls.obj
 0001:00006540       ??_C@_1M@MPJEJAJC@?$AAs?$AAv?$AA?9?$AAs?$AAe@ 0000000180007540     libcpmt:winapinls.obj
 0001:00006550       ??_C@_1M@MPNDHLFK@?$AAs?$AAw?$AA?9?$AAk?$AAe@ 0000000180007550     libcpmt:winapinls.obj
 0001:00006560       ??_C@_1O@KOHBJJI@?$AAs?$AAy?$AAr?$AA?9?$AAs?$AAy@ 0000000180007560     libcpmt:winapinls.obj
 0001:00006570       ??_C@_1M@LDCEFHA@?$AAt?$AAa?$AA?9?$AAi?$AAn@ 0000000180007570     libcpmt:winapinls.obj
 0001:00006580       ??_C@_1M@CNJOFAK@?$AAt?$AAe?$AA?9?$AAi?$AAn@ 0000000180007580     libcpmt:winapinls.obj
 0001:00006590       ??_C@_1M@GNAECACD@?$AAt?$AAh?$AA?9?$AAt?$AAh@ 0000000180007590     libcpmt:winapinls.obj
 0001:000065a0       ??_C@_1M@CHBIHOJO@?$AAt?$AAn?$AA?9?$AAz?$AAa@ 00000001800075a0     libcpmt:winapinls.obj
 0001:000065b0       ??_C@_1M@GCCMIGPJ@?$AAt?$AAr?$AA?9?$AAt?$AAr@ 00000001800075b0     libcpmt:winapinls.obj
 0001:000065c0       ??_C@_1M@CELMCNBK@?$AAt?$AAt?$AA?9?$AAr?$AAu@ 00000001800075c0     libcpmt:winapinls.obj
 0001:000065d0       ??_C@_1M@KLMCELGA@?$AAu?$AAk?$AA?9?$AAu?$AAa@ 00000001800075d0     libcpmt:winapinls.obj
 0001:000065e0       ??_C@_1M@EPAJJAJF@?$AAu?$AAr?$AA?9?$AAp?$AAk@ 00000001800075e0     libcpmt:winapinls.obj
 0001:000065f0       ??_C@_1BG@GEGPMCDJ@?$AAu?$AAz?$AA?9?$AAu?$AAz?$AA?9?$AAc?$AAy?$AAr?$AAl@ 00000001800075f0     libcpmt:winapinls.obj
 0001:00006608       ??_C@_1BG@EGGKJILM@?$AAu?$AAz?$AA?9?$AAu?$AAz?$AA?9?$AAl?$AAa?$AAt?$AAn@ 0000000180007608     libcpmt:winapinls.obj
 0001:00006620       ??_C@_1M@GFOCLFF@?$AAv?$AAi?$AA?9?$AAv?$AAn@ 0000000180007620     libcpmt:winapinls.obj
 0001:00006630       ??_C@_1M@CPAMEDFI@?$AAx?$AAh?$AA?9?$AAz?$AAa@ 0000000180007630     libcpmt:winapinls.obj
 0001:00006640       ??_C@_1O@EBKIFIGN@?$AAz?$AAh?$AA?9?$AAc?$AAh?$AAs@ 0000000180007640     libcpmt:winapinls.obj
 0001:00006650       ??_C@_1O@NMHPGANE@?$AAz?$AAh?$AA?9?$AAc?$AAh?$AAt@ 0000000180007650     libcpmt:winapinls.obj
 0001:00006660       ??_C@_1M@LPINJOMC@?$AAz?$AAh?$AA?9?$AAc?$AAn@ 0000000180007660     libcpmt:winapinls.obj
 0001:00006670       ??_C@_1M@OCJEJODD@?$AAz?$AAh?$AA?9?$AAh?$AAk@ 0000000180007670     libcpmt:winapinls.obj
 0001:00006680       ??_C@_1M@DNDLJINH@?$AAz?$AAh?$AA?9?$AAm?$AAo@ 0000000180007680     libcpmt:winapinls.obj
 0001:00006690       ??_C@_1M@MBFDNDND@?$AAz?$AAh?$AA?9?$AAs?$AAg@ 0000000180007690     libcpmt:winapinls.obj
 0001:000066a0       ??_C@_1M@IMEPLEPE@?$AAz?$AAh?$AA?9?$AAt?$AAw@ 00000001800076a0     libcpmt:winapinls.obj
 0001:000066b0       ??_C@_1M@BBGHNHJP@?$AAz?$AAu?$AA?9?$AAz?$AAa@ 00000001800076b0     libcpmt:winapinls.obj
 0001:000066c8       ??_7type_info@@6B@         00000001800076c8     LIBCMT:std_type_info_static.obj
 0001:000066d0       _pDefaultRawDllMain        00000001800076d0     LIBCMT:dll_dllmain.obj
 0001:000066d0       _pRawDllMain               00000001800076d0     LIBCMT:dll_dllmain.obj
 0001:000066e8       _pDestructExceptionObject  00000001800076e8     libvcruntime:ehhelpers.obj
 0001:000066f0       ?s_negLengthTab@FH4@@3QBCB 00000001800076f0     libvcruntime:risctrnsctrl.obj
 0001:00006700       ?s_shiftTab@FH4@@3QBEB     0000000180007700     libvcruntime:risctrnsctrl.obj
 0001:00006850       ??_7bad_exception@std@@6B@ 0000000180007850     libvcruntime:frame.obj
 0001:00006860       ??_C@_0O@DPKOEFFH@bad?5exception@ 0000000180007860     libvcruntime:frame.obj
 0001:00006f70       ??_C@_08EHJDFFNH@__based?$CI@ 0000000180007f70     libvcruntime:undname.obj
 0001:00006f80       ??_C@_07KOLFKCDI@__cdecl@  0000000180007f80     libvcruntime:undname.obj
 0001:00006f88       ??_C@_08GHMPAG@__pascal@   0000000180007f88     libvcruntime:undname.obj
 0001:00006f98       ??_C@_09IFJBGAPI@__stdcall@ 0000000180007f98     libvcruntime:undname.obj
 0001:00006fa8       ??_C@_0L@NPHFGOKO@__thiscall@ 0000000180007fa8     libvcruntime:undname.obj
 0001:00006fb8       ??_C@_0L@JMKHOMEK@__fastcall@ 0000000180007fb8     libvcruntime:undname.obj
 0001:00006fc8       ??_C@_0N@BCKKPABJ@__vectorcall@ 0000000180007fc8     libvcruntime:undname.obj
 0001:00006fd8       ??_C@_09HIJEGCPM@__clrcall@ 0000000180007fd8     libvcruntime:undname.obj
 0001:00006fe4       ??_C@_06GHPCKEAG@__eabi@   0000000180007fe4     libvcruntime:undname.obj
 0001:00006ff0       ??_C@_09IOPIDJLG@__swift_1@ 0000000180007ff0     libvcruntime:undname.obj
 0001:00007000       ??_C@_09KFNFGKHF@__swift_2@ 0000000180008000     libvcruntime:undname.obj
 0001:00007010       ??_C@_07JOMMBBKO@__ptr64@  0000000180008010     libvcruntime:undname.obj
 0001:00007018       ??_C@_0L@PILCLIHE@__restrict@ 0000000180008018     libvcruntime:undname.obj
 0001:00007028       ??_C@_0M@GFIIJFMG@__unaligned@ 0000000180008028     libvcruntime:undname.obj
 0001:00007038       ??_C@_09DHDLOLLB@restrict?$CI@ 0000000180008038     libvcruntime:undname.obj
 0001:00007044       ??_C@_04NIHEBCM@?5new@     0000000180008044     libvcruntime:undname.obj
 0001:00007050       ??_C@_07FPCDHGMM@?5delete@ 0000000180008050     libvcruntime:undname.obj
 0001:00007058       ??_C@_01NEMOKFLO@?$DN@     0000000180008058     libvcruntime:undname.obj
 0001:0000705c       ??_C@_02GPIOPFAK@?$DO?$DO@ 000000018000805c     libvcruntime:undname.obj
 0001:00007060       ??_C@_02FODMEDOG@?$DM?$DM@ 0000000180008060     libvcruntime:undname.obj
 0001:00007064       ??_C@_01DCLJPIOD@?$CB@     0000000180008064     libvcruntime:undname.obj
 0001:00007068       ??_C@_02EGOFBIJA@?$DN?$DN@ 0000000180008068     libvcruntime:undname.obj
 0001:0000706c       ??_C@_02FDNJECIE@?$CB?$DN@ 000000018000806c     libvcruntime:undname.obj
 0001:00007070       ??_C@_02GPECMEKF@?$FL?$FN@ 0000000180008070     libvcruntime:undname.obj
 0001:00007078       ??_C@_08LHJFAFGD@operator@ 0000000180008078     libvcruntime:undname.obj
 0001:00007084       ??_C@_02HBOOOICD@?9?$DO@   0000000180008084     libvcruntime:undname.obj
 0001:00007088       ??_C@_02ECNGHCIF@?$CL?$CL@ 0000000180008088     libvcruntime:undname.obj
 0001:0000708c       ??_C@_02BAABKJLB@?9?9@     000000018000808c     libvcruntime:undname.obj
 0001:00007090       ??_C@_01MIFGBAGJ@?$CL@     0000000180008090     libvcruntime:undname.obj
 0001:00007094       ??_C@_01HNPIGOCE@?$CG@     0000000180008094     libvcruntime:undname.obj
 0001:00007098       ??_C@_03MNHNFDLC@?9?$DO?$CK@ 0000000180008098     libvcruntime:undname.obj
 0001:0000709c       ??_C@_01KMDKNFGN@?1@       000000018000809c     libvcruntime:undname.obj
 0001:000070a0       ??_C@_01FGNFDNOH@?$CF@     00000001800080a0     libvcruntime:undname.obj
 0001:000070a4       ??_C@_01MNNFJEPP@?$DM@     00000001800080a4     libvcruntime:undname.obj
 0001:000070a8       ??_C@_02EHCHHCKH@?$DM?$DN@ 00000001800080a8     libvcruntime:undname.obj
 0001:000070ac       ??_C@_01PPODPGHN@?$DO@     00000001800080ac     libvcruntime:undname.obj
 0001:000070b0       ??_C@_02EEKDKGMJ@?$DO?$DN@ 00000001800080b0     libvcruntime:undname.obj
 0001:000070b4       ??_C@_01IHBHIGKO@?0@       00000001800080b4     libvcruntime:undname.obj
 0001:000070b8       ??_C@_02HCKGKOFO@?$CI?$CJ@ 00000001800080b8     libvcruntime:undname.obj
 0001:000070bc       ??_C@_01PJKLJHI@?$HO@      00000001800080bc     libvcruntime:undname.obj
 0001:000070c0       ??_C@_01JKBOJNNK@?$FO@     00000001800080c0     libvcruntime:undname.obj
 0001:000070c4       ??_C@_01DNKMNLPK@?$HM@     00000001800080c4     libvcruntime:undname.obj
 0001:000070c8       ??_C@_02PPKAJPJL@?$CG?$CG@ 00000001800080c8     libvcruntime:undname.obj
 0001:000070cc       ??_C@_02NONPIBCD@?$HM?$HM@ 00000001800080cc     libvcruntime:undname.obj
 0001:000070d0       ??_C@_02FPIMKNGF@?$CK?$DN@ 00000001800080d0     libvcruntime:undname.obj
 0001:000070d4       ??_C@_02FOEOMHFC@?$CL?$DN@ 00000001800080d4     libvcruntime:undname.obj
 0001:000070d8       ??_C@_02FKMDLLOA@?9?$DN@   00000001800080d8     libvcruntime:undname.obj
 0001:000070dc       ??_C@_02FJEHGPIO@?1?$DN@   00000001800080dc     libvcruntime:undname.obj
 0001:000070e0       ??_C@_02FENAOKFI@?$CF?$DN@ 00000001800080e0     libvcruntime:undname.obj
 0001:000070e4       ??_C@_03IKFCCPFF@?$DO?$DO?$DN@ 00000001800080e4     libvcruntime:undname.obj
 0001:000070e8       ??_C@_03CDNPDDLA@?$DM?$DM?$DN@ 00000001800080e8     libvcruntime:undname.obj
 0001:000070ec       ??_C@_02FGJGFEAB@?$CG?$DN@ 00000001800080ec     libvcruntime:undname.obj
 0001:000070f0       ??_C@_02DHLNPPGH@?$HM?$DN@ 00000001800080f0     libvcruntime:undname.obj
 0001:000070f4       ??_C@_02MHEGNOJ@?$FO?$DN@  00000001800080f4     libvcruntime:undname.obj
 0001:000070f8       ??_C@_09IFPLHPGF@?$GAvftable?8@ 00000001800080f8     libvcruntime:undname.obj
 0001:00007108       ??_C@_09BLBHBJP@?$GAvbtable?8@ 0000000180008108     libvcruntime:undname.obj
 0001:00007118       ??_C@_07FEEIOKP@?$GAvcall?8@ 0000000180008118     libvcruntime:undname.obj
 0001:00007120       ??_C@_08LLFFHHDJ@?$GAtypeof?8@ 0000000180008120     libvcruntime:undname.obj
 0001:00007130       ??_C@_0BF@KDPPACIK@?$GAlocal?5static?5guard?8@ 0000000180008130     libvcruntime:undname.obj
 0001:00007148       ??_C@_08OBABFOLI@?$GAstring?8@ 0000000180008148     libvcruntime:undname.obj
 0001:00007158       ??_C@_0BD@JDLKDPAB@?$GAvbase?5destructor?8@ 0000000180008158     libvcruntime:undname.obj
 0001:00007170       ??_C@_0BN@DEGPLNFK@?$GAvector?5deleting?5destructor?8@ 0000000180008170     libvcruntime:undname.obj
 0001:00007190       ??_C@_0BO@OBMKPJIG@?$GAdefault?5constructor?5closure?8@ 0000000180008190     libvcruntime:undname.obj
 0001:000071b0       ??_C@_0BN@IMDCHIKM@?$GAscalar?5deleting?5destructor?8@ 00000001800081b0     libvcruntime:undname.obj
 0001:000071d0       ??_C@_0BO@PFGOCPJJ@?$GAvector?5constructor?5iterator?8@ 00000001800081d0     libvcruntime:undname.obj
 0001:000071f0       ??_C@_0BN@LFPFMEDL@?$GAvector?5destructor?5iterator?8@ 00000001800081f0     libvcruntime:undname.obj
 0001:00007210       ??_C@_0CE@IKBNEHA@?$GAvector?5vbase?5constructor?5itera@ 0000000180008210     libvcruntime:undname.obj
 0001:00007238       ??_C@_0BL@NILFHHPC@?$GAvirtual?5displacement?5map?8@ 0000000180008238     libvcruntime:undname.obj
 0001:00007258       ??_C@_0CB@JONCMFFK@?$GAeh?5vector?5constructor?5iterator@ 0000000180008258     libvcruntime:undname.obj
 0001:00007280       ??_C@_0CA@GCEOPDGL@?$GAeh?5vector?5destructor?5iterator?8@ 0000000180008280     libvcruntime:undname.obj
 0001:000072a0       ??_C@_0CH@OOJPLCPH@?$GAeh?5vector?5vbase?5constructor?5it@ 00000001800082a0     libvcruntime:undname.obj
 0001:000072c8       ??_C@_0BL@LLKPOHJI@?$GAcopy?5constructor?5closure?8@ 00000001800082c8     libvcruntime:undname.obj
 0001:000072e8       ??_C@_0BA@KBCDOMBN@?$GAudt?5returning?8@ 00000001800082e8     libvcruntime:undname.obj
 0001:000072f8       ??_C@_03KLGMFNMG@?$GAEH@   00000001800082f8     libvcruntime:undname.obj
 0001:000072fc       ??_C@_05KHLCHHI@?$GARTTI@  00000001800082fc     libvcruntime:undname.obj
 0001:00007308       ??_C@_0BA@KKLDJDLB@?$GAlocal?5vftable?8@ 0000000180008308     libvcruntime:undname.obj
 0001:00007318       ??_C@_0CE@IIHCMGGL@?$GAlocal?5vftable?5constructor?5clos@ 0000000180008318     libvcruntime:undname.obj
 0001:0000733c       ??_C@_06FHBGPFGH@?5new?$FL?$FN@ 000000018000833c     libvcruntime:undname.obj
 0001:00007348       ??_C@_09LBNFPBCA@?5delete?$FL?$FN@ 0000000180008348     libvcruntime:undname.obj
 0001:00007358       ??_C@_0P@HJKNJFNN@?$GAomni?5callsig?8@ 0000000180008358     libvcruntime:undname.obj
 0001:00007368       ??_C@_0BL@CNOONJFP@?$GAplacement?5delete?5closure?8@ 0000000180008368     libvcruntime:undname.obj
 0001:00007388       ??_C@_0BN@CKNJLHMB@?$GAplacement?5delete?$FL?$FN?5closure?8@ 0000000180008388     libvcruntime:undname.obj
 0001:000073a8       ??_C@_0CG@CFDHKGGD@?$GAmanaged?5vector?5constructor?5ite@ 00000001800083a8     libvcruntime:undname.obj
 0001:000073d0       ??_C@_0CF@IMGKMJNO@?$GAmanaged?5vector?5destructor?5iter@ 00000001800083d0     libvcruntime:undname.obj
 0001:000073f8       ??_C@_0CG@HLDDJMAG@?$GAeh?5vector?5copy?5constructor?5ite@ 00000001800083f8     libvcruntime:undname.obj
 0001:00007420       ??_C@_0CM@FCBBDIGB@?$GAeh?5vector?5vbase?5copy?5construct@ 0000000180008420     libvcruntime:undname.obj
 0001:00007450       ??_C@_0BL@CLIPGLGB@?$GAdynamic?5initializer?5for?5?8@ 0000000180008450     libvcruntime:undname.obj
 0001:00007470       ??_C@_0CB@PDBIFEP@?$GAdynamic?5atexit?5destructor?5for?5@ 0000000180008470     libvcruntime:undname.obj
 0001:00007498       ??_C@_0CD@CGAJBKEJ@?$GAvector?5copy?5constructor?5iterat@ 0000000180008498     libvcruntime:undname.obj
 0001:000074c0       ??_C@_0CJ@GJELGAMM@?$GAvector?5vbase?5copy?5constructor?5@ 00000001800084c0     libvcruntime:undname.obj
 0001:000074f0       ??_C@_0CL@FGIJHLCE@?$GAmanaged?5vector?5copy?5constructo@ 00000001800084f0     libvcruntime:undname.obj
 0001:00007520       ??_C@_0BM@PMGGMLDN@?$GAlocal?5static?5thread?5guard?8@ 0000000180008520     libvcruntime:undname.obj
 0001:00007540       ??_C@_0N@BDNMDMOL@operator?5?$CC?$CC?5@ 0000000180008540     libvcruntime:undname.obj
 0001:00007550       ??_C@_0BC@GGEBGALA@operator?5co_await@ 0000000180008550     libvcruntime:undname.obj
 0001:00007568       ??_C@_0M@GAAIMMOH@operator?$DM?$DN?$DO@ 0000000180008568     libvcruntime:undname.obj
 0001:00007578       ??_C@_0BC@DAFEJGAK@?5Type?5Descriptor?8@ 0000000180008578     libvcruntime:undname.obj
 0001:00007590       ??_C@_0BM@LDKODKLH@?5Base?5Class?5Descriptor?5at?5?$CI@ 0000000180008590     libvcruntime:undname.obj
 0001:000075b0       ??_C@_0BD@LGICGFMM@?5Base?5Class?5Array?8@ 00000001800085b0     libvcruntime:undname.obj
 0001:000075c8       ??_C@_0BN@MECKDCOJ@?5Class?5Hierarchy?5Descriptor?8@ 00000001800085c8     libvcruntime:undname.obj
 0001:000075e8       ??_C@_0BK@CFCOFLF@?5Complete?5Object?5Locator?8@ 00000001800085e8     libvcruntime:undname.obj
 0001:00007608       ??_C@_0BG@JNJLAMPM@?$GAanonymous?5namespace?8@ 0000000180008608     libvcruntime:undname.obj
 0001:00007638       ??_C@_1DM@KHCHBNEB@?$AAa?$AAp?$AAi?$AA?9?$AAm?$AAs?$AA?9?$AAw?$AAi?$AAn?$AA?9?$AAc?$AAo?$AAr?$AAe@ 0000000180008638     libvcruntime:winapi_downlevel.obj
 0001:00007678       ??_C@_1DK@LPPGFMPP@?$AAa?$AAp?$AAi?$AA?9?$AAm?$AAs?$AA?9?$AAw?$AAi?$AAn?$AA?9?$AAc?$AAo?$AAr?$AAe@ 0000000180008678     libvcruntime:winapi_downlevel.obj
 0001:000076b8       ??_C@_1BA@PFFKHIOG@?$AAa?$AAp?$AAi?$AA?9?$AAm?$AAs?$AA?9@ 00000001800086b8     libvcruntime:winapi_downlevel.obj
 0001:00007860       format_validation_lookup_table 0000000180008860     libucrt:output.obj
 0001:000078c0       ??_C@_1O@CEDCILHN@?$AA?$CI?$AAn?$AAu?$AAl?$AAl?$AA?$CJ@ 00000001800088c0     libucrt:output.obj
 0001:000078d0       ??_C@_06OJHGLDPL@?$CInull?$CJ@ 00000001800088d0     libucrt:output.obj
 0001:00007cf8       ??_C@_04KGLCPMCP@log2@     0000000180008cf8     libucrt:log2.obj
 0001:00007d00       __real@03d0000000000000    0000000180008d00     libucrt:log2.obj
 0001:00007d08       __real@3ecb295c17f0bbbe    0000000180008d08     libucrt:log2.obj
 0001:00007d10       __real@3f3c8034c85dfff0    0000000180008d10     libucrt:log2.obj
 0001:00007d18       __real@3f62492307f1519f    0000000180008d18     libucrt:log2.obj
 0001:00007d20       __real@3f6249423bd94741    0000000180008d20     libucrt:log2.obj
 0001:00007d28       __real@3f80000000000000    0000000180008d28     libucrt:log2.obj
 0001:00007d30       __real@3f89999999865ede    0000000180008d30     libucrt:log2.obj
 0001:00007d38       __real@3f89999999bac6d4    0000000180008d38     libucrt:log2.obj
 0001:00007d40       __real@3fb55555555554e6    0000000180008d40     libucrt:log2.obj
 0001:00007d48       __real@3fb5555555555557    0000000180008d48     libucrt:log2.obj
 0001:00007d50       __real@3fe0000000000000    0000000180008d50     libucrt:log2.obj
 0001:00007d58       __real@3ff0000000000000    0000000180008d58     libucrt:log2.obj
 0001:00007d60       __real@3ff7154400000000    0000000180008d60     libucrt:log2.obj
 0001:00007d68       __real@4000000000000000    0000000180008d68     libucrt:log2.obj
 0001:00007d70       __real@8000000000000000    0000000180008d70     libucrt:modf.obj
 0001:00007d78       __real@bff0000000000000    0000000180008d78     libucrt:round.obj
 0001:00009380       __newctype                 000000018000a380     libucrt:ctype.obj
 0001:00009680       __newclmap                 000000018000a680     libucrt:ctype.obj
 0001:00009800       __newcumap                 000000018000a800     libucrt:ctype.obj
 0001:00009980       _wctype                    000000018000a980     libucrt:ctype.obj
 0001:00009b90       ?large_power_data@?1??multiply_by_power_of_ten@__crt_strtox@@YA_NAEAUbig_integer@2@I@Z@4QBIB 000000018000ab90     libucrt:strtod.obj
 0001:0000a498       ?small_powers_of_ten@?1??multiply_by_power_of_ten@__crt_strtox@@YA_NAEAUbig_integer@2@I@Z@4QBIB 000000018000b498     libucrt:strtod.obj
 0001:0000adc0       __acrt_exception_action_table 000000018000bdc0     libucrt:exception_filter.obj
 0001:0000ae80       __acrt_signal_action_table_count 000000018000be80     libucrt:exception_filter.obj
 0001:0000ae88       __acrt_signal_action_first_fpe_index 000000018000be88     libucrt:exception_filter.obj
 0001:0000ae90       __acrt_signal_action_fpe_count 000000018000be90     libucrt:exception_filter.obj
 0001:0000ae98       ??_C@_1BI@BGOHAHKC@?$AAm?$AAs?$AAc?$AAo?$AAr?$AAe?$AAe?$AA?4?$AAd?$AAl?$AAl@ 000000018000be98     libucrt:exit.obj
 0001:0000aeb0       ??_C@_0P@MIGLKIOC@CorExitProcess@ 000000018000beb0     libucrt:exit.obj
 0001:0000b0a0       ??_C@_1EA@JGEFHKEI@?$AAa?$AAp?$AAi?$AA?9?$AAm?$AAs?$AA?9?$AAw?$AAi?$AAn?$AA?9?$AAc?$AAo?$AAr?$AAe@ 000000018000c0a0     libucrt:winapi_thunks.obj
 0001:0000b0e0       ??_C@_1DI@IJCEHOCB@?$AAa?$AAp?$AAi?$AA?9?$AAm?$AAs?$AA?9?$AAw?$AAi?$AAn?$AA?9?$AAc?$AAo?$AAr?$AAe@ 000000018000c0e0     libucrt:winapi_thunks.obj
 0001:0000b120       ??_C@_1EI@MPIAOHOC@?$AAa?$AAp?$AAi?$AA?9?$AAm?$AAs?$AA?9?$AAw?$AAi?$AAn?$AA?9?$AAc?$AAo?$AAr?$AAe@ 000000018000c120     libucrt:winapi_thunks.obj
 0001:0000b170       ??_C@_1FK@FPHCKFIE@?$AAa?$AAp?$AAi?$AA?9?$AAm?$AAs?$AA?9?$AAw?$AAi?$AAn?$AA?9?$AAc?$AAo?$AAr?$AAe@ 000000018000c170     libucrt:winapi_thunks.obj
 0001:0000b1d0       ??_C@_1EM@DILCGIIO@?$AAa?$AAp?$AAi?$AA?9?$AAm?$AAs?$AA?9?$AAw?$AAi?$AAn?$AA?9?$AAc?$AAo?$AAr?$AAe@ 000000018000c1d0     libucrt:winapi_thunks.obj
 0001:0000b220       ??_C@_1DM@LNCGDDPN@?$AAa?$AAp?$AAi?$AA?9?$AAm?$AAs?$AA?9?$AAw?$AAi?$AAn?$AA?9?$AAc?$AAo?$AAr?$AAe@ 000000018000c220     libucrt:winapi_thunks.obj
 0001:0000b260       ??_C@_1DO@FPAPJEMD@?$AAa?$AAp?$AAi?$AA?9?$AAm?$AAs?$AA?9?$AAw?$AAi?$AAn?$AA?9?$AAc?$AAo?$AAr?$AAe@ 000000018000c260     libucrt:winapi_thunks.obj
 0001:0000b2a0       ??_C@_1DK@NDHNAHIO@?$AAa?$AAp?$AAi?$AA?9?$AAm?$AAs?$AA?9?$AAw?$AAi?$AAn?$AA?9?$AAc?$AAo?$AAr?$AAe@ 000000018000c2a0     libucrt:winapi_thunks.obj
 0001:0000b2e0       ??_C@_1DM@KGHDGBCM@?$AAa?$AAp?$AAi?$AA?9?$AAm?$AAs?$AA?9?$AAw?$AAi?$AAn?$AA?9?$AAc?$AAo?$AAr?$AAe@ 000000018000c2e0     libucrt:winapi_thunks.obj
 0001:0000b320       ??_C@_1EO@IJIOEFOH@?$AAa?$AAp?$AAi?$AA?9?$AAm?$AAs?$AA?9?$AAw?$AAi?$AAn?$AA?9?$AAr?$AAt?$AAc?$AAo@ 000000018000c320     libucrt:winapi_thunks.obj
 0001:0000b370       ??_C@_1FG@HHGEKANL@?$AAa?$AAp?$AAi?$AA?9?$AAm?$AAs?$AA?9?$AAw?$AAi?$AAn?$AA?9?$AAs?$AAe?$AAc?$AAu@ 000000018000c370     libucrt:winapi_thunks.obj
 0001:0000b3d0       ??_C@_1EG@DBIOJECG@?$AAe?$AAx?$AAt?$AA?9?$AAm?$AAs?$AA?9?$AAw?$AAi?$AAn?$AA?9?$AAn?$AAt?$AAu?$AAs@ 000000018000c3d0     libucrt:winapi_thunks.obj
 0001:0000b420       ??_C@_1EO@FIHMJCLF@?$AAe?$AAx?$AAt?$AA?9?$AAm?$AAs?$AA?9?$AAw?$AAi?$AAn?$AA?9?$AAn?$AAt?$AAu?$AAs@ 000000018000c420     libucrt:winapi_thunks.obj
 0001:0000b470       ??_C@_1EG@DPGNFKGC@?$AAa?$AAp?$AAi?$AA?9?$AAm?$AAs?$AA?9?$AAw?$AAi?$AAn?$AA?9?$AAa?$AAp?$AAp?$AAm@ 000000018000c470     libucrt:winapi_thunks.obj
 0001:0000b4b8       ??_C@_1BA@IAIFMGEF@?$AAe?$AAx?$AAt?$AA?9?$AAm?$AAs?$AA?9@ 000000018000c4b8     libucrt:winapi_thunks.obj
 0001:0000b4d0       ??_C@_0BA@FHFNEAED@AreFileApisANSI@ 000000018000c4d0     libucrt:winapi_thunks.obj
 0001:0000b4f0       ??_C@_0BE@LJANKFHF@EnumSystemLocalesEx@ 000000018000c4f0     libucrt:winapi_thunks.obj
 0001:0000b530       ??_C@_0BA@EPCJIIPD@GetDateFormatEx@ 000000018000c530     libucrt:winapi_thunks.obj
 0001:0000b550       ??_C@_0BA@CIJJKCJJ@GetTimeFormatEx@ 000000018000c550     libucrt:winapi_thunks.obj
 0001:0000b568       ??_C@_0BJ@PBCCBIPI@GetUserDefaultLocaleName@ 000000018000c568     libucrt:winapi_thunks.obj
 0001:0000b598       ??_C@_0BC@CELBKLLA@IsValidLocaleName@ 000000018000c598     libucrt:winapi_thunks.obj
 0001:0000b5c0       ??_C@_0BB@CDHDDLLP@LCIDToLocaleName@ 000000018000c5c0     libucrt:winapi_thunks.obj
 0001:0000b5e0       ??_C@_0BB@HBDEELFH@LocaleNameToLCID@ 000000018000c5e0     libucrt:winapi_thunks.obj
 0001:0000b5f8       ??_C@_0CF@OJOFEIGO@AppPolicyGetProcessTerminationM@ 000000018000c5f8     libucrt:winapi_thunks.obj
 0001:0000b6a0       ??_C@_09OFJJIMPC@NAN?$CISNAN?$CJ@ 000000018000c6a0     libucrt:cvt.obj
 0001:0000b6b0       ??_C@_09IPFBKMDL@nan?$CIsnan?$CJ@ 000000018000c6b0     libucrt:cvt.obj
 0001:0000b6c0       ??_C@_08IKHNHAJ@NAN?$CIIND?$CJ@ 000000018000c6c0     libucrt:cvt.obj
 0001:0000b6d0       ??_C@_08OFCDMILK@nan?$CIind?$CJ@ 000000018000c6d0     libucrt:cvt.obj
 0001:0000b6dc       ??_C@_05KLBDPFGC@e?$CL000@ 000000018000c6dc     libucrt:cvt.obj
 0001:0000b770       __lc_category              000000018000c770     libucrt:wsetlocale.obj
 0001:0000b800       ??_C@_1O@GIFLHMA@?$AAL?$AAC?$AA_?$AAA?$AAL?$AAL@ 000000018000c800     libucrt:wsetlocale.obj
 0001:0000b810       ??_C@_1BG@PPOMIBNJ@?$AAL?$AAC?$AA_?$AAC?$AAO?$AAL?$AAL?$AAA?$AAT?$AAE@ 000000018000c810     libucrt:wsetlocale.obj
 0001:0000b828       ??_C@_1BC@FFJGAPJM@?$AAL?$AAC?$AA_?$AAC?$AAT?$AAY?$AAP?$AAE@ 000000018000c828     libucrt:wsetlocale.obj
 0001:0000b840       ??_C@_1BI@PCKFNJFB@?$AAL?$AAC?$AA_?$AAM?$AAO?$AAN?$AAE?$AAT?$AAA?$AAR?$AAY@ 000000018000c840     libucrt:wsetlocale.obj
 0001:0000b858       ??_C@_1BG@ENIEDKID@?$AAL?$AAC?$AA_?$AAN?$AAU?$AAM?$AAE?$AAR?$AAI?$AAC@ 000000018000c858     libucrt:wsetlocale.obj
 0001:0000b870       ??_C@_1BA@HAAOMIIG@?$AAL?$AAC?$AA_?$AAT?$AAI?$AAM?$AAE@ 000000018000c870     libucrt:wsetlocale.obj
 0001:0000b880       ??_C@_15NBPDDFIP@?$AA?$DN?$AA?$DL@ 000000018000c880     libucrt:wsetlocale.obj
 0001:0000b888       ??_C@_13PJJBFPED@?$AA?$DL@ 000000018000c888     libucrt:wsetlocale.obj
 0001:0000b88c       ??_C@_13NMPKAAJP@?$AA?$DN@ 000000018000c88c     libucrt:wsetlocale.obj
 0001:0000b890       ??_C@_17EFJLDFDO@?$AA?9?$AA_?$AA?4@ 000000018000c890     libucrt:wsetlocale.obj
 0001:0000b898       ??_C@_13FHBKNHDA@?$AAC@    000000018000c898     libucrt:wsetlocale.obj
 0001:0000b8a0       ??_C@_17MBJJLFDM@?$AA_?$AA?4?$AA?0@ 000000018000c8a0     libucrt:wsetlocale.obj
 0001:0000b8a8       ??_C@_13ENNFDPBH@?$AA_@    000000018000c8a8     libucrt:wsetlocale.obj
 0001:0000b8b0       __lc_time_c                000000018000c8b0     libucrt:nlsdata.obj
 0001:0000bb70       ??_C@_03KOEHGMDN@Sun@      000000018000cb70     libucrt:nlsdata.obj
 0001:0000bb74       ??_C@_03PDAGKDH@Mon@       000000018000cb74     libucrt:nlsdata.obj
 0001:0000bb78       ??_C@_03NAGEINEP@Tue@      000000018000cb78     libucrt:nlsdata.obj
 0001:0000bb7c       ??_C@_03MHOMLAJA@Wed@      000000018000cb7c     libucrt:nlsdata.obj
 0001:0000bb80       ??_C@_03IOFIKPDN@Thu@      000000018000cb80     libucrt:nlsdata.obj
 0001:0000bb84       ??_C@_03IDIOELNC@Fri@      000000018000cb84     libucrt:nlsdata.obj
 0001:0000bb88       ??_C@_03FEFJNEK@Sat@       000000018000cb88     libucrt:nlsdata.obj
 0001:0000bb8c       ??_C@_06OOPIFAJ@Sunday@    000000018000cb8c     libucrt:nlsdata.obj
 0001:0000bb94       ??_C@_06JLEDEDGH@Monday@   000000018000cb94     libucrt:nlsdata.obj
 0001:0000bba0       ??_C@_07BAAGCFCM@Tuesday@  000000018000cba0     libucrt:nlsdata.obj
 0001:0000bba8       ??_C@_09DLIGFAKA@Wednesday@ 000000018000cba8     libucrt:nlsdata.obj
 0001:0000bbb8       ??_C@_08HACCIKIA@Thursday@ 000000018000cbb8     libucrt:nlsdata.obj
 0001:0000bbc4       ??_C@_06JECMNKMI@Friday@   000000018000cbc4     libucrt:nlsdata.obj
 0001:0000bbd0       ??_C@_08INBOOONO@Saturday@ 000000018000cbd0     libucrt:nlsdata.obj
 0001:0000bbdc       ??_C@_03JIHJHPIE@Jan@      000000018000cbdc     libucrt:nlsdata.obj
 0001:0000bbe0       ??_C@_03HJBDCHOM@Feb@      000000018000cbe0     libucrt:nlsdata.obj
 0001:0000bbe4       ??_C@_03ODNJBKGA@Mar@      000000018000cbe4     libucrt:nlsdata.obj
 0001:0000bbe8       ??_C@_03LEOLGMJP@Apr@      000000018000cbe8     libucrt:nlsdata.obj
 0001:0000bbec       ??_C@_03CNMDKL@May@        000000018000cbec     libucrt:nlsdata.obj
 0001:0000bbf0       ??_C@_03IDFGHECI@Jun@      000000018000cbf0     libucrt:nlsdata.obj
 0001:0000bbf4       ??_C@_03LBGABGKK@Jul@      000000018000cbf4     libucrt:nlsdata.obj
 0001:0000bbf8       ??_C@_03IFJFEIGA@Aug@      000000018000cbf8     libucrt:nlsdata.obj
 0001:0000bbfc       ??_C@_03GGCAPAJC@Sep@      000000018000cbfc     libucrt:nlsdata.obj
 0001:0000bc00       ??_C@_03BMAOKBAD@Oct@      000000018000cc00     libucrt:nlsdata.obj
 0001:0000bc04       ??_C@_03JPJOFNIA@Nov@      000000018000cc04     libucrt:nlsdata.obj
 0001:0000bc08       ??_C@_03MKABNOCG@Dec@      000000018000cc08     libucrt:nlsdata.obj
 0001:0000bc10       ??_C@_07CGJPFGJA@January@  000000018000cc10     libucrt:nlsdata.obj
 0001:0000bc18       ??_C@_08GNJGEPFN@February@ 000000018000cc18     libucrt:nlsdata.obj
 0001:0000bc24       ??_C@_05HPCKOFNC@March@    000000018000cc24     libucrt:nlsdata.obj
 0001:0000bc2c       ??_C@_05DMJDNLEJ@April@    000000018000cc2c     libucrt:nlsdata.obj
 0001:0000bc34       ??_C@_04CNLMGBGM@June@     000000018000cc34     libucrt:nlsdata.obj
 0001:0000bc3c       ??_C@_04MIEPOIFP@July@     000000018000cc3c     libucrt:nlsdata.obj
 0001:0000bc44       ??_C@_06LBBHFDDG@August@   000000018000cc44     libucrt:nlsdata.obj
 0001:0000bc50       ??_C@_09BHHEALKD@September@ 000000018000cc50     libucrt:nlsdata.obj
 0001:0000bc60       ??_C@_07JJNFCEND@October@  000000018000cc60     libucrt:nlsdata.obj
 0001:0000bc68       ??_C@_08HCHEGEOA@November@ 000000018000cc68     libucrt:nlsdata.obj
 0001:0000bc78       ??_C@_08EDHMEBNP@December@ 000000018000cc78     libucrt:nlsdata.obj
 0001:0000bc84       ??_C@_02DEDBPAFC@AM@       000000018000cc84     libucrt:nlsdata.obj
 0001:0000bc88       ??_C@_02CJNFDJBF@PM@       000000018000cc88     libucrt:nlsdata.obj
 0001:0000bc90       ??_C@_08BPBNCDIB@MM?1dd?1yy@ 000000018000cc90     libucrt:nlsdata.obj
 0001:0000bca0       ??_C@_0BE@CKGJFCPC@dddd?0?5MMMM?5dd?0?5yyyy@ 000000018000cca0     libucrt:nlsdata.obj
 0001:0000bcb8       ??_C@_08JCCMCCIL@HH?3mm?3ss@ 000000018000ccb8     libucrt:nlsdata.obj
 0001:0000bcc8       ??_C@_17MBGCMIPB@?$AAS?$AAu?$AAn@ 000000018000ccc8     libucrt:nlsdata.obj
 0001:0000bcd0       ??_C@_17KBOMKBF@?$AAM?$AAo?$AAn@ 000000018000ccd0     libucrt:nlsdata.obj
 0001:0000bcd8       ??_C@_17BMKGEGOJ@?$AAT?$AAu?$AAe@ 000000018000ccd8     libucrt:nlsdata.obj
 0001:0000bce0       ??_C@_17CJEDCEPE@?$AAW?$AAe?$AAd@ 000000018000cce0     libucrt:nlsdata.obj
 0001:0000bce8       ??_C@_17PDPHAADD@?$AAT?$AAh?$AAu@ 000000018000cce8     libucrt:nlsdata.obj
 0001:0000bcf0       ??_C@_17HFOLPPLP@?$AAF?$AAr?$AAi@ 000000018000ccf0     libucrt:nlsdata.obj
 0001:0000bcf8       ??_C@_17GGIBDPIH@?$AAS?$AAa?$AAt@ 000000018000ccf8     libucrt:nlsdata.obj
 0001:0000bd00       ??_C@_1O@IHNHDHPB@?$AAS?$AAu?$AAn?$AAd?$AAa?$AAy@ 000000018000cd00     libucrt:nlsdata.obj
 0001:0000bd10       ??_C@_1O@MMNBFLIA@?$AAM?$AAo?$AAn?$AAd?$AAa?$AAy@ 000000018000cd10     libucrt:nlsdata.obj
 0001:0000bd20       ??_C@_1BA@ENFBFFEK@?$AAT?$AAu?$AAe?$AAs?$AAd?$AAa?$AAy@ 000000018000cd20     libucrt:nlsdata.obj
 0001:0000bd30       ??_C@_1BE@EBOGMDOH@?$AAW?$AAe?$AAd?$AAn?$AAe?$AAs?$AAd?$AAa?$AAy@ 000000018000cd30     libucrt:nlsdata.obj
 0001:0000bd48       ??_C@_1BC@HHMNLIHE@?$AAT?$AAh?$AAu?$AAr?$AAs?$AAd?$AAa?$AAy@ 000000018000cd48     libucrt:nlsdata.obj
 0001:0000bd60       ??_C@_1O@PDICJHAG@?$AAF?$AAr?$AAi?$AAd?$AAa?$AAy@ 000000018000cd60     libucrt:nlsdata.obj
 0001:0000bd70       ??_C@_1BC@ENMNNPAJ@?$AAS?$AAa?$AAt?$AAu?$AAr?$AAd?$AAa?$AAy@ 000000018000cd70     libucrt:nlsdata.obj
 0001:0000bd88       ??_C@_17DKNBKCHM@?$AAJ?$AAa?$AAn@ 000000018000cd88     libucrt:nlsdata.obj
 0001:0000bd90       ??_C@_17LMDJEKJN@?$AAF?$AAe?$AAb@ 000000018000cd90     libucrt:nlsdata.obj
 0001:0000bd98       ??_C@_17CKNLEDEC@?$AAM?$AAa?$AAr@ 000000018000cd98     libucrt:nlsdata.obj
 0001:0000bda0       ??_C@_17LFPOIHDD@?$AAA?$AAp?$AAr@ 000000018000cda0     libucrt:nlsdata.obj
 0001:0000bda8       ??_C@_17PNNKMEED@?$AAM?$AAa?$AAy@ 000000018000cda8     libucrt:nlsdata.obj
 0001:0000bdb0       ??_C@_17KCJGOCPB@?$AAJ?$AAu?$AAn@ 000000018000cdb0     libucrt:nlsdata.obj
 0001:0000bdb8       ??_C@_17IJPCKHK@?$AAJ?$AAu?$AAl@ 000000018000cdb8     libucrt:nlsdata.obj
 0001:0000bdc0       ??_C@_17ICPELBCN@?$AAA?$AAu?$AAg@ 000000018000cdc0     libucrt:nlsdata.obj
 0001:0000bdc8       ??_C@_17HCHCOKMG@?$AAS?$AAe?$AAp@ 000000018000cdc8     libucrt:nlsdata.obj
 0001:0000bdd0       ??_C@_17FNLKOI@?$AAO?$AAc?$AAt@ 000000018000cdd0     libucrt:nlsdata.obj
 0001:0000bdd8       ??_C@_17BBDMLCIG@?$AAN?$AAo?$AAv@ 000000018000cdd8     libucrt:nlsdata.obj
 0001:0000bde0       ??_C@_17EGKACKIF@?$AAD?$AAe?$AAc@ 000000018000cde0     libucrt:nlsdata.obj
 0001:0000bde8       ??_C@_1BA@EFMEIEBA@?$AAJ?$AAa?$AAn?$AAu?$AAa?$AAr?$AAy@ 000000018000cde8     libucrt:nlsdata.obj
 0001:0000bdf8       ??_C@_1BC@JGDDFFAM@?$AAF?$AAe?$AAb?$AAr?$AAu?$AAa?$AAr?$AAy@ 000000018000cdf8     libucrt:nlsdata.obj
 0001:0000be10       ??_C@_1M@IKEENEDF@?$AAM?$AAa?$AAr?$AAc?$AAh@ 000000018000ce10     libucrt:nlsdata.obj
 0001:0000be20       ??_C@_1M@GJNLMHFD@?$AAA?$AAp?$AAr?$AAi?$AAl@ 000000018000ce20     libucrt:nlsdata.obj
 0001:0000be30       ??_C@_19EPFLPGAP@?$AAJ?$AAu?$AAn?$AAe@ 000000018000ce30     libucrt:nlsdata.obj
 0001:0000be40       ??_C@_19BIFMLPCD@?$AAJ?$AAu?$AAl?$AAy@ 000000018000ce40     libucrt:nlsdata.obj
 0001:0000be50       ??_C@_1O@PAHLKOAC@?$AAA?$AAu?$AAg?$AAu?$AAs?$AAt@ 000000018000ce50     libucrt:nlsdata.obj
 0001:0000be60       ??_C@_1BE@DKAAMBJL@?$AAS?$AAe?$AAp?$AAt?$AAe?$AAm?$AAb?$AAe?$AAr@ 000000018000ce60     libucrt:nlsdata.obj
 0001:0000be78       ??_C@_1BA@EPANDLNG@?$AAO?$AAc?$AAt?$AAo?$AAb?$AAe?$AAr@ 000000018000ce78     libucrt:nlsdata.obj
 0001:0000be88       ??_C@_1BC@BGLIFPF@?$AAN?$AAo?$AAv?$AAe?$AAm?$AAb?$AAe?$AAr@ 000000018000ce88     libucrt:nlsdata.obj
 0001:0000bea0       ??_C@_1BC@FEMKIFH@?$AAD?$AAe?$AAc?$AAe?$AAm?$AAb?$AAe?$AAr@ 000000018000cea0     libucrt:nlsdata.obj
 0001:0000beb4       ??_C@_15ODEHAHHF@?$AAA?$AAM@ 000000018000ceb4     libucrt:nlsdata.obj
 0001:0000bebc       ??_C@_15CLMNNGEL@?$AAP?$AAM@ 000000018000cebc     libucrt:nlsdata.obj
 0001:0000bec8       ??_C@_1BC@IEBCMHCM@?$AAM?$AAM?$AA?1?$AAd?$AAd?$AA?1?$AAy?$AAy@ 000000018000cec8     libucrt:nlsdata.obj
 0001:0000bee0       ??_C@_1CI@KNAKOEBC@?$AAd?$AAd?$AAd?$AAd?$AA?0?$AA?5?$AAM?$AAM?$AAM?$AAM?$AA?5?$AAd?$AAd?$AA?0?$AA?5@ 000000018000cee0     libucrt:nlsdata.obj
 0001:0000bf08       ??_C@_1BC@GDGBMEMK@?$AAH?$AAH?$AA?3?$AAm?$AAm?$AA?3?$AAs?$AAs@ 000000018000cf08     libucrt:nlsdata.obj
 0001:0000bf20       __log10_256_lead           000000018000cf20     libucrt:log10_256_lead_tail_table.obj
 0001:0000c730       __log10_256_tail           000000018000d730     libucrt:log10_256_lead_tail_table.obj
 0001:0000cf40       __log_F_inv_qword          000000018000df40     libucrt:log_f_inv_qword_table.obj
 0001:0000d750       ??_C@_05HGHHAHAP@log10@    000000018000e750     libucrt:log_special.obj
 0001:0000d760       __log_256_lead             000000018000e760     libucrt:log_256_lead_tail_table.obj
 0001:0000df70       __log_256_tail             000000018000ef70     libucrt:log_256_lead_tail_table.obj
 0001:0000e780       __two_to_jby64_head_table  000000018000f780     libucrt:two_to_jby64_head_tail_table.obj
 0001:0000e980       __two_to_jby64_tail_table  000000018000f980     libucrt:two_to_jby64_head_tail_table.obj
 0001:0000eb80       ??_C@_04MBFDLNIM@powf@     000000018000fb80     libucrt:pow_special.obj
 0001:0000eb88       ??_C@_03JGHBODFD@pow@      000000018000fb88     libucrt:pow_special.obj
 0001:0000ebc0       __two_to_jby64_table       000000018000fbc0     libucrt:two_to_jby64_table.obj
 0001:00010af8       ??_C@_01GBGANLPD@0@        0000000180011af8     libucrt:cfout.obj
 0001:00010afc       ??_C@_05DNEBIAHO@1?$CDINF@ 0000000180011afc     libucrt:cfout.obj
 0001:00010b04       ??_C@_06IMKFLFPG@1?$CDQNAN@ 0000000180011b04     libucrt:cfout.obj
 0001:00010b0c       ??_C@_06PGGFOGJG@1?$CDSNAN@ 0000000180011b0c     libucrt:cfout.obj
 0001:00010b14       ??_C@_05PHHOCPM@1?$CDIND@  0000000180011b14     libucrt:cfout.obj
 0001:00010b20       __acrt_rg_language         0000000180011b20     libucrt:get_qualified_locale.obj
 0001:00010f30       __acrt_rg_language_count   0000000180011f30     libucrt:get_qualified_locale.obj
 0001:00010f40       __acrt_rg_country          0000000180011f40     libucrt:get_qualified_locale.obj
 0001:000110b0       __acrt_rg_country_count    00000001800120b0     libucrt:get_qualified_locale.obj
 0001:000110b8       ??_C@_1BC@LLOKLNP@?$AAa?$AAm?$AAe?$AAr?$AAi?$AAc?$AAa?$AAn@ 00000001800120b8     libucrt:get_qualified_locale.obj
 0001:000110d0       ??_C@_1CC@HEIGCDGG@?$AAa?$AAm?$AAe?$AAr?$AAi?$AAc?$AAa?$AAn?$AA?5?$AAe?$AAn?$AAg?$AAl?$AAi?$AAs@ 00000001800120d0     libucrt:get_qualified_locale.obj
 0001:000110f8       ??_C@_1CC@IHCNOMIN@?$AAa?$AAm?$AAe?$AAr?$AAi?$AAc?$AAa?$AAn?$AA?9?$AAe?$AAn?$AAg?$AAl?$AAi?$AAs@ 00000001800120f8     libucrt:get_qualified_locale.obj
 0001:00011120       ??_C@_1BG@GKAGPCGG@?$AAa?$AAu?$AAs?$AAt?$AAr?$AAa?$AAl?$AAi?$AAa?$AAn@ 0000000180012120     libucrt:get_qualified_locale.obj
 0001:00011138       ??_C@_1BA@GMENCENF@?$AAb?$AAe?$AAl?$AAg?$AAi?$AAa?$AAn@ 0000000180012138     libucrt:get_qualified_locale.obj
 0001:00011148       ??_C@_1BC@PJMIIAAN@?$AAc?$AAa?$AAn?$AAa?$AAd?$AAi?$AAa?$AAn@ 0000000180012148     libucrt:get_qualified_locale.obj
 0001:00011160       ??_C@_17NOIMNFBF@?$AAc?$AAh?$AAh@ 0000000180012160     libucrt:get_qualified_locale.obj
 0001:00011168       ??_C@_17GGDALCHA@?$AAc?$AAh?$AAi@ 0000000180012168     libucrt:get_qualified_locale.obj
 0001:00011170       ??_C@_1BA@NPNJKIBL@?$AAc?$AAh?$AAi?$AAn?$AAe?$AAs?$AAe@ 0000000180012170     libucrt:get_qualified_locale.obj
 0001:00011180       ??_C@_1CC@DINBAMMJ@?$AAc?$AAh?$AAi?$AAn?$AAe?$AAs?$AAe?$AA?9?$AAh?$AAo?$AAn?$AAg?$AAk?$AAo?$AAn@ 0000000180012180     libucrt:get_qualified_locale.obj
 0001:000111a8       ??_C@_1CG@IOBJPACO@?$AAc?$AAh?$AAi?$AAn?$AAe?$AAs?$AAe?$AA?9?$AAs?$AAi?$AAm?$AAp?$AAl?$AAi?$AAf@ 00000001800121a8     libucrt:get_qualified_locale.obj
 0001:000111d0       ??_C@_1CE@GAJNDCKG@?$AAc?$AAh?$AAi?$AAn?$AAe?$AAs?$AAe?$AA?9?$AAs?$AAi?$AAn?$AAg?$AAa?$AAp?$AAo@ 00000001800121d0     libucrt:get_qualified_locale.obj
 0001:000111f8       ??_C@_1CI@PAJPIOOD@?$AAc?$AAh?$AAi?$AAn?$AAe?$AAs?$AAe?$AA?9?$AAt?$AAr?$AAa?$AAd?$AAi?$AAt?$AAi@ 00000001800121f8     libucrt:get_qualified_locale.obj
 0001:00011220       ??_C@_1BM@NILJBMMD@?$AAd?$AAu?$AAt?$AAc?$AAh?$AA?9?$AAb?$AAe?$AAl?$AAg?$AAi?$AAa?$AAn@ 0000000180012220     libucrt:get_qualified_locale.obj
 0001:00011240       ??_C@_1CC@OOJPJNEJ@?$AAe?$AAn?$AAg?$AAl?$AAi?$AAs?$AAh?$AA?9?$AAa?$AAm?$AAe?$AAr?$AAi?$AAc?$AAa@ 0000000180012240     libucrt:get_qualified_locale.obj
 0001:00011268       ??_C@_1BI@IOLFEEM@?$AAe?$AAn?$AAg?$AAl?$AAi?$AAs?$AAh?$AA?9?$AAa?$AAu?$AAs@ 0000000180012268     libucrt:get_qualified_locale.obj
 0001:00011280       ??_C@_1BO@HFFNLENJ@?$AAe?$AAn?$AAg?$AAl?$AAi?$AAs?$AAh?$AA?9?$AAb?$AAe?$AAl?$AAi?$AAz?$AAe@ 0000000180012280     libucrt:get_qualified_locale.obj
 0001:000112a0       ??_C@_1BI@HAPKJMPO@?$AAe?$AAn?$AAg?$AAl?$AAi?$AAs?$AAh?$AA?9?$AAc?$AAa?$AAn@ 00000001800122a0     libucrt:get_qualified_locale.obj
 0001:000112b8       ??_C@_1CE@HLNDMIOJ@?$AAe?$AAn?$AAg?$AAl?$AAi?$AAs?$AAh?$AA?9?$AAc?$AAa?$AAr?$AAi?$AAb?$AAb?$AAe@ 00000001800122b8     libucrt:get_qualified_locale.obj
 0001:000112e0       ??_C@_1BI@LDHJHHAC@?$AAe?$AAn?$AAg?$AAl?$AAi?$AAs?$AAh?$AA?9?$AAi?$AAr?$AAe@ 00000001800122e0     libucrt:get_qualified_locale.obj
 0001:000112f8       ??_C@_1CA@NJMMCFOC@?$AAe?$AAn?$AAg?$AAl?$AAi?$AAs?$AAh?$AA?9?$AAj?$AAa?$AAm?$AAa?$AAi?$AAc?$AAa@ 00000001800122f8     libucrt:get_qualified_locale.obj
 0001:00011318       ??_C@_1BG@BHJEBBGG@?$AAe?$AAn?$AAg?$AAl?$AAi?$AAs?$AAh?$AA?9?$AAn?$AAz@ 0000000180012318     libucrt:get_qualified_locale.obj
 0001:00011330       ??_C@_1CK@FGOEJJCO@?$AAe?$AAn?$AAg?$AAl?$AAi?$AAs?$AAh?$AA?9?$AAs?$AAo?$AAu?$AAt?$AAh?$AA?5?$AAa@ 0000000180012330     libucrt:get_qualified_locale.obj
 0001:00011360       ??_C@_1DE@PDBJPCJ@?$AAe?$AAn?$AAg?$AAl?$AAi?$AAs?$AAh?$AA?9?$AAt?$AAr?$AAi?$AAn?$AAi?$AAd?$AAa@ 0000000180012360     libucrt:get_qualified_locale.obj
 0001:00011398       ??_C@_1BG@JGCANDME@?$AAe?$AAn?$AAg?$AAl?$AAi?$AAs?$AAh?$AA?9?$AAu?$AAk@ 0000000180012398     libucrt:get_qualified_locale.obj
 0001:000113b0       ??_C@_1BG@DINKMLE@?$AAe?$AAn?$AAg?$AAl?$AAi?$AAs?$AAh?$AA?9?$AAu?$AAs@ 00000001800123b0     libucrt:get_qualified_locale.obj
 0001:000113c8       ??_C@_1BI@NMFDBHJE@?$AAe?$AAn?$AAg?$AAl?$AAi?$AAs?$AAh?$AA?9?$AAu?$AAs?$AAa@ 00000001800123c8     libucrt:get_qualified_locale.obj
 0001:000113e0       ??_C@_1BO@OIHKJKII@?$AAf?$AAr?$AAe?$AAn?$AAc?$AAh?$AA?9?$AAb?$AAe?$AAl?$AAg?$AAi?$AAa?$AAn@ 00000001800123e0     libucrt:get_qualified_locale.obj
 0001:00011400       ??_C@_1CA@NKAELJKI@?$AAf?$AAr?$AAe?$AAn?$AAc?$AAh?$AA?9?$AAc?$AAa?$AAn?$AAa?$AAd?$AAi?$AAa?$AAn@ 0000000180012400     libucrt:get_qualified_locale.obj
 0001:00011420       ??_C@_1CE@MGKCNLGN@?$AAf?$AAr?$AAe?$AAn?$AAc?$AAh?$AA?9?$AAl?$AAu?$AAx?$AAe?$AAm?$AAb?$AAo?$AAu@ 0000000180012420     libucrt:get_qualified_locale.obj
 0001:00011448       ??_C@_1BK@CEGEAILM@?$AAf?$AAr?$AAe?$AAn?$AAc?$AAh?$AA?9?$AAs?$AAw?$AAi?$AAs?$AAs@ 0000000180012448     libucrt:get_qualified_locale.obj
 0001:00011468       ??_C@_1CA@PAFKEOCC@?$AAg?$AAe?$AAr?$AAm?$AAa?$AAn?$AA?9?$AAa?$AAu?$AAs?$AAt?$AAr?$AAi?$AAa?$AAn@ 0000000180012468     libucrt:get_qualified_locale.obj
 0001:00011488       ??_C@_1CI@HCFHGOFD@?$AAg?$AAe?$AAr?$AAm?$AAa?$AAn?$AA?9?$AAl?$AAi?$AAc?$AAh?$AAt?$AAe?$AAn?$AAs@ 0000000180012488     libucrt:get_qualified_locale.obj
 0001:000114b0       ??_C@_1CE@FEDDNPDG@?$AAg?$AAe?$AAr?$AAm?$AAa?$AAn?$AA?9?$AAl?$AAu?$AAx?$AAe?$AAm?$AAb?$AAo?$AAu@ 00000001800124b0     libucrt:get_qualified_locale.obj
 0001:000114d8       ??_C@_1BK@LIMINNMN@?$AAg?$AAe?$AAr?$AAm?$AAa?$AAn?$AA?9?$AAs?$AAw?$AAi?$AAs?$AAs@ 00000001800124d8     libucrt:get_qualified_locale.obj
 0001:000114f8       ??_C@_1BM@LGMDBEPD@?$AAi?$AAr?$AAi?$AAs?$AAh?$AA?9?$AAe?$AAn?$AAg?$AAl?$AAi?$AAs?$AAh@ 00000001800124f8     libucrt:get_qualified_locale.obj
 0001:00011518       ??_C@_1BM@NNCFBAEE@?$AAi?$AAt?$AAa?$AAl?$AAi?$AAa?$AAn?$AA?9?$AAs?$AAw?$AAi?$AAs?$AAs@ 0000000180012518     libucrt:get_qualified_locale.obj
 0001:00011538       ??_C@_1BE@FEDJNPIB@?$AAn?$AAo?$AAr?$AAw?$AAe?$AAg?$AAi?$AAa?$AAn@ 0000000180012538     libucrt:get_qualified_locale.obj
 0001:00011550       ??_C@_1CC@CILKDEIE@?$AAn?$AAo?$AAr?$AAw?$AAe?$AAg?$AAi?$AAa?$AAn?$AA?9?$AAb?$AAo?$AAk?$AAm?$AAa@ 0000000180012550     libucrt:get_qualified_locale.obj
 0001:00011578       ??_C@_1CE@DHMMHEPL@?$AAn?$AAo?$AAr?$AAw?$AAe?$AAg?$AAi?$AAa?$AAn?$AA?9?$AAn?$AAy?$AAn?$AAo?$AAr@ 0000000180012578     libucrt:get_qualified_locale.obj
 0001:000115a0       ??_C@_1CK@OPNMHECD@?$AAp?$AAo?$AAr?$AAt?$AAu?$AAg?$AAu?$AAe?$AAs?$AAe?$AA?9?$AAb?$AAr?$AAa?$AAz@ 00000001800125a0     libucrt:get_qualified_locale.obj
 0001:000115d0       ??_C@_1CE@KEEHCDB@?$AAs?$AAp?$AAa?$AAn?$AAi?$AAs?$AAh?$AA?9?$AAa?$AAr?$AAg?$AAe?$AAn?$AAt?$AAi@ 00000001800125d0     libucrt:get_qualified_locale.obj
 0001:000115f8       ??_C@_1CA@GIAOLHJD@?$AAs?$AAp?$AAa?$AAn?$AAi?$AAs?$AAh?$AA?9?$AAb?$AAo?$AAl?$AAi?$AAv?$AAi?$AAa@ 00000001800125f8     libucrt:get_qualified_locale.obj
 0001:00011618       ??_C@_1BM@OJNDFNPD@?$AAs?$AAp?$AAa?$AAn?$AAi?$AAs?$AAh?$AA?9?$AAc?$AAh?$AAi?$AAl?$AAe@ 0000000180012618     libucrt:get_qualified_locale.obj
 0001:00011638       ??_C@_1CC@OCOLPALL@?$AAs?$AAp?$AAa?$AAn?$AAi?$AAs?$AAh?$AA?9?$AAc?$AAo?$AAl?$AAo?$AAm?$AAb?$AAi@ 0000000180012638     libucrt:get_qualified_locale.obj
 0001:00011660       ??_C@_1CG@BPOFMKBB@?$AAs?$AAp?$AAa?$AAn?$AAi?$AAs?$AAh?$AA?9?$AAc?$AAo?$AAs?$AAt?$AAa?$AA?5?$AAr@ 0000000180012660     libucrt:get_qualified_locale.obj
 0001:00011688       ??_C@_1DG@IGOBAPBB@?$AAs?$AAp?$AAa?$AAn?$AAi?$AAs?$AAh?$AA?9?$AAd?$AAo?$AAm?$AAi?$AAn?$AAi?$AAc@ 0000000180012688     libucrt:get_qualified_locale.obj
 0001:000116c0       ??_C@_1CA@JHAPGEGI@?$AAs?$AAp?$AAa?$AAn?$AAi?$AAs?$AAh?$AA?9?$AAe?$AAc?$AAu?$AAa?$AAd?$AAo?$AAr@ 00000001800126c0     libucrt:get_qualified_locale.obj
 0001:000116e0       ??_C@_1CI@LAPALJPP@?$AAs?$AAp?$AAa?$AAn?$AAi?$AAs?$AAh?$AA?9?$AAe?$AAl?$AA?5?$AAs?$AAa?$AAl?$AAv@ 00000001800126e0     libucrt:get_qualified_locale.obj
 0001:00011708       ??_C@_1CE@PDGBOFOM@?$AAs?$AAp?$AAa?$AAn?$AAi?$AAs?$AAh?$AA?9?$AAg?$AAu?$AAa?$AAt?$AAe?$AAm?$AAa@ 0000000180012708     libucrt:get_qualified_locale.obj
 0001:00011730       ??_C@_1CC@NBEBAODI@?$AAs?$AAp?$AAa?$AAn?$AAi?$AAs?$AAh?$AA?9?$AAh?$AAo?$AAn?$AAd?$AAu?$AAr?$AAa@ 0000000180012730     libucrt:get_qualified_locale.obj
 0001:00011758       ??_C@_1CA@LLKGHBMF@?$AAs?$AAp?$AAa?$AAn?$AAi?$AAs?$AAh?$AA?9?$AAm?$AAe?$AAx?$AAi?$AAc?$AAa?$AAn@ 0000000180012758     libucrt:get_qualified_locale.obj
 0001:00011778       ??_C@_1BO@LKNDOIGD@?$AAs?$AAp?$AAa?$AAn?$AAi?$AAs?$AAh?$AA?9?$AAm?$AAo?$AAd?$AAe?$AAr?$AAn@ 0000000180012778     libucrt:get_qualified_locale.obj
 0001:00011798       ??_C@_1CE@NMDMOEEB@?$AAs?$AAp?$AAa?$AAn?$AAi?$AAs?$AAh?$AA?9?$AAn?$AAi?$AAc?$AAa?$AAr?$AAa?$AAg@ 0000000180012798     libucrt:get_qualified_locale.obj
 0001:000117c0       ??_C@_1BO@LLCBEJGB@?$AAs?$AAp?$AAa?$AAn?$AAi?$AAs?$AAh?$AA?9?$AAp?$AAa?$AAn?$AAa?$AAm?$AAa@ 00000001800127c0     libucrt:get_qualified_locale.obj
 0001:000117e0       ??_C@_1CC@FKPGGIHO@?$AAs?$AAp?$AAa?$AAn?$AAi?$AAs?$AAh?$AA?9?$AAp?$AAa?$AAr?$AAa?$AAg?$AAu?$AAa@ 00000001800127e0     libucrt:get_qualified_locale.obj
 0001:00011808       ??_C@_1BK@CDEIHOOP@?$AAs?$AAp?$AAa?$AAn?$AAi?$AAs?$AAh?$AA?9?$AAp?$AAe?$AAr?$AAu@ 0000000180012808     libucrt:get_qualified_locale.obj
 0001:00011828       ??_C@_1CI@GAHAKKGP@?$AAs?$AAp?$AAa?$AAn?$AAi?$AAs?$AAh?$AA?9?$AAp?$AAu?$AAe?$AAr?$AAt?$AAo?$AA?5@ 0000000180012828     libucrt:get_qualified_locale.obj
 0001:00011850       ??_C@_1CA@NKJBCAGP@?$AAs?$AAp?$AAa?$AAn?$AAi?$AAs?$AAh?$AA?9?$AAu?$AAr?$AAu?$AAg?$AAu?$AAa?$AAy@ 0000000180012850     libucrt:get_qualified_locale.obj
 0001:00011870       ??_C@_1CE@ODILCONM@?$AAs?$AAp?$AAa?$AAn?$AAi?$AAs?$AAh?$AA?9?$AAv?$AAe?$AAn?$AAe?$AAz?$AAu?$AAe@ 0000000180012870     libucrt:get_qualified_locale.obj
 0001:00011898       ??_C@_1CA@OBNMCGFO@?$AAs?$AAw?$AAe?$AAd?$AAi?$AAs?$AAh?$AA?9?$AAf?$AAi?$AAn?$AAl?$AAa?$AAn?$AAd@ 0000000180012898     libucrt:get_qualified_locale.obj
 0001:000118b8       ??_C@_1M@PIPDDPPI@?$AAs?$AAw?$AAi?$AAs?$AAs@ 00000001800128b8     libucrt:get_qualified_locale.obj
 0001:000118c4       ??_C@_15GMFIMNFM@?$AAu?$AAs@ 00000001800128c4     libucrt:get_qualified_locale.obj
 0001:000118d0       ??_C@_17HAEBFAGL@?$AAu?$AAs?$AAa@ 00000001800128d0     libucrt:get_qualified_locale.obj
 0001:000118d8       ??_C@_1BA@DPFJEPHB@?$AAa?$AAm?$AAe?$AAr?$AAi?$AAc?$AAa@ 00000001800128d8     libucrt:get_qualified_locale.obj
 0001:000118e8       ??_C@_1BA@ELOGGFK@?$AAb?$AAr?$AAi?$AAt?$AAa?$AAi?$AAn@ 00000001800128e8     libucrt:get_qualified_locale.obj
 0001:000118f8       ??_C@_1M@GHBGIGDA@?$AAc?$AAh?$AAi?$AAn?$AAa@ 00000001800128f8     libucrt:get_qualified_locale.obj
 0001:00011908       ??_C@_1M@NCHEJOPO@?$AAc?$AAz?$AAe?$AAc?$AAh@ 0000000180012908     libucrt:get_qualified_locale.obj
 0001:00011918       ??_C@_1BA@BKPAPBLA@?$AAe?$AAn?$AAg?$AAl?$AAa?$AAn?$AAd@ 0000000180012918     libucrt:get_qualified_locale.obj
 0001:00011928       ??_C@_1BM@HKBCKIPC@?$AAg?$AAr?$AAe?$AAa?$AAt?$AA?5?$AAb?$AAr?$AAi?$AAt?$AAa?$AAi?$AAn@ 0000000180012928     libucrt:get_qualified_locale.obj
 0001:00011948       ??_C@_1BA@PPCHPGJB@?$AAh?$AAo?$AAl?$AAl?$AAa?$AAn?$AAd@ 0000000180012948     libucrt:get_qualified_locale.obj
 0001:00011958       ??_C@_1BE@JBMPEGDG@?$AAh?$AAo?$AAn?$AAg?$AA?9?$AAk?$AAo?$AAn?$AAg@ 0000000180012958     libucrt:get_qualified_locale.obj
 0001:00011970       ??_C@_1BI@KOELBBPJ@?$AAn?$AAe?$AAw?$AA?9?$AAz?$AAe?$AAa?$AAl?$AAa?$AAn?$AAd@ 0000000180012970     libucrt:get_qualified_locale.obj
 0001:00011988       ??_C@_15HIEBHAIO@?$AAn?$AAz@ 0000000180012988     libucrt:get_qualified_locale.obj
 0001:00011990       ??_C@_1BC@CHBCPFPI@?$AAp?$AAr?$AA?5?$AAc?$AAh?$AAi?$AAn?$AAa@ 0000000180012990     libucrt:get_qualified_locale.obj
 0001:000119a8       ??_C@_1BC@JAOIIFKD@?$AAp?$AAr?$AA?9?$AAc?$AAh?$AAi?$AAn?$AAa@ 00000001800129a8     libucrt:get_qualified_locale.obj
 0001:000119c0       ??_C@_1BI@BEHPPHKC@?$AAp?$AAu?$AAe?$AAr?$AAt?$AAo?$AA?9?$AAr?$AAi?$AAc?$AAo@ 00000001800129c0     libucrt:get_qualified_locale.obj
 0001:000119d8       ??_C@_1O@PAEOFKDI@?$AAs?$AAl?$AAo?$AAv?$AAa?$AAk@ 00000001800129d8     libucrt:get_qualified_locale.obj
 0001:000119e8       ??_C@_1BK@FIHMCKAM@?$AAs?$AAo?$AAu?$AAt?$AAh?$AA?5?$AAa?$AAf?$AAr?$AAi?$AAc?$AAa@ 00000001800129e8     libucrt:get_qualified_locale.obj
 0001:00011a08       ??_C@_1BI@NAEOODKB@?$AAs?$AAo?$AAu?$AAt?$AAh?$AA?5?$AAk?$AAo?$AAr?$AAe?$AAa@ 0000000180012a08     libucrt:get_qualified_locale.obj
 0001:00011a20       ??_C@_1BK@FBDGGIFF@?$AAs?$AAo?$AAu?$AAt?$AAh?$AA?9?$AAa?$AAf?$AAr?$AAi?$AAc?$AAa@ 0000000180012a20     libucrt:get_qualified_locale.obj
 0001:00011a40       ??_C@_1BI@GHLEJDPK@?$AAs?$AAo?$AAu?$AAt?$AAh?$AA?9?$AAk?$AAo?$AAr?$AAe?$AAa@ 0000000180012a40     libucrt:get_qualified_locale.obj
 0001:00011a58       ??_C@_1CE@PLHLOMJF@?$AAt?$AAr?$AAi?$AAn?$AAi?$AAd?$AAa?$AAd?$AA?5?$AA?$CG?$AA?5?$AAt?$AAo?$AAb?$AAa@ 0000000180012a58     libucrt:get_qualified_locale.obj
 0001:00011a80       ??_C@_1BO@MODIMHHI@?$AAu?$AAn?$AAi?$AAt?$AAe?$AAd?$AA?9?$AAk?$AAi?$AAn?$AAg?$AAd?$AAo?$AAm@ 0000000180012a80     libucrt:get_qualified_locale.obj
 0001:00011aa0       ??_C@_1BM@FFHJONBJ@?$AAu?$AAn?$AAi?$AAt?$AAe?$AAd?$AA?9?$AAs?$AAt?$AAa?$AAt?$AAe?$AAs@ 0000000180012aa0     libucrt:get_qualified_locale.obj
 0001:00011ac0       ??_C@_19MPDNHKDG@?$AAu?$AAt?$AAf?$AA8@ 0000000180012ac0     libucrt:get_qualified_locale.obj
 0001:00011ad0       ??_C@_17DNCLJFIF@?$AAA?$AAC?$AAP@ 0000000180012ad0     libucrt:get_qualified_locale.obj
 0001:00011ad8       ??_C@_1M@FPEIIFAM@?$AAu?$AAt?$AAf?$AA?9?$AA8@ 0000000180012ad8     libucrt:get_qualified_locale.obj
 0001:00011ae8       ??_C@_17CIKBIHLH@?$AAO?$AAC?$AAP@ 0000000180012ae8     libucrt:get_qualified_locale.obj
 0001:00011af0       __rglangidNotDefault       0000000180012af0     libucrt:getqloc_downlevel.obj
 0001:00011b20       ??_C@_1BA@BALFACEM@?$AAC?$AAO?$AAN?$AAO?$AAU?$AAT?$AA$@ 0000000180012b20     libucrt:initcon.obj
 0001:00011b50       _load_config_used          0000000180012b50     LIBCMT:loadcfg.obj
 0001:00011c58       ??_R4exception@std@@6B@    0000000180012c58     libcpmt:xthrow.obj
 0001:00011c80       ??_R3exception@std@@8      0000000180012c80     libcpmt:xthrow.obj
 0001:00011c98       ??_R2exception@std@@8      0000000180012c98     libcpmt:xthrow.obj
 0001:00011ca8       ??_R1A@?0A@EA@exception@std@@8 0000000180012ca8     libcpmt:xthrow.obj
 0001:00011cd0       ??_R4bad_alloc@std@@6B@    0000000180012cd0     libcpmt:xthrow.obj
 0001:00011cf8       ??_R3bad_alloc@std@@8      0000000180012cf8     libcpmt:xthrow.obj
 0001:00011d10       ??_R2bad_alloc@std@@8      0000000180012d10     libcpmt:xthrow.obj
 0001:00011d28       ??_R1A@?0A@EA@bad_alloc@std@@8 0000000180012d28     libcpmt:xthrow.obj
 0001:00011d50       ??_R4logic_error@std@@6B@  0000000180012d50     libcpmt:xthrow.obj
 0001:00011d78       ??_R3logic_error@std@@8    0000000180012d78     libcpmt:xthrow.obj
 0001:00011d90       ??_R2logic_error@std@@8    0000000180012d90     libcpmt:xthrow.obj
 0001:00011da8       ??_R1A@?0A@EA@logic_error@std@@8 0000000180012da8     libcpmt:xthrow.obj
 0001:00011dd0       ??_R4length_error@std@@6B@ 0000000180012dd0     libcpmt:xthrow.obj
 0001:00011df8       ??_R3length_error@std@@8   0000000180012df8     libcpmt:xthrow.obj
 0001:00011e10       ??_R2length_error@std@@8   0000000180012e10     libcpmt:xthrow.obj
 0001:00011e30       ??_R1A@?0A@EA@length_error@std@@8 0000000180012e30     libcpmt:xthrow.obj
 0001:00011e58       ??_R4out_of_range@std@@6B@ 0000000180012e58     libcpmt:xthrow.obj
 0001:00011e80       ??_R3out_of_range@std@@8   0000000180012e80     libcpmt:xthrow.obj
 0001:00011e98       ??_R2out_of_range@std@@8   0000000180012e98     libcpmt:xthrow.obj
 0001:00011eb8       ??_R1A@?0A@EA@out_of_range@std@@8 0000000180012eb8     libcpmt:xthrow.obj
 0001:00011ee0       ??_R4runtime_error@std@@6B@ 0000000180012ee0     libcpmt:xthrow.obj
 0001:00011f08       ??_R3runtime_error@std@@8  0000000180012f08     libcpmt:xthrow.obj
 0001:00011f20       ??_R2runtime_error@std@@8  0000000180012f20     libcpmt:xthrow.obj
 0001:00011f38       ??_R1A@?0A@EA@runtime_error@std@@8 0000000180012f38     libcpmt:xthrow.obj
 0001:00011f60       ??_R4bad_function_call@std@@6B@ 0000000180012f60     libcpmt:xthrow.obj
 0001:00011f88       ??_R3bad_function_call@std@@8 0000000180012f88     libcpmt:xthrow.obj
 0001:00011fa0       ??_R2bad_function_call@std@@8 0000000180012fa0     libcpmt:xthrow.obj
 0001:00011fb8       ??_R1A@?0A@EA@bad_function_call@std@@8 0000000180012fb8     libcpmt:xthrow.obj
 0001:00011fe0       ??_R4_Facet_base@std@@6B@  0000000180012fe0     libcpmt:locale0.obj
 0001:00012008       ??_R3_Facet_base@std@@8    0000000180013008     libcpmt:locale0.obj
 0001:00012020       ??_R2_Facet_base@std@@8    0000000180013020     libcpmt:locale0.obj
 0001:00012030       ??_R1A@?0A@EA@_Facet_base@std@@8 0000000180013030     libcpmt:locale0.obj
 0001:00012058       ??_R4_Locimp@locale@std@@6B@ 0000000180013058     libcpmt:locale0.obj
 0001:00012080       ??_R3_Locimp@locale@std@@8 0000000180013080     libcpmt:locale0.obj
 0001:00012098       ??_R2_Locimp@locale@std@@8 0000000180013098     libcpmt:locale0.obj
 0001:000120c0       ??_R1A@?0A@EA@_Locimp@locale@std@@8 00000001800130c0     libcpmt:locale0.obj
 0001:000120e8       ??_R1A@?0A@EA@facet@locale@std@@8 00000001800130e8     libcpmt:locale0.obj
 0001:00012110       ??_R3facet@locale@std@@8   0000000180013110     libcpmt:locale0.obj
 0001:00012128       ??_R2facet@locale@std@@8   0000000180013128     libcpmt:locale0.obj
 0001:00012148       ??_R17?0A@EA@_Crt_new_delete@std@@8 0000000180013148     libcpmt:locale0.obj
 0001:00012170       ??_R3_Crt_new_delete@std@@8 0000000180013170     libcpmt:locale0.obj
 0001:00012188       ??_R2_Crt_new_delete@std@@8 0000000180013188     libcpmt:locale0.obj
 0001:00012198       ??_R1A@?0A@EA@_Crt_new_delete@std@@8 0000000180013198     libcpmt:locale0.obj
 0001:000121c0       ??_R4bad_array_new_length@std@@6B@ 00000001800131c0     libcpmt:locale.obj
 0001:000121e8       ??_R3bad_array_new_length@std@@8 00000001800131e8     libcpmt:locale.obj
 0001:00012200       ??_R2bad_array_new_length@std@@8 0000000180013200     libcpmt:locale.obj
 0001:00012220       ??_R1A@?0A@EA@bad_array_new_length@std@@8 0000000180013220     libcpmt:locale.obj
 0001:00012248       ??_R4bad_cast@std@@6B@     0000000180013248     libcpmt:locale.obj
 0001:00012270       ??_R3bad_cast@std@@8       0000000180013270     libcpmt:locale.obj
 0001:00012288       ??_R2bad_cast@std@@8       0000000180013288     libcpmt:locale.obj
 0001:000122a0       ??_R1A@?0A@EA@bad_cast@std@@8 00000001800132a0     libcpmt:locale.obj
 0001:000122c8       ??_R4?$numpunct@_W@std@@6B@ 00000001800132c8     libcpmt:wlocale.obj
 0001:000122f0       ??_R3?$numpunct@_W@std@@8  00000001800132f0     libcpmt:wlocale.obj
 0001:00012308       ??_R2?$numpunct@_W@std@@8  0000000180013308     libcpmt:wlocale.obj
 0001:00012330       ??_R1A@?0A@EA@?$numpunct@_W@std@@8 0000000180013330     libcpmt:wlocale.obj
 0001:00012358       ??_R4type_info@@6B@        0000000180013358     LIBCMT:std_type_info_static.obj
 0001:00012380       ??_R3type_info@@8          0000000180013380     LIBCMT:std_type_info_static.obj
 0001:00012398       ??_R2type_info@@8          0000000180013398     LIBCMT:std_type_info_static.obj
 0001:000123a8       ??_R1A@?0A@EA@type_info@@8 00000001800133a8     LIBCMT:std_type_info_static.obj
 0001:000123d0       ??_R4bad_exception@std@@6B@ 00000001800133d0     libvcruntime:frame.obj
 0001:000123f8       ??_R3bad_exception@std@@8  00000001800133f8     libvcruntime:frame.obj
 0001:00012410       ??_R2bad_exception@std@@8  0000000180013410     libvcruntime:frame.obj
 0001:00012428       ??_R1A@?0A@EA@bad_exception@std@@8 0000000180013428     libvcruntime:frame.obj
 0001:00012778       __rtc_iaa                  0000000180013778     LIBCMT:initsect.obj
 0001:00012780       __rtc_izz                  0000000180013780     LIBCMT:initsect.obj
 0001:00012788       __rtc_taa                  0000000180013788     LIBCMT:initsect.obj
 0001:00012790       __rtc_tzz                  0000000180013790     LIBCMT:initsect.obj
 0001:00012840       __chkstk                   0000000180013840 f   chkstk.obj
 0001:00012840       _alloca_probe              0000000180013840 f   chkstk.obj
 0001:000128a0       ??$_Destroy_range@V?$allocator@Umode@@@std@@@std@@YAXPEAUmode@@QEAU1@AEAV?$allocator@Umode@@@0@@Z 00000001800138a0 f i fileio.obj
 0001:00012910       ?_Tidy_deallocate@?$basic_string@_WU?$char_traits@_W@std@@V?$allocator@_W@2@@std@@AEAAXXZ 0000000180013910 f i fileio.obj
 0001:00012910       ??1?$basic_string@_WU?$char_traits@_W@std@@V?$allocator@_W@2@@std@@QEAA@XZ 0000000180013910 f i fileio.obj
 0001:00012980       ??1?$vector@Umode@@V?$allocator@Umode@@@std@@@std@@QEAA@XZ 0000000180013980 f i fileio.obj
 0001:00012a80       ??1columns@@QEAA@XZ        0000000180013a80 f i fileio.obj
 0001:00012ab0       ??1mode@@QEAA@XZ           0000000180013ab0 f i fileio.obj
 0001:00012b10       ?WriteToFile@@YA_KPEAXAEBV?$basic_string_view@_WU?$char_traits@_W@std@@@std@@@Z 0000000180013b10 f   fileio.obj
 0001:00012b50       ?WriteToFile@@YA_KPEAX_W@Z 0000000180013b50 f   fileio.obj
 0001:00012b90       ?deallocate@?$allocator@_W@std@@QEAAXQEA_W_K@Z 0000000180013b90 f i fileio.obj
 0001:00012bd0       ??$format_float@N@detail@v7@fmt@@YAHNHUfloat_specs@012@AEAV?$buffer@D@012@@Z 0000000180013bd0 f i format.obj
 0001:000133d0       ??$?XH@bigint@detail@v7@fmt@@QEAAAEAV0123@H@Z 00000001800143d0 f i format.obj
 0001:00013450       ??$_Maklocstr@D@std@@YAPEADPEBDPEADAEBU_Cvtvec@@@Z 0000000180014450 f i format.obj
 0001:000134c0       ??$decimal_point_impl@_W@detail@v7@fmt@@YA_WVlocale_ref@012@@Z 00000001800144c0 f i format.obj
 0001:00013520       ??$do_throw@Vformat_error@v7@fmt@@@detail@v7@fmt@@YAXAEBVformat_error@12@@Z 0000000180014520 f i format.obj
 0001:00013550       ??$fallback_format@O@detail@v7@fmt@@YAXOH_NAEAV?$buffer@D@012@AEAH@Z 0000000180014550 f i format.obj
 0001:00013550       ??$fallback_format@N@detail@v7@fmt@@YAXNH_NAEAV?$buffer@D@012@AEAH@Z 0000000180014550 f i format.obj
 0001:00014b90       ??$format_decimal@DIV?$buffer_appender@D@detail@v7@fmt@@$0A@@detail@v7@fmt@@YA?AU?$format_decimal_result@V?$buffer_appender@D@detail@v7@fmt@@@012@V?$buffer_appender@D@012@IH@Z 0000000180015b90 f i format.obj
 0001:00014c80       ??$format_decimal@D_KV?$buffer_appender@D@detail@v7@fmt@@$0A@@detail@v7@fmt@@YA?AU?$format_decimal_result@V?$buffer_appender@D@detail@v7@fmt@@@012@V?$buffer_appender@D@012@_KH@Z 0000000180015c80 f i format.obj
 0001:00014d70       ??$format_float@O@detail@v7@fmt@@YAHOHUfloat_specs@012@AEAV?$buffer@D@012@@Z 0000000180015d70 f i format.obj
 0001:00015570       ??$get@Vlocale@std@@@locale_ref@detail@v7@fmt@@QEBA?AVlocale@std@@XZ 0000000180016570 f i format.obj
 0001:00015650       ??$grouping_impl@_W@detail@v7@fmt@@YA?AV?$basic_string@DU?$char_traits@D@std@@V?$allocator@D@2@@std@@Vlocale_ref@012@@Z 0000000180016650 f i format.obj
 0001:000156c0       ??$is_endpoint_integer@M@dragonbox@detail@v7@fmt@@YA_NIHH@Z 00000001800166c0 f i format.obj
 0001:00015700       ??$is_endpoint_integer@N@dragonbox@detail@v7@fmt@@YA_N_KHH@Z 0000000180016700 f i format.obj
 0001:00015740       ??$snprintf_float@N@detail@v7@fmt@@YAHNHUfloat_specs@012@AEAV?$buffer@D@012@@Z 0000000180016740 f i format.obj
 0001:000159c0       ??$snprintf_float@O@detail@v7@fmt@@YAHOHUfloat_specs@012@AEAV?$buffer@D@012@@Z 00000001800169c0 f i format.obj
 0001:00015c50       ??$thousands_sep_impl@_W@detail@v7@fmt@@YA_WVlocale_ref@012@@Z 0000000180016c50 f i format.obj
 0001:00015cb0       ??$to_decimal@M@dragonbox@detail@v7@fmt@@YA?AU?$decimal_fp@M@0123@M@Z 0000000180016cb0 f i format.obj
 0001:000160e0       ??$to_decimal@N@dragonbox@detail@v7@fmt@@YA?AU?$decimal_fp@N@0123@N@Z 00000001800170e0 f i format.obj
 0001:000169a0       ??$use_facet@V?$numpunct@_W@std@@@std@@YAAEBV?$numpunct@_W@0@AEBVlocale@0@@Z 00000001800179a0 f i format.obj
 0001:00016ab0       ??$write@DV?$buffer_appender@D@detail@v7@fmt@@I$0A@@detail@v7@fmt@@YA?AV?$buffer_appender@D@012@V3012@I@Z 0000000180017ab0 f i format.obj
 0001:00016bf0       ??$write@DV?$buffer_appender@D@detail@v7@fmt@@_K$0A@@detail@v7@fmt@@YA?AV?$buffer_appender@D@012@V3012@_K@Z 0000000180017bf0 f i format.obj
 0001:00016d50       ??0bad_alloc@std@@QEAA@AEBV01@@Z 0000000180017d50 f i format.obj
 0001:00016d90       ??0bad_array_new_length@std@@QEAA@AEBV01@@Z 0000000180017d90 f i format.obj
 0001:00016dd0       ??0bad_array_new_length@std@@QEAA@XZ 0000000180017dd0 f i format.obj
 0001:00016e00       ??0bad_cast@std@@QEAA@AEBV01@@Z 0000000180017e00 f i format.obj
 0001:00016e40       ??0bad_cast@std@@QEAA@XZ   0000000180017e40 f i format.obj
 0001:00016e70       ??0exception@std@@QEAA@AEBV01@@Z 0000000180017e70 f i format.obj
 0001:00016eb0       ??0format_error@v7@fmt@@QEAA@AEBV012@@Z 0000000180017eb0 f i format.obj
 0001:00016ef0       ??0runtime_error@std@@QEAA@AEBV01@@Z 0000000180017ef0 f i format.obj
 0001:00016f30       ??0runtime_error@std@@QEAA@PEBD@Z 0000000180017f30 f i format.obj
 0001:00016f80       ??1?$_Tidy_guard@V?$numpunct@_W@std@@@std@@QEAA@XZ 0000000180017f80 f i format.obj
 0001:00016fc0       ??1?$_Yarn@_W@std@@QEAA@XZ 0000000180017fc0 f i format.obj
 0001:00016fc0       ??1?$_Yarn@D@std@@QEAA@XZ  0000000180017fc0 f i format.obj
 0001:00016ff0       ??1?$basic_memory_buffer@D$0BPE@V?$allocator@D@std@@@v7@fmt@@QEAA@XZ 0000000180017ff0 f i format.obj
 0001:00017050       ??1?$basic_memory_buffer@I$0CA@V?$allocator@I@std@@@v7@fmt@@QEAA@XZ 0000000180018050 f i format.obj
 0001:00017050       ??1bigint@detail@v7@fmt@@QEAA@XZ 0000000180018050 f i format.obj
 0001:000170b0       ??1?$basic_memory_buffer@_W$0BPE@V?$allocator@_W@std@@@v7@fmt@@QEAA@XZ 00000001800180b0 f i format.obj
 0001:00017110       ??1?$basic_string@DU?$char_traits@D@std@@V?$allocator@D@2@@std@@QEAA@XZ 0000000180018110 f i format.obj
 0001:00017170       ??1?$unique_ptr@V_Facet_base@std@@U?$default_delete@V_Facet_base@std@@@2@@std@@QEAA@XZ 0000000180018170 f i format.obj
 0001:00017190       ??1_Locinfo@std@@QEAA@XZ   0000000180018190 f i format.obj
 0001:00017230       ??1bad_alloc@std@@UEAA@XZ  0000000180018230 f i format.obj
 0001:00017230       ??1bad_exception@std@@UEAA@XZ 0000000180018230 f i libvcruntime:frame.obj
 0001:00017230       ??1bad_cast@std@@UEAA@XZ   0000000180018230 f i format.obj
 0001:00017230       ??1bad_function_call@std@@UEAA@XZ 0000000180018230 f i libcpmt:xthrow.obj
 0001:00017230       ??1format_error@v7@fmt@@UEAA@XZ 0000000180018230 f i format.obj
 0001:00017230       ??1bad_array_new_length@std@@UEAA@XZ 0000000180018230 f i format.obj
 0001:00017230       ??1length_error@std@@UEAA@XZ 0000000180018230 f i libcpmt:xthrow.obj
 0001:00017230       ??1runtime_error@std@@UEAA@XZ 0000000180018230 f i format.obj
 0001:00017230       ??1out_of_range@std@@UEAA@XZ 0000000180018230 f i libcpmt:xthrow.obj
 0001:00017250       ??1facet@locale@std@@MEAA@XZ 0000000180018250 f i format.obj
 0001:00017260       ??1locale@std@@QEAA@XZ     0000000180018260 f i format.obj
 0001:00017290       ??_3bigint@detail@v7@fmt@@QEAAAEAV0123@H@Z 0000000180018290 f i format.obj
 0001:00017350       ??_G?$numpunct@_W@std@@MEAAPEAXI@Z 0000000180018350 f i format.obj
 0001:00017350       ??_E?$numpunct@_W@std@@MEAAPEAXI@Z 0000000180018350 f i format.obj
 0001:000173b0       ??_G_Facet_base@std@@UEAAPEAXI@Z 00000001800183b0 f i format.obj
 0001:000173b0       ??_E_Facet_base@std@@UEAAPEAXI@Z 00000001800183b0 f i format.obj
 0001:000173e0       ??_Eexception@std@@UEAAPEAXI@Z 00000001800183e0 f i format.obj
 0001:000173e0       ??_Gbad_alloc@std@@UEAAPEAXI@Z 00000001800183e0 f i format.obj
 0001:000173e0       ??_Elength_error@std@@UEAAPEAXI@Z 00000001800183e0 f i libcpmt:xthrow.obj
 0001:000173e0       ??_Gformat_error@v7@fmt@@UEAAPEAXI@Z 00000001800183e0 f i format.obj
 0001:000173e0       ??_Ebad_function_call@std@@UEAAPEAXI@Z 00000001800183e0 f i libcpmt:xthrow.obj
 0001:000173e0       ??_Gbad_function_call@std@@UEAAPEAXI@Z 00000001800183e0 f i libcpmt:xthrow.obj
 0001:000173e0       ??_Ebad_exception@std@@UEAAPEAXI@Z 00000001800183e0 f i libvcruntime:frame.obj
 0001:000173e0       ??_Gexception@std@@UEAAPEAXI@Z 00000001800183e0 f i format.obj
 0001:000173e0       ??_Eout_of_range@std@@UEAAPEAXI@Z 00000001800183e0 f i libcpmt:xthrow.obj
 0001:000173e0       ??_Gbad_array_new_length@std@@UEAAPEAXI@Z 00000001800183e0 f i format.obj
 0001:000173e0       ??_Ebad_alloc@std@@UEAAPEAXI@Z 00000001800183e0 f i format.obj
 0001:000173e0       ??_Glogic_error@std@@UEAAPEAXI@Z 00000001800183e0 f i libcpmt:xthrow.obj
 0001:000173e0       ??_Glength_error@std@@UEAAPEAXI@Z 00000001800183e0 f i libcpmt:xthrow.obj
 0001:000173e0       ??_Gruntime_error@std@@UEAAPEAXI@Z 00000001800183e0 f i format.obj
 0001:000173e0       ??_Ebad_array_new_length@std@@UEAAPEAXI@Z 00000001800183e0 f i format.obj
 0001:000173e0       ??_Gout_of_range@std@@UEAAPEAXI@Z 00000001800183e0 f i libcpmt:xthrow.obj
 0001:000173e0       ??_Eformat_error@v7@fmt@@UEAAPEAXI@Z 00000001800183e0 f i format.obj
 0001:000173e0       ??_Elogic_error@std@@UEAAPEAXI@Z 00000001800183e0 f i libcpmt:xthrow.obj
 0001:000173e0       ??_Ebad_cast@std@@UEAAPEAXI@Z 00000001800183e0 f i format.obj
 0001:000173e0       ??_Eruntime_error@std@@UEAAPEAXI@Z 00000001800183e0 f i format.obj
 0001:000173e0       ??_Gbad_exception@std@@UEAAPEAXI@Z 00000001800183e0 f i libvcruntime:frame.obj
 0001:000173e0       ??_Gbad_cast@std@@UEAAPEAXI@Z 00000001800183e0 f i format.obj
 0001:00017430       ?_Decref@facet@locale@std@@UEAAPEAV_Facet_base@3@XZ 0000000180018430 f i format.obj
 0001:00017440       ?_Getcat@?$numpunct@_W@std@@SA_KPEAPEBVfacet@locale@2@PEBV42@@Z 0000000180018440 f i format.obj
 0001:000175f0       ?_Incref@facet@locale@std@@UEAAXXZ 00000001800185f0 f i format.obj
 0001:00017600       ?_Init@?$numpunct@_W@std@@IEAAXAEBV_Locinfo@2@_N@Z 0000000180018600 f i format.obj
 0001:000178a0       ?__scrt_throw_std_bad_array_new_length@@YAXXZ 00000001800188a0 f i LIBCMT:throw_bad_alloc.obj
 0001:000178a0       ?_Throw_bad_array_new_length@std@@YAXXZ 00000001800188a0 f i format.obj
 0001:000178c0       ?_Throw_bad_cast@std@@YAXXZ 00000001800188c0 f i format.obj
 0001:000178e0       ?_Xlen@?$basic_string@DU?$char_traits@D@std@@V?$allocator@D@2@@std@@CAXXZ 00000001800188e0 f i format.obj
 0001:000178e0       ?_Xlen@?$basic_string@_WU?$char_traits@_W@std@@V?$allocator@_W@2@@std@@CAXXZ 00000001800188e0 f i format.obj
 0001:00017900       ?add_compare@detail@v7@fmt@@YAHAEBVbigint@123@00@Z 0000000180018900 f i format.obj
 0001:00017a40       ?allocate@?$allocator@_W@std@@QEAAPEA_W_K@Z 0000000180018a40 f i format.obj
 0001:00017ab0       ?assign@?$basic_string@DU?$char_traits@D@std@@V?$allocator@D@2@@std@@QEAAAEAV12@QEBD_K@Z 0000000180018ab0 f i format.obj
 0001:00017c10       ?assign@?$basic_string@_WU?$char_traits@_W@std@@V?$allocator@_W@2@@std@@QEAAAEAV12@QEB_W_K@Z 0000000180018c10 f i format.obj
 0001:00017d40       ?assign_pow10@bigint@detail@v7@fmt@@QEAAXH@Z 0000000180018d40 f i format.obj
 0001:00017e70       ?compare@detail@v7@fmt@@YAHAEBVbigint@123@0@Z 0000000180018e70 f i format.obj
 0001:00017f10       ?divmod_assign@bigint@detail@v7@fmt@@QEAAHAEBV1234@@Z 0000000180018f10 f i format.obj
 0001:000180c0       ?do_decimal_point@?$numpunct@_W@std@@MEBA_WXZ 00000001800190c0 f i format.obj
 0001:000180d0       ?do_falsename@?$numpunct@_W@std@@MEBA?AV?$basic_string@_WU?$char_traits@_W@std@@V?$allocator@_W@2@@2@XZ 00000001800190d0 f i format.obj
 0001:00018110       ?do_grouping@?$numpunct@_W@std@@MEBA?AV?$basic_string@DU?$char_traits@D@std@@V?$allocator@D@2@@2@XZ 0000000180019110 f i format.obj
 0001:00018160       ?do_thousands_sep@?$numpunct@_W@std@@MEBA_WXZ 0000000180019160 f i format.obj
 0001:00018170       ?do_truename@?$numpunct@_W@std@@MEBA?AV?$basic_string@_WU?$char_traits@_W@std@@V?$allocator@_W@2@@2@XZ 0000000180019170 f i format.obj
 0001:000181b0       ?fmt_snprintf@detail@v7@fmt@@YAHPEAD_KPEBDZZ 00000001800191b0 f i format.obj
 0001:00018220       ?get_cached_power@?$cache_accessor@N@dragonbox@detail@v7@fmt@@SA?AUuint128_wrapper@345@H@Z 0000000180019220 f i format.obj
 0001:00018350       ?grow@?$basic_memory_buffer@D$0BPE@V?$allocator@D@std@@@v7@fmt@@MEAAX_K@Z 0000000180019350 f i format.obj
 0001:00018440       ?grow@?$basic_memory_buffer@I$0CA@V?$allocator@I@std@@@v7@fmt@@MEAAX_K@Z 0000000180019440 f i format.obj
 0001:00018560       ?grow@?$basic_memory_buffer@_W$0BPE@V?$allocator@_W@std@@@v7@fmt@@MEAAX_K@Z 0000000180019560 f i format.obj
 0001:00018670       ?on_error@error_handler@detail@v7@fmt@@QEAAXPEBD@Z 0000000180019670 f   format.obj
 0001:000186e0       ?square@bigint@detail@v7@fmt@@QEAAXXZ 00000001800196e0 f i format.obj
 0001:00018980       ?try_resize@?$buffer@D@detail@v7@fmt@@QEAAX_K@Z 0000000180019980 f i format.obj
 0001:000189c0       ?what@exception@std@@UEBAPEBDXZ 00000001800199c0 f i format.obj
 0001:000189e0       __local_stdio_printf_options 00000001800199e0 f i format.obj
 0001:000189f0       ??$?RH$0A@@?$arg_formatter_base@V?$buffer_appender@_W@detail@v7@fmt@@_WUerror_handler@234@@detail@v7@fmt@@QEAA?AV?$buffer_appender@_W@123@H@Z 00000001800199f0 f i handles.obj
 0001:00018a50       ??$copy_str@_WPEBDV?$buffer_appender@_W@detail@v7@fmt@@$0A@@detail@v7@fmt@@YA?AV?$buffer_appender@_W@012@PEBD0V3012@@Z 0000000180019a50 f i handles.obj
 0001:00018ae0       ??$fill@V?$buffer_appender@_W@detail@v7@fmt@@_W@detail@v7@fmt@@YA?AV?$buffer_appender@_W@012@V3012@_KAEBU?$fill_t@_W@012@@Z 0000000180019ae0 f i handles.obj
 0001:00018ba0       ??$fill_n@V?$buffer_appender@_W@detail@v7@fmt@@_K_W@std@@YA?AV?$buffer_appender@_W@detail@v7@fmt@@V1234@_KAEB_W@Z 0000000180019ba0 f i handles.obj
 0001:00018c30       ??$format_decimal@_WIV?$buffer_appender@_W@detail@v7@fmt@@$0A@@detail@v7@fmt@@YA?AU?$format_decimal_result@V?$buffer_appender@_W@detail@v7@fmt@@@012@V?$buffer_appender@_W@012@IH@Z 0000000180019c30 f i handles.obj
 0001:00018d40       ??$format_decimal@_W_K@detail@v7@fmt@@YA?AU?$format_decimal_result@PEA_W@012@PEA_W_KH@Z 0000000180019d40 f i handles.obj
 0001:00018e00       ??$format_decimal@_W_KV?$buffer_appender@_W@detail@v7@fmt@@$0A@@detail@v7@fmt@@YA?AU?$format_decimal_result@V?$buffer_appender@_W@detail@v7@fmt@@@012@V?$buffer_appender@_W@012@_KH@Z 0000000180019e00 f i handles.obj
 0001:00018f10       ??$format_uint@$03_WV?$buffer_appender@_W@detail@v7@fmt@@_K@detail@v7@fmt@@YA?AV?$buffer_appender@_W@012@V3012@_KH_N@Z 0000000180019f10 f i handles.obj
 0001:00019060       ??$get_dynamic_spec@Vprecision_checker@detail@v7@fmt@@V?$basic_format_arg@V?$basic_format_context@V?$buffer_appender@_W@detail@v7@fmt@@_W@v7@fmt@@@34@Uerror_handler@234@@detail@v7@fmt@@YAHV?$basic_format_arg@V?$basic_format_context@V?$buffer_appender@_W@detail@v7@fmt@@_W@v7@fmt@@@12@Uerror_handler@012@@Z 000000018001a060 f i handles.obj
 0001:00019130       ??$get_dynamic_spec@Vwidth_checker@detail@v7@fmt@@V?$basic_format_arg@V?$basic_format_context@V?$buffer_appender@_W@detail@v7@fmt@@_W@v7@fmt@@@34@Uerror_handler@234@@detail@v7@fmt@@YAHV?$basic_format_arg@V?$basic_format_context@V?$buffer_appender@_W@detail@v7@fmt@@_W@v7@fmt@@@12@Uerror_handler@012@@Z 000000018001a130 f i handles.obj
 0001:00019200       ??$get_id@_W@?$basic_format_args@V?$basic_format_context@V?$buffer_appender@_W@detail@v7@fmt@@_W@v7@fmt@@@v7@fmt@@QEBAHV?$basic_string_view@_W@12@@Z 000000018001a200 f i handles.obj
 0001:00019310       ??$handle_int_type_spec@AEAU?$int_writer@V?$buffer_appender@_W@detail@v7@fmt@@_WI@detail@v7@fmt@@@detail@v7@fmt@@YAXDAEAU?$int_writer@V?$buffer_appender@_W@detail@v7@fmt@@_WI@012@@Z 000000018001a310 f i handles.obj
 0001:000194e0       ??$handle_int_type_spec@AEAU?$int_writer@V?$buffer_appender@_W@detail@v7@fmt@@_W_K@detail@v7@fmt@@@detail@v7@fmt@@YAXDAEAU?$int_writer@V?$buffer_appender@_W@detail@v7@fmt@@_W_K@012@@Z 000000018001a4e0 f i handles.obj
 0001:00019770       ??$make_unique@$$BY0A@_W$0A@@std@@YA?AV?$unique_ptr@$$BY0A@_WU?$default_delete@$$BY0A@_W@std@@@0@_K@Z 000000018001a770 f i handles.obj
 0001:000197f0       ??$parse_arg_id@_WAEAU?$id_adapter@AEAU?$format_handler@V?$buffer_appender@_W@detail@v7@fmt@@_WV?$basic_format_context@V?$buffer_appender@_W@detail@v7@fmt@@_W@34@@detail@v7@fmt@@_W@detail@v7@fmt@@@detail@v7@fmt@@YAPEB_WPEB_W0AEAU?$id_adapter@AEAU?$format_handler@V?$buffer_appender@_W@detail@v7@fmt@@_WV?$basic_format_context@V?$buffer_appender@_W@detail@v7@fmt@@_W@34@@detail@v7@fmt@@_W@012@@Z 000000018001a7f0 f i handles.obj
 0001:000199f0       ??$parse_arg_id@_WU?$precision_adapter@AEAV?$specs_checker@V?$specs_handler@V?$basic_format_parse_context@_WUerror_handler@detail@v7@fmt@@@v7@fmt@@V?$basic_format_context@V?$buffer_appender@_W@detail@v7@fmt@@_W@23@@detail@v7@fmt@@@detail@v7@fmt@@_W@detail@v7@fmt@@@detail@v7@fmt@@YAPEB_WPEB_W0$$QEAU?$precision_adapter@AEAV?$specs_checker@V?$specs_handler@V?$basic_format_parse_context@_WUerror_handler@detail@v7@fmt@@@v7@fmt@@V?$basic_format_context@V?$buffer_appender@_W@detail@v7@fmt@@_W@23@@detail@v7@fmt@@@detail@v7@fmt@@_W@012@@Z 000000018001a9f0 f i handles.obj
 0001:00019df0       ??$parse_arg_id@_WU?$width_adapter@AEAV?$specs_checker@V?$specs_handler@V?$basic_format_parse_context@_WUerror_handler@detail@v7@fmt@@@v7@fmt@@V?$basic_format_context@V?$buffer_appender@_W@detail@v7@fmt@@_W@23@@detail@v7@fmt@@@detail@v7@fmt@@_W@detail@v7@fmt@@@detail@v7@fmt@@YAPEB_WPEB_W0$$QEAU?$width_adapter@AEAV?$specs_checker@V?$specs_handler@V?$basic_format_parse_context@_WUerror_handler@detail@v7@fmt@@@v7@fmt@@V?$basic_format_context@V?$buffer_appender@_W@detail@v7@fmt@@_W@23@@detail@v7@fmt@@@detail@v7@fmt@@_W@012@@Z 000000018001adf0 f i handles.obj
 0001:0001a1f0       ??$parse_float_type_spec@Uerror_handler@detail@v7@fmt@@_W@detail@v7@fmt@@YA?AUfloat_specs@012@AEBU?$basic_format_specs@_W@12@$$QEAUerror_handler@012@@Z 000000018001b1f0 f i handles.obj
 0001:0001a380       ??$parse_format_specs@_WAEAV?$specs_checker@V?$specs_handler@V?$basic_format_parse_context@_WUerror_handler@detail@v7@fmt@@@v7@fmt@@V?$basic_format_context@V?$buffer_appender@_W@detail@v7@fmt@@_W@23@@detail@v7@fmt@@@detail@v7@fmt@@@detail@v7@fmt@@YAPEB_WPEB_W0AEAV?$specs_checker@V?$specs_handler@V?$basic_format_parse_context@_WUerror_handler@detail@v7@fmt@@@v7@fmt@@V?$basic_format_context@V?$buffer_appender@_W@detail@v7@fmt@@_W@23@@detail@v7@fmt@@@012@@Z 000000018001b380 f i handles.obj
 0001:0001a740       ??$parse_format_string@$0A@_WAEAU?$format_handler@V?$buffer_appender@_W@detail@v7@fmt@@_WV?$basic_format_context@V?$buffer_appender@_W@detail@v7@fmt@@_W@34@@detail@v7@fmt@@@detail@v7@fmt@@YAXV?$basic_string_view@_W@12@AEAU?$format_handler@V?$buffer_appender@_W@detail@v7@fmt@@_WV?$basic_format_context@V?$buffer_appender@_W@detail@v7@fmt@@_W@34@@012@@Z 000000018001b740 f i handles.obj
 0001:0001aba0       ??$vformat@_W$0A@@detail@v7@fmt@@YA?AV?$basic_string@_WU?$char_traits@_W@std@@V?$allocator@_W@2@@std@@V?$basic_string_view@_W@12@V?$basic_format_args@V?$basic_format_context@V?$buffer_appender@_W@detail@v7@fmt@@_W@v7@fmt@@@12@@Z 000000018001bba0 f i handles.obj
 0001:0001ad80       ??$visit_format_arg@U?$default_arg_formatter@V?$buffer_appender@_W@detail@v7@fmt@@_W@detail@v7@fmt@@V?$basic_format_context@V?$buffer_appender@_W@detail@v7@fmt@@_W@34@@v7@fmt@@YA?AV?$buffer_appender@_W@detail@01@$$QEAU?$default_arg_formatter@V?$buffer_appender@_W@detail@v7@fmt@@_W@301@AEBV?$basic_format_arg@V?$basic_format_context@V?$buffer_appender@_W@detail@v7@fmt@@_W@v7@fmt@@@01@@Z 000000018001bd80 f i handles.obj
 0001:0001b350       ??$visit_format_arg@V?$arg_formatter@V?$buffer_appender@_W@detail@v7@fmt@@_W@detail@v7@fmt@@V?$basic_format_context@V?$buffer_appender@_W@detail@v7@fmt@@_W@34@@v7@fmt@@YA?AV?$buffer_appender@_W@detail@01@$$QEAV?$arg_formatter@V?$buffer_appender@_W@detail@v7@fmt@@_W@301@AEBV?$basic_format_arg@V?$basic_format_context@V?$buffer_appender@_W@detail@v7@fmt@@_W@v7@fmt@@@01@@Z 000000018001c350 f i handles.obj
 0001:0001bb00       ??$write@D_WV?$buffer_appender@_W@detail@v7@fmt@@@detail@v7@fmt@@YA?AV?$buffer_appender@_W@012@V3012@V?$basic_string_view@D@12@AEBU?$basic_format_specs@_W@12@@Z 000000018001cb00 f i handles.obj
 0001:0001bc80       ??$write@_W@?$arg_formatter_base@V?$buffer_appender@_W@detail@v7@fmt@@_WUerror_handler@234@@detail@v7@fmt@@AEAAXV?$basic_string_view@_W@23@AEBU?$basic_format_specs@_W@23@@Z 000000018001cc80 f i handles.obj
 0001:0001bdb0       ??$write@_W@detail@v7@fmt@@YA?AV?$buffer_appender@_W@012@V3012@V?$basic_string_view@_W@12@@Z 000000018001cdb0 f i handles.obj
 0001:0001be60       ??$write@_WV?$buffer_appender@_W@detail@v7@fmt@@@detail@v7@fmt@@YA?AV?$buffer_appender@_W@012@V3012@_N@Z 000000018001ce60 f i handles.obj
 0001:0001bf30       ??$write@_WV?$buffer_appender@_W@detail@v7@fmt@@@detail@v7@fmt@@YA?AV?$buffer_appender@_W@012@V3012@_W@Z 000000018001cf30 f i handles.obj
 0001:0001bfb0       ??$write@_WV?$buffer_appender@_W@detail@v7@fmt@@H$0A@@detail@v7@fmt@@YA?AV?$buffer_appender@_W@012@V3012@H@Z 000000018001cfb0 f i handles.obj
 0001:0001c170       ??$write@_WV?$buffer_appender@_W@detail@v7@fmt@@I$0A@@detail@v7@fmt@@YA?AV?$buffer_appender@_W@012@V3012@I@Z 000000018001d170 f i handles.obj
 0001:0001c2d0       ??$write@_WV?$buffer_appender@_W@detail@v7@fmt@@M$0A@@detail@v7@fmt@@YA?AV?$buffer_appender@_W@012@V3012@MU?$basic_format_specs@_W@12@Vlocale_ref@012@@Z 000000018001d2d0 f i handles.obj
 0001:0001c680       ??$write@_WV?$buffer_appender@_W@detail@v7@fmt@@N$0A@@detail@v7@fmt@@YA?AV?$buffer_appender@_W@012@V3012@NU?$basic_format_specs@_W@12@Vlocale_ref@012@@Z 000000018001d680 f i handles.obj
 0001:0001ca30       ??$write@_WV?$buffer_appender@_W@detail@v7@fmt@@O$0A@@detail@v7@fmt@@YA?AV?$buffer_appender@_W@012@V3012@OU?$basic_format_specs@_W@12@Vlocale_ref@012@@Z 000000018001da30 f i handles.obj
 0001:0001cde0       ??$write@_WV?$buffer_appender@_W@detail@v7@fmt@@_J$0A@@detail@v7@fmt@@YA?AV?$buffer_appender@_W@012@V3012@_J@Z 000000018001dde0 f i handles.obj
 0001:0001cf20       ??$write@_WV?$buffer_appender@_W@detail@v7@fmt@@_K$0A@@detail@v7@fmt@@YA?AV?$buffer_appender@_W@012@V3012@_K@Z 000000018001df20 f i handles.obj
 0001:0001d000       ??$write_bytes@_WV?$buffer_appender@_W@detail@v7@fmt@@@detail@v7@fmt@@YA?AV?$buffer_appender@_W@012@V3012@V?$basic_string_view@D@12@AEBU?$basic_format_specs@_W@12@@Z 000000018001e000 f i handles.obj
 0001:0001d120       ??$write_exponent@_WV?$buffer_appender@_W@detail@v7@fmt@@@detail@v7@fmt@@YA?AV?$buffer_appender@_W@012@HV3012@@Z 000000018001e120 f i handles.obj
 0001:0001d2b0       ??$write_float@V?$buffer_appender@_W@detail@v7@fmt@@U?$decimal_fp@M@dragonbox@234@_W@detail@v7@fmt@@YA?AV?$buffer_appender@_W@012@V3012@AEBU?$decimal_fp@M@dragonbox@012@AEBU?$basic_format_specs@_W@12@Ufloat_specs@012@_W@Z 000000018001e2b0 f i handles.obj
 0001:0001d730       ??$write_float@V?$buffer_appender@_W@detail@v7@fmt@@U?$decimal_fp@N@dragonbox@234@_W@detail@v7@fmt@@YA?AV?$buffer_appender@_W@012@V3012@AEBU?$decimal_fp@N@dragonbox@012@AEBU?$basic_format_specs@_W@12@Ufloat_specs@012@_W@Z 000000018001e730 f i handles.obj
 0001:0001dbb0       ??$write_float@V?$buffer_appender@_W@detail@v7@fmt@@Ubig_decimal_fp@234@_W@detail@v7@fmt@@YA?AV?$buffer_appender@_W@012@V3012@AEBUbig_decimal_fp@012@AEBU?$basic_format_specs@_W@12@Ufloat_specs@012@_W@Z 000000018001ebb0 f i handles.obj
 0001:0001e000       ??$write_int@H@?$arg_formatter_base@V?$buffer_appender@_W@detail@v7@fmt@@_WUerror_handler@234@@detail@v7@fmt@@AEAAXHAEBU?$basic_format_specs@_W@23@@Z 000000018001f000 f i handles.obj
 0001:0001e090       ??$write_nonfinite@_WV?$buffer_appender@_W@detail@v7@fmt@@@detail@v7@fmt@@YA?AV?$buffer_appender@_W@012@V3012@_NAEBU?$basic_format_specs@_W@12@AEBUfloat_specs@012@@Z 000000018001f090 f i handles.obj
 0001:0001ebc0       ??$write_ptr@_WV?$buffer_appender@_W@detail@v7@fmt@@_K@detail@v7@fmt@@YA?AV?$buffer_appender@_W@012@V3012@_KPEBU?$basic_format_specs@_W@12@@Z 000000018001fbc0 f i handles.obj
 0001:0001edb0       ??$write_significand@V?$buffer_appender@_W@detail@v7@fmt@@I_W$0A@@detail@v7@fmt@@YA?AV?$buffer_appender@_W@012@V3012@IHH_W@Z 000000018001fdb0 f i handles.obj
 0001:0001ef90       ??$write_significand@V?$buffer_appender@_W@detail@v7@fmt@@_K_W$0A@@detail@v7@fmt@@YA?AV?$buffer_appender@_W@012@V3012@_KHH_W@Z 000000018001ff90 f i handles.obj
 0001:0001f110       ??$write_significand@V?$buffer_appender@_W@detail@v7@fmt@@_W@detail@v7@fmt@@YA?AV?$buffer_appender@_W@012@V3012@PEBDHH_W@Z 0000000180020110 f i handles.obj
 0001:0001f1f0       ??0?$basic_string@_WU?$char_traits@_W@std@@V?$allocator@_W@2@@std@@QEAA@AEBV01@@Z 00000001800201f0 f i handles.obj
 0001:0001f290       ??1?$scoped_lock@VPerfThread@@@std@@QEAA@XZ 0000000180020290 f i handles.obj
 0001:0001f2b0       ??1?$unique_ptr@$$BY0A@_WU?$default_delete@$$BY0A@_W@std@@@std@@QEAA@XZ 00000001800202b0 f i handles.obj
 0001:0001f2b0       ??1?$unique_ptr@$$BY0A@DU?$default_delete@$$BY0A@D@std@@@std@@QEAA@XZ 00000001800202b0 f i handles.obj
 0001:0001f2c0       ??1?$unique_ptr@USYSTEM_HANDLE_INFORMATION@@Uvirtual_deleter@@@std@@QEAA@XZ 00000001800202c0 f i handles.obj
 0001:0001f2e0       ??1?$unique_ptr@UPluginPanelItem@@Ufree_deleter@@@std@@QEAA@XZ 00000001800202e0 f i Pclass.obj
 0001:0001f2e0       ??1?$unique_ptr@XUfree_deleter@@@std@@QEAA@XZ 00000001800202e0 f i handles.obj
 0001:0001f2f0       ??1?$unique_ptr@XUhandle_closer@@@std@@QEAA@XZ 00000001800202f0 f i handles.obj
 0001:0001f300       ??1?$unique_ptr@_WUlocal_deleter@@@std@@QEAA@XZ 0000000180020300 f i handles.obj
 0001:0001f310       ??1DebugToken@@QEAA@XZ     0000000180020310 f i handles.obj
 0001:000209b0       ??Rwriter@?1???$parse_format_string@$0A@_WAEAU?$format_handler@V?$buffer_appender@_W@detail@v7@fmt@@_WV?$basic_format_context@V?$buffer_appender@_W@detail@v7@fmt@@_W@34@@detail@v7@fmt@@@detail@v7@fmt@@YAXV?$basic_string_view@_W@23@AEAU?$format_handler@V?$buffer_appender@_W@detail@v7@fmt@@_WV?$basic_format_context@V?$buffer_appender@_W@detail@v7@fmt@@_W@34@@123@@Z@QEAAXPEB_W2@Z 00000001800219b0 f i handles.obj
 0001:00021180       ?PrintHandleInfo@@YA_NKPEAX_NPEAVPerfThread@@@Z 0000000180022180 f   handles.obj
 0001:000217d0       ?append@?$basic_string@_WU?$char_traits@_W@std@@V?$allocator@_W@2@@std@@QEAAAEAV12@QEB_W_K@Z 00000001800227d0 f i handles.obj
 0001:00021950       ?check_sign@?$numeric_specs_checker@V?$specs_handler@V?$basic_format_parse_context@_WUerror_handler@detail@v7@fmt@@@v7@fmt@@V?$basic_format_context@V?$buffer_appender@_W@detail@v7@fmt@@_W@23@@detail@v7@fmt@@@detail@v7@fmt@@QEAAXXZ 0000000180022950 f i handles.obj
 0001:00021af0       ?on_bin@?$int_writer@V?$buffer_appender@_W@detail@v7@fmt@@_WI@detail@v7@fmt@@QEAAXXZ 0000000180022af0 f i handles.obj
 0001:00021c60       ?on_bin@?$int_writer@V?$buffer_appender@_W@detail@v7@fmt@@_W_K@detail@v7@fmt@@QEAAXXZ 0000000180022c60 f i handles.obj
 0001:00021dd0       ?on_char@char_spec_handler@?$arg_formatter_base@V?$buffer_appender@_W@detail@v7@fmt@@_WUerror_handler@234@@detail@v7@fmt@@QEAAXXZ 0000000180022dd0 f i handles.obj
 0001:00021f10       ?on_dec@?$int_writer@V?$buffer_appender@_W@detail@v7@fmt@@_WI@detail@v7@fmt@@QEAAXXZ 0000000180022f10 f i handles.obj
 0001:00022020       ?on_dec@?$int_writer@V?$buffer_appender@_W@detail@v7@fmt@@_W_K@detail@v7@fmt@@QEAAXXZ 0000000180023020 f i handles.obj
 0001:00022130       ?on_fill@?$specs_setter@_W@detail@v7@fmt@@QEAAXV?$basic_string_view@_W@34@@Z 0000000180023130 f i handles.obj
 0001:00022200       ?on_format_specs@?$format_handler@V?$buffer_appender@_W@detail@v7@fmt@@_WV?$basic_format_context@V?$buffer_appender@_W@detail@v7@fmt@@_W@34@@detail@v7@fmt@@QEAAPEB_WHPEB_W0@Z 0000000180023200 f i handles.obj
 0001:000223f0       ?on_hex@?$int_writer@V?$buffer_appender@_W@detail@v7@fmt@@_WI@detail@v7@fmt@@QEAAXXZ 00000001800233f0 f i handles.obj
 0001:00022560       ?on_num@?$int_writer@V?$buffer_appender@_W@detail@v7@fmt@@_WI@detail@v7@fmt@@QEAAXXZ 0000000180023560 f i handles.obj
 0001:000229e0       ?on_num@?$int_writer@V?$buffer_appender@_W@detail@v7@fmt@@_W_K@detail@v7@fmt@@QEAAXXZ 00000001800239e0 f i handles.obj
 0001:00022e70       ?on_oct@?$int_writer@V?$buffer_appender@_W@detail@v7@fmt@@_WI@detail@v7@fmt@@QEAAXXZ 0000000180023e70 f i handles.obj
 0001:00022fe0       ?on_oct@?$int_writer@V?$buffer_appender@_W@detail@v7@fmt@@_W_K@detail@v7@fmt@@QEAAXXZ 0000000180023fe0 f i handles.obj
 0001:00023160       ?on_replacement_field@?$format_handler@V?$buffer_appender@_W@detail@v7@fmt@@_WV?$basic_format_context@V?$buffer_appender@_W@detail@v7@fmt@@_W@34@@detail@v7@fmt@@QEAAXHPEB_W@Z 0000000180024160 f i handles.obj
 0001:00023230       ?on_text@?$format_handler@V?$buffer_appender@_W@detail@v7@fmt@@_WV?$basic_format_context@V?$buffer_appender@_W@detail@v7@fmt@@_W@34@@detail@v7@fmt@@QEAAXPEB_W0@Z 0000000180024230 f i handles.obj
 0001:00023390       ?write@?$arg_formatter_base@V?$buffer_appender@_W@detail@v7@fmt@@_WUerror_handler@234@@detail@v7@fmt@@IEAAXPEB_W@Z 0000000180024390 f i handles.obj
 0001:000234d0       ??1PluginDialogBuilder@@QEAA@XZ 00000001800244d0 f i Pcfg.obj
 0001:00023550       ??1PluginSettings@@QEAA@XZ 0000000180024550 f i Pcfg.obj
 0001:00023570       ??_GPluginCheckBoxBinding@@UEAAPEAXI@Z 0000000180024570 f i Pcfg.obj
 0001:00023570       ??_EPluginEditFieldBinding@@UEAAPEAXI@Z 0000000180024570 f i Pclass.obj
 0001:00023570       ??_GPluginEditFieldBinding@@UEAAPEAXI@Z 0000000180024570 f i Pclass.obj
 0001:00023570       ??_EPluginCheckBoxBinding@@UEAAPEAXI@Z 0000000180024570 f i Pcfg.obj
 0001:000235a0       ?AddButtons@PluginDialogBuilder@@QEAAXHPEBHHH@Z 00000001800245a0 f i Pcfg.obj
 0001:000238d0       ?AddDialogItem@PluginDialogBuilder@@AEAAPEAUFarDialogItem@@W4FARDIALOGITEMTYPES@@PEB_W@Z 00000001800248d0 f i Pcfg.obj
 0001:00023a80       ?Config@@YAHXZ             0000000180024a80 f   Pcfg.obj
 0001:000250e0       ?ItemWidth@PluginDialogBuilder@@CA_JAEBUFarDialogItem@@@Z 00000001800260e0 f i Pcfg.obj
 0001:00025170       ?Read@options@@QEAAXXZ     0000000180026170 f   Pcfg.obj
 0001:00025470       ?SaveValue@PluginCheckBoxBinding@@UEAAXPEBUFarDialogItem@@H@Z 0000000180026470 f i Pcfg.obj
 0001:000254d0       ?ShowDialogEx@PluginDialogBuilder@@QEAA_JXZ 00000001800264d0 f i Pcfg.obj
 0001:00025820       ?Write@options@@QEBAXXZ    0000000180026820 f   Pcfg.obj
 0001:00025aa0       ??$_Assign_range@PEBUmode@@@?$vector@Umode@@V?$allocator@Umode@@@std@@@std@@AEAAXPEBUmode@@0Uforward_iterator_tag@1@@Z 0000000180026aa0 f i Pclass.obj
 0001:00025c60       ??$_Copy_unchecked@PEBUmode@@PEAU1@@std@@YAPEAUmode@@PEBU1@0PEAU1@@Z 0000000180026c60 f i Pclass.obj
 0001:00025cd0       ??$_Emplace_reallocate@AEB_K@?$vector@_KV?$allocator@_K@std@@@std@@QEAAPEA_KQEA_KAEB_K@Z 0000000180026cd0 f i Pclass.obj
 0001:00025cd0       ??$_Emplace_reallocate@_K@?$vector@_KV?$allocator@_K@std@@@std@@QEAAPEA_KQEA_K$$QEA_K@Z 0000000180026cd0 f i Pclass.obj
 0001:00025dd0       ??$_Emplace_reallocate@UFarMenuItem@@@?$vector@UFarMenuItem@@V?$allocator@UFarMenuItem@@@std@@@std@@QEAAPEAUFarMenuItem@@QEAU2@$$QEAU2@@Z 0000000180026dd0 f i Pclass.obj
 0001:00025f20       ??$_Emplace_reallocate@V?$basic_string@_WU?$char_traits@_W@std@@V?$allocator@_W@2@@std@@@?$vector@V?$basic_string@_WU?$char_traits@_W@std@@V?$allocator@_W@2@@std@@V?$allocator@V?$basic_string@_WU?$char_traits@_W@std@@V?$allocator@_W@2@@std@@@2@@std@@QEAAPEAV?$basic_string@_WU?$char_traits@_W@std@@V?$allocator@_W@2@@1@QEAV21@$$QEAV21@@Z 0000000180026f20 f i Pclass.obj
 0001:00026120       ??$_Reallocate_grow_by@V<lambda_51c4cb9729979bd953fe6d1bff5c73b0>@@_K_K_W@?$basic_string@_WU?$char_traits@_W@std@@V?$allocator@_W@2@@std@@AEAAAEAV01@_KV<lambda_51c4cb9729979bd953fe6d1bff5c73b0>@@_K2_W@Z 0000000180027120 f i Pclass.obj
 0001:000262a0       ??$_Reallocate_grow_by@V<lambda_967c2ed818824c5314a20ec3af46b793>@@_KPEB_W_K@?$basic_string@_WU?$char_traits@_W@std@@V?$allocator@_W@2@@std@@AEAAAEAV01@_KV<lambda_967c2ed818824c5314a20ec3af46b793>@@_KPEB_W2@Z 00000001800272a0 f i Pclass.obj
 0001:00026420       ??$_Resize_reallocate@U_Value_init_tag@std@@@?$vector@PEB_WV?$allocator@PEB_W@std@@@std@@AEAAX_KAEBU_Value_init_tag@1@@Z 0000000180027420 f i Pclass.obj
 0001:00026580       ??$_Try_emplace@AEBK$$V@?$_Hash@V?$_Umap_traits@KPEAUHWND__@@V?$_Uhash_compare@KU?$hash@K@std@@U?$equal_to@K@2@@std@@V?$allocator@U?$pair@$$CBKPEAUHWND__@@@std@@@3@$0A@@std@@@std@@IEAA?AU?$pair@PEAU?$_List_node@U?$pair@$$CBKPEAUHWND__@@@std@@PEAX@std@@_N@1@AEBK@Z 0000000180027580 f i Pclass.obj
 0001:00026840       ??$fill@PEAV?$_List_unchecked_iterator@V?$_List_val@U?$_List_simple_types@U?$pair@$$CBKPEAUHWND__@@@std@@@std@@@std@@@std@@V12@@std@@YAXQEAV?$_List_unchecked_iterator@V?$_List_val@U?$_List_simple_types@U?$pair@$$CBKPEAUHWND__@@@std@@@std@@@std@@@0@0AEBV10@@Z 0000000180027840 f i Pclass.obj
 0001:000268d0       ??0Plist@@QEAA@XZ          00000001800278d0 f   Pclass.obj
 0001:00026aa0       ??1?$_List_node_emplace_op2@V?$allocator@U?$_List_node@U?$pair@$$CBKPEAUHWND__@@@std@@PEAX@std@@@std@@@std@@QEAA@XZ 0000000180027aa0 f i Pclass.obj
 0001:00026aa0       ??1?$_Alloc_construct_ptr@V?$allocator@U?$_List_node@U?$pair@$$CBKPEAUHWND__@@@std@@PEAX@std@@@std@@@std@@QEAA@XZ 0000000180027aa0 f i Pclass.obj
 0001:00026ac0       ??1?$_Hash@V?$_Umap_traits@KPEAUHWND__@@V?$_Uhash_compare@KU?$hash@K@std@@U?$equal_to@K@2@@std@@V?$allocator@U?$pair@$$CBKPEAUHWND__@@@std@@@3@$0A@@std@@@std@@QEAA@XZ 0000000180027ac0 f i Pclass.obj
 0001:00026b70       ??1?$_Hash_vec@V?$allocator@V?$_List_unchecked_iterator@V?$_List_val@U?$_List_simple_types@U?$pair@$$CBKPEAUHWND__@@@std@@@std@@@std@@@std@@@std@@@std@@QEAA@XZ 0000000180027b70 f i Pclass.obj
 0001:00026bd0       ??1?$_Uninitialized_backout_al@V?$allocator@Umode@@@std@@@std@@QEAA@XZ 0000000180027bd0 f i Pclass.obj
 0001:00026be0       ??1?$list@U?$pair@$$CBKPEAUHWND__@@@std@@V?$allocator@U?$pair@$$CBKPEAUHWND__@@@std@@@2@@std@@QEAA@XZ 0000000180027be0 f i Pclass.obj
 0001:00026c40       ??1?$pair@KV?$basic_string@_WU?$char_traits@_W@std@@V?$allocator@_W@2@@std@@@std@@QEAA@XZ 0000000180027c40 f i Pclass.obj
 0001:00026c40       ??1?$pair@_JV?$basic_string@_WU?$char_traits@_W@std@@V?$allocator@_W@2@@std@@@std@@QEAA@XZ 0000000180027c40 f i Pclass.obj
 0001:00026c50       ??1?$unique_ptr@VPerfThread@@U?$default_delete@VPerfThread@@@std@@@std@@QEAA@XZ 0000000180027c50 f i Pclass.obj
 0001:00026c80       ??1?$unique_ptr@VWMIConnection@@U?$default_delete@VWMIConnection@@@std@@@std@@QEAA@XZ 0000000180027c80 f i Pclass.obj
 0001:00026cb0       ??1?$unordered_map@KPEAUHWND__@@U?$hash@K@std@@U?$equal_to@K@3@V?$allocator@U?$pair@$$CBKPEAUHWND__@@@std@@@3@@std@@QEAA@XZ 0000000180027cb0 f i Pclass.obj
 0001:00026cc0       ??1?$vector@UFarMenuItem@@V?$allocator@UFarMenuItem@@@std@@@std@@QEAA@XZ 0000000180027cc0 f i Pclass.obj
 0001:00026d40       ??1?$vector@V?$basic_string@_WU?$char_traits@_W@std@@V?$allocator@_W@2@@std@@V?$allocator@V?$basic_string@_WU?$char_traits@_W@std@@V?$allocator@_W@2@@std@@@2@@std@@QEAA@XZ 0000000180027d40 f i Pclass.obj
 0001:00026d50       ??1?$vector@_KV?$allocator@_K@std@@@std@@QEAA@XZ 0000000180027d50 f i Pclass.obj
 0001:00026d50       ??1?$vector@PEAUHINSTANCE__@@V?$allocator@PEAUHINSTANCE__@@@std@@@std@@QEAA@XZ 0000000180027d50 f i Plist.obj
 0001:00026db0       ??1Plist@@QEAA@XZ          0000000180027db0 f   Pclass.obj
 0001:00026e60       ??1ProcessData@@QEAA@XZ    0000000180027e60 f i Pclass.obj
 0001:00026e80       ??1StrTok@@QEAA@XZ         0000000180027e80 f i Pclass.obj
 0001:00026e90       ??4?$unique_ptr@VPerfThread@@U?$default_delete@VPerfThread@@@std@@@std@@QEAAAEAV01@$$QEAV01@@Z 0000000180027e90 f i Pclass.obj
 0001:00026ef0       ??4columns@@QEAAAEAU0@AEBU0@@Z 0000000180027ef0 f i Pclass.obj
 0001:00026f70       ?AddEditField@PluginDialogBuilder@@QEAAPEAUFarDialogItem@@PEA_WHHPEB_W_N@Z 0000000180027f70 f i Pclass.obj
 0001:00027080       ?Compare@Plist@@QEBAHPEBUPluginPanelItem@@0I@Z 0000000180028080 f   Pclass.obj
 0001:00027200       ?Connect@Plist@@QEAA_NPEB_W00@Z 0000000180028200 f   Pclass.obj
 0001:000274d0       ?ConnectWMI@Plist@@AEAA_NXZ 00000001800284d0 f   Pclass.obj
 0001:000275d0       ?DeleteFiles@Plist@@QEAAHPEAUPluginPanelItem@@_K1@Z 00000001800285d0 f   Pclass.obj
 0001:00027b20       ?DumpNTCounters@@YAXPEAXAEAVPerfThread@@KK@Z 0000000180028b20 f   Pclass.obj
 0001:00028000       ?DurationToText@@YA?AV?$basic_string@_WU?$char_traits@_W@std@@V?$allocator@_W@2@@std@@_K@Z 0000000180029000 f   Pclass.obj
 0001:00028180       ?EnumWndProc@@YAHPEAUHWND__@@_J@Z 0000000180029180 f   Pclass.obj
 0001:000282a0       ?FreeFindData@Plist@@SAXPEAUPluginPanelItem@@_K@Z 00000001800292a0 f   Pclass.obj
 0001:000283a0       ?GetFiles@Plist@@QEAAHPEAUPluginPanelItem@@_KHPEAPEB_W1AEAUoptions@@@Z 00000001800293a0 f   Pclass.obj
 0001:0002a530       ?GetFindData@Plist@@QEAAHAEAPEAUPluginPanelItem@@AEA_K_K@Z 000000018002b530 f   Pclass.obj
 0001:0002b300       ?GetOpenPanelInfo@Plist@@QEAAXPEAUOpenPanelInfo@@@Z 000000018002c300 f   Pclass.obj
 0001:0002b600       ?GetVersionInfo@Plist@@SA_NPEB_WAEAV?$unique_ptr@$$BY0A@DU?$default_delete@$$BY0A@D@std@@@std@@AEAPEB_W2@Z 000000018002c600 f   Pclass.obj
 0001:0002bac0       ?InitializePanelModes@Plist@@SAXXZ 000000018002cac0 f   Pclass.obj
 0001:0002d020       ?PanelModes@Plist@@QEAAPEAUPanelMode@@AEA_K@Z 000000018002e020 f   Pclass.obj
 0001:0002d260       ?PrintOwnerInfo@Plist@@AEAAXPEAXK@Z 000000018002e260 f   Pclass.obj
 0001:0002d9b0       ?PrintVersionInfo@Plist@@CAXPEAXPEB_W@Z 000000018002e9b0 f   Pclass.obj
 0001:0002dd00       ?ProcessEvent@Plist@@QEAAH_JPEAX@Z 000000018002ed00 f   Pclass.obj
 0001:0002dea0       ?ProcessKey@Plist@@QEAAHPEBU_INPUT_RECORD@@@Z 000000018002eea0 f   Pclass.obj
 0001:00030fe0       ?Reread@Plist@@AEAAXXZ     0000000180031fe0 f   Pclass.obj
 0001:00031090       ?SavePanelModes@Plist@@SAXXZ 0000000180032090 f   Pclass.obj
 0001:000313f0       ?SaveValue@PluginEditFieldBinding@@UEAAXPEBUFarDialogItem@@H@Z 00000001800323f0 f i Pclass.obj
 0001:00031c30       ?WmiError@Plist@@AEBAXXZ   0000000180032c30 f   Pclass.obj
 0001:00031c80       ?_Assign_grow@?$_Hash_vec@V?$allocator@V?$_List_unchecked_iterator@V?$_List_val@U?$_List_simple_types@U?$pair@$$CBKPEAUHWND__@@@std@@@std@@@std@@@std@@@std@@@std@@QEAAX_KV?$_List_unchecked_iterator@V?$_List_val@U?$_List_simple_types@U?$pair@$$CBKPEAUHWND__@@@std@@@std@@@std@@@2@@Z 0000000180032c80 f i Pclass.obj
 0001:00031db0       ?_Change_array@?$vector@UFarMenuItem@@V?$allocator@UFarMenuItem@@@std@@@std@@AEAAXQEAUFarMenuItem@@_K1@Z 0000000180032db0 f i Pclass.obj
 0001:00031e70       ?_Change_array@?$vector@V?$basic_string@_WU?$char_traits@_W@std@@V?$allocator@_W@2@@std@@V?$allocator@V?$basic_string@_WU?$char_traits@_W@std@@V?$allocator@_W@2@@std@@@2@@std@@AEAAXQEAV?$basic_string@_WU?$char_traits@_W@std@@V?$allocator@_W@2@@2@_K1@Z 0000000180032e70 f i Pclass.obj
 0001:00031f30       ?_Change_array@?$vector@_KV?$allocator@_K@std@@@std@@AEAAXQEA_K_K1@Z 0000000180032f30 f i Pclass.obj
 0001:00031fc0       ?_Clear_and_reserve_geometric@?$vector@Umode@@V?$allocator@Umode@@@std@@@std@@AEAAX_K@Z 0000000180032fc0 f i Pclass.obj
 0001:00032140       ?_Destroy@?$vector@V?$basic_string@_WU?$char_traits@_W@std@@V?$allocator@_W@2@@std@@V?$allocator@V?$basic_string@_WU?$char_traits@_W@std@@V?$allocator@_W@2@@std@@@2@@std@@AEAAXPEAV?$basic_string@_WU?$char_traits@_W@std@@V?$allocator@_W@2@@2@0@Z 0000000180033140 f i Pclass.obj
 0001:00032180       ?_Forced_rehash@?$_Hash@V?$_Umap_traits@KPEAUHWND__@@V?$_Uhash_compare@KU?$hash@K@std@@U?$equal_to@K@2@@std@@V?$allocator@U?$pair@$$CBKPEAUHWND__@@@std@@@3@$0A@@std@@@std@@IEAAX_K@Z 0000000180033180 f i Pclass.obj
 0001:00032340       ?_Getal@?$vector@_KV?$allocator@_K@std@@@std@@AEAAAEAV?$allocator@_K@2@XZ 0000000180033340 f i Pclass.obj
 0001:00032340       ?_Getal@?$vector@V?$basic_string@_WU?$char_traits@_W@std@@V?$allocator@_W@2@@std@@V?$allocator@V?$basic_string@_WU?$char_traits@_W@std@@V?$allocator@_W@2@@std@@@2@@std@@AEAAAEAV?$allocator@V?$basic_string@_WU?$char_traits@_W@std@@V?$allocator@_W@2@@std@@@2@XZ 0000000180033340 f i Pclass.obj
 0001:00032340       ?_Getal@?$vector@EV?$allocator@E@std@@@std@@AEAAAEAV?$allocator@E@2@XZ 0000000180033340 f i perfthread.obj
 0001:00032340       ?_Getal@?$vector@UFarMenuItem@@V?$allocator@UFarMenuItem@@@std@@@std@@AEAAAEAV?$allocator@UFarMenuItem@@@2@XZ 0000000180033340 f i Pclass.obj
 0001:00032340       ?_Getal@?$vector@PEAUHINSTANCE__@@V?$allocator@PEAUHINSTANCE__@@@std@@@std@@AEAAAEAV?$allocator@PEAUHINSTANCE__@@@2@XZ 0000000180033340 f i Plist.obj
 0001:00032340       ?_Getal@?$vector@PEB_WV?$allocator@PEB_W@std@@@std@@AEAAAEAV?$allocator@PEB_W@2@XZ 0000000180033340 f i Pclass.obj
 0001:00032350       ?_Reallocate_exactly@?$vector@UFarMenuItem@@V?$allocator@UFarMenuItem@@@std@@@std@@AEAAX_K@Z 0000000180033350 f i Pclass.obj
 0001:000323e0       ?_Reallocate_exactly@?$vector@V?$basic_string@_WU?$char_traits@_W@std@@V?$allocator@_W@2@@std@@V?$allocator@V?$basic_string@_WU?$char_traits@_W@std@@V?$allocator@_W@2@@std@@@2@@std@@AEAAX_K@Z 00000001800333e0 f i Pclass.obj
 0001:00032470       ?_Reallocate_exactly@?$vector@_KV?$allocator@_K@std@@@std@@AEAAX_K@Z 0000000180033470 f i Pclass.obj
 0001:000324e0       ?_Tidy@?$vector@V?$basic_string@_WU?$char_traits@_W@std@@V?$allocator@_W@2@@std@@V?$allocator@V?$basic_string@_WU?$char_traits@_W@std@@V?$allocator@_W@2@@std@@@2@@std@@AEAAXXZ 00000001800334e0 f i Pclass.obj
 0001:00032570       ?_Xlength@?$vector@PEAUHINSTANCE__@@V?$allocator@PEAUHINSTANCE__@@@std@@@std@@CAXXZ 0000000180033570 f i Plist.obj
 0001:00032570       ?_Xlength@?$vector@Umode@@V?$allocator@Umode@@@std@@@std@@CAXXZ 0000000180033570 f i Pclass.obj
 0001:00032570       ?_Xlength@?$vector@EV?$allocator@E@std@@@std@@CAXXZ 0000000180033570 f i perfthread.obj
 0001:00032570       ?_Xlength@?$vector@PEB_WV?$allocator@PEB_W@std@@@std@@CAXXZ 0000000180033570 f i Pclass.obj
 0001:00032570       ?_Xlength@?$vector@UProcessPerfData@@V?$allocator@UProcessPerfData@@@std@@@std@@CAXXZ 0000000180033570 f i perfthread.obj
 0001:00032570       ?_Xlength@?$vector@V?$basic_string@_WU?$char_traits@_W@std@@V?$allocator@_W@2@@std@@V?$allocator@V?$basic_string@_WU?$char_traits@_W@std@@V?$allocator@_W@2@@std@@@2@@std@@CAXXZ 0000000180033570 f i Pclass.obj
 0001:00032570       ?_Xlength@?$vector@UFarMenuItem@@V?$allocator@UFarMenuItem@@@std@@@std@@CAXXZ 0000000180033570 f i Pclass.obj
 0001:00032570       ?_Xlength@?$vector@_KV?$allocator@_K@std@@@std@@CAXXZ 0000000180033570 f i Pclass.obj
 0001:00032590       ?_Xran@?$_String_val@U?$_Simple_types@_W@std@@@std@@SAXXZ 0000000180033590 f i Pclass.obj
 0001:000325b0       ?allocate@?$allocator@UFarMenuItem@@@std@@QEAAPEAUFarMenuItem@@_K@Z 00000001800335b0 f i Pclass.obj
 0001:00032620       ?allocate@?$allocator@V?$basic_string@_WU?$char_traits@_W@std@@V?$allocator@_W@2@@std@@@std@@QEAAPEAV?$basic_string@_WU?$char_traits@_W@std@@V?$allocator@_W@2@@2@_K@Z 0000000180033620 f i Pclass.obj
 0001:00032690       ?allocate@?$allocator@_K@std@@QEAAPEA_K_K@Z 0000000180033690 f i Pclass.obj
 0001:00032690       ?allocate@?$allocator@PEAUHINSTANCE__@@@std@@QEAAPEAPEAUHINSTANCE__@@_K@Z 0000000180033690 f i Plist.obj
 0001:00032700       ?append@?$basic_string@_WU?$char_traits@_W@std@@V?$allocator@_W@2@@std@@QEAAAEAV12@_K_W@Z 0000000180033700 f i Pclass.obj
 0001:00032880       ?deallocate@?$allocator@PEB_W@std@@QEAAXQEAPEB_W_K@Z 0000000180033880 f i Pclass.obj
 0001:00032880       ?deallocate@?$allocator@_K@std@@QEAAXQEA_K_K@Z 0000000180033880 f i Pclass.obj
 0001:00032880       ?deallocate@?$allocator@PEAUHINSTANCE__@@@std@@QEAAXQEAPEAUHINSTANCE__@@_K@Z 0000000180033880 f i Plist.obj
 0001:000328d0       ?deallocate@?$allocator@UFarMenuItem@@@std@@QEAAXQEAUFarMenuItem@@_K@Z 00000001800338d0 f i Pclass.obj
 0001:00032920       ?deallocate@?$allocator@V?$basic_string@_WU?$char_traits@_W@std@@V?$allocator@_W@2@@std@@@std@@QEAAXQEAV?$basic_string@_WU?$char_traits@_W@std@@V?$allocator@_W@2@@2@_K@Z 0000000180033920 f i Pclass.obj
 0001:00032bf0       ?insert@?$basic_string@_WU?$char_traits@_W@std@@V?$allocator@_W@2@@std@@QEAAAEAV12@_KQEB_W0@Z 0000000180033bf0 f i Pclass.obj
 0001:00033a70       ??$_Construct_n_copies_of_ty@U_Value_init_tag@std@@@?$vector@UProcessPerfData@@V?$allocator@UProcessPerfData@@@std@@@std@@AEAAX_KAEBU_Value_init_tag@1@@Z 0000000180034a70 f i perfthread.obj
 0001:00033c00       ??$_Resize_reallocate@U_Value_init_tag@std@@@?$vector@EV?$allocator@E@std@@@std@@AEAAX_KAEBU_Value_init_tag@1@@Z 0000000180034c00 f i perfthread.obj
 0001:00033d30       ??0PerfThread@@QEAA@PEB_W00@Z 0000000180034d30 f   perfthread.obj
 0001:00034520       ??1?$_Tidy_guard@V?$vector@UProcessPerfData@@V?$allocator@UProcessPerfData@@@std@@@std@@@std@@QEAA@XZ 0000000180035520 f i perfthread.obj
 0001:00034530       ??1?$_Uninitialized_backout_al@V?$allocator@UProcessPerfData@@@std@@@std@@QEAA@XZ 0000000180035530 f i perfthread.obj
 0001:000345a0       ??1?$vector@EV?$allocator@E@std@@@std@@QEAA@XZ 00000001800355a0 f i perfthread.obj
 0001:00034600       ??1?$vector@UProcessPerfData@@V?$allocator@UProcessPerfData@@@std@@@std@@QEAA@XZ 0000000180035600 f i perfthread.obj
 0001:00034610       ??1?$vector@_WV?$allocator@_W@std@@@std@@QEAA@XZ 0000000180035610 f i perfthread.obj
 0001:00034670       ??1PerfLib@@QEAA@XZ        0000000180035670 f i perfthread.obj
 0001:00034680       ??1PerfThread@@QEAA@XZ     0000000180035680 f   perfthread.obj
 0001:00034760       ??4ProcessPerfData@@QEAAAEAU0@AEBU0@@Z 0000000180035760 f i perfthread.obj
 0001:00034ab0       ?GetProcessData@PerfThread@@QEAAPEAUProcessPerfData@@KK@Z 0000000180035ab0 f   perfthread.obj
 0001:00034bd0       ?Refresh@PerfThread@@AEAAXXZ 0000000180035bd0 f   perfthread.obj
 0001:00035f30       ?RefreshWMIData@PerfThread@@AEAAXXZ 0000000180036f30 f   perfthread.obj
 0001:00036370       ?SyncReread@PerfThread@@QEAAXXZ 0000000180037370 f   perfthread.obj
 0001:000363b0       ?ThreadProc@PerfThread@@CAKPEAX@Z 00000001800373b0 f   perfthread.obj
 0001:000364b0       ?_Tidy@?$vector@UProcessPerfData@@V?$allocator@UProcessPerfData@@@std@@@std@@AEAAXXZ 00000001800374b0 f i perfthread.obj
 0001:000365a0       ?deallocate@?$allocator@E@std@@QEAAXQEAE_K@Z 00000001800375a0 f i perfthread.obj
 0001:000365e0       ?lock@PerfThread@@QEAAXXZ  00000001800375e0 f   perfthread.obj
 0001:00036600       ?unlock@PerfThread@@QEAAXXZ 0000000180037600 f   perfthread.obj
 0001:00036610       ??$_Resize_reallocate@U_Value_init_tag@std@@@?$vector@PEAUHINSTANCE__@@V?$allocator@PEAUHINSTANCE__@@@std@@@std@@AEAAX_KAEBU_Value_init_tag@1@@Z 0000000180037610 f i Plist.obj
 0001:00036880       ??0?$basic_string@_WU?$char_traits@_W@std@@V?$allocator@_W@2@@std@@QEAA@_K_W@Z 0000000180037880 f i Plist.obj
 0001:00036960       ??0?$vector@UProcessPerfData@@V?$allocator@UProcessPerfData@@@std@@@std@@QEAA@AEBV01@@Z 0000000180037960 f i Plist.obj
 0001:00036c40       ??1?$function@$$A6AXAEBUtagVARIANT@@@Z@std@@QEAA@XZ 0000000180037c40 f i WMI.obj
 0001:00036c40       ??1?$function@$$A6A_NPEA_W_K@Z@std@@QEAA@XZ 0000000180037c40 f i Plist.obj
 0001:00036d10       ?CreateToken@DebugToken@@SA_NXZ 0000000180037d10 f   Plist.obj
 0001:00036e10       ?Enable@DebugToken@@QEAA_NXZ 0000000180037e10 f   Plist.obj
 0001:00036ef0       ?GetList@@YA_NAEAPEAUPluginPanelItem@@AEA_KAEAVPerfThread@@@Z 0000000180037ef0 f   Plist.obj
 0001:000372b0       ?GetOpenProcessData@?$ipc_functions@$0A@@@SAXPEAXPEAV?$basic_string@_WU?$char_traits@_W@std@@V?$allocator@_W@2@@std@@1111@Z 00000001800382b0 f i Plist.obj
 0001:00037780       ?GetOpenProcessData@@YAXPEAXPEAV?$basic_string@_WU?$char_traits@_W@std@@V?$allocator@_W@2@@std@@1111@Z 0000000180038780 f   Plist.obj
 0001:00037790       ?GetPData@@YA_NAEAUProcessData@@AEBUProcessPerfData@@@Z 0000000180038790 f   Plist.obj
 0001:00037990       ?KillProcess@@YA_NKPEAUHWND__@@@Z 0000000180038990 f   Plist.obj
 0001:00037b40       ?OpenProcessForced@@YAPEAXPEAVDebugToken@@KKH@Z 0000000180038b40 f   Plist.obj
 0001:00037bb0       ?PrintModules@@YAXPEAXKAEAUoptions@@@Z 0000000180038bb0 f   Plist.obj
 0001:00038190       ?PrintNTCurDirAndEnv@@YAXPEAX0H@Z 0000000180039190 f   Plist.obj
 0001:00038590       ?Revert@DebugToken@@QEAA_NXZ 0000000180039590 f   Plist.obj
 0001:00038600       ?_Move@?$_Func_impl_no_alloc@V<lambda_c6a5923e4ab0669d9f7c2a6c892502eb>@@_NPEA_W_K@std@@EEAAPEAV?$_Func_base@_NPEA_W_K@2@PEAX@Z 0000000180039600 f i Plist.obj
 0001:00038600       ?_Copy@?$_Func_impl_no_alloc@V<lambda_c6a5923e4ab0669d9f7c2a6c892502eb>@@_NPEA_W_K@std@@EEBAPEAV?$_Func_base@_NPEA_W_K@2@PEAX@Z 0000000180039600 f i Plist.obj
 0001:00038620       ?_Delete_this@?$_Func_impl_no_alloc@V<lambda_c6a5923e4ab0669d9f7c2a6c892502eb>@@_NPEA_W_K@std@@EEAAX_N@Z 0000000180039620 f   Plist.obj
 0001:00038660       ?_Do_call@?$_Func_impl_no_alloc@V<lambda_c6a5923e4ab0669d9f7c2a6c892502eb>@@_NPEA_W_K@std@@EEAA_N$$QEAPEA_W$$QEA_K@Z 0000000180039660 f i Plist.obj
 0001:000386a0       ?_Get@?$_Func_impl_no_alloc@V<lambda_c6a5923e4ab0669d9f7c2a6c892502eb>@@_NPEA_W_K@std@@EEBAPEBXXZ 00000001800396a0 f   Plist.obj
 0001:000386c0       ?_Target_type@?$_Func_impl_no_alloc@V<lambda_c6a5923e4ab0669d9f7c2a6c892502eb>@@_NPEA_W_K@std@@EEBAAEBVtype_info@@XZ 00000001800396c0 f i Plist.obj
 0001:00038a30       ?read_string@?$ipc_functions@$0A@@@SA?AV?$basic_string@_WU?$char_traits@_W@std@@V?$allocator@_W@2@@std@@PEAXAEBUUNICODE_STRING_SAME@detail@@@Z 0000000180039a30 f i Plist.obj
 0001:00038b20       ?ConvertDate@@YAXAEBU_FILETIME@@PEA_W1@Z 0000000180039b20 f   Pmix.obj
 0001:00038bd0       ?GetMsg@@YAPEB_WH@Z        0000000180039bd0 f   Pmix.obj
 0001:00038bf0       ?WinError@@YAHPEB_W@Z      0000000180039bf0 f   Pmix.obj
 0001:00038ff0       ??0WMIConnection@@QEAA@XZ  0000000180039ff0 f   WMI.obj
 0001:00039020       ??1?$ptr_setter@V?$unique_ptr@UIWbemClassObject@@Ucom_closer@@@std@@@@QEAA@XZ 000000018003a020 f i WMI.obj
 0001:00039050       ??1?$unique_ptr@UIWbemLocator@@Ucom_closer@@@std@@QEAA@XZ 000000018003a050 f i WMI.obj
 0001:00039050       ??1?$unique_ptr@UIWbemClassObject@@Ucom_closer@@@std@@QEAA@XZ 000000018003a050 f i WMI.obj
 0001:00039070       ??1WMIConnection@@QEAA@XZ  000000018003a070 f   WMI.obj
 0001:000390b0       ??1bstr@@QEAA@XZ           000000018003a0b0 f i WMI.obj
 0001:000390c0       ?Connect@WMIConnection@@QEAA_NPEB_W00@Z 000000018003a0c0 f   WMI.obj
 0001:00039340       ?Disconnect@WMIConnection@@QEAAXXZ 000000018003a340 f   WMI.obj
 0001:00039370       ?ExecMethod@WMIConnection@@AEAAHKPEB_W0K@Z 000000018003a370 f   WMI.obj
 0001:00039690       ?GetProcessCommandLine@WMIConnection@@QEAA?AV?$basic_string@_WU?$char_traits@_W@std@@V?$allocator@_W@2@@std@@K@Z 000000018003a690 f   WMI.obj
 0001:00039720       ?GetProcessExecutablePath@WMIConnection@@QEAA?AV?$basic_string@_WU?$char_traits@_W@std@@V?$allocator@_W@2@@std@@K@Z 000000018003a720 f   WMI.obj
 0001:000397b0       ?GetProcessOwner@WMIConnection@@QEAA?AV?$basic_string@_WU?$char_traits@_W@std@@V?$allocator@_W@2@@std@@KPEAV23@@Z 000000018003a7b0 f   WMI.obj
 0001:000399c0       ?GetProcessPriority@WMIConnection@@QEAAKK@Z 000000018003a9c0 f   WMI.obj
 0001:00039a30       ?GetProcessProperty@WMIConnection@@AEAA_NKPEB_WAEBV?$function@$$A6AXAEBUtagVARIANT@@@Z@std@@@Z 000000018003aa30 f   WMI.obj
 0001:00039b60       ?GetProcessSessionId@WMIConnection@@QEAAKK@Z 000000018003ab60 f   WMI.obj
 0001:00039bd0       ?GetProcessUserSid@WMIConnection@@QEAA?AV?$basic_string@_WU?$char_traits@_W@std@@V?$allocator@_W@2@@std@@K@Z 000000018003abd0 f   WMI.obj
 0001:00039e40       ?SetProcessPriority@WMIConnection@@QEAAHKK@Z 000000018003ae40 f   WMI.obj
 0001:00039e70       ?TerminateProcess@WMIConnection@@QEAAHK@Z 000000018003ae70 f   WMI.obj
 0001:00039f80       ?Message@@YAHIPEB_WPEAPEB_W_K2@Z 000000018003af80 f   Proclist.obj
 0001:0003a290       ?is_wow64_process@@YA_NPEAX@Z 000000018003b290 f   Proclist.obj
 0001:0003a2c0       ClosePanelW                000000018003b2c0 f   Proclist.obj
 0001:0003a2f0       CompareW                   000000018003b2f0 f   Proclist.obj
 0001:0003a310       ConfigureW                 000000018003b310 f   Proclist.obj
 0001:0003a320       DeleteFilesW               000000018003b320 f   Proclist.obj
 0001:0003a340       _guard_check_icall_nop     000000018003b340 f   LIBCMT:guard_support.obj
 0001:0003a340       ExitFARW                   000000018003b340 f   Proclist.obj
 0001:0003a350       FreeFindDataW              000000018003b350 f   Proclist.obj
 0001:0003a360       GetFilesW                  000000018003b360 f   Proclist.obj
 0001:0003a3a0       GetFindDataW               000000018003b3a0 f   Proclist.obj
 0001:0003a3c0       GetGlobalInfoW             000000018003b3c0 f   Proclist.obj
 0001:0003a440       GetOpenPanelInfoW          000000018003b440 f   Proclist.obj
 0001:0003a450       GetPluginInfoW             000000018003b450 f   Proclist.obj
 0001:0003a520       OpenW                      000000018003b520 f   Proclist.obj
 0001:0003a5c0       ProcessPanelEventW         000000018003b5c0 f   Proclist.obj
 0001:0003a5e0       ProcessPanelInputW         000000018003b5e0 f   Proclist.obj
 0001:0003a600       SetStartupInfoW            000000018003b600 f   Proclist.obj
 0001:0003a716       ConvertSidToStringSidW     000000018003b716 f   advapi32:ADVAPI32.dll
 0001:0003a71c       WNetAddConnection2W        000000018003b71c f   mpr:MPR.dll
 0001:0003a722       WNetCancelConnection2W     000000018003b722 f   mpr:MPR.dll
 0001:0003a728       GetFileVersionInfoSizeW    000000018003b728 f   version:VERSION.dll
 0001:0003a72e       GetFileVersionInfoW        000000018003b72e f   version:VERSION.dll
 0001:0003a734       VerQueryValueW             000000018003b734 f   version:VERSION.dll
 0001:0003a73a       GetModuleFileNameExW       000000018003b73a f   psapi:PSAPI.DLL
 0001:0003a740       GetModuleInformation       000000018003b740 f   psapi:PSAPI.DLL
 0001:0003a748       ??0_Init_locks@std@@QEAA@XZ 000000018003b748 f   libcpmt:xlock.obj
 0001:0003a78c       ??0_Lockit@std@@QEAA@H@Z   000000018003b78c f   libcpmt:xlock.obj
 0001:0003a7c8       ??1_Init_locks@std@@QEAA@XZ 000000018003b7c8 f   libcpmt:xlock.obj
 0001:0003a804       ??1_Lockit@std@@QEAA@XZ    000000018003b804 f   libcpmt:xlock.obj
 0001:0003a838       ??0bad_alloc@std@@QEAA@XZ  000000018003b838 f i libcpmt:xthrow.obj
 0001:0003a858       ??0bad_function_call@std@@QEAA@AEBV01@@Z 000000018003b858 f i libcpmt:xthrow.obj
 0001:0003a894       ??0bad_function_call@std@@QEAA@XZ 000000018003b894 f i libcpmt:xthrow.obj
 0001:0003a8ac       ??0length_error@std@@QEAA@AEBV01@@Z 000000018003b8ac f i libcpmt:xthrow.obj
 0001:0003a8e8       ??0length_error@std@@QEAA@PEBD@Z 000000018003b8e8 f i libcpmt:xthrow.obj
 0001:0003a930       ??0logic_error@std@@QEAA@AEBV01@@Z 000000018003b930 f i libcpmt:xthrow.obj
 0001:0003a96c       ??0out_of_range@std@@QEAA@AEBV01@@Z 000000018003b96c f i libcpmt:xthrow.obj
 0001:0003a9a8       ??0out_of_range@std@@QEAA@PEBD@Z 000000018003b9a8 f i libcpmt:xthrow.obj
 0001:0003a9f0       ?_Xbad_alloc@std@@YAXXZ    000000018003b9f0 f   libcpmt:xthrow.obj
 0001:0003a9f0       ?__scrt_throw_std_bad_alloc@@YAXXZ 000000018003b9f0 f   LIBCMT:throw_bad_alloc.obj
 0001:0003aa10       ?_Xbad_function_call@std@@YAXXZ 000000018003ba10 f   libcpmt:xthrow.obj
 0001:0003aa30       ?_Xlength_error@std@@YAXPEBD@Z 000000018003ba30 f   libcpmt:xthrow.obj
 0001:0003aa54       ?_Xout_of_range@std@@YAXPEBD@Z 000000018003ba54 f   libcpmt:xthrow.obj
 0001:0003aa78       ?_Xruntime_error@std@@YAXPEBD@Z 000000018003ba78 f   libcpmt:xthrow.obj
 0001:0003aa9c       ?what@bad_function_call@std@@UEBAPEBDXZ 000000018003ba9c f i libcpmt:xthrow.obj
 0001:0003aaa4       ??4?$_Yarn@D@std@@QEAAAEAV01@PEBD@Z 000000018003baa4 f i libcpmt:locale0.obj
 0001:0003ab1c       ??_G_Locimp@locale@std@@MEAAPEAXI@Z 000000018003bb1c f i libcpmt:locale0.obj
 0001:0003ab1c       ??_E_Locimp@locale@std@@MEAAPEAXI@Z 000000018003bb1c f i libcpmt:locale0.obj
 0001:0003ab78       ?_Facet_Register@std@@YAXPEAV_Facet_base@1@@Z 000000018003bb78 f   libcpmt:locale0.obj
 0001:0003abb0       ?_Getgloballocale@locale@std@@CAPEAV_Locimp@12@XZ 000000018003bbb0 f   libcpmt:locale0.obj
 0001:0003abb8       ?_Init@locale@std@@CAPEAV_Locimp@12@_N@Z 000000018003bbb8 f   libcpmt:locale0.obj
 0001:0003ac64       ?_Locimp_dtor@_Locimp@locale@std@@CAXPEAV123@@Z 000000018003bc64 f   libcpmt:locale0.obj
 0001:0003ace0       ?_Locinfo_ctor@_Locinfo@std@@SAXPEAV12@PEBD@Z 000000018003bce0 f   libcpmt:locale0.obj
 0001:0003ad4c       ?_Locinfo_dtor@_Locinfo@std@@SAXPEAV12@@Z 000000018003bd4c f   libcpmt:locale0.obj
 0001:0003ad68       ?_New_Locimp@_Locimp@locale@std@@CAPEAV123@_N@Z 000000018003bd68 f   libcpmt:locale0.obj
 0001:0003add8       ?_Setgloballocale@locale@std@@CAXPEAX@Z 000000018003bdd8 f   libcpmt:locale0.obj
 0001:0003ae0c       _Deletegloballocale        000000018003be0c f   libcpmt:locale0.obj
 0001:0003ae7c       _Getcvt                    000000018003be7c f   libcpmt:xwctomb.obj
 0001:0003af14       _Mbrtowc                   000000018003bf14 f   libcpmt:xmbtowc.obj
 0001:0003b0b0       _Mtxdst                    000000018003c0b0 f   libcpmt:xmtx.obj
 0001:0003b0b8       _Mtxinit                   000000018003c0b8 f   libcpmt:xmtx.obj
 0001:0003b0c8       _Mtxlock                   000000018003c0c8 f   libcpmt:xmtx.obj
 0001:0003b0d0       _Mtxunlock                 000000018003c0d0 f   libcpmt:xmtx.obj
 0001:0003b0d8       ?_Atexit@@YAXP6AXXZ@Z      000000018003c0d8 f   libcpmt:iosptrs.obj
 0001:0003b4cc       __crtInitializeCriticalSectionEx 000000018003c4cc f   libcpmt:winapisupp.obj
 0001:0003b4f8       ??_V@YAXPEAX@Z             000000018003c4f8 f   LIBCMT:delete_array.obj
 0001:0003b4f8       ??3@YAXPEAX_K@Z            000000018003c4f8 f   LIBCMT:delete_scalar_size.obj
 0001:0003b500       __scrt_acquire_startup_lock 000000018003c500 f   LIBCMT:utility.obj
 0001:0003b53c       __scrt_dllmain_after_initialize_c 000000018003c53c f   LIBCMT:utility.obj
 0001:0003b570       __scrt_dllmain_before_initialize_c 000000018003c570 f   LIBCMT:utility.obj
 0001:0003b588       __scrt_dllmain_crt_thread_attach 000000018003c588 f   LIBCMT:utility.obj
 0001:0003b5b0       __scrt_dllmain_crt_thread_detach 000000018003c5b0 f   LIBCMT:utility.obj
 0001:0003b5c8       __scrt_dllmain_exception_filter 000000018003c5c8 f   LIBCMT:utility.obj
 0001:0003b628       __scrt_dllmain_uninitialize_c 000000018003c628 f   LIBCMT:utility.obj
 0001:0003b658       __scrt_dllmain_uninitialize_critical 000000018003c658 f   LIBCMT:utility.obj
 0001:0003b66c       __scrt_initialize_crt      000000018003c66c f   LIBCMT:utility.obj
 0001:0003b6b8       __scrt_initialize_onexit_tables 000000018003c6b8 f   LIBCMT:utility.obj
 0001:0003b744       __scrt_is_nonwritable_in_current_image 000000018003c744 f   LIBCMT:utility.obj
 0001:0003b7dc       __scrt_release_startup_lock 000000018003c7dc f   LIBCMT:utility.obj
 0001:0003b800       __scrt_uninitialize_crt    000000018003c800 f   LIBCMT:utility.obj
 0001:0003b82c       _onexit                    000000018003c82c f   LIBCMT:utility.obj
 0001:0003b868       atexit                     000000018003c868 f   LIBCMT:utility.obj
 0001:0003b880       ??2@YAPEAX_K@Z             000000018003c880 f   LIBCMT:new_scalar.obj
 0001:0003b8bc       ??_Etype_info@@UEAAPEAXI@Z 000000018003c8bc f i LIBCMT:std_type_info_static.obj
 0001:0003b8bc       ??_Gtype_info@@UEAAPEAXI@Z 000000018003c8bc f i LIBCMT:std_type_info_static.obj
 0001:0003b8e8       ??_U@YAPEAX_K@Z            000000018003c8e8 f   LIBCMT:new_array.obj
 0001:0003b8f0       ??_M@YAXPEAX_K1P6AX0@Z@Z   000000018003c8f0 f   LIBCMT:ehvecdtr.obj
 0001:0003b95c       ?__ArrayUnwind@@YAXPEAX_K1P6AX0@Z@Z 000000018003c95c f   LIBCMT:ehvecdtr.obj
 0001:0003bce0       _DllMainCRTStartup         000000018003cce0 f   LIBCMT:dll_dllmain.obj
 0001:0003bd20       __GSHandlerCheck           000000018003cd20 f   LIBCMT:gshandler.obj
 0001:0003bd40       __GSHandlerCheckCommon     000000018003cd40 f   LIBCMT:gshandler.obj
 0001:0003bd9c       __GSHandlerCheck_EH        000000018003cd9c f   LIBCMT:gshandlereh.obj
 0001:0003be30       __security_check_cookie    000000018003ce30 f   LIBCMT:amdsecgs.obj
 0001:0003be54       ??3@YAXPEAX@Z              000000018003ce54 f   LIBCMT:delete_scalar.obj
 0001:0003be5c       __isa_available_init       000000018003ce5c f   LIBCMT:cpu_disp.obj
 0001:0003c000       DllMain                    000000018003d000 f   LIBCMT:dll_dllmain_stub.obj
 0001:0003c000       _get_startup_argv_mode     000000018003d000 f   LIBCMT:argv_mode.obj
 0001:0003c008       __scrt_is_ucrt_dll_in_use  000000018003d008 f   LIBCMT:ucrt_detection.obj
 0001:0003c014       __crt_debugger_hook        000000018003d014 f   LIBCMT:utility_desktop.obj
 0001:0003c01c       __scrt_fastfail            000000018003d01c f   LIBCMT:utility_desktop.obj
 0001:0003c168       __security_init_cookie     000000018003d168 f   LIBCMT:gs_support.obj
 0001:0003c214       ?__scrt_initialize_type_info@@YAXXZ 000000018003d214 f   LIBCMT:tncleanup.obj
 0001:0003c224       ?__scrt_uninitialize_type_info@@YAXXZ 000000018003d224 f   LIBCMT:tncleanup.obj
 0001:0003c230       __local_stdio_scanf_options 000000018003d230 f i LIBCMT:default_local_stdio_options.obj
 0001:0003c238       __scrt_initialize_default_local_stdio_options 000000018003d238 f   LIBCMT:default_local_stdio_options.obj
 0001:0003c254       __scrt_get_dyn_tls_init_callback 000000018003d254 f   LIBCMT:dyn_tls_init.obj
 0001:0003c25c       _RTC_Initialize            000000018003d25c f   LIBCMT:initsect.obj
 0001:0003c298       _RTC_Terminate             000000018003d298 f   LIBCMT:initsect.obj
 0001:0003c2e0       __raise_securityfailure    000000018003d2e0 f   LIBCMT:gs_report.obj
 0001:0003c314       __report_gsfailure         000000018003d314 f   LIBCMT:gs_report.obj
 0001:0003c3e8       __report_rangecheckfailure 000000018003d3e8 f   LIBCMT:gs_report.obj
 0001:0003c3fc       __report_securityfailure   000000018003d3fc f   LIBCMT:gs_report.obj
 0001:0003c57c       _get_purecall_handler      000000018003d57c f   libvcruntime:purevirt.obj
 0001:0003c584       _purecall                  000000018003d584 f   libvcruntime:purevirt.obj
 0001:0003c5a0       __DestructExceptionObject  000000018003d5a0 f   libvcruntime:ehhelpers.obj
 0001:0003c610       ?_CallMemberFunction0@@YAXQEAX0@Z 000000018003d610 f i libvcruntime:ehhelpers.obj
 0001:0003c614       _IsExceptionObjectToBeDestroyed 000000018003d614 f   libvcruntime:ehhelpers.obj
 0001:0003c644       __AdjustPointer            000000018003d644 f   libvcruntime:ehhelpers.obj
 0001:0003c668       __FrameUnwindFilter        000000018003d668 f   libvcruntime:ehhelpers.obj
 0001:0003c6d0       __current_exception        000000018003d6d0 f   libvcruntime:ehhelpers.obj
 0001:0003c6e4       __current_exception_context 000000018003d6e4 f   libvcruntime:ehhelpers.obj
 0001:0003c6f8       __std_terminate            000000018003d6f8 f   libvcruntime:ehhelpers.obj
 0001:0003c704       __std_exception_copy       000000018003d704 f   libvcruntime:std_exception.obj
 0001:0003c794       __std_exception_destroy    000000018003d794 f   libvcruntime:std_exception.obj
 0001:0003c7bc       _CxxThrowException         000000018003d7bc f   libvcruntime:throw.obj
 0001:0003c85c       ??$_CallSETranslator@V__FrameHandler3@@@@YAHPEAUEHExceptionRecord@@PEA_KPEAU_CONTEXT@@PEAU_xDISPATCHER_CONTEXT@@PEBU_s_FuncInfo@@K1@Z 000000018003d85c f i libvcruntime:risctrnsctrl.obj
 0001:0003c8b0       ??$_CallSETranslator@V__FrameHandler4@@@@YAHPEAUEHExceptionRecord@@PEA_KPEAU_CONTEXT@@PEAU_xDISPATCHER_CONTEXT@@PEAUFuncInfo4@FH4@@K1@Z 000000018003d8b0 f i libvcruntime:risctrnsctrl.obj
 0001:0003c904       ?CatchTryBlock@__FrameHandler3@@SAPEBU_s_TryBlockMapEntry@@PEBU_s_FuncInfo@@H@Z 000000018003d904 f   libvcruntime:risctrnsctrl.obj
 0001:0003c958       ?DecompFuncInfo@FH4@@YA_JPEAEAEAUFuncInfo4@1@_KH_N@Z 000000018003d958 f i libvcruntime:risctrnsctrl.obj
 0001:0003ca7c       ?ExecutionInCatch@__FrameHandler3@@SA_NPEAU_xDISPATCHER_CONTEXT@@PEBU_s_FuncInfo@@@Z 000000018003da7c f   libvcruntime:risctrnsctrl.obj
 0001:0003caa8       ?ExecutionInCatch@__FrameHandler4@@SA_NPEAU_xDISPATCHER_CONTEXT@@PEAUFuncInfo4@FH4@@@Z 000000018003daa8 f   libvcruntime:risctrnsctrl.obj
 0001:0003cab0       ?FrameUnwindToEmptyState@__FrameHandler3@@SAXPEA_KPEAU_xDISPATCHER_CONTEXT@@PEBU_s_FuncInfo@@@Z 000000018003dab0 f   libvcruntime:risctrnsctrl.obj
 0001:0003cb14       ?FrameUnwindToEmptyState@__FrameHandler4@@SAXPEA_KPEAU_xDISPATCHER_CONTEXT@@PEAUFuncInfo4@FH4@@@Z 000000018003db14 f   libvcruntime:risctrnsctrl.obj
 0001:0003cb48       ?GetEstablisherFrame@__FrameHandler3@@SAPEA_KPEA_KPEAU_xDISPATCHER_CONTEXT@@PEBU_s_FuncInfo@@0@Z 000000018003db48 f   libvcruntime:risctrnsctrl.obj
 0001:0003cc14       ?GetEstablisherFrame@__FrameHandler4@@SAPEA_KPEA_KPEAU_xDISPATCHER_CONTEXT@@PEAUFuncInfo4@FH4@@0@Z 000000018003dc14 f   libvcruntime:risctrnsctrl.obj
 0001:0003cc38       ?GetRangeOfTrysToCheck@__FrameHandler3@@SA?AU?$pair@Viterator@TryBlockMap@__FrameHandler3@@V123@@std@@AEAVTryBlockMap@1@HPEAU_xDISPATCHER_CONTEXT@@PEBU_s_FuncInfo@@H@Z 000000018003dc38 f   libvcruntime:risctrnsctrl.obj
 0001:0003cd78       ?GetRangeOfTrysToCheck@__FrameHandler4@@SA?AU?$pair@Viterator@TryBlockMap4@FH4@@V123@@std@@AEAVTryBlockMap4@FH4@@HPEAU_xDISPATCHER_CONTEXT@@PEAUFuncInfo4@5@H@Z 000000018003dd78 f   libvcruntime:risctrnsctrl.obj
 0001:0003ced0       ?UnwindNestedFrames@__FrameHandler3@@SAXPEA_KPEAUEHExceptionRecord@@PEAU_CONTEXT@@0PEAXPEBU_s_FuncInfo@@HHPEBU_s_HandlerType@@PEAU_xDISPATCHER_CONTEXT@@E@Z 000000018003ded0 f   libvcruntime:risctrnsctrl.obj
 0001:0003cfd4       ?UnwindNestedFrames@__FrameHandler4@@SAXPEA_KPEAUEHExceptionRecord@@PEAU_CONTEXT@@0PEAXPEAUFuncInfo4@FH4@@HHPEAUHandlerType4@5@PEAU_xDISPATCHER_CONTEXT@@E@Z 000000018003dfd4 f   libvcruntime:risctrnsctrl.obj
 0001:0003d114       ?setBuffer@TryBlockMap4@FH4@@QEAAXViterator@12@@Z 000000018003e114 f i libvcruntime:risctrnsctrl.obj
 0001:0003d2d8       _CreateFrameInfo           000000018003e2d8 f   libvcruntime:risctrnsctrl.obj
 0001:0003d314       _FindAndUnlinkFrame        000000018003e314 f   libvcruntime:risctrnsctrl.obj
 0001:0003d368       _GetImageBase              000000018003e368 f   libvcruntime:risctrnsctrl.obj
 0001:0003d37c       _GetThrowImageBase         000000018003e37c f   libvcruntime:risctrnsctrl.obj
 0001:0003d390       _SetImageBase              000000018003e390 f   libvcruntime:risctrnsctrl.obj
 0001:0003d3a8       _SetThrowImageBase         000000018003e3a8 f   libvcruntime:risctrnsctrl.obj
 0001:0003d3c0       __CxxFrameHandler3         000000018003e3c0 f   libvcruntime:risctrnsctrl.obj
 0001:0003d448       __CxxFrameHandler4         000000018003e448 f   libvcruntime:risctrnsctrl.obj
 0001:0003d520       memchr                     000000018003e520 f   libvcruntime:memchr.obj
 0001:0003d5a0       memcmp                     000000018003e5a0 f   libvcruntime:memcmp.obj
 0001:0003d680       memcpy_repmovs             000000018003e680 f   libvcruntime:memcpy.obj
 0001:0003d6a0       memcpy                     000000018003e6a0 f   libvcruntime:memcpy.obj
 0001:0003d6a0       memmove                    000000018003e6a0 f   libvcruntime:memcpy.obj
 0001:0003da90       memset_repmovs             000000018003ea90 f   libvcruntime:memset.obj
 0001:0003dab0       memset                     000000018003eab0 f   libvcruntime:memset.obj
 0001:0003dc40       wcschr                     000000018003ec40 f   libvcruntime:wcschr.obj
 0001:0003dcbc       __vcrt_initialize          000000018003ecbc f   libvcruntime:initialization.obj
 0001:0003dce4       __vcrt_thread_attach       000000018003ece4 f   libvcruntime:initialization.obj
 0001:0003dcf8       __vcrt_thread_detach       000000018003ecf8 f   libvcruntime:initialization.obj
 0001:0003dd0c       __vcrt_uninitialize        000000018003ed0c f   libvcruntime:initialization.obj
 0001:0003dd28       __vcrt_uninitialize_critical 000000018003ed28 f   libvcruntime:initialization.obj
 0001:0003dd38       __C_specific_handler       000000018003ed38 f   libvcruntime:riscchandler.obj
 0001:0003df44       __std_type_info_compare    000000018003ef44 f   libvcruntime:std_type_info.obj
 0001:0003df6c       __std_type_info_destroy_list 000000018003ef6c f   libvcruntime:std_type_info.obj
 0001:0003df98       __vcrt_freefls             000000018003ef98 f   libvcruntime:per_thread_data.obj
 0001:0003dfb8       __vcrt_freeptd             000000018003efb8 f   libvcruntime:per_thread_data.obj
 0001:0003e008       __vcrt_getptd              000000018003f008 f   libvcruntime:per_thread_data.obj
 0001:0003e024       __vcrt_getptd_noexit       000000018003f024 f   libvcruntime:per_thread_data.obj
 0001:0003e0e4       __vcrt_initialize_ptd      000000018003f0e4 f   libvcruntime:per_thread_data.obj
 0001:0003e12c       __vcrt_uninitialize_ptd    000000018003f12c f   libvcruntime:per_thread_data.obj
 0001:0003e150       ?GetCurrentState@__FrameHandler3@@SAHPEA_KPEAU_xDISPATCHER_CONTEXT@@PEBU_s_FuncInfo@@@Z 000000018003f150 f   libvcruntime:ehstate.obj
 0001:0003e178       ?GetUnwindTryBlock@__FrameHandler3@@SAHPEA_KPEAU_xDISPATCHER_CONTEXT@@PEBU_s_FuncInfo@@@Z 000000018003f178 f   libvcruntime:ehstate.obj
 0001:0003e1a4       ?SetState@__FrameHandler3@@SAXPEA_KPEBU_s_FuncInfo@@H@Z 000000018003f1a4 f   libvcruntime:ehstate.obj
 0001:0003e1b0       ?SetUnwindTryBlock@__FrameHandler3@@SAXPEA_KPEAU_xDISPATCHER_CONTEXT@@PEBU_s_FuncInfo@@H@Z 000000018003f1b0 f   libvcruntime:ehstate.obj
 0001:0003e1ec       ?StateFromControlPc@__FrameHandler3@@SAHPEBU_s_FuncInfo@@PEAU_xDISPATCHER_CONTEXT@@@Z 000000018003f1ec f   libvcruntime:ehstate.obj
 0001:0003e1f4       ?StateFromControlPc@__FrameHandler4@@SAHPEAUFuncInfo4@FH4@@PEAU_xDISPATCHER_CONTEXT@@@Z 000000018003f1f4 f   libvcruntime:ehstate.obj
 0001:0003e1fc       ?StateFromIp@__FrameHandler3@@SAHPEBU_s_FuncInfo@@PEAU_xDISPATCHER_CONTEXT@@_K@Z 000000018003f1fc f   libvcruntime:ehstate.obj
 0001:0003e264       ?StateFromIp@__FrameHandler4@@SAHPEAUFuncInfo4@FH4@@PEAU_xDISPATCHER_CONTEXT@@_K@Z 000000018003f264 f   libvcruntime:ehstate.obj
 0001:0003f990       ??$TypeMatchHelper@V__FrameHandler3@@@@YAHPEBU_s_HandlerType@@PEBU_s_CatchableType@@PEBU_s_ThrowInfo@@@Z 0000000180040990 f i libvcruntime:frame.obj
 0001:0003fad4       ??$TypeMatchHelper@V__FrameHandler4@@@@YAHPEAUHandlerType4@FH4@@PEBU_s_CatchableType@@PEBU_s_ThrowInfo@@@Z 0000000180040ad4 f i libvcruntime:frame.obj
 0001:0003fc1c       ??$__InternalCxxFrameHandler@V__FrameHandler3@@@@YA?AW4_EXCEPTION_DISPOSITION@@PEAUEHExceptionRecord@@PEA_KPEAU_CONTEXT@@PEAU_xDISPATCHER_CONTEXT@@PEBU_s_FuncInfo@@H1E@Z 0000000180040c1c f i libvcruntime:frame.obj
 0001:0003fe64       ??$__InternalCxxFrameHandler@V__FrameHandler4@@@@YA?AW4_EXCEPTION_DISPOSITION@@PEAUEHExceptionRecord@@PEA_KPEAU_CONTEXT@@PEAU_xDISPATCHER_CONTEXT@@PEAUFuncInfo4@FH4@@H1E@Z 0000000180040e64 f i libvcruntime:frame.obj
 0001:00040104       ??0HandlerMap4@FH4@@QEAA@PEBUTryBlockMapEntry4@1@_KH@Z 0000000180041104 f i libvcruntime:frame.obj
 0001:00040180       ??0TryBlockMap4@FH4@@QEAA@PEBUFuncInfo4@1@_K@Z 0000000180041180 f i libvcruntime:frame.obj
 0001:00040258       ??0bad_exception@std@@QEAA@AEBV01@@Z 0000000180041258 f i libvcruntime:frame.obj
 0001:00040294       ??0bad_exception@std@@QEAA@XZ 0000000180041294 f i libvcruntime:frame.obj
 0001:000402b4       ?CxxCallCatchBlock@__FrameHandler3@@SAPEAXPEAU_EXCEPTION_RECORD@@@Z 00000001800412b4 f   libvcruntime:frame.obj
 0001:000404a0       ?CxxCallCatchBlock@__FrameHandler4@@SAPEAXPEAU_EXCEPTION_RECORD@@@Z 00000001800414a0 f   libvcruntime:frame.obj
 0001:000406f0       ?DecompHandler@HandlerMap4@FH4@@AEAAXXZ 00000001800416f0 f i libvcruntime:frame.obj
 0001:00040930       ?FrameUnwindToState@__FrameHandler3@@SAXPEA_KPEAU_xDISPATCHER_CONTEXT@@PEBU_s_FuncInfo@@H@Z 0000000180041930 f   libvcruntime:frame.obj
 0001:00040abc       ?FrameUnwindToState@__FrameHandler4@@SAXPEA_KPEAU_xDISPATCHER_CONTEXT@@PEAUFuncInfo4@FH4@@H@Z 0000000180041abc f   libvcruntime:frame.obj
 0001:00040d90       ?GetHandlerSearchState@__FrameHandler3@@SAHPEA_KPEAU_xDISPATCHER_CONTEXT@@PEBU_s_FuncInfo@@@Z 0000000180041d90 f i libvcruntime:frame.obj
 0001:00040fa0       ?ReadEntry@UWMap4@FH4@@AEAAXPEAPEAE@Z 0000000180041fa0 f i libvcruntime:frame.obj
 0001:00041040       ?_CallMemberFunction1@@YAXQEAX00@Z 0000000180042040 f i libvcruntime:frame.obj
 0001:0004104c       ?_CallMemberFunction2@@YAXQEAX00H@Z 000000018004204c f i libvcruntime:frame.obj
 0001:0004105c       ?getStartStop@UWMap4@FH4@@QEAAXHHAEAViterator@12@0@Z 000000018004205c f i libvcruntime:frame.obj
 0001:0004112c       ?getStateFromIterators@UWMap4@FH4@@SAHAEBViterator@12@H0H0@Z 000000018004212c f i libvcruntime:frame.obj
 0001:000411f4       __vcrt_initialize_locks    00000001800421f4 f   libvcruntime:locks.obj
 0001:00041228       __vcrt_uninitialize_locks  0000000180042228 f   libvcruntime:locks.obj
 0001:00041270       _NLG_Notify                0000000180042270 f   libvcruntime:notify.obj
 0001:00041290       __NLG_Dispatch2            0000000180042290 f   libvcruntime:notify.obj
 0001:000412a0       __NLG_Return2              00000001800422a0 f   libvcruntime:notify.obj
 0001:000412a4       __except_validate_context_record 00000001800422a4 f   libvcruntime:jbcxrval.obj
 0001:00041438       __vcrt_FlsAlloc            0000000180042438 f   libvcruntime:winapi_downlevel.obj
 0001:00041480       __vcrt_FlsFree             0000000180042480 f   libvcruntime:winapi_downlevel.obj
 0001:000414c8       __vcrt_FlsGetValue         00000001800424c8 f   libvcruntime:winapi_downlevel.obj
 0001:00041510       __vcrt_FlsSetValue         0000000180042510 f   libvcruntime:winapi_downlevel.obj
 0001:00041564       __vcrt_InitializeCriticalSectionEx 0000000180042564 f   libvcruntime:winapi_downlevel.obj
 0001:000415e0       _CallSettingFrame          00000001800425e0 f   libvcruntime:handlers.obj
 0001:00041630       _CallSettingFrame_LookupContinuationIndex 0000000180042630 f   libvcruntime:handlers.obj
 0001:00041660       _CallSettingFrame_NotifyContinuationAddr 0000000180042660 f   libvcruntime:handlers.obj
 0001:00041690       _CallSettingFrameEncoded   0000000180042690 f   libvcruntime:handlers.obj
 0001:000416d8       __acrt_call_reportfault    00000001800426d8 f   libucrt:invalid_parameter.obj
 0001:00041834       __acrt_initialize_invalid_parameter_handler 0000000180042834 f   libucrt:invalid_parameter.obj
 0001:0004183c       _invalid_parameter         000000018004283c f   libucrt:invalid_parameter.obj
 0001:000418ec       _invalid_parameter_noinfo  00000001800428ec f   libucrt:invalid_parameter.obj
 0001:0004190c       _invalid_parameter_noinfo_noreturn 000000018004290c f   libucrt:invalid_parameter.obj
 0001:0004193c       _invoke_watson             000000018004293c f   libucrt:invalid_parameter.obj
 0001:00041984       _dclass                    0000000180042984 f   libucrt:nan.obj
 0001:000419a0       _ldsign                    00000001800429a0 f   libucrt:nanl.obj
 0001:000419a0       _dsign                     00000001800429a0 f   libucrt:nan.obj
 0001:000419b8       _ldclass                   00000001800429b8 f   libucrt:nanl.obj
 0001:000419d4       _fdclass                   00000001800429d4 f   libucrt:nanf.obj
 0001:000419f0       _fdsign                    00000001800429f0 f   libucrt:nanf.obj
 0001:00041a04       calloc                     0000000180042a04 f   libucrt:calloc.obj
 0001:00041a0c       free                       0000000180042a0c f   libucrt:free.obj
 0001:00041a20       __acrt_errno_from_os_error 0000000180042a20 f   libucrt:errno.obj
 0001:00041a68       __acrt_errno_map_os_error  0000000180042a68 f   libucrt:errno.obj
 0001:00041ab8       __doserrno                 0000000180042ab8 f   libucrt:errno.obj
 0001:00041ad8       _errno                     0000000180042ad8 f   libucrt:errno.obj
 0001:00041af8       __acrt_initialize_stdio    0000000180042af8 f   libucrt:_file.obj
 0001:00041c18       __acrt_uninitialize_stdio  0000000180042c18 f   libucrt:_file.obj
 0001:00041c74       _lock_file                 0000000180042c74 f   libucrt:_file.obj
 0001:00041c80       _unlock_file               0000000180042c80 f   libucrt:_file.obj
 0001:00041c8c       _fileno                    0000000180042c8c f   libucrt:fileno.obj
 0001:00041e80       ??$ensure_buffer_is_big_enough@D@formatting_buffer@__crt_stdio_output@@QEAA_N_K@Z 0000000180042e80 f i libucrt:output.obj
 0001:00041f28       ??$type_case_integer_parse_into_buffer@I@?$output_processor@DV?$string_output_adapter@D@__crt_stdio_output@@V?$format_validation_base@DV?$string_output_adapter@D@__crt_stdio_output@@@2@@__crt_stdio_output@@AEAAXII_N@Z 0000000180042f28 f i libucrt:output.obj
 0001:00041fb0       ??$type_case_integer_parse_into_buffer@_K@?$output_processor@DV?$string_output_adapter@D@__crt_stdio_output@@V?$format_validation_base@DV?$string_output_adapter@D@__crt_stdio_output@@@2@@__crt_stdio_output@@AEAAX_KI_N@Z 0000000180042fb0 f i libucrt:output.obj
 0001:00042040       ??$write_multiple_characters@V?$string_output_adapter@D@__crt_stdio_output@@D@__crt_stdio_output@@YAXAEBV?$string_output_adapter@D@0@DHQEAH@Z 0000000180043040 f i libucrt:output.obj
 0001:000420b8       ??0_LocaleUpdate@@QEAA@QEAU__crt_locale_pointers@@@Z 00000001800430b8 f i libucrt:output.obj
 0001:00042154       ??1_LocaleUpdate@@QEAA@XZ  0000000180043154 f i libucrt:output.obj
 0001:00042168       ?crop_zeroes@__crt_stdio_output@@YAXPEADQEAU__crt_locale_pointers@@@Z 0000000180043168 f i libucrt:output.obj
 0001:000421d4       ?parse_int_from_format_string@?$output_processor@DV?$string_output_adapter@D@__crt_stdio_output@@V?$format_validation_base@DV?$string_output_adapter@D@__crt_stdio_output@@@2@@__crt_stdio_output@@AEAA_NQEAH@Z 00000001800431d4 f i libucrt:output.obj
 0001:00042278       ?process@?$output_processor@DV?$string_output_adapter@D@__crt_stdio_output@@V?$format_validation_base@DV?$string_output_adapter@D@__crt_stdio_output@@@2@@__crt_stdio_output@@QEAAHXZ 0000000180043278 f i libucrt:output.obj
 0001:00042490       ?state_case_normal@?$output_processor@DV?$string_output_adapter@D@__crt_stdio_output@@V?$format_validation_base@DV?$string_output_adapter@D@__crt_stdio_output@@@2@@__crt_stdio_output@@AEAA_NXZ 0000000180043490 f i libucrt:output.obj
 0001:00042504       ?state_case_normal_tchar@?$output_processor@DV?$string_output_adapter@D@__crt_stdio_output@@V?$format_validation_base@DV?$string_output_adapter@D@__crt_stdio_output@@@2@@__crt_stdio_output@@AEAA_ND@Z 0000000180043504 f i libucrt:output.obj
 0001:000425ac       ?state_case_size@?$output_processor@DV?$string_output_adapter@D@__crt_stdio_output@@V?$format_validation_base@DV?$string_output_adapter@D@__crt_stdio_output@@@2@@__crt_stdio_output@@AEAA_NXZ 00000001800435ac f i libucrt:output.obj
 0001:00042720       ?state_case_type@?$output_processor@DV?$string_output_adapter@D@__crt_stdio_output@@V?$format_validation_base@DV?$string_output_adapter@D@__crt_stdio_output@@@2@@__crt_stdio_output@@AEAA_NXZ 0000000180043720 f i libucrt:output.obj
 0001:00042988       ?type_case_Z@?$output_processor@DV?$string_output_adapter@D@__crt_stdio_output@@V?$format_validation_base@DV?$string_output_adapter@D@__crt_stdio_output@@@2@@__crt_stdio_output@@AEAA_NXZ 0000000180043988 f i libucrt:output.obj
 0001:000429fc       ?type_case_a@?$output_processor@DV?$string_output_adapter@D@__crt_stdio_output@@V?$format_validation_base@DV?$string_output_adapter@D@__crt_stdio_output@@@2@@__crt_stdio_output@@AEAA_NXZ 00000001800439fc f i libucrt:output.obj
 0001:00042c14       ?type_case_c_tchar@?$output_processor@DV?$string_output_adapter@D@__crt_stdio_output@@V?$format_validation_base@DV?$string_output_adapter@D@__crt_stdio_output@@@2@@__crt_stdio_output@@AEAA_ND@Z 0000000180043c14 f i libucrt:output.obj
 0001:00042cd0       ?type_case_integer@?$output_processor@DV?$string_output_adapter@D@__crt_stdio_output@@V?$format_validation_base@DV?$string_output_adapter@D@__crt_stdio_output@@@2@@__crt_stdio_output@@AEAA_NI_N@Z 0000000180043cd0 f i libucrt:output.obj
 0001:00042e98       ?type_case_n@?$output_processor@DV?$string_output_adapter@D@__crt_stdio_output@@V?$format_validation_base@DV?$string_output_adapter@D@__crt_stdio_output@@@2@@__crt_stdio_output@@AEAA_NXZ 0000000180043e98 f i libucrt:output.obj
 0001:00042f74       ?type_case_s@?$output_processor@DV?$string_output_adapter@D@__crt_stdio_output@@V?$format_validation_base@DV?$string_output_adapter@D@__crt_stdio_output@@@2@@__crt_stdio_output@@AEAA_NXZ 0000000180043f74 f i libucrt:output.obj
 0001:0004300c       ?write_stored_string_tchar@?$output_processor@DV?$string_output_adapter@D@__crt_stdio_output@@V?$format_validation_base@DV?$string_output_adapter@D@__crt_stdio_output@@@2@@__crt_stdio_output@@AEAA_ND@Z 000000018004400c f i libucrt:output.obj
 0001:000430e4       ?write_string@?$string_output_adapter@D@__crt_stdio_output@@QEBAXQEBDHQEAHAEAV__crt_deferred_errno_cache@@@Z 00000001800440e4 f i libucrt:output.obj
 0001:00043188       __stdio_common_vsnprintf_s 0000000180044188 f   libucrt:output.obj
 0001:000432bc       terminate                  00000001800442bc f   libucrt:terminate.obj
 0001:000432dc       localeconv                 00000001800442dc f   libucrt:localeconv.obj
 0001:00043310       __acrt_lowio_create_handle_array 0000000180044310 f   libucrt:osfinfo.obj
 0001:000433b8       __acrt_lowio_destroy_handle_array 00000001800443b8 f   libucrt:osfinfo.obj
 0001:00043408       __acrt_lowio_ensure_fh_exists 0000000180044408 f   libucrt:osfinfo.obj
 0001:000434b0       __acrt_lowio_lock_fh       00000001800444b0 f   libucrt:osfinfo.obj
 0001:000434d8       __acrt_lowio_unlock_fh     00000001800444d8 f   libucrt:osfinfo.obj
 0001:00043500       _free_osfhnd               0000000180044500 f   libucrt:osfinfo.obj
 0001:000435bc       _get_osfhandle             00000001800445bc f   libucrt:osfinfo.obj
 0001:00043634       _isatty                    0000000180044634 f   libucrt:isatty.obj
 0001:00043694       malloc                     0000000180044694 f   libucrt:malloc.obj
 0001:0004369c       log2                       000000018004469c f   libucrt:log2.obj
 0001:000439c4       modf                       00000001800449c4 f   libucrt:modf.obj
 0001:00043aa4       round                      0000000180044aa4 f   libucrt:round.obj
 0001:00043b0c       _isleadbyte_l              0000000180044b0c f i libucrt:_wctype.obj
 0001:00043b58       iswdigit                   0000000180044b58 f i libucrt:_wctype.obj
 0001:00043b64       wcscspn                    0000000180044b64 f   libucrt:wcscspn.obj
 0001:00043ba4       wcsncpy                    0000000180044ba4 f   libucrt:wcsncpy.obj
 0001:00043bec       wcspbrk                    0000000180044bec f   libucrt:wcspbrk.obj
 0001:00043c20       wcstok                     0000000180044c20 f   libucrt:wcstok.obj
 0001:00043c5c       ceilf                      0000000180044c5c f   libucrt:ceilf.obj
 0001:00043cf0       log10                      0000000180044cf0 f   libucrt:log10.obj
 0001:000442a0       pow                        00000001800452a0 f   libucrt:pow.obj
 0001:00045934       __acrt_initialize_locks    0000000180046934 f   libucrt:locks.obj
 0001:0004597c       __acrt_lock                000000018004697c f   libucrt:locks.obj
 0001:00045998       __acrt_uninitialize_locks  0000000180046998 f   libucrt:locks.obj
 0001:000459d0       __acrt_unlock              00000001800469d0 f   libucrt:locks.obj
 0001:000459ec       _lock_locales              00000001800469ec f   libucrt:locks.obj
 0001:00045a08       _unlock_locales            0000000180046a08 f   libucrt:locks.obj
 0001:00045cf8       setlocale                  0000000180046cf8 f   libucrt:setlocale.obj
 0001:00045d44       ___lc_codepage_func        0000000180046d44 f   libucrt:initctype.obj
 0001:00045d74       ___lc_locale_name_func     0000000180046d74 f   libucrt:initctype.obj
 0001:00045da8       ___mb_cur_max_func         0000000180046da8 f   libucrt:initctype.obj
 0001:00045dd8       __acrt_locale_initialize_ctype 0000000180046dd8 f   libucrt:initctype.obj
 0001:0004643c       __pctype_func              000000018004743c f   libucrt:ctype.obj
 0001:00046470       ?divide@__crt_strtox@@YA_KAEAUbig_integer@1@AEBU21@@Z 0000000180047470 f i libucrt:strtod.obj
 0001:0004689c       _ischartype_l              000000018004789c f i libucrt:strtod.obj
 0001:000469a0       powf                       00000001800479a0 f   libucrt:powf.obj
 0001:00047868       abort                      0000000180048868 f   libucrt:abort.obj
 0001:000478c0       wcsdup                     00000001800488c0 f   libucrt:wcsdup.obj
 0001:000478c0       _wcsdup                    00000001800488c0 f   libucrt:wcsdup.obj
 0001:00047944       ??$__acrt_mbs_to_wcs_cp@U__crt_win32_buffer_internal_dynamic_resizing@@@@YAHQEBDAEAV?$__crt_win32_buffer@_WU__crt_win32_buffer_internal_dynamic_resizing@@@@I@Z 0000000180048944 f i libucrt:strftime.obj
 0001:00047abc       ??$__acrt_wcs_to_mbs_cp@U__crt_win32_buffer_no_resizing@@@@YAHQEB_WAEAV?$__crt_win32_buffer@DU__crt_win32_buffer_no_resizing@@@@I@Z 0000000180048abc f i libucrt:strftime.obj
 0001:00047bd0       __strncnt                  0000000180048bd0 f   libucrt:strncnt.obj
 0001:00047be8       wcscpy_s                   0000000180048be8 f   libucrt:wcscpy_s.obj
 0001:00047c50       strnlen                    0000000180048c50 f   libucrt:strnlen.obj
 0001:00047da0       wcsnlen                    0000000180048da0 f   libucrt:strnlen.obj
 0001:00047f78       _seh_filter_dll            0000000180048f78 f   libucrt:exception_filter.obj
 0001:00047f8c       _seh_filter_exe            0000000180048f8c f   libucrt:exception_filter.obj
 0001:0004837c       __acrt_initialize_thread_local_exit_callback 000000018004937c f   libucrt:exit.obj
 0001:00048384       _cexit                     0000000180049384 f   libucrt:exit.obj
 0001:00048394       _exit                      0000000180049394 f   libucrt:exit.obj
 0001:000483a0       _is_c_termination_complete 00000001800493a0 f   libucrt:exit.obj
 0001:0004856c       __acrt_allocate_buffer_for_argv 000000018004956c f   libucrt:argv_parsing.obj
 0001:000485cc       _configure_narrow_argv     00000001800495cc f   libucrt:argv_parsing.obj
 0001:00048944       __dcrt_uninitialize_environments_nolock 0000000180049944 f   libucrt:environment_initialization.obj
 0001:0004897c       _initialize_narrow_environment 000000018004997c f   libucrt:environment_initialization.obj
 0001:00048cc4       _crt_atexit                0000000180049cc4 f   libucrt:onexit.obj
 0001:00048cd4       _execute_onexit_table      0000000180049cd4 f   libucrt:onexit.obj
 0001:00048d10       _initialize_onexit_table   0000000180049d10 f   libucrt:onexit.obj
 0001:00048d38       _register_onexit_function  0000000180049d38 f   libucrt:onexit.obj
 0001:00048db8       __acrt_uninitialize_command_line 0000000180049db8 f   libucrt:argv_data.obj
 0001:00048eb0       __acrt_initialize          0000000180049eb0 f   libucrt:initialization.obj
 0001:00048ec4       __acrt_thread_attach       0000000180049ec4 f   libucrt:initialization.obj
 0001:00048ed8       __acrt_thread_detach       0000000180049ed8 f   libucrt:initialization.obj
 0001:00048ee8       __acrt_uninitialize        0000000180049ee8 f   libucrt:initialization.obj
 0001:00048f20       __acrt_uninitialize_critical 0000000180049f20 f   libucrt:initialization.obj
 0001:00048f30       __initialize_lconv_for_unsigned_char 0000000180049f30 f   libucrt:lconv_unsigned_char_initialization.obj
 0001:00048f3c       __acrt_initialize_new_handler 0000000180049f3c f   libucrt:new_handler.obj
 0001:00048f44       _callnewh                  0000000180049f44 f   libucrt:new_handler.obj
 0001:00048f74       _query_new_handler         0000000180049f74 f   libucrt:new_handler.obj
 0001:00048fa8       _initterm                  0000000180049fa8 f   libucrt:initterm.obj
 0001:0004900c       _initterm_e                000000018004a00c f   libucrt:initterm.obj
 0001:0004904c       strcpy_s                   000000018004a04c f   libucrt:strcpy_s.obj
 0001:000490ac       ??$parse_integer@KV?$c_string_character_source@D@__crt_strtox@@@__crt_strtox@@YAKQEAU__crt_locale_pointers@@V?$c_string_character_source@D@0@H_N@Z 000000018004a0ac f i libucrt:atox.obj
 0001:000493b4       ??$parse_integer@KV?$c_string_character_source@_W@__crt_strtox@@@__crt_strtox@@YAKQEAU__crt_locale_pointers@@V?$c_string_character_source@_W@0@H_N@Z 000000018004a3b4 f i libucrt:atox.obj
 0001:00049a5c       _wtol                      000000018004aa5c f   libucrt:atox.obj
 0001:00049aa0       strncmp                    000000018004aaa0 f   libucrt:strncmp.obj
 0001:00049b20       wcsncmp                    000000018004ab20 f   libucrt:wcsncmp.obj
 0001:00049ec4       __acrt_freeptd             000000018004aec4 f   libucrt:per_thread_data.obj
 0001:00049f08       __acrt_getptd              000000018004af08 f   libucrt:per_thread_data.obj
 0001:00049fdc       __acrt_getptd_head         000000018004afdc f   libucrt:per_thread_data.obj
 0001:0004a084       __acrt_getptd_noexit       000000018004b084 f   libucrt:per_thread_data.obj
 0001:0004a150       __acrt_initialize_ptd      000000018004b150 f   libucrt:per_thread_data.obj
 0001:0004a18c       __acrt_uninitialize_ptd    000000018004b18c f   libucrt:per_thread_data.obj
 0001:0004a1b0       _d_int                     000000018004b1b0 f   libucrt:_test.obj
 0001:0004a2c8       _dtest                     000000018004b2c8 f   libucrt:_test.obj
 0001:0004a32c       _fdtest                    000000018004b32c f   libucrt:_test.obj
 0001:0004a378       _ldtest                    000000018004b378 f   libucrt:_test.obj
 0001:0004a380       _calloc_base               000000018004b380 f   libucrt:calloc_base.obj
 0001:0004a3f8       _free_base                 000000018004b3f8 f   libucrt:free_base.obj
 0001:0004a6b4       __acrt_AppPolicyGetProcessTerminationMethodInternal 000000018004b6b4 f   libucrt:winapi_thunks.obj
 0001:0004a704       __acrt_AreFileApisANSI     000000018004b704 f   libucrt:winapi_thunks.obj
 0001:0004a740       __acrt_EnumSystemLocalesEx 000000018004b740 f   libucrt:winapi_thunks.obj
 0001:0004a7d8       __acrt_FlsAlloc            000000018004b7d8 f   libucrt:winapi_thunks.obj
 0001:0004a820       __acrt_FlsFree             000000018004b820 f   libucrt:winapi_thunks.obj
 0001:0004a868       __acrt_FlsGetValue         000000018004b868 f   libucrt:winapi_thunks.obj
 0001:0004a8b0       __acrt_FlsSetValue         000000018004b8b0 f   libucrt:winapi_thunks.obj
 0001:0004a904       __acrt_GetLocaleInfoEx     000000018004b904 f   libucrt:winapi_thunks.obj
 0001:0004a988       __acrt_GetUserDefaultLocaleName 000000018004b988 f   libucrt:winapi_thunks.obj
 0001:0004a9ec       __acrt_InitializeCriticalSectionEx 000000018004b9ec f   libucrt:winapi_thunks.obj
 0001:0004aa50       __acrt_IsValidLocaleName   000000018004ba50 f   libucrt:winapi_thunks.obj
 0001:0004aaa8       __acrt_LCIDToLocaleName    000000018004baa8 f   libucrt:winapi_thunks.obj
 0001:0004ab18       __acrt_LCMapStringEx       000000018004bb18 f   libucrt:winapi_thunks.obj
 0001:0004abf4       __acrt_LocaleNameToLCID    000000018004bbf4 f   libucrt:winapi_thunks.obj
 0001:0004ac44       __acrt_can_use_vista_locale_apis 000000018004bc44 f   libucrt:winapi_thunks.obj
 0001:0004ac74       __acrt_eagerly_load_locale_apis 000000018004bc74 f   libucrt:winapi_thunks.obj
 0001:0004add0       __acrt_initialize_winapi_thunks 000000018004bdd0 f   libucrt:winapi_thunks.obj
 0001:0004ae04       __acrt_uninitialize_winapi_thunks 000000018004be04 f   libucrt:winapi_thunks.obj
 0001:0004ae48       _fcloseall                 000000018004be48 f   libucrt:closeall.obj
 0001:0004b0d8       __acrt_stdio_flush_nolock  000000018004c0d8 f   libucrt:fflush.obj
 0001:0004b154       _fflush_nolock             000000018004c154 f   libucrt:fflush.obj
 0001:0004b1a0       _flushall                  000000018004c1a0 f   libucrt:fflush.obj
 0001:0004b1a8       __acrt_stdio_free_buffer_nolock 000000018004c1a8 f   libucrt:_freebuf.obj
 0001:0004b3e4       __acrt_initialize_lowio    000000018004c3e4 f   libucrt:ioinit.obj
 0001:0004b420       __acrt_uninitialize_lowio  000000018004c420 f   libucrt:ioinit.obj
 0001:0004bcc0       _write                     000000018004ccc0 f   libucrt:write.obj
 0001:0004bdac       _write_nolock              000000018004cdac f   libucrt:write.obj
 0001:0004c088       _malloc_base               000000018004d088 f   libucrt:malloc_base.obj
 0001:0004c0e8       strtol                     000000018004d0e8 f   libucrt:strtox.obj
 0001:0004c114       _mbtowc_l                  000000018004d114 f   libucrt:mbtowc.obj
 0001:0004c294       mbtowc                     000000018004d294 f   libucrt:mbtowc.obj
 0001:0004c29c       _wctomb_s_l                000000018004d29c f   libucrt:wctomb.obj
 0001:0004c438       wctomb_s                   000000018004d438 f   libucrt:wctomb.obj
 0001:0004c44c       __acrt_update_locale_info  000000018004d44c f   libucrt:locale_update.obj
 0001:0004c480       __acrt_update_multibyte_info 000000018004d480 f   libucrt:locale_update.obj
 0001:0004cd4c       __acrt_fp_format           000000018004dd4c f   libucrt:cvt.obj
 0001:0004d050       _get_printf_count_output   000000018004e050 f   libucrt:printf_count_output.obj
 0001:0004d2d0       ?commit_locale_name@_expandlocale_locale_name_cache@@QEAAXQEB_W_K@Z 000000018004e2d0 f i libucrt:wsetlocale.obj
 0001:0004d348       __acrt_copy_locale_name    000000018004e348 f   libucrt:wsetlocale.obj
 0001:0004d3cc       __acrt_set_locale_changed  000000018004e3cc f   libucrt:wsetlocale.obj
 0001:0004d3d8       __acrt_uninitialize_locale 000000018004e3d8 f   libucrt:wsetlocale.obj
 0001:0004d408       __lc_lctowcs               000000018004e408 f   libucrt:wsetlocale.obj
 0001:0004d4ac       __lc_wcstolc               000000018004e4ac f   libucrt:wsetlocale.obj
 0001:0004db54       _wcscats                   000000018004eb54 f   libucrt:wsetlocale.obj
 0001:0004dbbc       _wsetlocale                000000018004ebbc f   libucrt:wsetlocale.obj
 0001:0004eb1c       _mbstowcs_s_l              000000018004fb1c f   libucrt:mbstowcs.obj
 0001:0004ec50       mbstowcs_s                 000000018004fc50 f   libucrt:mbstowcs.obj
 0001:0004ec70       strncpy_s                  000000018004fc70 f   libucrt:strncpy_s.obj
 0001:0004ed44       _query_app_type            000000018004fd44 f   libucrt:report_runtime_error.obj
 0001:0004ee70       _handle_error              000000018004fe70 f   libucrt:libm_error.obj
 0001:0004ef98       _handle_errorf             000000018004ff98 f   libucrt:libm_error.obj
 0001:0004f0cc       _handle_nan                00000001800500cc f   libucrt:libm_error.obj
 0001:0004f0e8       _handle_nanf               00000001800500e8 f   libucrt:libm_error.obj
 0001:0004f0f8       iswctype                   00000001800500f8 f   libucrt:iswctype.obj
 0001:0004f168       __acrt_wcstok_s_novalidation 0000000180050168 f   libucrt:wcstok_s.obj
 0001:0004f220       __acrt_initialize_fma3     0000000180050220 f   libucrt:fma3_available.obj
 0001:0004f290       _log10_special             0000000180050290 f   libucrt:log_special.obj
 0001:0004f350       _pow_special               0000000180050350 f   libucrt:pow_special.obj
 0001:0004f474       _powf_special              0000000180050474 f   libucrt:pow_special.obj
 0001:0004f968       _wcstombs_s_l              0000000180050968 f   libucrt:wcstombs.obj
 0001:0004fbd0       __acrt_GetLocaleInfoA      0000000180050bd0 f   libucrt:getlocaleinfoa.obj
 0001:0004fd98       __acrt_GetStringTypeA      0000000180050d98 f   libucrt:getstringtypea.obj
 0001:00050240       __acrt_LCMapStringA        0000000180051240 f   libucrt:lcmapstringa.obj
 0001:000502d8       _raise_exc                 00000001800512d8 f   libucrt:fpexcept.obj
 0001:00050300       _raise_exc_ex              0000000180051300 f   libucrt:fpexcept.obj
 0001:00050610       _raise_excf                0000000180051610 f   libucrt:fpexcept.obj
 0001:0005063c       _set_errno_from_matherr    000000018005163c f   libucrt:fpexcept.obj
 0001:0005066c       _clrfp                     000000018005166c f   libucrt:fpctrl.obj
 0001:0005068c       _ctrlfp                    000000018005168c f   libucrt:fpctrl.obj
 0001:00050708       _set_statfp                0000000180051708 f   libucrt:fpctrl.obj
 0001:00050728       _statfp                    0000000180051728 f   libucrt:fpctrl.obj
 0001:0005073c       _realloc_base              000000018005173c f   libucrt:realloc_base.obj
 0001:000507b8       _isctype_l                 00000001800517b8 f   libucrt:isctype.obj
 0001:00050908       __acrt_get_sigabrt_handler 0000000180051908 f   libucrt:signal.obj
 0001:00050938       __acrt_initialize_signal_handlers 0000000180051938 f   libucrt:signal.obj
 0001:00050958       raise                      0000000180051958 f   libucrt:signal.obj
 0001:00050bc4       __acrt_MultiByteToWideChar 0000000180051bc4 f   libucrt:multibytetowidechar.obj
 0001:00050c20       __acrt_WideCharToMultiByte 0000000180051c20 f   libucrt:widechartomultibyte.obj
 0001:00050cb8       __ascii_wcsicmp            0000000180051cb8 f   libucrt:wcsicmp.obj
 0001:00050cf8       _wcsicmp                   0000000180051cf8 f   libucrt:wcsicmp.obj
 0001:00050d40       _wcsicmp_l                 0000000180051d40 f   libucrt:wcsicmp.obj
 0001:00050e68       __acrt_initialize_timeset  0000000180051e68 f   libucrt:timeset.obj
 0001:00050eac       __acrt_get_process_end_policy 0000000180051eac f   libucrt:win_policies.obj
 0001:00050efc       ??$__acrt_wcs_to_mbs_cp@U__crt_win32_buffer_internal_dynamic_resizing@@@@YAHQEB_WAEAV?$__crt_win32_buffer@DU__crt_win32_buffer_internal_dynamic_resizing@@@@I@Z 0000000180051efc f i libucrt:argv_wildcards.obj
 0001:0005172c       __acrt_expand_narrow_argv_wildcards 000000018005272c f   libucrt:argv_wildcards.obj
 0001:00051734       __acrt_GetModuleFileNameA  0000000180052734 f   libucrt:getmodulefilenamea.obj
 0001:00051f80       __acrt_initialize_multibyte 0000000180052f80 f   libucrt:mbctype.obj
 0001:00051fe0       __acrt_update_thread_multibyte_data 0000000180052fe0 f   libucrt:mbctype.obj
 0001:00051ffc       _setmbcp_nolock            0000000180052ffc f   libucrt:mbctype.obj
 0001:00052330       _ismbblead                 0000000180053330 f   libucrt:ismbbyte.obj
 0001:00052344       __acrt_initialize_command_line 0000000180053344 f   libucrt:argv_data.obj
 0001:0005236c       __dcrt_get_narrow_environment_from_os 000000018005336c f   libucrt:get_environment_from_os.obj
 0001:00052470       _recalloc_base             0000000180053470 f   libucrt:recalloc.obj
 0001:00052508       __acrt_initialize_heap     0000000180053508 f   libucrt:heap_handle.obj
 0001:00052524       __acrt_uninitialize_heap   0000000180053524 f   libucrt:heap_handle.obj
 0001:00052530       __acrt_execute_initializers 0000000180053530 f   libucrt:shared_initialization.obj
 0001:000525b0       __acrt_execute_uninitializers 00000001800535b0 f   libucrt:shared_initialization.obj
 0001:000525ec       __acrt_has_user_matherr    00000001800535ec f   libucrt:matherr.obj
 0001:0005260c       __acrt_initialize_user_matherr 000000018005360c f   libucrt:matherr.obj
 0001:00052614       __acrt_invoke_user_matherr 0000000180053614 f   libucrt:matherr.obj
 0001:00052644       __acrt_add_locale_ref      0000000180053644 f   libucrt:locale_refcounting.obj
 0001:000526d0       __acrt_free_locale         00000001800536d0 f   libucrt:locale_refcounting.obj
 0001:00052848       __acrt_locale_add_lc_time_reference 0000000180053848 f   libucrt:locale_refcounting.obj
 0001:00052870       __acrt_locale_free_lc_time_if_unreferenced 0000000180053870 f   libucrt:locale_refcounting.obj
 0001:000528a8       __acrt_locale_release_lc_time_reference 00000001800538a8 f   libucrt:locale_refcounting.obj
 0001:000528d0       __acrt_release_locale_ref  00000001800538d0 f   libucrt:locale_refcounting.obj
 0001:00052978       __acrt_update_thread_locale_data 0000000180053978 f   libucrt:locale_refcounting.obj
 0001:000529e4       _updatetlocinfoEx_nolock   00000001800539e4 f   libucrt:locale_refcounting.obj
 0001:00052a4c       __acrt_fenv_get_control    0000000180053a4c f   libucrt:_fenvutils.obj
 0001:00052b40       __acrt_fenv_get_status     0000000180053b40 f   libucrt:_fenvutils.obj
 0001:00052b94       __acrt_fenv_set_control    0000000180053b94 f   libucrt:_fenvutils.obj
 0001:00052cdc       __acrt_fenv_set_status     0000000180053cdc f   libucrt:_fenvutils.obj
 0001:00052d60       _query_new_mode            0000000180053d60 f   libucrt:new_mode.obj
 0001:00052d68       __acrt_DownlevelLCIDToLocaleName 0000000180053d68 f   libucrt:lcidtoname_downlevel.obj
 0001:00052e5c       __acrt_DownlevelLocaleNameToLCID 0000000180053e5c f   libucrt:lcidtoname_downlevel.obj
 0001:00052f0c       _fclose_nolock             0000000180053f0c f   libucrt:fclose.obj
 0001:00052f90       fclose                     0000000180053f90 f   libucrt:fclose.obj
 0001:00053080       _commit                    0000000180054080 f   libucrt:commit.obj
 0001:000531b0       _lseeki64_nolock           00000001800541b0 f   libucrt:lseek.obj
 0001:000531b8       ?__mbrtowc_utf8@__crt_mbstring@@YA_KPEA_WPEBD_KPEAU_Mbstatet@@@Z 00000001800541b8 f   libucrt:mbrtowc.obj
 0001:000531f4       ?__mbsrtowcs_utf8@__crt_mbstring@@YA_KPEA_WPEAPEBD_KPEAU_Mbstatet@@@Z 00000001800541f4 f   libucrt:mbrtowc.obj
 0001:0005336c       _putwch_nolock             000000018005436c f   libucrt:putwch.obj
 0001:000533a8       ?__c32rtomb_utf8@__crt_mbstring@@YA_KPEAD_UPEAU_Mbstatet@@@Z 00000001800543a8 f   libucrt:c32rtomb.obj
 0001:0005345c       c32rtomb                   000000018005445c f   libucrt:c32rtomb.obj
 0001:00053464       __acrt_fp_strflt_to_string 0000000180054464 f   libucrt:_fptostr.obj
 0001:00053548       __acrt_fltout              0000000180054548 f   libucrt:cfout.obj
 0001:0005477c       __acrt_locale_free_monetary 000000018005577c f   libucrt:initmon.obj
 0001:00054888       __acrt_locale_initialize_monetary 0000000180055888 f   libucrt:initmon.obj
 0001:00054dbc       __acrt_locale_free_numeric 0000000180055dbc f   libucrt:initnum.obj
 0001:00054e28       __acrt_locale_initialize_numeric 0000000180055e28 f   libucrt:initnum.obj
 0001:000554a8       __acrt_locale_free_time    00000001800564a8 f   libucrt:inittime.obj
 0001:000555b0       __acrt_locale_initialize_time 00000001800565b0 f   libucrt:inittime.obj
 0001:0005564c       wcscat_s                   000000018005664c f   libucrt:wcscat_s.obj
 0001:000556cc       wcsncat_s                  00000001800566cc f   libucrt:wcsncat_s.obj
 0001:000557cc       wcsncpy_s                  00000001800567cc f   libucrt:wcsncpy_s.obj
 0001:00056064       __acrt_get_qualified_locale 0000000180057064 f   libucrt:get_qualified_locale.obj
 0001:00056a98       __acrt_get_qualified_locale_downlevel 0000000180057a98 f   libucrt:getqloc_downlevel.obj
 0001:00056d18       __acrt_GetStringTypeW      0000000180057d18 f   libucrt:getstringtypew.obj
 0001:00056d20       ?__wcsrtombs_utf8@__crt_mbstring@@YA_KPEADPEAPEB_W_KPEAU_Mbstatet@@@Z 0000000180057d20 f   libucrt:wcrtomb.obj
 0001:00056e50       _get_fpsr                  0000000180057e50 f   libucrt:fpsr.obj
 0001:00056e60       _set_fpsr                  0000000180057e60 f   libucrt:fpsr.obj
 0001:00056e6a       _fclrf                     0000000180057e6a f   libucrt:fpsr.obj
 0001:00056e7e       _frnd                      0000000180057e7e f   libucrt:fpsr.obj
 0001:00056ea0       _towlower_l                0000000180057ea0 f   libucrt:towlower.obj
 0001:00056f60       qsort                      0000000180057f60 f   libucrt:qsort.obj
 0001:000573b0       strpbrk                    00000001800583b0 f   libucrt:strpbrk.obj
 0001:00057790       _mbsdec                    0000000180058790 f   libucrt:mbsdec.obj
 0001:00057798       _mbsdec_l                  0000000180058798 f   libucrt:mbsdec.obj
 0001:00057844       _msize_base                0000000180058844 f   libucrt:msize.obj
 0001:00057880       __ascii_wcsnicmp           0000000180058880 f   libucrt:wcsnicmp.obj
 0001:000578cc       _wcsnicmp                  00000001800588cc f   libucrt:wcsnicmp.obj
 0001:00057914       _wcsnicmp_l                0000000180058914 f   libucrt:wcsnicmp.obj
 0001:00057ad8       _close                     0000000180058ad8 f   libucrt:close.obj
 0001:00057b7c       _close_nolock              0000000180058b7c f   libucrt:close.obj
 0001:00057c3c       ?__acrt_stdio_free_stream@@YAXV__crt_stdio_stream@@@Z 0000000180058c3c f   libucrt:stream.obj
 0001:00057c58       ?__mbrtoc32_utf8@__crt_mbstring@@YA_KPEA_UPEBD_KPEAU_Mbstatet@@@Z 0000000180058c58 f   libucrt:mbrtoc32.obj
 0001:00057e34       __dcrt_lowio_ensure_console_output_initialized 0000000180058e34 f   libucrt:initcon.obj
 0001:00057e88       __dcrt_terminate_console_output 0000000180058e88 f   libucrt:initcon.obj
 0001:00057ea4       __dcrt_write_console       0000000180058ea4 f   libucrt:initcon.obj
 0001:00057f64       fegetenv                   0000000180058f64 f   libucrt:fegetenv.obj
 0001:00057f84       fesetenv                   0000000180058f84 f   libucrt:fesetenv.obj
 0001:00057fd0       feholdexcept               0000000180058fd0 f   libucrt:feholdexcept.obj
 0001:00058020       ceil                       0000000180059020 f   libucrt:ceil.obj
 0001:00058224       _itow_s                    0000000180059224 f   libucrt:xtoa.obj
 0001:00058244       wcscmp                     0000000180059244 f   libucrt:wcscmp.obj
 0001:0005827c       ?__c16rtomb_utf8@__crt_mbstring@@YA_KPEAD_SPEAU_Mbstatet@@@Z 000000018005927c f   libucrt:c16rtomb.obj
 0001:00058324       __acrt_LCMapStringW        0000000180059324 f   libucrt:lcmapstringw.obj
 0001:000583ac       _clearfp                   00000001800593ac f   libucrt:ieee.obj
 0001:0005841a       IsProcessorFeaturePresent  000000018005941a f   kernel32:KERNEL32.dll
 0001:00058420       _FindPESection             0000000180059420 f   LIBCMT:pesect.obj
 0001:00058470       _IsNonwritableInCurrentImage 0000000180059470 f   LIBCMT:pesect.obj
 0001:000584c0       _ValidateImageBase         00000001800594c0 f   LIBCMT:pesect.obj
 0001:000584f0       __GSHandlerCheck_SEH       00000001800594f0 f   LIBCMT:gshandlerseh.obj
 0001:00058578       strrchr                    0000000180059578 f   libvcruntime:strrchr.obj
 0001:000586c0       _guard_dispatch_icall_nop  00000001800596c0 f   LIBCMT:guard_dispatch.obj
 0001:0005e0e8       _TI3?AVbad_array_new_length@std@@ 000000018005f0e8     format.obj
 0001:0005e108       _CTA3?AVbad_array_new_length@std@@ 000000018005f108     format.obj
 0001:0005e128       _CT??_R0?AVbad_array_new_length@std@@@8??0bad_array_new_length@std@@QEAA@AEBV01@@Z24 000000018005f128     format.obj
 0001:0005e150       _CT??_R0?AVbad_alloc@std@@@8??0bad_alloc@std@@QEAA@AEBV01@@Z24 000000018005f150     format.obj
 0001:0005e178       _CT??_R0?AVexception@std@@@8??0exception@std@@QEAA@AEBV01@@Z24 000000018005f178     format.obj
 0001:0005e1a0       _TI2?AVbad_cast@std@@      000000018005f1a0     format.obj
 0001:0005e1c0       _CTA2?AVbad_cast@std@@     000000018005f1c0     format.obj
 0001:0005e1d8       _CT??_R0?AVbad_cast@std@@@8??0bad_cast@std@@QEAA@AEBV01@@Z24 000000018005f1d8     format.obj
 0001:0005e200       _CT??_R0?AVruntime_error@std@@@8??0runtime_error@std@@QEAA@AEBV01@@Z24 000000018005f200     format.obj
 0001:0005e228       _TI2?AVruntime_error@std@@ 000000018005f228     format.obj
 0001:0005e248       _CTA2?AVruntime_error@std@@ 000000018005f248     format.obj
 0001:0005e260       _TI3?AVformat_error@v7@fmt@@ 000000018005f260     format.obj
 0001:0005e280       _CTA3?AVformat_error@v7@fmt@@ 000000018005f280     format.obj
 0001:0005e2a0       _CT??_R0?AVformat_error@v7@fmt@@@8??0format_error@v7@fmt@@QEAA@AEBV012@@Z24 000000018005f2a0     format.obj
 0001:0005e2c8       _TI2?AVbad_alloc@std@@     000000018005f2c8     libcpmt:xthrow.obj
 0001:0005e2e8       _CTA2?AVbad_alloc@std@@    000000018005f2e8     libcpmt:xthrow.obj
 0001:0005e300       _CT??_R0?AVlogic_error@std@@@8??0logic_error@std@@QEAA@AEBV01@@Z24 000000018005f300     libcpmt:xthrow.obj
 0001:0005e328       _TI3?AVlength_error@std@@  000000018005f328     libcpmt:xthrow.obj
 0001:0005e348       _CTA3?AVlength_error@std@@ 000000018005f348     libcpmt:xthrow.obj
 0001:0005e368       _CT??_R0?AVlength_error@std@@@8??0length_error@std@@QEAA@AEBV01@@Z24 000000018005f368     libcpmt:xthrow.obj
 0001:0005e390       _TI3?AVout_of_range@std@@  000000018005f390     libcpmt:xthrow.obj
 0001:0005e3b0       _CTA3?AVout_of_range@std@@ 000000018005f3b0     libcpmt:xthrow.obj
 0001:0005e3d0       _CT??_R0?AVout_of_range@std@@@8??0out_of_range@std@@QEAA@AEBV01@@Z24 000000018005f3d0     libcpmt:xthrow.obj
 0001:0005e3f8       _TI2?AVbad_function_call@std@@ 000000018005f3f8     libcpmt:xthrow.obj
 0001:0005e418       _CTA2?AVbad_function_call@std@@ 000000018005f418     libcpmt:xthrow.obj
 0001:0005e430       _CT??_R0?AVbad_function_call@std@@@8??0bad_function_call@std@@QEAA@AEBV01@@Z24 000000018005f430     libcpmt:xthrow.obj
 0001:0005e458       _TI2?AVbad_exception@std@@ 000000018005f458     libvcruntime:frame.obj
 0001:0005e478       _CTA2?AVbad_exception@std@@ 000000018005f478     libvcruntime:frame.obj
 0001:0005e490       _CT??_R0?AVbad_exception@std@@@8??0bad_exception@std@@QEAA@AEBV01@@Z24 000000018005f490     libvcruntime:frame.obj
 0002:00000000       ?instantiate_format_float@v7@fmt@@3P6AHNHUfloat_specs@detail@12@AEAV?$buffer@D@412@@ZEA 0000000180060000     format.obj
 0002:00000010       ?dragonbox_pow10_significands_128@?$basic_data@X@detail@v7@fmt@@2QBUuint128_wrapper@234@B 0000000180060010     format.obj
 0002:000001f8       ?pNtQueryInformationProcess@@3P6AJPEAXW4_PROCESSINFOCLASS@@0KPEAK@ZEA 00000001800601f8     Proclist.obj
 0002:00000200       ?pNtQueryInformationThread@@3P6AJPEAXK0KPEAK@ZEA 0000000180060200     Proclist.obj
 0002:00000208       ?pNtQueryObject@@3P6AJPEAXK0K0@ZEA 0000000180060208     Proclist.obj
 0002:00000210       ?pNtQuerySystemInformation@@3P6AJKPEAXKPEAK@ZEA 0000000180060210     Proclist.obj
 0002:00000218       ?pNtQueryInformationFile@@3P6AJPEAX00KK@ZEA 0000000180060218     Proclist.obj
 0002:00000220       ?pNtWow64QueryInformationProcess64@@3P6AJPEAXW4_PROCESSINFOCLASS@@0KPEAK@ZEA 0000000180060220     Proclist.obj
 0002:00000228       ?pNtWow64ReadVirtualMemory64@@3P6AJPEAX_K01PEA_K@ZEA 0000000180060228     Proclist.obj
 0002:00000230       ?pIsValidSid@@3P6AHPEAX@ZEA 0000000180060230     Proclist.obj
 0002:00000238       ?pGetSidIdentifierAuthority@@3P6APEAU_SID_IDENTIFIER_AUTHORITY@@PEAX@ZEA 0000000180060238     Proclist.obj
 0002:00000240       ?pGetSidSubAuthorityCount@@3P6APEAEPEAX@ZEA 0000000180060240     Proclist.obj
 0002:00000248       ?pGetSidSubAuthority@@3P6APEAKPEAXK@ZEA 0000000180060248     Proclist.obj
 0002:00000250       ?pIsWow64Process@@3P6AHPEAXPEAH@ZEA 0000000180060250     Proclist.obj
 0002:00000258       ?pGetGuiResources@@3P6AKPEAXK@ZEA 0000000180060258     Proclist.obj
 0002:00000260       ?pCoSetProxyBlanket@@3P6AJPEAUIUnknown@@KKPEA_WKKPEAXK@ZEA 0000000180060260     Proclist.obj
 0002:00000268       ?pEnumProcessModulesEx@@3P6AHPEAXPEAPEAUHINSTANCE__@@KPEAKK@ZEA 0000000180060268     Proclist.obj
 0002:00000280       __scrt_native_dllmain_reason 0000000180060280     LIBCMT:utility.obj
 0002:00000284       __do_unsigned_char_lconv_initialization 0000000180060284     LIBCMT:lconv_unsigned_char.obj
 0002:00000288       _fltused                   0000000180060288     LIBCMT:fltused.obj
 0002:00000290       __security_cookie_complement 0000000180060290     LIBCMT:gs_cookie.obj
 0002:00000298       __security_cookie          0000000180060298     LIBCMT:gs_cookie.obj
 0002:000002a0       __isa_available            00000001800602a0     LIBCMT:cpu_disp.obj
 0002:000002a4       __isa_enabled              00000001800602a4     LIBCMT:cpu_disp.obj
 0002:000002a8       __memcpy_nt_iters          00000001800602a8     LIBCMT:cpu_disp.obj
 0002:000002b0       __memset_nt_iters          00000001800602b0     LIBCMT:cpu_disp.obj
 0002:000002e0       _iob                       00000001800602e0     libucrt:_file.obj
 0002:000003f0       __acrt_lconv_c             00000001800603f0     libucrt:localeconv.obj
 0002:00000488       __acrt_lconv               0000000180060488     libucrt:localeconv.obj
 0002:00000490       __acrt_lconv_static_decimal 0000000180060490     libucrt:localeconv.obj
 0002:00000494       __acrt_lconv_static_W_decimal 0000000180060494     libucrt:localeconv.obj
 0002:000004a0       _pctype                    00000001800604a0     libucrt:ctype.obj
 0002:000004a8       _pwctype                   00000001800604a8     libucrt:ctype.obj
 0002:000004b0       __abort_behavior           00000001800604b0     libucrt:abort.obj
 0002:000004d0       __acrt_initial_locale_data 00000001800604d0     libucrt:nlsdata.obj
 0002:00000628       __acrt_initial_locale_pointers 0000000180060628     libucrt:nlsdata.obj
 0002:00000638       __acrt_wide_c_locale_string 0000000180060638     libucrt:nlsdata.obj
 0002:0000063c       __mb_cur_max               000000018006063c     libucrt:nlsdata.obj
 0002:00000640       __globallocalestatus       0000000180060640     libucrt:glstatus.obj
 0002:000006e0       __acrt_initial_multibyte_data 00000001800606e0     libucrt:mbctype.obj
 0002:00000c20       _lookuptrailbytes          0000000180060c20     libucrt:read.obj
 0002:00000d30       ??_R0?AVbad_array_new_length@std@@@8 0000000180060d30     format.obj
 0002:00000d60       ??_R0?AVbad_alloc@std@@@8  0000000180060d60     format.obj
 0002:00000d88       ??_R0?AVexception@std@@@8  0000000180060d88     format.obj
 0002:00000db0       ??_R0?AVbad_cast@std@@@8   0000000180060db0     format.obj
 0002:00000dd8       ??_R0?AVruntime_error@std@@@8 0000000180060dd8     format.obj
 0002:00000e00       ??_R0?AVformat_error@v7@fmt@@@8 0000000180060e00     format.obj
 0002:00000e30       ??_R0?AV<lambda_c6a5923e4ab0669d9f7c2a6c892502eb>@@@8 0000000180060e30     Plist.obj
 0002:00000f30       ??_R0?AVlogic_error@std@@@8 0000000180060f30     libcpmt:xthrow.obj
 0002:00000f58       ??_R0?AVlength_error@std@@@8 0000000180060f58     libcpmt:xthrow.obj
 0002:00000f80       ??_R0?AVout_of_range@std@@@8 0000000180060f80     libcpmt:xthrow.obj
 0002:00000fa8       ??_R0?AVbad_function_call@std@@@8 0000000180060fa8     libcpmt:xthrow.obj
 0002:00000fd8       ??_R0?AV_Facet_base@std@@@8 0000000180060fd8     libcpmt:locale0.obj
 0002:00001000       ??_R0?AV_Locimp@locale@std@@@8 0000000180061000     libcpmt:locale0.obj
 0002:00001030       ??_R0?AVfacet@locale@std@@@8 0000000180061030     libcpmt:locale0.obj
 0002:00001058       ??_R0?AU_Crt_new_delete@std@@@8 0000000180061058     libcpmt:locale0.obj
 0002:00001088       ??_R0?AV?$numpunct@_W@std@@@8 0000000180061088     libcpmt:wlocale.obj
 0002:000010b0       ??_R0?AVtype_info@@@8      00000001800610b0     LIBCMT:std_type_info_static.obj
 0002:000010d0       ??_R0?AVbad_exception@std@@@8 00000001800610d0     libvcruntime:frame.obj
 0002:00001100       ?m_PanelModesDataLocal@Plist@@0V?$vector@Umode@@V?$allocator@Umode@@@std@@@std@@A 0000000180061100     fileio.obj
 0002:00001118       ?m_PanelModesDataRemote@Plist@@0V?$vector@Umode@@V?$allocator@Umode@@@std@@@std@@A 0000000180061118     fileio.obj
 0002:00001130       ?_OptionsStorage@?1??__local_stdio_printf_options@@9@4_KA 0000000180061130     format.obj
 0002:00001138       ?id@?$numpunct@_W@std@@2V0locale@2@A 0000000180061138     format.obj
 0002:00001140       ?id@?$numpunct@D@std@@2V0locale@2@A 0000000180061140     format.obj
 0002:00001148       ?_Psave@?$_Facetptr@V?$numpunct@_W@std@@@std@@2PEBVfacet@locale@2@EB 0000000180061148     format.obj
 0002:00001178       ?specs@?1???$write@_WV?$buffer_appender@_W@detail@v7@fmt@@M$0A@@detail@v7@fmt@@YA?AV?$buffer_appender@_W@123@V4123@M@Z@4U?$basic_format_specs@_W@23@B 0000000180061178     handles.obj
 0002:00001194       ??_B?1???$write@_WV?$buffer_appender@_W@detail@v7@fmt@@M$0A@@detail@v7@fmt@@YA?AV?$buffer_appender@_W@012@V3012@M@Z@51 0000000180061194     handles.obj
 0002:00001198       ?specs@?1???$write@_WV?$buffer_appender@_W@detail@v7@fmt@@N$0A@@detail@v7@fmt@@YA?AV?$buffer_appender@_W@123@V4123@N@Z@4U?$basic_format_specs@_W@23@B 0000000180061198     handles.obj
 0002:000011b4       ??_B?1???$write@_WV?$buffer_appender@_W@detail@v7@fmt@@N$0A@@detail@v7@fmt@@YA?AV?$buffer_appender@_W@012@V3012@N@Z@51 00000001800611b4     handles.obj
 0002:000011b8       ?specs@?1???$write@_WV?$buffer_appender@_W@detail@v7@fmt@@O$0A@@detail@v7@fmt@@YA?AV?$buffer_appender@_W@123@V4123@O@Z@4U?$basic_format_specs@_W@23@B 00000001800611b8     handles.obj
 0002:000011d4       ??_B?1???$write@_WV?$buffer_appender@_W@detail@v7@fmt@@O$0A@@detail@v7@fmt@@YA?AV?$buffer_appender@_W@012@V3012@O@Z@51 00000001800611d4     handles.obj
 0002:00002850       ?Info@@3UPluginStartupInfo@@A 0000000180062850     Proclist.obj
 0002:00002968       ?Opt@@3Uoptions@@A         0000000180062968     Proclist.obj
 0002:00002990       ?FSF@@3UFarStandardFunctions@@A 0000000180062990     Proclist.obj
 0002:00002c90       ?_Id_cnt@id@locale@std@@0HA 0000000180062c90     libcpmt:locale0.obj
 0002:00002c98       ?_Clocptr@_Locimp@locale@std@@0PEAV123@EA 0000000180062c98     libcpmt:locale0.obj
 0002:00002ca0       ?id@?$ctype@_W@std@@2V0locale@2@A 0000000180062ca0     libcpmt:locale0.obj
 0002:00002ca8       ?id@?$ctype@D@std@@2V0locale@2@A 0000000180062ca8     libcpmt:locale0.obj
 0002:00002cb0       ?id@?$codecvt@GDU_Mbstatet@@@std@@2V0locale@2@A 0000000180062cb0     libcpmt:locale0.obj
 0002:00002cb8       ?id@?$ctype@G@std@@2V0locale@2@A 0000000180062cb8     libcpmt:locale0.obj
 0002:00002cd0       ?id@?$codecvt@_WDU_Mbstatet@@@std@@2V0locale@2@A 0000000180062cd0     libcpmt:locale0.obj
 0002:00002cf8       ?id@?$num_get@DV?$istreambuf_iterator@DU?$char_traits@D@std@@@std@@@std@@2V0locale@2@A 0000000180062cf8     libcpmt:locale.obj
 0002:00002d00       ?id@?$num_put@DV?$ostreambuf_iterator@DU?$char_traits@D@std@@@std@@@std@@2V0locale@2@A 0000000180062d00     libcpmt:locale.obj
 0002:00002d08       ?id@?$codecvt@DDU_Mbstatet@@@std@@2V0locale@2@A 0000000180062d08     libcpmt:locale.obj
 0002:00002d10       ?_Ptr_cin@std@@3PEAV?$basic_istream@DU?$char_traits@D@std@@@1@EA 0000000180062d10     libcpmt:iosptrs.obj
 0002:00002d18       ?_Ptr_cout@std@@3PEAV?$basic_ostream@DU?$char_traits@D@std@@@1@EA 0000000180062d18     libcpmt:iosptrs.obj
 0002:00002d20       ?_Ptr_cerr@std@@3PEAV?$basic_ostream@DU?$char_traits@D@std@@@1@EA 0000000180062d20     libcpmt:iosptrs.obj
 0002:00002d28       ?_Ptr_clog@std@@3PEAV?$basic_ostream@DU?$char_traits@D@std@@@1@EA 0000000180062d28     libcpmt:iosptrs.obj
 0002:00002d30       ?_Ptr_wcin@std@@3PEAV?$basic_istream@_WU?$char_traits@_W@std@@@1@EA 0000000180062d30     libcpmt:iosptrs.obj
 0002:00002d38       ?_Ptr_wcout@std@@3PEAV?$basic_ostream@_WU?$char_traits@_W@std@@@1@EA 0000000180062d38     libcpmt:iosptrs.obj
 0002:00002d40       ?_Ptr_wcerr@std@@3PEAV?$basic_ostream@_WU?$char_traits@_W@std@@@1@EA 0000000180062d40     libcpmt:iosptrs.obj
 0002:00002d48       ?_Ptr_wclog@std@@3PEAV?$basic_ostream@_WU?$char_traits@_W@std@@@1@EA 0000000180062d48     libcpmt:iosptrs.obj
 0002:00002db0       __KERNEL32Functions        0000000180062db0     libcpmt:winapisupp.obj
 0002:00002ef0       ?id@?$time_put@_WV?$ostreambuf_iterator@_WU?$char_traits@_W@std@@@std@@@std@@2V0locale@2@A 0000000180062ef0     libcpmt:wlocale.obj
 0002:00002ef8       ?id@?$num_get@_WV?$istreambuf_iterator@_WU?$char_traits@_W@std@@@std@@@std@@2V0locale@2@A 0000000180062ef8     libcpmt:wlocale.obj
 0002:00002f00       ?id@?$num_put@_WV?$ostreambuf_iterator@_WU?$char_traits@_W@std@@@std@@@std@@2V0locale@2@A 0000000180062f00     libcpmt:wlocale.obj
 0002:00002f08       ?id@?$collate@_W@std@@2V0locale@2@A 0000000180062f08     libcpmt:wlocale.obj
 0002:00002f10       ?id@?$messages@_W@std@@2V0locale@2@A 0000000180062f10     libcpmt:wlocale.obj
 0002:00002f18       ?id@?$money_get@_WV?$istreambuf_iterator@_WU?$char_traits@_W@std@@@std@@@std@@2V0locale@2@A 0000000180062f18     libcpmt:wlocale.obj
 0002:00002f20       ?id@?$money_put@_WV?$ostreambuf_iterator@_WU?$char_traits@_W@std@@@std@@@std@@2V0locale@2@A 0000000180062f20     libcpmt:wlocale.obj
 0002:00002f28       ?id@?$moneypunct@_W$0A@@std@@2V0locale@2@A 0000000180062f28     libcpmt:wlocale.obj
 0002:00002f30       ?id@?$moneypunct@_W$00@std@@2V0locale@2@A 0000000180062f30     libcpmt:wlocale.obj
 0002:00002f38       ?id@?$time_get@_WV?$istreambuf_iterator@_WU?$char_traits@_W@std@@@std@@@std@@2V0locale@2@A 0000000180062f38     libcpmt:wlocale.obj
 0002:00002f40       ?id@?$num_get@GV?$istreambuf_iterator@GU?$char_traits@G@std@@@std@@@std@@2V0locale@2@A 0000000180062f40     libcpmt:wlocale.obj
 0002:00002f48       ?id@?$num_put@GV?$ostreambuf_iterator@GU?$char_traits@G@std@@@std@@@std@@2V0locale@2@A 0000000180062f48     libcpmt:wlocale.obj
 0002:00002f50       ?id@?$numpunct@G@std@@2V0locale@2@A 0000000180062f50     libcpmt:wlocale.obj
 0002:00002f58       ?id@?$collate@G@std@@2V0locale@2@A 0000000180062f58     libcpmt:wlocale.obj
 0002:00002f60       ?id@?$messages@G@std@@2V0locale@2@A 0000000180062f60     libcpmt:wlocale.obj
 0002:00002f68       ?id@?$money_get@GV?$istreambuf_iterator@GU?$char_traits@G@std@@@std@@@std@@2V0locale@2@A 0000000180062f68     libcpmt:wlocale.obj
 0002:00002f70       ?id@?$money_put@GV?$ostreambuf_iterator@GU?$char_traits@G@std@@@std@@@std@@2V0locale@2@A 0000000180062f70     libcpmt:wlocale.obj
 0002:00002f78       ?id@?$moneypunct@G$0A@@std@@2V0locale@2@A 0000000180062f78     libcpmt:wlocale.obj
 0002:00002f80       ?id@?$moneypunct@G$00@std@@2V0locale@2@A 0000000180062f80     libcpmt:wlocale.obj
 0002:00002f88       ?id@?$time_get@GV?$istreambuf_iterator@GU?$char_traits@G@std@@@std@@@std@@2V0locale@2@A 0000000180062f88     libcpmt:wlocale.obj
 0002:00002f90       ?id@?$time_put@GV?$ostreambuf_iterator@GU?$char_traits@G@std@@@std@@@std@@2V0locale@2@A 0000000180062f90     libcpmt:wlocale.obj
 0002:00002f98       ?id@?$collate@D@std@@2V0locale@2@A 0000000180062f98     libcpmt:xlocale.obj
 0002:00002fa0       ?id@?$messages@D@std@@2V0locale@2@A 0000000180062fa0     libcpmt:xlocale.obj
 0002:00002fa8       ?id@?$money_get@DV?$istreambuf_iterator@DU?$char_traits@D@std@@@std@@@std@@2V0locale@2@A 0000000180062fa8     libcpmt:xlocale.obj
 0002:00002fb0       ?id@?$money_put@DV?$ostreambuf_iterator@DU?$char_traits@D@std@@@std@@@std@@2V0locale@2@A 0000000180062fb0     libcpmt:xlocale.obj
 0002:00002fb8       ?id@?$moneypunct@D$0A@@std@@2V0locale@2@A 0000000180062fb8     libcpmt:xlocale.obj
 0002:00002fc0       ?id@?$moneypunct@D$00@std@@2V0locale@2@A 0000000180062fc0     libcpmt:xlocale.obj
 0002:00002fc8       ?id@?$time_get@DV?$istreambuf_iterator@DU?$char_traits@D@std@@@std@@@std@@2V0locale@2@A 0000000180062fc8     libcpmt:xlocale.obj
 0002:00002fd0       ?id@?$time_put@DV?$ostreambuf_iterator@DU?$char_traits@D@std@@@std@@@std@@2V0locale@2@A 0000000180062fd0     libcpmt:xlocale.obj
 0002:00002fd8       __scrt_current_native_startup_state 0000000180062fd8     LIBCMT:utility.obj
 0002:00002fe0       __scrt_native_startup_lock 0000000180062fe0     LIBCMT:utility.obj
 0002:00003024       __favor                    0000000180063024     LIBCMT:cpu_disp.obj
 0002:00003028       __scrt_debugger_hook_flag  0000000180063028     LIBCMT:utility_desktop.obj
 0002:00003030       ?__type_info_root_node@@3U__type_info_node@@A 0000000180063030     LIBCMT:tncleanup.obj
 0002:00003040       ?_OptionsStorage@?1??__local_stdio_scanf_options@@9@4_KA 0000000180063040     LIBCMT:default_local_stdio_options.obj
 0002:000035c0       ?__WinRTOutOfMemoryExceptionCallback@@3P6APEAXXZEA 00000001800635c0     libvcruntime:ehhelpers.obj
 0002:000035c8       __pPurecall                00000001800635c8     libvcruntime:purevirt_data.obj
 0002:00003680       ?pArgList@UnDecorator@@0PEAVReplicator@@EA 0000000180063680     libvcruntime:undname.obj
 0002:00003688       ?pZNameList@UnDecorator@@0PEAVReplicator@@EA 0000000180063688     libvcruntime:undname.obj
 0002:00003690       ?pTemplateArgList@UnDecorator@@0PEAVReplicator@@EA 0000000180063690     libvcruntime:undname.obj
 0002:00003698       ?gName@UnDecorator@@0PEBDEB 0000000180063698     libvcruntime:undname.obj
 0002:000036a0       ?name@UnDecorator@@0PEBDEB 00000001800636a0     libvcruntime:undname.obj
 0002:000036a8       ?disableFlags@UnDecorator@@0KA 00000001800636a8     libvcruntime:undname.obj
 0002:000036ac       ?fExplicitTemplateParams@UnDecorator@@0_NA 00000001800636ac     libvcruntime:undname.obj
 0002:000036ad       ?fGetTemplateArgumentList@UnDecorator@@0_NA 00000001800636ad     libvcruntime:undname.obj
 0002:000036b0       ?m_pGetParameter@UnDecorator@@0P6APEADJ@ZEA 00000001800636b0     libvcruntime:undname.obj
 0002:000036b8       ?m_CHPENameOffset@UnDecorator@@0KA 00000001800636b8     libvcruntime:undname.obj
 0002:000036bc       ?m_recursionLevel@UnDecorator@@0KA 00000001800636bc     libvcruntime:undname.obj
 0002:00003730       _nstream                   0000000180063730     libucrt:_file.obj
 0002:00003738       __piob                     0000000180063738     libucrt:_file.obj
 0002:00003740       __acrt_lconv_static_null   0000000180063740     libucrt:localeconv.obj
 0002:00003744       __acrt_lconv_static_W_null 0000000180063744     libucrt:localeconv.obj
 0002:00003990       ?c_exit_complete@?1???R<lambda_6e4b09c48022b2350581041d5f6b0c4c>@@QEBA@XZ@4_NA 0000000180063990     libucrt:exit.obj
 0002:00003aa8       _environ_table             0000000180063aa8     libucrt:environment_initialization.obj
 0002:00003ab0       _wenviron_table            0000000180063ab0     libucrt:environment_initialization.obj
 0002:00003ab8       __dcrt_initial_wide_environment 0000000180063ab8     libucrt:environment_initialization.obj
 0002:00003ac0       __dcrt_initial_narrow_environment 0000000180063ac0     libucrt:environment_initialization.obj
 0002:00003ac8       __acrt_atexit_table        0000000180063ac8     libucrt:onexit.obj
 0002:00003ae0       __acrt_at_quick_exit_table 0000000180063ae0     libucrt:onexit.obj
 0002:00003cc0       __pioinfo                  0000000180063cc0     libucrt:ioinit.obj
 0002:000040c0       _nhandle                   00000001800640c0     libucrt:ioinit.obj
 0002:000040c8       __acrt_stdout_buffer       00000001800640c8     libucrt:_sftbuf.obj
 0002:000040d0       __acrt_stderr_buffer       00000001800640d0     libucrt:_sftbuf.obj
 0002:000040e8       __acrt_locale_changed_data 00000001800640e8     libucrt:wsetlocale.obj
 0002:000040f0       __acrt_current_locale_data 00000001800640f0     libucrt:nlsdata.obj
 0002:000040fc       __fma3_is_available        00000001800640fc     libucrt:fma3_available.obj
 0002:00004100       __use_fma3_lib             0000000180064100     libucrt:fma3_available.obj
 0002:00004128       ?_timezone@@3V?$dual_state_global@J@__crt_state_management@@A 0000000180064128     libucrt:timeset.obj
 0002:0000412c       ?_daylight@@3V?$dual_state_global@H@__crt_state_management@@A 000000018006412c     libucrt:timeset.obj
 0002:00004130       ?_dstbias@@3V?$dual_state_global@J@__crt_state_management@@A 0000000180064130     libucrt:timeset.obj
 0002:00004200       _mbctype                   0000000180064200     libucrt:mbctype.obj
 0002:00004208       _mbcasemap                 0000000180064208     libucrt:mbctype.obj
 0002:00004210       __acrt_current_multibyte_data 0000000180064210     libucrt:mbctype.obj
 0002:00004220       _pgmptr                    0000000180064220     libucrt:argv_data.obj
 0002:00004228       __argc                     0000000180064228     libucrt:argv_data.obj
 0002:00004230       __argv                     0000000180064230     libucrt:argv_data.obj
 0002:00004238       __wargv                    0000000180064238     libucrt:argv_data.obj
 0002:00004240       _acmdln                    0000000180064240     libucrt:argv_data.obj
 0002:00004248       _wcmdln                    0000000180064248     libucrt:argv_data.obj
 0002:00004250       __acrt_heap                0000000180064250     libucrt:heap_handle.obj
 0002:00004278       __dyn_tls_init_callback    0000000180064278     <common>
 0002:00004280       __scrt_ucrt_dll_is_in_use  0000000180064280     <common>
 0004:00000000       __imp_LookupPrivilegeValueW 0000000180069000     advapi32:ADVAPI32.dll
 0004:00000008       __imp_DuplicateTokenEx     0000000180069008     advapi32:ADVAPI32.dll
 0004:00000010       __imp_AdjustTokenPrivileges 0000000180069010     advapi32:ADVAPI32.dll
 0004:00000018       __imp_OpenThreadToken      0000000180069018     advapi32:ADVAPI32.dll
 0004:00000020       __imp_OpenProcessToken     0000000180069020     advapi32:ADVAPI32.dll
 0004:00000028       __imp_SetThreadToken       0000000180069028     advapi32:ADVAPI32.dll
 0004:00000030       __imp_RegQueryValueExW     0000000180069030     advapi32:ADVAPI32.dll
 0004:00000038       __imp_RegConnectRegistryW  0000000180069038     advapi32:ADVAPI32.dll
 0004:00000040       __imp_RegCloseKey          0000000180069040     advapi32:ADVAPI32.dll
 0004:00000048       __imp_ConvertSidToStringSidW 0000000180069048     advapi32:ADVAPI32.dll
 0004:00000050       __imp_GetUserNameW         0000000180069050     advapi32:ADVAPI32.dll
 0004:00000058       __imp_LookupAccountNameW   0000000180069058     advapi32:ADVAPI32.dll
 0004:00000060       \177ADVAPI32_NULL_THUNK_DATA 0000000180069060     advapi32:ADVAPI32.dll
 0004:00000068       __imp_lstrlenW             0000000180069068     kernel32:KERNEL32.dll
 0004:00000070       __imp_CreateFileW          0000000180069070     kernel32:KERNEL32.dll
 0004:00000078       __imp_SetLastError         0000000180069078     kernel32:KERNEL32.dll
 0004:00000080       __imp_SetEvent             0000000180069080     kernel32:KERNEL32.dll
 0004:00000088       __imp_GetCurrentThreadId   0000000180069088     kernel32:KERNEL32.dll
 0004:00000090       __imp_SetPriorityClass     0000000180069090     kernel32:KERNEL32.dll
 0004:00000098       __imp_GetPriorityClass     0000000180069098     kernel32:KERNEL32.dll
 0004:000000a0       __imp_GetSystemTimeAsFileTime 00000001800690a0     kernel32:KERNEL32.dll
 0004:000000a8       __imp_GetLocalTime         00000001800690a8     kernel32:KERNEL32.dll
 0004:000000b0       __imp_GetTickCount         00000001800690b0     kernel32:KERNEL32.dll
 0004:000000b8       __imp_lstrcmpW             00000001800690b8     kernel32:KERNEL32.dll
 0004:000000c0       __imp_lstrcpynW            00000001800690c0     kernel32:KERNEL32.dll
 0004:000000c8       __imp_SystemTimeToTzSpecificLocalTime 00000001800690c8     kernel32:KERNEL32.dll
 0004:000000d0       __imp_FileTimeToSystemTime 00000001800690d0     kernel32:KERNEL32.dll
 0004:000000d8       __imp_ResetEvent           00000001800690d8     kernel32:KERNEL32.dll
 0004:000000e0       __imp_ReleaseMutex         00000001800690e0     kernel32:KERNEL32.dll
 0004:000000e8       __imp_CreateMutexW         00000001800690e8     kernel32:KERNEL32.dll
 0004:000000f0       __imp_CreateEventW         00000001800690f0     kernel32:KERNEL32.dll
 0004:000000f8       __imp_WaitForMultipleObjects 00000001800690f8     kernel32:KERNEL32.dll
 0004:00000100       __imp_GetProcessTimes      0000000180069100     kernel32:KERNEL32.dll
 0004:00000108       __imp_GetLastError         0000000180069108     kernel32:KERNEL32.dll
 0004:00000110       __imp_TerminateProcess     0000000180069110     kernel32:KERNEL32.dll
 0004:00000118       __imp_LocalFree            0000000180069118     kernel32:KERNEL32.dll
 0004:00000120       __imp_OpenProcess          0000000180069120     kernel32:KERNEL32.dll
 0004:00000128       __imp_ReadProcessMemory    0000000180069128     kernel32:KERNEL32.dll
 0004:00000130       __imp_FileTimeToLocalFileTime 0000000180069130     kernel32:KERNEL32.dll
 0004:00000138       __imp_GetModuleHandleW     0000000180069138     kernel32:KERNEL32.dll
 0004:00000140       __imp_FormatMessageW       0000000180069140     kernel32:KERNEL32.dll
 0004:00000148       __imp_GetDateFormatW       0000000180069148     kernel32:KERNEL32.dll
 0004:00000150       __imp_GetTimeFormatW       0000000180069150     kernel32:KERNEL32.dll
 0004:00000158       __imp_GetProcAddress       0000000180069158     kernel32:KERNEL32.dll
 0004:00000160       __imp_HeapSize             0000000180069160     kernel32:KERNEL32.dll
 0004:00000168       __imp_FlushFileBuffers     0000000180069168     kernel32:KERNEL32.dll
 0004:00000170       __imp_GetProcessHeap       0000000180069170     kernel32:KERNEL32.dll
 0004:00000178       __imp_FreeEnvironmentStringsW 0000000180069178     kernel32:KERNEL32.dll
 0004:00000180       __imp_GetEnvironmentStringsW 0000000180069180     kernel32:KERNEL32.dll
 0004:00000188       __imp_GetCommandLineW      0000000180069188     kernel32:KERNEL32.dll
 0004:00000190       __imp_GetCommandLineA      0000000180069190     kernel32:KERNEL32.dll
 0004:00000198       __imp_GetOEMCP             0000000180069198     kernel32:KERNEL32.dll
 0004:000001a0       __imp_GetACP               00000001800691a0     kernel32:KERNEL32.dll
 0004:000001a8       __imp_IsValidCodePage      00000001800691a8     kernel32:KERNEL32.dll
 0004:000001b0       __imp_VirtualFree          00000001800691b0     kernel32:KERNEL32.dll
 0004:000001b8       __imp_VirtualAlloc         00000001800691b8     kernel32:KERNEL32.dll
 0004:000001c0       __imp_TerminateThread      00000001800691c0     kernel32:KERNEL32.dll
 0004:000001c8       __imp_CreateThread         00000001800691c8     kernel32:KERNEL32.dll
 0004:000001d0       __imp_GetCurrentProcessId  00000001800691d0     kernel32:KERNEL32.dll
 0004:000001d8       __imp_GetCurrentProcess    00000001800691d8     kernel32:KERNEL32.dll
 0004:000001e0       __imp_WaitForSingleObject  00000001800691e0     kernel32:KERNEL32.dll
 0004:000001e8       __imp_DuplicateHandle      00000001800691e8     kernel32:KERNEL32.dll
 0004:000001f0       __imp_CloseHandle          00000001800691f0     kernel32:KERNEL32.dll
 0004:000001f8       __imp_GetFileType          00000001800691f8     kernel32:KERNEL32.dll
 0004:00000200       __imp_WriteConsoleW        0000000180069200     kernel32:KERNEL32.dll
 0004:00000208       __imp_GetCurrentThread     0000000180069208     kernel32:KERNEL32.dll
 0004:00000210       __imp_WriteFile            0000000180069210     kernel32:KERNEL32.dll
 0004:00000218       __imp_FindNextFileW        0000000180069218     kernel32:KERNEL32.dll
 0004:00000220       __imp_FindFirstFileExW     0000000180069220     kernel32:KERNEL32.dll
 0004:00000228       __imp_FindClose            0000000180069228     kernel32:KERNEL32.dll
 0004:00000230       __imp_HeapReAlloc          0000000180069230     kernel32:KERNEL32.dll
 0004:00000238       __imp_GetConsoleMode       0000000180069238     kernel32:KERNEL32.dll
 0004:00000240       __imp_GetConsoleCP         0000000180069240     kernel32:KERNEL32.dll
 0004:00000248       __imp_SetFilePointerEx     0000000180069248     kernel32:KERNEL32.dll
 0004:00000250       __imp_GetStdHandle         0000000180069250     kernel32:KERNEL32.dll
 0004:00000258       __imp_EnumSystemLocalesW   0000000180069258     kernel32:KERNEL32.dll
 0004:00000260       __imp_GetUserDefaultLCID   0000000180069260     kernel32:KERNEL32.dll
 0004:00000268       __imp_IsValidLocale        0000000180069268     kernel32:KERNEL32.dll
 0004:00000270       __imp_HeapFree             0000000180069270     kernel32:KERNEL32.dll
 0004:00000278       __imp_HeapAlloc            0000000180069278     kernel32:KERNEL32.dll
 0004:00000280       __imp_GetModuleFileNameW   0000000180069280     kernel32:KERNEL32.dll
 0004:00000288       __imp_WideCharToMultiByte  0000000180069288     kernel32:KERNEL32.dll
 0004:00000290       __imp_MultiByteToWideChar  0000000180069290     kernel32:KERNEL32.dll
 0004:00000298       __imp_EnterCriticalSection 0000000180069298     kernel32:KERNEL32.dll
 0004:000002a0       __imp_LeaveCriticalSection 00000001800692a0     kernel32:KERNEL32.dll
 0004:000002a8       __imp_DeleteCriticalSection 00000001800692a8     kernel32:KERNEL32.dll
 0004:000002b0       __imp_EncodePointer        00000001800692b0     kernel32:KERNEL32.dll
 0004:000002b8       __imp_DecodePointer        00000001800692b8     kernel32:KERNEL32.dll
 0004:000002c0       __imp_InitializeCriticalSectionAndSpinCount 00000001800692c0     kernel32:KERNEL32.dll
 0004:000002c8       __imp_TlsAlloc             00000001800692c8     kernel32:KERNEL32.dll
 0004:000002d0       __imp_TlsGetValue          00000001800692d0     kernel32:KERNEL32.dll
 0004:000002d8       __imp_TlsSetValue          00000001800692d8     kernel32:KERNEL32.dll
 0004:000002e0       __imp_TlsFree              00000001800692e0     kernel32:KERNEL32.dll
 0004:000002e8       __imp_GetStringTypeW       00000001800692e8     kernel32:KERNEL32.dll
 0004:000002f0       __imp_LCMapStringW         00000001800692f0     kernel32:KERNEL32.dll
 0004:000002f8       __imp_GetLocaleInfoW       00000001800692f8     kernel32:KERNEL32.dll
 0004:00000300       __imp_GetCPInfo            0000000180069300     kernel32:KERNEL32.dll
 0004:00000308       __imp_RtlCaptureContext    0000000180069308     kernel32:KERNEL32.dll
 0004:00000310       __imp_RtlLookupFunctionEntry 0000000180069310     kernel32:KERNEL32.dll
 0004:00000318       __imp_RtlVirtualUnwind     0000000180069318     kernel32:KERNEL32.dll
 0004:00000320       __imp_IsDebuggerPresent    0000000180069320     kernel32:KERNEL32.dll
 0004:00000328       __imp_UnhandledExceptionFilter 0000000180069328     kernel32:KERNEL32.dll
 0004:00000330       __imp_SetUnhandledExceptionFilter 0000000180069330     kernel32:KERNEL32.dll
 0004:00000338       __imp_GetStartupInfoW      0000000180069338     kernel32:KERNEL32.dll
 0004:00000340       __imp_IsProcessorFeaturePresent 0000000180069340     kernel32:KERNEL32.dll
 0004:00000348       __imp_QueryPerformanceCounter 0000000180069348     kernel32:KERNEL32.dll
 0004:00000350       __imp_InitializeSListHead  0000000180069350     kernel32:KERNEL32.dll
 0004:00000358       __imp_RtlPcToFileHeader    0000000180069358     kernel32:KERNEL32.dll
 0004:00000360       __imp_RaiseException       0000000180069360     kernel32:KERNEL32.dll
 0004:00000368       __imp_RtlUnwindEx          0000000180069368     kernel32:KERNEL32.dll
 0004:00000370       __imp_InterlockedFlushSList 0000000180069370     kernel32:KERNEL32.dll
 0004:00000378       __imp_FreeLibrary          0000000180069378     kernel32:KERNEL32.dll
 0004:00000380       __imp_LoadLibraryExW       0000000180069380     kernel32:KERNEL32.dll
 0004:00000388       __imp_SetStdHandle         0000000180069388     kernel32:KERNEL32.dll
 0004:00000390       __imp_ExitProcess          0000000180069390     kernel32:KERNEL32.dll
 0004:00000398       __imp_GetModuleHandleExW   0000000180069398     kernel32:KERNEL32.dll
 0004:000003a0       \177KERNEL32_NULL_THUNK_DATA 00000001800693a0     kernel32:KERNEL32.dll
 0004:000003a8       __imp_WNetCancelConnection2W 00000001800693a8     mpr:MPR.dll
 0004:000003b0       __imp_WNetAddConnection2W  00000001800693b0     mpr:MPR.dll
 0004:000003b8       \177MPR_NULL_THUNK_DATA    00000001800693b8     mpr:MPR.dll
 0004:000003c0       __imp_VariantClear         00000001800693c0     oleaut32:OLEAUT32.dll
 0004:000003c8       __imp_SysFreeString        00000001800693c8     oleaut32:OLEAUT32.dll
 0004:000003d0       __imp_SysAllocString       00000001800693d0     oleaut32:OLEAUT32.dll
 0004:000003d8       \177OLEAUT32_NULL_THUNK_DATA 00000001800693d8     oleaut32:OLEAUT32.dll
 0004:000003e0       __imp_GetModuleInformation 00000001800693e0     psapi:PSAPI.DLL
 0004:000003e8       __imp_GetModuleFileNameExW 00000001800693e8     psapi:PSAPI.DLL
 0004:000003f0       \177PSAPI_NULL_THUNK_DATA  00000001800693f0     psapi:PSAPI.DLL
 0004:000003f8       __imp_GetWindowTextW       00000001800693f8     user32:USER32.dll
 0004:00000400       __imp_SetForegroundWindow  0000000180069400     user32:USER32.dll
 0004:00000408       __imp_ShowWindowAsync      0000000180069408     user32:USER32.dll
 0004:00000410       __imp_IsWindowVisible      0000000180069410     user32:USER32.dll
 0004:00000418       __imp_IsIconic             0000000180069418     user32:USER32.dll
 0004:00000420       __imp_GetWindowLongPtrW    0000000180069420     user32:USER32.dll
 0004:00000428       __imp_GetParent            0000000180069428     user32:USER32.dll
 0004:00000430       __imp_GetAncestor          0000000180069430     user32:USER32.dll
 0004:00000438       __imp_GetLastActivePopup   0000000180069438     user32:USER32.dll
 0004:00000440       __imp_GetWindowThreadProcessId 0000000180069440     user32:USER32.dll
 0004:00000448       __imp_EnumWindows          0000000180069448     user32:USER32.dll
 0004:00000450       __imp_CharUpperBuffW       0000000180069450     user32:USER32.dll
 0004:00000458       \177USER32_NULL_THUNK_DATA 0000000180069458     user32:USER32.dll
 0004:00000460       __imp_VerQueryValueW       0000000180069460     version:VERSION.dll
 0004:00000468       __imp_GetFileVersionInfoSizeW 0000000180069468     version:VERSION.dll
 0004:00000470       __imp_GetFileVersionInfoW  0000000180069470     version:VERSION.dll
 0004:00000478       \177VERSION_NULL_THUNK_DATA 0000000180069478     version:VERSION.dll
 0004:00000480       __imp_CoUninitialize       0000000180069480     ole32:ole32.dll
 0004:00000488       __imp_CoCreateInstance     0000000180069488     ole32:ole32.dll
 0004:00000490       __imp_CoInitialize         0000000180069490     ole32:ole32.dll
 0004:00000498       \177ole32_NULL_THUNK_DATA  0000000180069498     ole32:ole32.dll
 0004:000004a0       __guard_check_icall_fptr   00000001800694a0     LIBCMT:guard_support.obj
 0004:000004a8       __guard_dispatch_icall_fptr 00000001800694a8     LIBCMT:guard_support.obj
 0004:000004b0       __IMPORT_DESCRIPTOR_KERNEL32 00000001800694b0     kernel32:KERNEL32.dll
 0004:000004c4       __IMPORT_DESCRIPTOR_USER32 00000001800694c4     user32:USER32.dll
 0004:000004d8       __IMPORT_DESCRIPTOR_ADVAPI32 00000001800694d8     advapi32:ADVAPI32.dll
 0004:000004ec       __IMPORT_DESCRIPTOR_ole32  00000001800694ec     ole32:ole32.dll
 0004:00000500       __IMPORT_DESCRIPTOR_MPR    0000000180069500     mpr:MPR.dll
 0004:00000514       __IMPORT_DESCRIPTOR_VERSION 0000000180069514     version:VERSION.dll
 0004:00000528       __IMPORT_DESCRIPTOR_OLEAUT32 0000000180069528     oleaut32:OLEAUT32.dll
 0004:0000053c       __IMPORT_DESCRIPTOR_PSAPI  000000018006953c     psapi:PSAPI.DLL
 0004:00000550       __NULL_IMPORT_DESCRIPTOR   0000000180069550     kernel32:KERNEL32.dll

 entry point at        0001:0003bce0

 Static symbols

 0001:00000008       ?initlocks$initializer$@std@@3P6AXXZEA 0000000180001008     libcpmt:xlock.obj
 0001:00000010       ?initlocks$initializer$@std@@3P6AXXZEA 0000000180001010     libcpmt:iosptrs.obj
 0001:00000018       ?init_atexit$initializer$@@3P6AXXZEA 0000000180001018     libcpmt:iosptrs.obj
 0001:00000020       ?_Fac_tidy_reg$initializer$@std@@3P6AXXZEA 0000000180001020     libcpmt:locale0.obj
 0001:00000028       ?classic_locale$initializer$@std@@3P6AXXZEA 0000000180001028     libcpmt:locale0.obj
 0001:00000030       ??m_PanelModesDataLocal$initializer$@Plist@@0P6AXXZEA@@3P6AXXZEA 0000000180001030     fileio.obj
 0001:00000038       ??m_PanelModesDataRemote$initializer$@Plist@@0P6AXXZEA@@3P6AXXZEA 0000000180001038     fileio.obj
 0001:00000040       ?hDebugToken$initializer$@@3P6AXXZEA 0000000180001040     Plist.obj
 0001:00000058       ?pinit@@3P6AHXZEA          0000000180001058     libcpmt:winapisupp.obj
 0001:00000060       pinit                      0000000180001060     LIBCMT:lconv_unsigned_char.obj
 0001:000010a0       ?constStrTypes@@3QBQEB_WB  00000001800020a0     handles.obj
 0001:000014b0       ?StatusCols@?1??InitializePanelModes@Plist@@SAXXZ@4QB_WB 00000001800024b0     Pclass.obj
 0001:000014c0       ?StatusWidths@?1??InitializePanelModes@Plist@@SAXXZ@4QB_WB 00000001800024c0     Pclass.obj
 0001:00001d60       ?invalid_chars@?1??GetFiles@Plist@@QEAAHPEAUPluginPanelItem@@_KHPEAPEB_W1AEAUoptions@@@Z@4QB_WB 0000000180002d60     Pclass.obj
 0001:00001eb8       ?PrClasses@?EH@??ProcessKey@Plist@@QEAAHPEBU_INPUT_RECORD@@@Z@4QBGB 0000000180002eb8     Pclass.obj
 0001:00001ec4       ?Pr@?HF@??ProcessKey@Plist@@QEAAHPEBU_INPUT_RECORD@@@Z@4QBEB 0000000180002ec4     Pclass.obj
 0001:000027a0       ??_7?$_Func_impl_no_alloc@V<lambda_87e110110aa5c29eaf754372c3484d5b>@@_NPEA_W_K@std@@6B@ 00000001800037a0     Plist.obj
 0001:000029e0       ??_7?$_Func_impl_no_alloc@V<lambda_aac7a801b46524f039ecb4f6852a8dbe>@@XAEBUtagVARIANT@@@std@@6B@ 00000001800039e0     WMI.obj
 0001:00002a10       ??_7?$_Func_impl_no_alloc@V<lambda_6ecd11d6a952986d4bf89c34edf08f5f>@@XAEBUtagVARIANT@@@std@@6B@ 0000000180003a10     WMI.obj
 0001:00002dd0       $cppxdata$?_Init@locale@std@@CAPEAV_Locimp@12@_N@Z 0000000180003dd0     libcpmt:locale0.obj
 0001:00002e70       $cppxdata$??__Finit_atexit@@YAXXZ 0000000180003e70     libcpmt:iosptrs.obj
 0001:000032e0       digits                     00000001800042e0     libcpmt:xstoul.obj
 0001:00003308       ndigs                      0000000180004308     libcpmt:xstoul.obj
 0001:00003330       digits                     0000000180004330     libcpmt:xstoull.obj
 0001:00003358       ndigs                      0000000180004358     libcpmt:xstoull.obj
 0001:00003380       ?LcidToLocaleNameTable@@3QBULcidToLocaleName@@B 0000000180004380     libcpmt:winapinls.obj
 0001:000041c0       ?LocaleNameToIndexTable@@3QBULocaleNameIndex@@B 00000001800051c0     libcpmt:winapinls.obj
 0001:000066d8       GS_ExceptionPointers       00000001800076d8     LIBCMT:gs_report.obj
 0001:00006710       ?ExceptionTemplate@?1??UnwindNestedFrames@__FrameHandler4@@SAXPEA_KPEAUEHExceptionRecord@@PEAU_CONTEXT@@0PEAXPEAUFuncInfo4@FH4@@HHPEAUHandlerType4@6@PEAU_xDISPATCHER_CONTEXT@@E@Z@4U_EXCEPTION_RECORD@@B 0000000180007710     libvcruntime:risctrnsctrl.obj
 0001:000067b0       ?ExceptionTemplate@?1??UnwindNestedFrames@__FrameHandler3@@SAXPEA_KPEAUEHExceptionRecord@@PEAU_CONTEXT@@0PEAXPEBU_s_FuncInfo@@HHPEBU_s_HandlerType@@PEAU_xDISPATCHER_CONTEXT@@E@Z@4U_EXCEPTION_RECORD@@B 00000001800077b0     libvcruntime:risctrnsctrl.obj
 0001:00006870       ?tokenTable@@3QBUStringLiteral@@B 0000000180007870     libvcruntime:undname.obj
 0001:00006970       ?nameTable@@3QBUStringLiteral@@B 0000000180007970     libvcruntime:undname.obj
 0001:00006ea0       ?rttiTable@@3QBUStringLiteral@@B 0000000180007ea0     libvcruntime:undname.obj
 0001:00006ef0       ?IndirectionName@@3QBUStringLiteral@@B 0000000180007ef0     libvcruntime:undname.obj
 0001:00006f50       ?PrefixName@@3QBUStringLiteral@@B 0000000180007f50     libvcruntime:undname.obj
 0001:00007620       ?module_names@?A0x81a78551@@3QBQEB_WB 0000000180008620     libvcruntime:winapi_downlevel.obj
 0001:000076c8       ?candidate_modules@?1??try_get_FlsAlloc@@YAP6AKP6AXPEAX@Z@ZXZ@4QBW4module_id@?A0x81a78551@@B 00000001800086c8     libvcruntime:winapi_downlevel.obj
 0001:000076d0       ?candidate_modules@?1??try_get_FlsFree@@YAP6AHK@ZXZ@4QBW4module_id@?A0x81a78551@@B 00000001800086d0     libvcruntime:winapi_downlevel.obj
 0001:000076d8       ?candidate_modules@?1??try_get_FlsGetValue@@YAP6APEAXK@ZXZ@4QBW4module_id@?A0x81a78551@@B 00000001800086d8     libvcruntime:winapi_downlevel.obj
 0001:000076e0       ?candidate_modules@?1??try_get_FlsSetValue@@YAP6AHKPEAX@ZXZ@4QBW4module_id@?A0x81a78551@@B 00000001800086e0     libvcruntime:winapi_downlevel.obj
 0001:000076e8       ?candidate_modules@?1??try_get_InitializeCriticalSectionEx@@YAP6AHPEAU_RTL_CRITICAL_SECTION@@KK@ZXZ@4QBW4module_id@?A0x81a78551@@B 00000001800086e8     libvcruntime:winapi_downlevel.obj
 0001:000076f0       ?errtable@@3QBUerrentry@?A0x31fdb9ec@@B 00000001800086f0     libucrt:errno.obj
 0001:000078e0       ?ln_lead_table@?1??log2@@9@9 00000001800088e0     libucrt:log2.obj
 0001:00007af0       ?ln_tail_table@?1??log2@@9@9 0000000180008af0     libucrt:log2.obj
 0001:00007d80       __real_ninf                0000000180008d80     libucrt:log10.obj
 0001:00007d90       __real_inf                 0000000180008d90     libucrt:log10.obj
 0001:00007da0       __real_neg_qnan            0000000180008da0     libucrt:log10.obj
 0001:00007db0       __real_qnanbit             0000000180008db0     libucrt:log10.obj
 0001:00007dc0       __int_1023                 0000000180008dc0     libucrt:log10.obj
 0001:00007dd0       __mask_001                 0000000180008dd0     libucrt:log10.obj
 0001:00007de0       __mask_mant                0000000180008de0     libucrt:log10.obj
 0001:00007df0       __mask_mant_top8           0000000180008df0     libucrt:log10.obj
 0001:00007e00       __mask_mant9               0000000180008e00     libucrt:log10.obj
 0001:00007e10       __real_log10_e             0000000180008e10     libucrt:log10.obj
 0001:00007e20       __real_log10_e_lead        0000000180008e20     libucrt:log10.obj
 0001:00007e30       __real_log10_e_tail        0000000180008e30     libucrt:log10.obj
 0001:00007e40       __real_log10_2_lead        0000000180008e40     libucrt:log10.obj
 0001:00007e50       __real_log10_2_tail        0000000180008e50     libucrt:log10.obj
 0001:00007e60       __real_two                 0000000180008e60     libucrt:log10.obj
 0001:00007e70       __real_one                 0000000180008e70     libucrt:log10.obj
 0001:00007e80       __real_half                0000000180008e80     libucrt:log10.obj
 0001:00007e90       __mask_100                 0000000180008e90     libucrt:log10.obj
 0001:00007ea0       __real_1_over_512          0000000180008ea0     libucrt:log10.obj
 0001:00007eb0       __real_1_over_2            0000000180008eb0     libucrt:log10.obj
 0001:00007ec0       __real_1_over_3            0000000180008ec0     libucrt:log10.obj
 0001:00007ed0       __real_1_over_4            0000000180008ed0     libucrt:log10.obj
 0001:00007ee0       __real_1_over_5            0000000180008ee0     libucrt:log10.obj
 0001:00007ef0       __real_1_over_6            0000000180008ef0     libucrt:log10.obj
 0001:00007f00       __real_neg_1023            0000000180008f00     libucrt:log10.obj
 0001:00007f10       __mask_2045                0000000180008f10     libucrt:log10.obj
 0001:00007f20       __real_threshold           0000000180008f20     libucrt:log10.obj
 0001:00007f30       __real_near_one_lt         0000000180008f30     libucrt:log10.obj
 0001:00007f40       __real_near_one_gt         0000000180008f40     libucrt:log10.obj
 0001:00007f50       __real_min_norm            0000000180008f50     libucrt:log10.obj
 0001:00007f60       __real_notsign             0000000180008f60     libucrt:log10.obj
 0001:00007f70       __real_ca1                 0000000180008f70     libucrt:log10.obj
 0001:00007f80       __real_ca2                 0000000180008f80     libucrt:log10.obj
 0001:00007f90       __real_ca3                 0000000180008f90     libucrt:log10.obj
 0001:00007fa0       __real_ca4                 0000000180008fa0     libucrt:log10.obj
 0001:00007fb0       __mask_lower               0000000180008fb0     libucrt:log10.obj
 0001:00007fc0       __flag_x_zero              0000000180008fc0     libucrt:log10.obj
 0001:00007fc4       __flag_x_neg               0000000180008fc4     libucrt:log10.obj
 0001:00007fc8       __flag_x_nan               0000000180008fc8     libucrt:log10.obj
 0001:00007fd0       __flag_x_one_y_snan        0000000180008fd0     libucrt:pow.obj
 0001:00007fd4       __flag_x_zero_z_inf        0000000180008fd4     libucrt:pow.obj
 0001:00007fd8       __flag_x_nan               0000000180008fd8     libucrt:pow.obj
 0001:00007fdc       __flag_y_nan               0000000180008fdc     libucrt:pow.obj
 0001:00007fe0       __flag_x_nan_y_nan         0000000180008fe0     libucrt:pow.obj
 0001:00007fe4       __flag_x_neg_y_notint      0000000180008fe4     libucrt:pow.obj
 0001:00007fe8       __flag_z_zero              0000000180008fe8     libucrt:pow.obj
 0001:00007fec       __flag_z_denormal          0000000180008fec     libucrt:pow.obj
 0001:00007ff0       __flag_z_inf               0000000180008ff0     libucrt:pow.obj
 0001:00008000       __ay_max_bound             0000000180009000     libucrt:pow.obj
 0001:00008008       __ay_min_bound             0000000180009008     libucrt:pow.obj
 0001:00008010       __sign_mask                0000000180009010     libucrt:pow.obj
 0001:00008018       __sign_and_exp_mask        0000000180009018     libucrt:pow.obj
 0001:00008020       __exp_mask                 0000000180009020     libucrt:pow.obj
 0001:00008028       __neg_inf                  0000000180009028     libucrt:pow.obj
 0001:00008030       __pos_inf                  0000000180009030     libucrt:pow.obj
 0001:00008038       __pos_one                  0000000180009038     libucrt:pow.obj
 0001:00008040       __pos_zero                 0000000180009040     libucrt:pow.obj
 0001:00008048       __exp_mant_mask            0000000180009048     libucrt:pow.obj
 0001:00008050       __mant_mask                0000000180009050     libucrt:pow.obj
 0001:00008058       __ind_pattern              0000000180009058     libucrt:pow.obj
 0001:00008060       __neg_qnan                 0000000180009060     libucrt:pow.obj
 0001:00008068       __qnan                     0000000180009068     libucrt:pow.obj
 0001:00008070       __qnan_set                 0000000180009070     libucrt:pow.obj
 0001:00008078       __neg_one                  0000000180009078     libucrt:pow.obj
 0001:00008080       __neg_zero                 0000000180009080     libucrt:pow.obj
 0001:00008088       __exp_shift                0000000180009088     libucrt:pow.obj
 0001:00008090       __exp_bias                 0000000180009090     libucrt:pow.obj
 0001:00008098       __exp_bias_m1              0000000180009098     libucrt:pow.obj
 0001:000080a0       __yexp_53                  00000001800090a0     libucrt:pow.obj
 0001:000080a8       __mant_full                00000001800090a8     libucrt:pow.obj
 0001:000080b0       __1_before_mant            00000001800090b0     libucrt:pow.obj
 0001:000080b8       __mask_mant_all8           00000001800090b8     libucrt:pow.obj
 0001:000080c0       __mask_mant9               00000001800090c0     libucrt:pow.obj
 0001:000080d0       __real_fffffffff8000000    00000001800090d0     libucrt:pow.obj
 0001:000080e0       __mask_8000000000000000    00000001800090e0     libucrt:pow.obj
 0001:000080f0       __real_4090040000000000    00000001800090f0     libucrt:pow.obj
 0001:00008100       __real_C090C80000000000    0000000180009100     libucrt:pow.obj
 0001:00008110       __real_ninf                0000000180009110     libucrt:pow.obj
 0001:00008120       __real_inf                 0000000180009120     libucrt:pow.obj
 0001:00008130       __real_nan                 0000000180009130     libucrt:pow.obj
 0001:00008140       __real_mant                0000000180009140     libucrt:pow.obj
 0001:00008150       __mask_1023                0000000180009150     libucrt:pow.obj
 0001:00008160       __mask_001                 0000000180009160     libucrt:pow.obj
 0001:00008170       __real_log2_lead           0000000180009170     libucrt:pow.obj
 0001:00008180       __real_log2_tail           0000000180009180     libucrt:pow.obj
 0001:00008190       __real_two                 0000000180009190     libucrt:pow.obj
 0001:000081a0       __real_one                 00000001800091a0     libucrt:pow.obj
 0001:000081b0       __real_half                00000001800091b0     libucrt:pow.obj
 0001:000081c0       __mask_100                 00000001800091c0     libucrt:pow.obj
 0001:000081d0       __real_1_over_2            00000001800091d0     libucrt:pow.obj
 0001:000081e0       __real_1_over_3            00000001800091e0     libucrt:pow.obj
 0001:000081f0       __real_1_over_4            00000001800091f0     libucrt:pow.obj
 0001:00008200       __real_1_over_5            0000000180009200     libucrt:pow.obj
 0001:00008210       __real_1_over_6            0000000180009210     libucrt:pow.obj
 0001:00008220       __real_1_over_7            0000000180009220     libucrt:pow.obj
 0001:00008230       __mask_1023_f              0000000180009230     libucrt:pow.obj
 0001:00008240       __mask_2045                0000000180009240     libucrt:pow.obj
 0001:00008250       __real_threshold           0000000180009250     libucrt:pow.obj
 0001:00008260       __real_notsign             0000000180009260     libucrt:pow.obj
 0001:00008270       __log_F_inv_head           0000000180009270     libucrt:pow.obj
 0001:00008a80       __log_F_inv_tail           0000000180009a80     libucrt:pow.obj
 0001:00009290       __denormal_threshold       000000018000a290     libucrt:pow.obj
 0001:000092a0       __enable_almost_inf        000000018000a2a0     libucrt:pow.obj
 0001:000092b0       __real_zero                000000018000a2b0     libucrt:pow.obj
 0001:000092c0       __real_smallest_denormal   000000018000a2c0     libucrt:pow.obj
 0001:000092d0       __denormal_tiny_threshold  000000018000a2d0     libucrt:pow.obj
 0001:000092e0       __real_p65536              000000018000a2e0     libucrt:pow.obj
 0001:000092f0       __real_m68800              000000018000a2f0     libucrt:pow.obj
 0001:00009300       __real_64_by_log2          000000018000a300     libucrt:pow.obj
 0001:00009310       __real_log2_by_64_head     000000018000a310     libucrt:pow.obj
 0001:00009320       __real_log2_by_64_tail     000000018000a320     libucrt:pow.obj
 0001:00009330       __real_1_by_720            000000018000a330     libucrt:pow.obj
 0001:00009340       __real_1_by_120            000000018000a340     libucrt:pow.obj
 0001:00009350       __real_1_by_24             000000018000a350     libucrt:pow.obj
 0001:00009360       __real_1_by_6              000000018000a360     libucrt:pow.obj
 0001:00009370       __real_1_by_2              000000018000a370     libucrt:pow.obj
 0001:0000a4c0       __flag_x_one_y_snan        000000018000b4c0     libucrt:powf.obj
 0001:0000a4c4       __flag_x_zero_z_inf        000000018000b4c4     libucrt:powf.obj
 0001:0000a4c8       __flag_x_nan               000000018000b4c8     libucrt:powf.obj
 0001:0000a4cc       __flag_y_nan               000000018000b4cc     libucrt:powf.obj
 0001:0000a4d0       __flag_x_nan_y_nan         000000018000b4d0     libucrt:powf.obj
 0001:0000a4d4       __flag_x_neg_y_notint      000000018000b4d4     libucrt:powf.obj
 0001:0000a4d8       __flag_z_zero              000000018000b4d8     libucrt:powf.obj
 0001:0000a4dc       __flag_z_denormal          000000018000b4dc     libucrt:powf.obj
 0001:0000a4e0       __flag_z_inf               000000018000b4e0     libucrt:powf.obj
 0001:0000a4e4       L__1_by_3                  000000018000b4e4     libucrt:powf.obj
 0001:0000a4ec       L__log2                    000000018000b4ec     libucrt:powf.obj
 0001:0000a4f4       L__max_exp_arg             000000018000b4f4     libucrt:powf.obj
 0001:0000a4fc       L__min_exp_arg             000000018000b4fc     libucrt:powf.obj
 0001:0000a504       L__real_log2_by_64         000000018000b504     libucrt:powf.obj
 0001:0000a50c       L__1_by_6                  000000018000b50c     libucrt:powf.obj
 0001:0000a514       L__real_threshold          000000018000b514     libucrt:powf.obj
 0001:0000a51c       L__real_one                000000018000b51c     libucrt:powf.obj
 0001:0000a524       L__real_two                000000018000b524     libucrt:powf.obj
 0001:0000a52c       L__neg_zero                000000018000b52c     libucrt:powf.obj
 0001:0000a540       L__real_ca42               000000018000b540     libucrt:powf.obj
 0001:0000a548       L__real_ca4                000000018000b548     libucrt:powf.obj
 0001:0000a550       L__real_ca31               000000018000b550     libucrt:powf.obj
 0001:0000a558       L__real_ca3                000000018000b558     libucrt:powf.obj
 0001:0000a560       L__clear_sign              000000018000b560     libucrt:powf.obj
 0001:0000a570       L__real_64_by_log2         000000018000b570     libucrt:powf.obj
 0001:0000a580       L__1_by_2                  000000018000b580     libucrt:powf.obj
 0001:0000a590       L__1023                    000000018000b590     libucrt:powf.obj
 0001:0000a5a0       L__xexp_bits_xmantissa_bits 000000018000b5a0     libucrt:powf.obj
 0001:0000aec0       __acrt_initializers        000000018000bec0     libucrt:initialization.obj
 0001:0000afc0       ?mask@?P@??_d_int@@9@4QBGB 000000018000bfc0     libucrt:_test.obj
 0001:0000afe0       ?sub@?P@??_d_int@@9@4QB_KB 000000018000bfe0     libucrt:_test.obj
 0001:0000b000       ?module_names@?A0x391cf84c@@3QBQEB_WB 000000018000c000     libucrt:winapi_thunks.obj
 0001:0000b4c8       ?candidate_modules@?1??try_get_AreFileApisANSI@@YAP6AHXZXZ@4QBW4module_id@?A0x391cf84c@@B 000000018000c4c8     libucrt:winapi_thunks.obj
 0001:0000b4e0       ?candidate_modules@?1??try_get_CompareStringEx@@YAP6AHPEB_WK0H0HPEAU_nlsversioninfo@@PEAX_J@ZXZ@4QBW4module_id@?A0x391cf84c@@B 000000018000c4e0     libucrt:winapi_thunks.obj
 0001:0000b4e8       ?candidate_modules@?1??try_get_EnumSystemLocalesEx@@YAP6AHP6AHPEA_WK_J@ZK1PEAX@ZXZ@4QBW4module_id@?A0x391cf84c@@B 000000018000c4e8     libucrt:winapi_thunks.obj
 0001:0000b508       ?candidate_modules@?1??try_get_FlsAlloc@@YAP6AKP6AXPEAX@Z@ZXZ@4QBW4module_id@?A0x391cf84c@@B 000000018000c508     libucrt:winapi_thunks.obj
 0001:0000b510       ?candidate_modules@?1??try_get_FlsFree@@YAP6AHK@ZXZ@4QBW4module_id@?A0x391cf84c@@B 000000018000c510     libucrt:winapi_thunks.obj
 0001:0000b518       ?candidate_modules@?1??try_get_FlsGetValue@@YAP6APEAXK@ZXZ@4QBW4module_id@?A0x391cf84c@@B 000000018000c518     libucrt:winapi_thunks.obj
 0001:0000b520       ?candidate_modules@?1??try_get_FlsSetValue@@YAP6AHKPEAX@ZXZ@4QBW4module_id@?A0x391cf84c@@B 000000018000c520     libucrt:winapi_thunks.obj
 0001:0000b528       ?candidate_modules@?1??try_get_GetDateFormatEx@@YAP6AHPEB_WKPEBU_SYSTEMTIME@@0PEA_WH0@ZXZ@4QBW4module_id@?A0x391cf84c@@B 000000018000c528     libucrt:winapi_thunks.obj
 0001:0000b540       ?candidate_modules@?1??try_get_GetLocaleInfoEx@@YAP6AHPEB_WKPEA_WH@ZXZ@4QBW4module_id@?A0x391cf84c@@B 000000018000c540     libucrt:winapi_thunks.obj
 0001:0000b548       ?candidate_modules@?1??try_get_GetTimeFormatEx@@YAP6AHPEB_WKPEBU_SYSTEMTIME@@0PEA_WH@ZXZ@4QBW4module_id@?A0x391cf84c@@B 000000018000c548     libucrt:winapi_thunks.obj
 0001:0000b560       ?candidate_modules@?1??try_get_GetUserDefaultLocaleName@@YAP6AHPEA_WH@ZXZ@4QBW4module_id@?A0x391cf84c@@B 000000018000c560     libucrt:winapi_thunks.obj
 0001:0000b588       ?candidate_modules@?1??try_get_InitializeCriticalSectionEx@@YAP6AHPEAU_RTL_CRITICAL_SECTION@@KK@ZXZ@4QBW4module_id@?A0x391cf84c@@B 000000018000c588     libucrt:winapi_thunks.obj
 0001:0000b590       ?candidate_modules@?1??try_get_IsValidLocaleName@@YAP6AHPEB_W@ZXZ@4QBW4module_id@?A0x391cf84c@@B 000000018000c590     libucrt:winapi_thunks.obj
 0001:0000b5b0       ?candidate_modules@?1??try_get_LCMapStringEx@@YAP6AHPEB_WK0HPEA_WHPEAU_nlsversioninfo@@PEAX_J@ZXZ@4QBW4module_id@?A0x391cf84c@@B 000000018000c5b0     libucrt:winapi_thunks.obj
 0001:0000b5b8       ?candidate_modules@?1??try_get_LCIDToLocaleName@@YAP6AHKPEA_WHK@ZXZ@4QBW4module_id@?A0x391cf84c@@B 000000018000c5b8     libucrt:winapi_thunks.obj
 0001:0000b5d8       ?candidate_modules@?1??try_get_LocaleNameToLCID@@YAP6AKPEB_WK@ZXZ@4QBW4module_id@?A0x391cf84c@@B 000000018000c5d8     libucrt:winapi_thunks.obj
 0001:0000b5f4       ?candidate_modules@?1??try_get_AppPolicyGetProcessTerminationMethod@@YAP6AJPEAXPEAW4AppPolicyProcessTerminationMethod@@@ZXZ@4QBW4module_id@?A0x391cf84c@@B 000000018000c5f4     libucrt:winapi_thunks.obj
 0001:0000b620       ?strings@?1??fp_format_nan_or_infinity@@YAHW4__acrt_fp_class@@_NPEAD_K1@Z@4QAY03QEBDA 000000018000c620     libucrt:cvt.obj
 0001:0000b6f0       _first_127char             000000018000c6f0     libucrt:wsetlocale.obj
 0001:0000eb90       $cppxdata$?_wcstombs_l_helper@@YA_KPEADPEB_W_KPEAU__crt_locale_pointers@@@Z 000000018000fb90     libucrt:wcstombs.obj
 0001:0000edc0       ?_mb_locale_names@@3QBQEB_WB 000000018000fdc0     libucrt:mbctype.obj
 0001:0000ede0       ?LcidToLocaleNameTable@?A0x881e4c05@@3QBULcidToLocaleName@1@B 000000018000fde0     libucrt:lcidtoname_downlevel.obj
 0001:0000fc20       ?LocaleNameToIndexTable@?A0x881e4c05@@3QBULocaleNameIndex@1@B 0000000180010c20     libucrt:lcidtoname_downlevel.obj
 0001:00010a60       ?large_power_indices@?1??multiply_by_power_of_ten@__crt_strtox@@YA_NAEAUbig_integer@2@I@Z@4QBUunpack_index@?1??12@YA_N0I@Z@B 0000000180011a60     libucrt:cfout.obj
 0001:00011b10       __real@433fffffffffffff    0000000180012b10     libucrt:fpsr.obj
 0001:00011b18       __real@c33fffffffffffff    0000000180012b18     libucrt:fpsr.obj
 0001:000127a0       ??__E?m_PanelModesDataLocal@Plist@@0V?$vector@Umode@@V?$allocator@Umode@@@std@@@std@@A@@YAXXZ 00000001800137a0 f   fileio.obj
 0001:000127b0       ??__E?m_PanelModesDataRemote@Plist@@0V?$vector@Umode@@V?$allocator@Umode@@@std@@@std@@A@@YAXXZ 00000001800137b0 f   fileio.obj
 0001:000127c0       ??__EhDebugToken@@YAXXZ    00000001800137c0 f   Plist.obj
 0001:000127cc       ??__Einitlocks@std@@YAXXZ  00000001800137cc f   libcpmt:xlock.obj
 0001:000127ec       ??__E_Fac_tidy_reg@std@@YAXXZ 00000001800137ec f   libcpmt:locale0.obj
 0001:000127f8       ??__Eclassic_locale@std@@YAXXZ 00000001800137f8 f   libcpmt:locale0.obj
 0001:00012804       ??__Einit_atexit@@YAXXZ    0000000180013804 f   libcpmt:iosptrs.obj
 0001:00012810       ??__Einitlocks@std@@YAXXZ  0000000180013810 f   libcpmt:iosptrs.obj
 0001:00012830       $$000000                   0000000180013830     chkstk.obj
 0001:0001339c       $LN229                     000000018001439c     format.obj
 0001:0001553c       $LN229                     000000018001653c     format.obj
 0001:000190f0       $LN62                      000000018001a0f0     handles.obj
 0001:000191c0       $LN62                      000000018001a1c0     handles.obj
 0001:00019440       $LN38                      000000018001a440     handles.obj
 0001:0001945c       $LN37                      000000018001a45c     handles.obj
 0001:000196cc       $LN69                      000000018001a6cc     handles.obj
 0001:000196e8       $LN68                      000000018001a6e8     handles.obj
 0001:0001a2e0       $LN17                      000000018001b2e0     handles.obj
 0001:0001a30c       $LN16                      000000018001b30c     handles.obj
 0001:0001b30c       $LN161                     000000018001c30c     handles.obj
 0001:0001bac0       $LN244                     000000018001cac0     handles.obj
 0001:0001e220       ??$write_padded@$01V?$buffer_appender@_W@detail@v7@fmt@@_WAEAV<lambda_02ef13d7388f44676ab23b4b72cf4858>@@@detail@v7@fmt@@YA?AV?$buffer_appender@_W@012@V3012@AEBU?$basic_format_specs@_W@12@_K2AEAV<lambda_02ef13d7388f44676ab23b4b72cf4858>@@@Z 000000018001f220 f   handles.obj
 0001:0001e3d0       ??$write_padded@$01V?$buffer_appender@_W@detail@v7@fmt@@_WAEAV<lambda_4b4910ffabc1dcd104aab6476c46284c>@@@detail@v7@fmt@@YA?AV?$buffer_appender@_W@012@V3012@AEBU?$basic_format_specs@_W@12@_K2AEAV<lambda_4b4910ffabc1dcd104aab6476c46284c>@@@Z 000000018001f3d0 f   handles.obj
 0001:0001e560       ??$write_padded@$01V?$buffer_appender@_W@detail@v7@fmt@@_WAEAV<lambda_6ab46ab70aabe8efae7e4774521859cf>@@@detail@v7@fmt@@YA?AV?$buffer_appender@_W@012@V3012@AEBU?$basic_format_specs@_W@12@_K2AEAV<lambda_6ab46ab70aabe8efae7e4774521859cf>@@@Z 000000018001f560 f   handles.obj
 0001:0001e6f0       ??$write_padded@$01V?$buffer_appender@_W@detail@v7@fmt@@_WAEAV<lambda_b50b9b8d8e7acaa70e6c58706d54422a>@@@detail@v7@fmt@@YA?AV?$buffer_appender@_W@012@V3012@AEBU?$basic_format_specs@_W@12@_K2AEAV<lambda_b50b9b8d8e7acaa70e6c58706d54422a>@@@Z 000000018001f6f0 f   handles.obj
 0001:0001e890       ??$write_padded@$01V?$buffer_appender@_W@detail@v7@fmt@@_WAEAV<lambda_c4418f031026211e2c1713642e49e80a>@@@detail@v7@fmt@@YA?AV?$buffer_appender@_W@012@V3012@AEBU?$basic_format_specs@_W@12@_K2AEAV<lambda_c4418f031026211e2c1713642e49e80a>@@@Z 000000018001f890 f   handles.obj
 0001:0001ea30       ??$write_padded@$01V?$buffer_appender@_W@detail@v7@fmt@@_WAEAV<lambda_fd39a64e3d11c49bae2c0eea12a77202>@@@detail@v7@fmt@@YA?AV?$buffer_appender@_W@012@V3012@AEBU?$basic_format_specs@_W@12@_K2AEAV<lambda_fd39a64e3d11c49bae2c0eea12a77202>@@@Z 000000018001fa30 f   handles.obj
 0001:0001f340       ??R<lambda_25250293cfc32af92054c3b40a759709>@@QEBA?AV?$buffer_appender@_W@detail@v7@fmt@@V1234@@Z 0000000180020340 f   handles.obj
 0001:0001f450       ??R<lambda_38a3182dcdaee82dcf81af4713909e9c>@@QEBA?AV?$buffer_appender@_W@detail@v7@fmt@@V1234@@Z 0000000180020450 f   handles.obj
 0001:0001f620       ??R<lambda_38f4362beee931acc75a0518550420fe>@@QEBA?AV?$buffer_appender@_W@detail@v7@fmt@@V1234@@Z 0000000180020620 f   handles.obj
 0001:0001f7b0       ??R<lambda_4616bb99871fbb1d7aed0362dec9937f>@@QEBA?AV?$buffer_appender@_W@detail@v7@fmt@@V1234@@Z 00000001800207b0 f   handles.obj
 0001:0001f910       ??R<lambda_62e20fa9c93b0c475eedfc8d4cf093c4>@@QEBA?AV?$buffer_appender@_W@detail@v7@fmt@@V1234@@Z 0000000180020910 f   handles.obj
 0001:0001fac0       ??R<lambda_7ff01892a3078927ded4185f7a58b615>@@QEBA?AV?$buffer_appender@_W@detail@v7@fmt@@V1234@@Z 0000000180020ac0 f   handles.obj
 0001:0001fc30       ??R<lambda_841f10f506f41ae45cd8677d3beb5225>@@QEBA?AV?$buffer_appender@_W@detail@v7@fmt@@V1234@@Z 0000000180020c30 f   handles.obj
 0001:0001fde0       ??R<lambda_ba169d804ecb8b91f048b0e1f2362dff>@@QEBA?AV?$buffer_appender@_W@detail@v7@fmt@@V1234@@Z 0000000180020de0 f   handles.obj
 0001:0001ff90       ??R<lambda_c3630acb37279cf92411e07a2b271fdf>@@QEBA?AV?$basic_string@_WU?$char_traits@_W@std@@V?$allocator@_W@2@@std@@XZ 0000000180020f90 f   handles.obj
 0001:000201a0       ??R<lambda_c6a38d432852b55707518153570cf009>@@QEBA?AV?$buffer_appender@_W@detail@v7@fmt@@V1234@@Z 00000001800211a0 f   handles.obj
 0001:00020310       ??R<lambda_d4f56f40af5457baa4f93da9d151ebf1>@@QEBA?AV?$buffer_appender@_W@detail@v7@fmt@@V1234@@Z 0000000180021310 f   handles.obj
 0001:00020470       ??R<lambda_d5afad9a80eedd7ee5d65dd8636b3113>@@QEBA?AV?$buffer_appender@_W@detail@v7@fmt@@V1234@@Z 0000000180021470 f   handles.obj
 0001:000205e0       ??R<lambda_d927b2905a963478236b832f97f040e8>@@QEBA?AV?$buffer_appender@_W@detail@v7@fmt@@V1234@@Z 00000001800215e0 f   handles.obj
 0001:000206f0       ??R<lambda_e1d60fde0f959a301c462adcda67875d>@@QEBA?AV?$buffer_appender@_W@detail@v7@fmt@@V1234@@Z 00000001800216f0 f   handles.obj
 0001:00020800       ??R<lambda_e3c7c83dd69d7722b8735cfc6878b68a>@@QEBA?AV?$buffer_appender@_W@detail@v7@fmt@@V1234@@Z 0000000180021800 f   handles.obj
 0001:00020a50       ?GetFileNameThread@test@?4??GetFileName@@YA?AV?$basic_string@_WU?$char_traits@_W@std@@V?$allocator@_W@2@@std@@PEAX@Z@SAK0@Z 0000000180021a50 f   handles.obj
 0001:00020a90       ?GetNameByType@@YA?AV?$basic_string@_WU?$char_traits@_W@std@@V?$allocator@_W@2@@std@@PEAXGPEAVPerfThread@@@Z 0000000180021a90 f   handles.obj
 0001:000219c0       ?duplicate_handle@@YA?AV?$unique_ptr@XUhandle_closer@@@std@@PEAXK@Z 00000001800229c0 f   handles.obj
 0001:000232d0       ?query_object@@YA?AV?$unique_ptr@$$BY0A@DU?$default_delete@$$BY0A@D@std@@@std@@PEAXW4OBJECT_INFORMATION_CLASS@@@Z 00000001800242d0 f   handles.obj
 0001:00023898       $LN46                      0000000180024898     Pcfg.obj
 0001:0002513c       $LN13                      000000018002613c     Pcfg.obj
 0001:000257f0       $LN69                      00000001800267f0     Pcfg.obj
 0001:0002b2ac       $LN884                     000000018002c2ac     Pclass.obj
 0001:0002d880       ?PrintTitle@@YA?AV?$basic_string@_WU?$char_traits@_W@std@@V?$allocator@_W@2@@std@@V?$basic_string_view@_WU?$char_traits@_W@std@@@2@@Z 000000018002e880 f   Pclass.obj
 0001:00030fac       $LN1355                    0000000180031fac     Pclass.obj
 0001:00031430       ?TranslateMode@@YA_NAEBV?$basic_string@_WU?$char_traits@_W@std@@V?$allocator@_W@2@@std@@AEAV12@@Z 0000000180032430 f   Pclass.obj
 0001:00031c14       $LN483                     0000000180032c14     Pclass.obj
 0001:00031c1c       $LN482                     0000000180032c1c     Pclass.obj
 0001:00032970       ?generate_titles@@YAXAEBV?$basic_string@_WU?$char_traits@_W@std@@V?$allocator@_W@2@@std@@AEAUPanelMode@@@Z 0000000180033970 f   Pclass.obj
 0001:00032ba0       $LN85                      0000000180033ba0     Pclass.obj
 0001:00032d00       ?ui64toa_width@@YA?AV?$basic_string@_WU?$char_traits@_W@std@@V?$allocator@_W@2@@std@@_KI_N@Z 0000000180033d00 f   Pclass.obj
 0001:00033190       ?window_ex_style@@YA@PEAUHWND__@@@Z 0000000180034190 f   Pclass.obj
 0001:00033630       ?window_style@@YA@PEAUHWND__@@@Z 0000000180034630 f   Pclass.obj
 0001:00036720       ??$print_module@PEAX@@YAXQEAXPEAXKAEAUoptions@@AEBV?$function@$$A6A_NPEA_W_K@Z@std@@@Z 0000000180037720 f   Plist.obj
 0001:00036c70       ??R<lambda_fbad59960194a21b5f35257a64aadaa4>@@QEBAXXZ 0000000180037c70 f   Plist.obj
 0001:00036eb0       ?FreeUserData@@YAXQEAXQEBUFarPanelItemFreeInfo@@@Z 0000000180037eb0 f   Plist.obj
 0001:000385e0       ?_Copy@?$_Func_impl_no_alloc@V<lambda_87e110110aa5c29eaf754372c3484d5b>@@_NPEA_W_K@std@@EEBAPEAV?$_Func_base@_NPEA_W_K@2@PEAX@Z 00000001800395e0 f   Plist.obj
 0001:000385e0       ?_Move@?$_Func_impl_no_alloc@V<lambda_87e110110aa5c29eaf754372c3484d5b>@@_NPEA_W_K@std@@EEAAPEAV?$_Func_base@_NPEA_W_K@2@PEAX@Z 00000001800395e0 f   Plist.obj
 0001:00038620       ?_Delete_this@?$_Func_impl_no_alloc@V<lambda_87e110110aa5c29eaf754372c3484d5b>@@_NPEA_W_K@std@@EEAAX_N@Z 0000000180039620 f   Plist.obj
 0001:00038630       ?_Do_call@?$_Func_impl_no_alloc@V<lambda_87e110110aa5c29eaf754372c3484d5b>@@_NPEA_W_K@std@@EEAA_N$$QEAPEA_W$$QEA_K@Z 0000000180039630 f   Plist.obj
 0001:000386a0       ?_Get@?$_Func_impl_no_alloc@V<lambda_87e110110aa5c29eaf754372c3484d5b>@@_NPEA_W_K@std@@EEBAPEBXXZ 00000001800396a0 f   Plist.obj
 0001:000386a0       ?_Get@?$_Func_impl_no_alloc@V<lambda_6ecd11d6a952986d4bf89c34edf08f5f>@@XAEBUtagVARIANT@@@std@@EEBAPEBXXZ 00000001800396a0 f   WMI.obj
 0001:000386a0       ?_Get@?$_Func_impl_no_alloc@V<lambda_aac7a801b46524f039ecb4f6852a8dbe>@@XAEBUtagVARIANT@@@std@@EEBAPEBXXZ 00000001800396a0 f   WMI.obj
 0001:000386b0       ?_Target_type@?$_Func_impl_no_alloc@V<lambda_87e110110aa5c29eaf754372c3484d5b>@@_NPEA_W_K@std@@EEBAAEBVtype_info@@XZ 00000001800396b0 f   Plist.obj
 0001:000386d0       ?print_module_impl@@YAXQEAXAEBV?$basic_string@_WU?$char_traits@_W@std@@V?$allocator@_W@2@@std@@KAEBUoptions@@AEBV?$function@$$A6A_NPEA_W_K@Z@2@@Z 00000001800396d0 f   Plist.obj
 0001:00039d80       ?ProcessPath@@YA@K@Z       000000018003ad80 f   WMI.obj
 0001:00039ea0       ?_Copy@?$_Func_impl_no_alloc@V<lambda_6ecd11d6a952986d4bf89c34edf08f5f>@@XAEBUtagVARIANT@@@std@@EEBAPEAV?$_Func_base@XAEBUtagVARIANT@@@2@PEAX@Z 000000018003aea0 f   WMI.obj
 0001:00039ea0       ?_Move@?$_Func_impl_no_alloc@V<lambda_6ecd11d6a952986d4bf89c34edf08f5f>@@XAEBUtagVARIANT@@@std@@EEAAPEAV?$_Func_base@XAEBUtagVARIANT@@@2@PEAX@Z 000000018003aea0 f   WMI.obj
 0001:00039ec0       ?_Copy@?$_Func_impl_no_alloc@V<lambda_aac7a801b46524f039ecb4f6852a8dbe>@@XAEBUtagVARIANT@@@std@@EEBAPEAV?$_Func_base@XAEBUtagVARIANT@@@2@PEAX@Z 000000018003aec0 f   WMI.obj
 0001:00039ec0       ?_Move@?$_Func_impl_no_alloc@V<lambda_aac7a801b46524f039ecb4f6852a8dbe>@@XAEBUtagVARIANT@@@std@@EEAAPEAV?$_Func_base@XAEBUtagVARIANT@@@2@PEAX@Z 000000018003aec0 f   WMI.obj
 0001:00039ee0       ?_Delete_this@?$_Func_impl_no_alloc@V<lambda_6ecd11d6a952986d4bf89c34edf08f5f>@@XAEBUtagVARIANT@@@std@@EEAAX_N@Z 000000018003aee0 f   WMI.obj
 0001:00039ee0       ?_Delete_this@?$_Func_impl_no_alloc@V<lambda_aac7a801b46524f039ecb4f6852a8dbe>@@XAEBUtagVARIANT@@@std@@EEAAX_N@Z 000000018003aee0 f   WMI.obj
 0001:00039ef0       ?_Do_call@?$_Func_impl_no_alloc@V<lambda_6ecd11d6a952986d4bf89c34edf08f5f>@@XAEBUtagVARIANT@@@std@@EEAAXAEBUtagVARIANT@@@Z 000000018003aef0 f   WMI.obj
 0001:00039f20       ?_Do_call@?$_Func_impl_no_alloc@V<lambda_aac7a801b46524f039ecb4f6852a8dbe>@@XAEBUtagVARIANT@@@std@@EEAAXAEBUtagVARIANT@@@Z 000000018003af20 f   WMI.obj
 0001:00039f30       ?_Target_type@?$_Func_impl_no_alloc@V<lambda_6ecd11d6a952986d4bf89c34edf08f5f>@@XAEBUtagVARIANT@@@std@@EEBAAEBVtype_info@@XZ 000000018003af30 f   WMI.obj
 0001:00039f40       ?_Target_type@?$_Func_impl_no_alloc@V<lambda_aac7a801b46524f039ecb4f6852a8dbe>@@XAEBUtagVARIANT@@@std@@EEBAAEBVtype_info@@XZ 000000018003af40 f   WMI.obj
 0001:00039f50       ?fNtQueryInformationFile@@YAJPEAX00KK@Z 000000018003af50 f   Proclist.obj
 0001:00039f50       ?fNtQueryInformationProcess@@YAJPEAXW4_PROCESSINFOCLASS@@0KPEAK@Z 000000018003af50 f   Proclist.obj
 0001:00039f50       ?fNtQueryInformationThread@@YAJPEAXK0KPEAK@Z 000000018003af50 f   Proclist.obj
 0001:00039f50       ?fNtQueryObject@@YAJPEAXK0K0@Z 000000018003af50 f   Proclist.obj
 0001:00039f50       ?fNtQuerySystemInformation@@YAJKPEAXKPEAK@Z 000000018003af50 f   Proclist.obj
 0001:00039f50       ?fNtWow64QueryInformationProcess64@@YAJPEAXW4_PROCESSINFOCLASS@@0KPEAK@Z 000000018003af50 f   Proclist.obj
 0001:00039f50       ?fNtWow64ReadVirtualMemory64@@YAJPEAX_K01PEA_K@Z 000000018003af50 f   Proclist.obj
 0001:00039f60       ?fEnumProcessModulesEx@@YAHPEAXPEAPEAUHINSTANCE__@@KPEAKK@Z 000000018003af60 f   Proclist.obj
 0001:00039f60       ?fGetGuiResources@@YAKPEAXK@Z 000000018003af60 f   Proclist.obj
 0001:00039f60       ?fGetSidIdentifierAuthority@@YAPEAU_SID_IDENTIFIER_AUTHORITY@@PEAX@Z 000000018003af60 f   Proclist.obj
 0001:00039f60       ?fGetSidSubAuthority@@YAPEAKPEAXK@Z 000000018003af60 f   Proclist.obj
 0001:00039f60       ?fGetSidSubAuthorityCount@@YAPEAEPEAX@Z 000000018003af60 f   Proclist.obj
 0001:00039f60       ?fIsValidSid@@YAHPEAX@Z    000000018003af60 f   Proclist.obj
 0001:00039f60       ?fIsWow64Process@@YAHPEAXPEAH@Z 000000018003af60 f   Proclist.obj
 0001:00039f60       no_op_initialize           000000018003af60 f   libucrt:wsetlocale.obj
 0001:00039f70       ?fCoSetProxyBlanket@@YAJPEAUIUnknown@@KKPEA_WKKPEAXK@Z 000000018003af70 f   Proclist.obj
 0001:00039fc0       ?dynamic_bind@@YAXXZ       000000018003afc0 f   Proclist.obj
 0001:0003ae48       tidy_global                000000018003be48 f   libcpmt:locale0.obj
 0001:0003b114       ?initialize_pointers@@YAHXZ 000000018003c114 f   libcpmt:winapisupp.obj
 0001:0003b9c0       ?dllmain_crt_dispatch@@YAHQEAUHINSTANCE__@@KQEAX@Z 000000018003c9c0 f   LIBCMT:dll_dllmain.obj
 0001:0003ba10       ?dllmain_crt_process_attach@@YAHQEAUHINSTANCE__@@QEAX@Z 000000018003ca10 f   LIBCMT:dll_dllmain.obj
 0001:0003bb28       ?dllmain_crt_process_detach@@YAH_N@Z 000000018003cb28 f   LIBCMT:dll_dllmain.obj
 0001:0003bbac       ?dllmain_dispatch@@YAHQEAUHINSTANCE__@@KQEAX@Z 000000018003cbac f   LIBCMT:dll_dllmain.obj
 0001:0003be20       $$000000                   000000018003ce20     LIBCMT:amdsecgs.obj
 0001:0003c498       capture_current_context    000000018003d498 f   LIBCMT:gs_report.obj
 0001:0003c508       capture_previous_context   000000018003d508 f   LIBCMT:gs_report.obj
 0001:0003d510       $$000000                   000000018003e510     libvcruntime:memchr.obj
 0001:0003d590       $$000000                   000000018003e590     libvcruntime:memcmp.obj
 0001:0003d670       $$000000                   000000018003e670     libvcruntime:memcpy.obj
 0001:0003da80       $$000000                   000000018003ea80     libvcruntime:memset.obj
 0001:0003e34c       ??$BuildCatchObjectHelperInternal@V__FrameHandler3@@@@YAHPEAUEHExceptionRecord@@PEAXPEBU_s_HandlerType@@PEBU_s_CatchableType@@@Z 000000018003f34c f   libvcruntime:frame.obj
 0001:0003e54c       ??$BuildCatchObjectHelperInternal@V__FrameHandler4@@@@YAHPEAUEHExceptionRecord@@PEAXPEAUHandlerType4@FH4@@PEBU_s_CatchableType@@@Z 000000018003f54c f   libvcruntime:frame.obj
 0001:0003e750       ??$BuildCatchObjectInternal@V__FrameHandler3@@@@YAXPEAUEHExceptionRecord@@PEAXPEBU_s_HandlerType@@PEBU_s_CatchableType@@@Z 000000018003f750 f   libvcruntime:frame.obj
 0001:0003e810       ??$BuildCatchObjectInternal@V__FrameHandler4@@@@YAXPEAUEHExceptionRecord@@PEAXPEAUHandlerType4@FH4@@PEBU_s_CatchableType@@@Z 000000018003f810 f   libvcruntime:frame.obj
 0001:0003e8d4       ??$CatchIt@V__FrameHandler3@@@@YAXPEAUEHExceptionRecord@@PEA_KPEAU_CONTEXT@@PEAU_xDISPATCHER_CONTEXT@@PEBU_s_FuncInfo@@PEBU_s_HandlerType@@PEBU_s_CatchableType@@PEBU_s_TryBlockMapEntry@@H1EE@Z 000000018003f8d4 f   libvcruntime:frame.obj
 0001:0003e9a8       ??$CatchIt@V__FrameHandler4@@@@YAXPEAUEHExceptionRecord@@PEA_KPEAU_CONTEXT@@PEAU_xDISPATCHER_CONTEXT@@PEAUFuncInfo4@FH4@@PEAUHandlerType4@4@PEBU_s_CatchableType@@PEAUTryBlockMapEntry4@4@H1EE@Z 000000018003f9a8 f   libvcruntime:frame.obj
 0001:0003ea7c       ??$FindHandler@V__FrameHandler3@@@@YAXPEAUEHExceptionRecord@@PEA_KPEAU_CONTEXT@@PEAU_xDISPATCHER_CONTEXT@@PEBU_s_FuncInfo@@EH1@Z 000000018003fa7c f   libvcruntime:frame.obj
 0001:0003ef74       ??$FindHandler@V__FrameHandler4@@@@YAXPEAUEHExceptionRecord@@PEA_KPEAU_CONTEXT@@PEAU_xDISPATCHER_CONTEXT@@PEAUFuncInfo4@FH4@@EH1@Z 000000018003ff74 f   libvcruntime:frame.obj
 0001:0003f484       ??$FindHandlerForForeignException@V__FrameHandler3@@@@YAXPEAUEHExceptionRecord@@PEA_KPEAU_CONTEXT@@PEAU_xDISPATCHER_CONTEXT@@PEBU_s_FuncInfo@@HH1@Z 0000000180040484 f   libvcruntime:frame.obj
 0001:0003f698       ??$FindHandlerForForeignException@V__FrameHandler4@@@@YAXPEAUEHExceptionRecord@@PEA_KPEAU_CONTEXT@@PEAU_xDISPATCHER_CONTEXT@@PEAUFuncInfo4@FH4@@HH1@Z 0000000180040698 f   libvcruntime:frame.obj
 0001:00040878       ?ExFilterRethrow@@YAHPEAU_EXCEPTION_POINTERS@@PEAUEHExceptionRecord@@PEAH@Z 0000000180041878 f   libvcruntime:frame.obj
 0001:00040900       ?ExFilterRethrowFH4@@YAHPEAU_EXCEPTION_POINTERS@@PEAUEHExceptionRecord@@HPEAH@Z 0000000180041900 f   libvcruntime:frame.obj
 0001:00040e28       ?IsInExceptionSpec@@YAEPEAUEHExceptionRecord@@PEBU_s_ESTypeList@@@Z 0000000180041e28 f   libvcruntime:frame.obj
 0001:00040f18       ?Is_bad_exception_allowed@@YAEPEBU_s_ESTypeList@@@Z 0000000180041f18 f   libvcruntime:frame.obj
 0001:00041260       $$000000                   0000000180042260     libvcruntime:notify.obj
 0001:000412dc       ?try_get_function@@YAPEAXW4function_id@?A0x81a78551@@QEBDQEBW4module_id@2@2@Z 00000001800422dc f   libvcruntime:winapi_downlevel.obj
 0001:000415d0       $$000000                   00000001800425d0     libvcruntime:handlers.obj
 0001:00041cb4       ??$common_vsprintf@Vformat_validation_base@__crt_stdio_output@@D@@YAH_KQEAD0QEBDQEAU__crt_locale_pointers@@1@Z 0000000180042cb4 f   libucrt:output.obj
 0001:00043cf0       $$000000                   0000000180044cf0     libucrt:log10.obj
 0001:000442a0       $$000000                   00000001800452a0     libucrt:pow.obj
 0001:00045a18       ??$?RV<lambda_41e84717acc955b55e9d0d529e507b68>@@AEAV<lambda_b37934c380d97b75fd242ea49540127a>@@V<lambda_bb6db9f9ac473960206e0d4b942b5506>@@@?$__crt_seh_guarded_call@PEAD@@QEAAPEAD$$QEAV<lambda_41e84717acc955b55e9d0d529e507b68>@@AEAV<lambda_b37934c380d97b75fd242ea49540127a>@@$$QEAV<lambda_bb6db9f9ac473960206e0d4b942b5506>@@@Z 0000000180046a18 f   libucrt:setlocale.obj
 0001:00045a58       ??R<lambda_b37934c380d97b75fd242ea49540127a>@@QEBAPEADXZ 0000000180046a58 f   libucrt:setlocale.obj
 0001:00046914       memcpy_s                   0000000180047914 f   libucrt:cfout.obj
 0001:00046914       memcpy_s                   0000000180047914 f   libucrt:strtod.obj
 0001:000469a0       $$000000                   00000001800479a0     libucrt:powf.obj
 0001:00048110       ??$?RV<lambda_d80eeec6fff315bfe5c115232f3240e3>@@AEAV<lambda_6e4b09c48022b2350581041d5f6b0c4c>@@V<lambda_2358e3775559c9db80273638284d5e45>@@@?$__crt_seh_guarded_call@X@@QEAAX$$QEAV<lambda_d80eeec6fff315bfe5c115232f3240e3>@@AEAV<lambda_6e4b09c48022b2350581041d5f6b0c4c>@@$$QEAV<lambda_2358e3775559c9db80273638284d5e45>@@@Z 0000000180049110 f   libucrt:exit.obj
 0001:00048148       ??R<lambda_6e4b09c48022b2350581041d5f6b0c4c>@@QEBA@XZ 0000000180049148 f   libucrt:exit.obj
 0001:0004820c       ?atexit_exception_filter@@YAHK@Z 000000018004920c f   libucrt:exit.obj
 0001:00048218       ?common_exit@@YAXHW4_crt_exit_cleanup_mode@@W4_crt_exit_return_mode@@@Z 0000000180049218 f   libucrt:exit.obj
 0001:000482d4       ?exit_or_terminate_process@@YAXI@Z 00000001800492d4 f   libucrt:exit.obj
 0001:00048320       ?try_cor_exit_process@@YAXI@Z 0000000180049320 f   libucrt:exit.obj
 0001:000483a8       ??$parse_command_line@D@@YAXPEADPEAPEAD0PEA_K2@Z 00000001800493a8 f   libucrt:argv_parsing.obj
 0001:00048754       ??$common_initialize_environment_nolock@D@@YAHXZ 0000000180049754 f   libucrt:environment_initialization.obj
 0001:000487c0       ??$create_environment@D@@YAQEAPEADQEAD@Z 00000001800497c0 f   libucrt:environment_initialization.obj
 0001:000488c8       ??$free_environment@D@@YAXQEAPEAD@Z 00000001800498c8 f   libucrt:environment_initialization.obj
 0001:000488c8       ??$free_environment@_W@@YAXQEAPEA_W@Z 00000001800498c8 f   libucrt:environment_initialization.obj
 0001:0004890c       ??$uninitialize_environment_internal@D@@YAXAEAPEAPEAD@Z 000000018004990c f   libucrt:environment_initialization.obj
 0001:00048928       ??$uninitialize_environment_internal@_W@@YAXAEAPEAPEA_W@Z 0000000180049928 f   libucrt:environment_initialization.obj
 0001:00048984       ??$?RV<lambda_638799b9deba96c50f710eeac98168cd>@@AEAV<lambda_22ebabd17bc4fa466a2aca6d8deb888d>@@V<lambda_a6f7d7db0129f75315ebf26d50c089f1>@@@?$__crt_seh_guarded_call@H@@QEAAH$$QEAV<lambda_638799b9deba96c50f710eeac98168cd>@@AEAV<lambda_22ebabd17bc4fa466a2aca6d8deb888d>@@$$QEAV<lambda_a6f7d7db0129f75315ebf26d50c089f1>@@@Z 0000000180049984 f   libucrt:onexit.obj
 0001:000489c0       ??$?RV<lambda_7777bce6b2f8c936911f934f8298dc43>@@AEAV<lambda_f03950bc5685219e0bcd2087efbe011e>@@V<lambda_3883c3dff614d5e0c5f61bb1ac94921c>@@@?$__crt_seh_guarded_call@H@@QEAAH$$QEAV<lambda_7777bce6b2f8c936911f934f8298dc43>@@AEAV<lambda_f03950bc5685219e0bcd2087efbe011e>@@$$QEAV<lambda_3883c3dff614d5e0c5f61bb1ac94921c>@@@Z 00000001800499c0 f   libucrt:onexit.obj
 0001:000489fc       ??R<lambda_22ebabd17bc4fa466a2aca6d8deb888d>@@QEBAHXZ 00000001800499fc f   libucrt:onexit.obj
 0001:00048bac       ??R<lambda_f03950bc5685219e0bcd2087efbe011e>@@QEBAHXZ 0000000180049bac f   libucrt:onexit.obj
 0001:00048d80       initialize_global_variables 0000000180049d80 f   libucrt:initialization.obj
 0001:00048d94       initialize_c               0000000180049d94 f   libucrt:initialization.obj
 0001:00048db8       initialize_environment     0000000180049db8 f   libucrt:initialization.obj
 0001:00048db8       initialize_global_state_isolation 0000000180049db8 f   libucrt:initialization.obj
 0001:00048db8       report_memory_leaks        0000000180049db8 f   libucrt:initialization.obj
 0001:00048db8       uninitialize_c             0000000180049db8 f   libucrt:initialization.obj
 0001:00048db8       uninitialize_global_state_isolation 0000000180049db8 f   libucrt:initialization.obj
 0001:00048dbc       uninitialize_environment   0000000180049dbc f   libucrt:initialization.obj
 0001:00048dcc       initialize_pointers        0000000180049dcc f   libucrt:initialization.obj
 0001:00048e0c       uninitialize_vcruntime     0000000180049e0c f   libucrt:initialization.obj
 0001:00048e14       uninitialize_allocated_memory 0000000180049e14 f   libucrt:initialization.obj
 0001:00048e54       uninitialize_allocated_io_buffers 0000000180049e54 f   libucrt:initialization.obj
 0001:00049a90       $$000000                   000000018004aa90     libucrt:strncmp.obj
 0001:00049b4c       ??$?RV<lambda_0ae27a3a962d80f24befdcbee591983d>@@AEAV<lambda_8d0ee55de4b1038c4002e0adecdf1839>@@V<lambda_dc504788e8f1664fe9b84e20bfb512f2>@@@?$__crt_seh_guarded_call@X@@QEAAX$$QEAV<lambda_0ae27a3a962d80f24befdcbee591983d>@@AEAV<lambda_8d0ee55de4b1038c4002e0adecdf1839>@@$$QEAV<lambda_dc504788e8f1664fe9b84e20bfb512f2>@@@Z 000000018004ab4c f   libucrt:per_thread_data.obj
 0001:00049b8c       ??$?RV<lambda_2d41944a1d46af3157314b8a01080d33>@@AEAV<lambda_8f455de75cd7d7f24b4096f044d8b9e6>@@V<lambda_aa500f224e6afead328df44964fe2772>@@@?$__crt_seh_guarded_call@X@@QEAAX$$QEAV<lambda_2d41944a1d46af3157314b8a01080d33>@@AEAV<lambda_8f455de75cd7d7f24b4096f044d8b9e6>@@$$QEAV<lambda_aa500f224e6afead328df44964fe2772>@@@Z 000000018004ab8c f   libucrt:per_thread_data.obj
 0001:00049bcc       ??$?RV<lambda_aa87e3671a710a21b5dc78c0bdf72e11>@@AEAV<lambda_92619d2358a28f41a33ba319515a20b9>@@V<lambda_6992ecaafeb10aed2b74cb1fae11a551>@@@?$__crt_seh_guarded_call@X@@QEAAX$$QEAV<lambda_aa87e3671a710a21b5dc78c0bdf72e11>@@AEAV<lambda_92619d2358a28f41a33ba319515a20b9>@@$$QEAV<lambda_6992ecaafeb10aed2b74cb1fae11a551>@@@Z 000000018004abcc f   libucrt:per_thread_data.obj
 0001:00049c14       ??$?RV<lambda_f2e299630e499de9f9a165e60fcd3db5>@@AEAV<lambda_2ae9d31cdba2644fcbeaf08da7c24588>@@V<lambda_40d01ff24d0e7b3814fdbdcee8eab3c7>@@@?$__crt_seh_guarded_call@X@@QEAAX$$QEAV<lambda_f2e299630e499de9f9a165e60fcd3db5>@@AEAV<lambda_2ae9d31cdba2644fcbeaf08da7c24588>@@$$QEAV<lambda_40d01ff24d0e7b3814fdbdcee8eab3c7>@@@Z 000000018004ac14 f   libucrt:per_thread_data.obj
 0001:00049c74       ?construct_ptd_array@@YAXQEAU__acrt_ptd@@@Z 000000018004ac74 f   libucrt:per_thread_data.obj
 0001:00049d44       ?destroy_fls@@YAXPEAX@Z    000000018004ad44 f   libucrt:per_thread_data.obj
 0001:00049d64       ?destroy_ptd_array@@YAXQEAU__acrt_ptd@@@Z 000000018004ad64 f   libucrt:per_thread_data.obj
 0001:00049e5c       ?replace_current_thread_locale_nolock@@YAXQEAU__acrt_ptd@@QEAU__crt_locale_data@@@Z 000000018004ae5c f   libucrt:per_thread_data.obj
 0001:0004a438       ?<lambda_invoker_cdecl>@<lambda_795c6bd18aed400428efeb9a5f0e1479>@@CAHPEA_W@Z 000000018004b438 f   libucrt:winapi_thunks.obj
 0001:0004a460       ??$?RV<lambda_48fc4a32460bb0512d3b13f8499328be>@@AEAV<lambda_6c3dac0a4f3f9cefca9bb494422f9b77>@@V<lambda_0a2f2c9f9a56eb2b08bfa6ff61d331c5>@@@?$__crt_seh_guarded_call@H@@QEAAH$$QEAV<lambda_48fc4a32460bb0512d3b13f8499328be>@@AEAV<lambda_6c3dac0a4f3f9cefca9bb494422f9b77>@@$$QEAV<lambda_0a2f2c9f9a56eb2b08bfa6ff61d331c5>@@@Z 000000018004b460 f   libucrt:winapi_thunks.obj
 0001:0004a4dc       ?try_get_function@@YAPEAXW4function_id@?A0x391cf84c@@QEBDQEBW4module_id@2@2@Z 000000018004b4dc f   libucrt:winapi_thunks.obj
 0001:0004aefc       ??$?RV<lambda_842d9ff0dc9ef11c61343bbaebe7f885>@@AEAV<lambda_c5860995281e5c4ce005b3de8f5874ee>@@V<lambda_d90129c13df834fdcbf8d2b88dafcf2d>@@@?$__crt_seh_guarded_call@X@@QEAAX$$QEAV<lambda_842d9ff0dc9ef11c61343bbaebe7f885>@@AEAV<lambda_c5860995281e5c4ce005b3de8f5874ee>@@$$QEAV<lambda_d90129c13df834fdcbf8d2b88dafcf2d>@@@Z 000000018004befc f   libucrt:fflush.obj
 0001:0004af98       ??$?RV<lambda_886d6c58226a84441f68b9f2b8217b83>@@AEAV<lambda_ab61a845afdef5b7c387490eaf3616ee>@@V<lambda_f7f22ab5edc0698d5f6905b0d3f44752>@@@?$__crt_seh_guarded_call@X@@QEAAX$$QEAV<lambda_886d6c58226a84441f68b9f2b8217b83>@@AEAV<lambda_ab61a845afdef5b7c387490eaf3616ee>@@$$QEAV<lambda_f7f22ab5edc0698d5f6905b0d3f44752>@@@Z 000000018004bf98 f   libucrt:fflush.obj
 0001:0004b078       ?common_flush_all@@YAH_N@Z 000000018004c078 f   libucrt:fflush.obj
 0001:0004b1e8       ?initialize_inherited_file_handles_nolock@@YAXXZ 000000018004c1e8 f   libucrt:ioinit.obj
 0001:0004b2d8       ?initialize_stdio_handles_nolock@@YAXXZ 000000018004c2d8 f   libucrt:ioinit.obj
 0001:0004b460       ?write_double_translated_ansi_nolock@@YA?AUwrite_result@?A0x17268360@@HQEBDI@Z 000000018004c460 f   libucrt:write.obj
 0001:0004b930       ?write_text_ansi_nolock@@YA?AUwrite_result@?A0x17268360@@HQEBDI@Z 000000018004c930 f   libucrt:write.obj
 0001:0004ba34       ?write_text_utf16le_nolock@@YA?AUwrite_result@?A0x17268360@@HQEBDI@Z 000000018004ca34 f   libucrt:write.obj
 0001:0004bb50       ?write_text_utf8_nolock@@YA?AUwrite_result@?A0x17268360@@HQEBDI@Z 000000018004cb50 f   libucrt:write.obj
 0001:0004c4b4       ?fp_format_a@@YAHQEBNPEAD_KQEAD2H_NIQEAU__crt_locale_pointers@@@Z 000000018004d4b4 f   libucrt:cvt.obj
 0001:0004c824       ?fp_format_e@@YAHQEBNQEAD_K12H_NIQEAU__crt_locale_pointers@@@Z 000000018004d824 f   libucrt:cvt.obj
 0001:0004c900       ?fp_format_e_internal@@YAHQEAD_KH_NIQEAU_strflt@@2QEAU__crt_locale_pointers@@@Z 000000018004d900 f   libucrt:cvt.obj
 0001:0004cad4       ?fp_format_f_internal@@YAHQEAD_KHQEAU_strflt@@_NQEAU__crt_locale_pointers@@@Z 000000018004dad4 f   libucrt:cvt.obj
 0001:0004cc18       ?fp_format_g@@YAHQEBNQEAD_K12H_NIQEAU__crt_locale_pointers@@@Z 000000018004dc18 f   libucrt:cvt.obj
 0001:0004d068       ??$?RV<lambda_1d892b297fdedeee07ed8124eeb2f2fa>@@AEAV<lambda_ffc046909424fd52df0ac47e64813305>@@V<lambda_01a7098693036236037e7cdb9bca3d73>@@@?$__crt_seh_guarded_call@X@@QEAAX$$QEAV<lambda_1d892b297fdedeee07ed8124eeb2f2fa>@@AEAV<lambda_ffc046909424fd52df0ac47e64813305>@@$$QEAV<lambda_01a7098693036236037e7cdb9bca3d73>@@@Z 000000018004e068 f   libucrt:wsetlocale.obj
 0001:0004d1a4       ??$?RV<lambda_410d79af7f07d98d83a3f525b3859a53>@@AEAV<lambda_3e16ef9562a7dcce91392c22ab16ea36>@@V<lambda_38119f0e861e05405d8a144b9b982f0a>@@@?$__crt_seh_guarded_call@X@@QEAAX$$QEAV<lambda_410d79af7f07d98d83a3f525b3859a53>@@AEAV<lambda_3e16ef9562a7dcce91392c22ab16ea36>@@$$QEAV<lambda_38119f0e861e05405d8a144b9b982f0a>@@@Z 000000018004e1a4 f   libucrt:wsetlocale.obj
 0001:0004d214       ??$?RV<lambda_7f2adfce497ff2baa965cd4f576ecfd1>@@AEAV<lambda_2a444430fde8c29194d880d93eed5e8f>@@AEAV<lambda_8dff2cf36a5417162780cd64fa2883ef>@@@?$__crt_seh_guarded_call@X@@QEAAX$$QEAV<lambda_7f2adfce497ff2baa965cd4f576ecfd1>@@AEAV<lambda_2a444430fde8c29194d880d93eed5e8f>@@AEAV<lambda_8dff2cf36a5417162780cd64fa2883ef>@@@Z 000000018004e214 f   libucrt:wsetlocale.obj
 0001:0004d240       ??R<lambda_2a444430fde8c29194d880d93eed5e8f>@@QEBA@XZ 000000018004e240 f   libucrt:wsetlocale.obj
 0001:0004d614       _copytlocinfo_nolock       000000018004e614 f   libucrt:wsetlocale.obj
 0001:0004d6d4       _expandlocale              000000018004e6d4 f   libucrt:wsetlocale.obj
 0001:0004dc60       _wsetlocale_get_all        000000018004ec60 f   libucrt:wsetlocale.obj
 0001:0004de4c       _wsetlocale_nolock         000000018004ee4c f   libucrt:wsetlocale.obj
 0001:0004e0e4       _wsetlocale_set_cat        000000018004f0e4 f   libucrt:wsetlocale.obj
 0001:0004e438       parse_bcp47                000000018004f438 f   libucrt:wsetlocale.obj
 0001:0004e638       parse_bcp47_code_page      000000018004f638 f   libucrt:wsetlocale.obj
 0001:0004e680       parse_bcp47_language       000000018004f680 f   libucrt:wsetlocale.obj
 0001:0004e70c       parse_bcp47_region         000000018004f70c f   libucrt:wsetlocale.obj
 0001:0004e818       parse_bcp47_script         000000018004f818 f   libucrt:wsetlocale.obj
 0001:0004e8a8       string_is_alpha            000000018004f8a8 f   libucrt:wsetlocale.obj
 0001:0004e91c       ?_mbstowcs_l_helper@@YA_KPEA_WPEBD_KPEAU__crt_locale_pointers@@@Z 000000018004f91c f   libucrt:mbstowcs.obj
 0001:0004ed4c       _call_matherr              000000018004fd4c f   libucrt:libm_error.obj
 0001:0004edb4       _exception_enabled         000000018004fdb4 f   libucrt:libm_error.obj
 0001:0004f2b0       _log_special_common        00000001800502b0 f   libucrt:log_special.obj
 0001:0004f600       ?_wcstombs_l_helper@@YA_KPEADPEB_W_KPEAU__crt_locale_pointers@@@Z 0000000180050600 f   libucrt:wcstombs.obj
 0001:0004fa54       ?InternalGetLocaleInfoA@@YAHQEAU__crt_locale_pointers@@QEB_WKQEADH@Z 0000000180050a54 f   libucrt:getlocaleinfoa.obj
 0001:0004ff28       ?__acrt_LCMapStringA_stat@@YAHPEAU__crt_locale_pointers@@PEB_WKPEBDHPEADHHH@Z 0000000180050f28 f   libucrt:lcmapstringa.obj
 0001:000508c0       ??$?RV<lambda_450d765d439847d4c735a33c368b5fc0>@@AEAV<lambda_44731a7d0e6d81c3e6aa82d741081786>@@V<lambda_601a2a7da3b7a96e9554ac7215c4b07c>@@@?$__crt_seh_guarded_call@P6AXH@Z@@QEAAP6AXH@Z$$QEAV<lambda_450d765d439847d4c735a33c368b5fc0>@@AEAV<lambda_44731a7d0e6d81c3e6aa82d741081786>@@$$QEAV<lambda_601a2a7da3b7a96e9554ac7215c4b07c>@@@Z 00000001800518c0 f   libucrt:signal.obj
 0001:00050ee8       ?<lambda_invoker_cdecl>@<lambda_a1ce4c8ae42411fd470c77163914f50e>@@CAHPEBX0@Z 0000000180051ee8 f   libucrt:argv_wildcards.obj
 0001:00051088       ??$common_expand_argv_wildcards@D@@YAHQEAPEADQEAPEAPEAD@Z 0000000180052088 f   libucrt:argv_wildcards.obj
 0001:00051294       ??$copy_and_add_argument_to_buffer@D@@YAHQEBD0_KAEAV?$argument_list@D@?A0x5f5c8891@@@Z 0000000180052294 f   libucrt:argv_wildcards.obj
 0001:0005141c       ??$expand_argument_wildcards@D@@YAHQEAD0AEAV?$argument_list@D@?A0x5f5c8891@@@Z 000000018005241c f   libucrt:argv_wildcards.obj
 0001:00051854       ??$?RV<lambda_efdfa57d1f175319df784efa44bb7b81>@@AEAV<lambda_5f0a4c1567f8adc6734073e5d1e1b35c>@@V<lambda_2e8a7d3640ea6ccb4c2413664c2db6fd>@@@?$__crt_seh_guarded_call@X@@QEAAX$$QEAV<lambda_efdfa57d1f175319df784efa44bb7b81>@@AEAV<lambda_5f0a4c1567f8adc6734073e5d1e1b35c>@@$$QEAV<lambda_2e8a7d3640ea6ccb4c2413664c2db6fd>@@@Z 0000000180052854 f   libucrt:mbctype.obj
 0001:00051a10       ?getSystemCP@@YAHH@Z       0000000180052a10 f   libucrt:mbctype.obj
 0001:00051a90       ?setSBCS@@YAXPEAU__crt_multibyte_data@@@Z 0000000180052a90 f   libucrt:mbctype.obj
 0001:00051b20       ?setSBUpLow@@YAXPEAU__crt_multibyte_data@@@Z 0000000180052b20 f   libucrt:mbctype.obj
 0001:00051d04       ?setmbcp_internal@@YAHH_NQEAU__acrt_ptd@@QEAPEAU__crt_multibyte_data@@@Z 0000000180052d04 f   libucrt:mbctype.obj
 0001:00051ec8       ?update_thread_multibyte_data_internal@@YAPEAU__crt_multibyte_data@@QEAU__acrt_ptd@@QEAPEAU1@@Z 0000000180052ec8 f   libucrt:mbctype.obj
 0001:000522b8       ?x_ismbbtype_l@@YAHPEAU__crt_locale_pointers@@IHH@Z 00000001800532b8 f   libucrt:ismbbyte.obj
 0001:00052ff4       ??$?RV<lambda_a37b2b86f63e897a80ea819b0eb08c01>@@AEAV<lambda_38ce7e780aa69e748d6df282ebc68efe>@@V<lambda_99fb1378e971ab6e7edea83e3a7a83a2>@@@?$__crt_seh_guarded_call@H@@QEAAH$$QEAV<lambda_a37b2b86f63e897a80ea819b0eb08c01>@@AEAV<lambda_38ce7e780aa69e748d6df282ebc68efe>@@$$QEAV<lambda_99fb1378e971ab6e7edea83e3a7a83a2>@@@Z 0000000180053ff4 f   libucrt:commit.obj
 0001:00053114       ??$common_lseek_nolock@_J@@YA_JH_JH@Z 0000000180054114 f   libucrt:lseek.obj
 0001:00055110       ?free_crt_array_internal@@YAXQEAPEBX_K@Z 0000000180056110 f   libucrt:inittime.obj
 0001:00055168       ?initialize_lc_time@@YA_NQEAU__crt_lc_time_data@@QEAU__crt_locale_data@@@Z 0000000180056168 f   libucrt:inittime.obj
 0001:000558b0       GetLocaleNameFromDefault   00000001800568b0 f   libucrt:get_qualified_locale.obj
 0001:00055958       GetLocaleNameFromLangCountry 0000000180056958 f   libucrt:get_qualified_locale.obj
 0001:00055a28       GetLocaleNameFromLanguage  0000000180056a28 f   libucrt:get_qualified_locale.obj
 0001:00055ac0       LangCountryEnumProcEx      0000000180056ac0 f   libucrt:get_qualified_locale.obj
 0001:00055dac       LanguageEnumProcEx         0000000180056dac f   libucrt:get_qualified_locale.obj
 0001:00055e98       ProcessCodePage            0000000180056e98 f   libucrt:get_qualified_locale.obj
 0001:00055f64       TestDefaultCountry         0000000180056f64 f   libucrt:get_qualified_locale.obj
 0001:00055fc8       TranslateName              0000000180056fc8 f   libucrt:get_qualified_locale.obj
 0001:000562c8       CountryEnumProc            00000001800572c8 f   libucrt:getqloc_downlevel.obj
 0001:000563b0       GetLcidFromLangCountry     00000001800573b0 f   libucrt:getqloc_downlevel.obj
 0001:00056480       GetLcidFromLanguage        0000000180057480 f   libucrt:getqloc_downlevel.obj
 0001:00056518       LangCountryEnumProc        0000000180057518 f   libucrt:getqloc_downlevel.obj
 0001:00056764       LanguageEnumProc           0000000180057764 f   libucrt:getqloc_downlevel.obj
 0001:0005686c       LcidFromHexString          000000018005786c f   libucrt:getqloc_downlevel.obj
 0001:000568bc       ProcessCodePage            00000001800578bc f   libucrt:getqloc_downlevel.obj
 0001:0005696c       TestDefaultLanguage        000000018005796c f   libucrt:getqloc_downlevel.obj
 0001:00056a18       TranslateName              0000000180057a18 f   libucrt:getqloc_downlevel.obj
 0001:00056e40       $$000000                   0000000180057e40     libucrt:fpsr.obj
 0001:00057310       fallbackMethod             0000000180058310 f   libucrt:strpbrk.obj
 0001:000576d4       $LN78                      00000001800586d4     libucrt:strpbrk.obj
 0001:00057710       $LN77                      0000000180058710     libucrt:strpbrk.obj
 0001:00057750       $LN76                      0000000180058750     libucrt:strpbrk.obj
 0001:0005782c       ?initialize_multibyte@@YAHXZ 000000018005882c f   libucrt:multibyte_initializer.obj
 0001:00057a64       ??$?RV<lambda_751a882b2c74d4b022dec766aa51a29a>@@AEAV<lambda_628dfdc04ba53c8bfc02c9951375f3f5>@@V<lambda_f6c7be5f7998530c34de24c7437d6b54>@@@?$__crt_seh_guarded_call@H@@QEAAH$$QEAV<lambda_751a882b2c74d4b022dec766aa51a29a>@@AEAV<lambda_628dfdc04ba53c8bfc02c9951375f3f5>@@$$QEAV<lambda_f6c7be5f7998530c34de24c7437d6b54>@@@Z 0000000180058a64 f   libucrt:close.obj
 0001:000580e4       ??$common_xtox@K_W@@YAHKQEA_W_KI_N@Z 00000001800590e4 f   libucrt:xtoa.obj
 0001:000581b8       ??$common_xtox_s@K_W@@YAHKQEA_W_KI_N@Z 00000001800591b8 f   libucrt:xtoa.obj
 0001:000586b0       $$000000                   00000001800596b0     LIBCMT:guard_dispatch.obj
 0001:000586d0       ?dtor$0@?0???$decimal_point_impl@_W@detail@v7@fmt@@YA_WVlocale_ref@012@@Z@4HA 00000001800596d0 f   format.obj
 0001:000586d0       ?dtor$0@?0???$grouping_impl@_W@detail@v7@fmt@@YA?AV?$basic_string@DU?$char_traits@D@std@@V?$allocator@D@2@@std@@Vlocale_ref@012@@Z@4HA 00000001800596d0 f   format.obj
 0001:000586d0       ?dtor$0@?0???$thousands_sep_impl@_W@detail@v7@fmt@@YA_WVlocale_ref@012@@Z@4HA 00000001800596d0 f   format.obj
 0001:000586e0       ?dtor$0@?0???$fallback_format@N@detail@v7@fmt@@YAXNH_NAEAV?$buffer@D@012@AEAH@Z@4HA 00000001800596e0 f   format.obj
 0001:000586e0       ?dtor$0@?0???$fallback_format@O@detail@v7@fmt@@YAXOH_NAEAV?$buffer@D@012@AEAH@Z@4HA 00000001800596e0 f   format.obj
 0001:000586f0       ?dtor$1@?0???$fallback_format@N@detail@v7@fmt@@YAXNH_NAEAV?$buffer@D@012@AEAH@Z@4HA 00000001800596f0 f   format.obj
 0001:000586f0       ?dtor$1@?0???$fallback_format@O@detail@v7@fmt@@YAXOH_NAEAV?$buffer@D@012@AEAH@Z@4HA 00000001800596f0 f   format.obj
 0001:00058700       ?dtor$2@?0???$fallback_format@N@detail@v7@fmt@@YAXNH_NAEAV?$buffer@D@012@AEAH@Z@4HA 0000000180059700 f   format.obj
 0001:00058700       ?dtor$2@?0???$fallback_format@O@detail@v7@fmt@@YAXOH_NAEAV?$buffer@D@012@AEAH@Z@4HA 0000000180059700 f   format.obj
 0001:00058710       ?dtor$3@?0???$fallback_format@N@detail@v7@fmt@@YAXNH_NAEAV?$buffer@D@012@AEAH@Z@4HA 0000000180059710 f   format.obj
 0001:00058710       ?dtor$3@?0???$fallback_format@O@detail@v7@fmt@@YAXOH_NAEAV?$buffer@D@012@AEAH@Z@4HA 0000000180059710 f   format.obj
 0001:00058720       ?dtor$0@?0???$use_facet@V?$numpunct@_W@std@@@std@@YAAEBV?$numpunct@_W@0@AEBVlocale@0@@Z@4HA 0000000180059720 f   format.obj
 0001:00058730       ?dtor$1@?0???$use_facet@V?$numpunct@_W@std@@@std@@YAAEBV?$numpunct@_W@0@AEBVlocale@0@@Z@4HA 0000000180059730 f   format.obj
 0001:00058740       ?dtor$0@?0??_Getcat@?$numpunct@_W@std@@SA_KPEAPEBVfacet@locale@2@PEBV42@@Z@4HA 0000000180059740 f   format.obj
 0001:00058760       ?dtor$1@?0??_Getcat@?$numpunct@_W@std@@SA_KPEAPEBVfacet@locale@2@PEBV42@@Z@4HA 0000000180059760 f   format.obj
 0001:00058790       ?dtor$2@?0??_Getcat@?$numpunct@_W@std@@SA_KPEAPEBVfacet@locale@2@PEBV42@@Z@4HA 0000000180059790 f   format.obj
 0001:000587a0       ?dtor$3@?0??_Getcat@?$numpunct@_W@std@@SA_KPEAPEBVfacet@locale@2@PEBV42@@Z@4HA 00000001800597a0 f   format.obj
 0001:000587b0       ?dtor$4@?0??_Getcat@?$numpunct@_W@std@@SA_KPEAPEBVfacet@locale@2@PEBV42@@Z@4HA 00000001800597b0 f   format.obj
 0001:000587c0       ?dtor$5@?0??_Getcat@?$numpunct@_W@std@@SA_KPEAPEBVfacet@locale@2@PEBV42@@Z@4HA 00000001800597c0 f   format.obj
 0001:000587d0       ?dtor$6@?0??_Getcat@?$numpunct@_W@std@@SA_KPEAPEBVfacet@locale@2@PEBV42@@Z@4HA 00000001800597d0 f   format.obj
 0001:000587e0       ?dtor$7@?0??_Getcat@?$numpunct@_W@std@@SA_KPEAPEBVfacet@locale@2@PEBV42@@Z@4HA 00000001800597e0 f   format.obj
 0001:000587f0       ?dtor$8@?0??_Getcat@?$numpunct@_W@std@@SA_KPEAPEBVfacet@locale@2@PEBV42@@Z@4HA 00000001800597f0 f   format.obj
 0001:00058800       ?dtor$9@?0??_Getcat@?$numpunct@_W@std@@SA_KPEAPEBVfacet@locale@2@PEBV42@@Z@4HA 0000000180059800 f   format.obj
 0001:00058810       ?dtor$0@?0??_Init@?$numpunct@_W@std@@IEAAXAEBV_Locinfo@2@_N@Z@4HA 0000000180059810 f   format.obj
 0001:00058820       ?dtor$0@?0??on_error@error_handler@detail@v7@fmt@@QEAAXPEBD@Z@4HA 0000000180059820 f   format.obj
 0001:00058820       ?dtor$0@?0???$handle_int_type_spec@AEAU?$int_writer@V?$buffer_appender@_W@detail@v7@fmt@@_WI@detail@v7@fmt@@@detail@v7@fmt@@YAXDAEAU?$int_writer@V?$buffer_appender@_W@detail@v7@fmt@@_WI@012@@Z@4HA 0000000180059820 f   handles.obj
 0001:00058820       ?dtor$0@?0???$handle_int_type_spec@AEAU?$int_writer@V?$buffer_appender@_W@detail@v7@fmt@@_W_K@detail@v7@fmt@@@detail@v7@fmt@@YAXDAEAU?$int_writer@V?$buffer_appender@_W@detail@v7@fmt@@_W_K@012@@Z@4HA 0000000180059820 f   handles.obj
 0001:00058820       ?dtor$0@?0??on_fill@?$specs_setter@_W@detail@v7@fmt@@QEAAXV?$basic_string_view@_W@34@@Z@4HA 0000000180059820 f   handles.obj
 0001:00058820       ?dtor$0@?0??write@?$arg_formatter_base@V?$buffer_appender@_W@detail@v7@fmt@@_WUerror_handler@234@@detail@v7@fmt@@IEAAXPEB_W@Z@4HA 0000000180059820 f   handles.obj
 0001:00058830       ?dtor$0@?0??square@bigint@detail@v7@fmt@@QEAAXXZ@4HA 0000000180059830 f   format.obj
 0001:00058840       ?dtor$0@?0???$vformat@_W$0A@@detail@v7@fmt@@YA?AV?$basic_string@_WU?$char_traits@_W@std@@V?$allocator@_W@2@@std@@V?$basic_string_view@_W@12@V?$basic_format_args@V?$basic_format_context@V?$buffer_appender@_W@detail@v7@fmt@@_W@v7@fmt@@@12@@Z@4HA 0000000180059840 f   handles.obj
 0001:00058850       ?dtor$3@?0???$visit_format_arg@U?$default_arg_formatter@V?$buffer_appender@_W@detail@v7@fmt@@_W@detail@v7@fmt@@V?$basic_format_context@V?$buffer_appender@_W@detail@v7@fmt@@_W@34@@v7@fmt@@YA?AV?$buffer_appender@_W@detail@01@$$QEAU?$default_arg_formatter@V?$buffer_appender@_W@detail@v7@fmt@@_W@301@AEBV?$basic_format_arg@V?$basic_format_context@V?$buffer_appender@_W@detail@v7@fmt@@_W@v7@fmt@@@01@@Z@4HA 0000000180059850 f   handles.obj
 0001:00058860       ?dtor$0@?0???$write@_WV?$buffer_appender@_W@detail@v7@fmt@@M$0A@@detail@v7@fmt@@YA?AV?$buffer_appender@_W@012@V3012@MU?$basic_format_specs@_W@12@Vlocale_ref@012@@Z@4HA 0000000180059860 f   handles.obj
 0001:00058860       ?dtor$0@?0???$write@_WV?$buffer_appender@_W@detail@v7@fmt@@N$0A@@detail@v7@fmt@@YA?AV?$buffer_appender@_W@012@V3012@NU?$basic_format_specs@_W@12@Vlocale_ref@012@@Z@4HA 0000000180059860 f   handles.obj
 0001:00058860       ?dtor$0@?0???$write@_WV?$buffer_appender@_W@detail@v7@fmt@@O$0A@@detail@v7@fmt@@YA?AV?$buffer_appender@_W@012@V3012@OU?$basic_format_specs@_W@12@Vlocale_ref@012@@Z@4HA 0000000180059860 f   handles.obj
 0001:00058870       ?dtor$1@?0???$write@_WV?$buffer_appender@_W@detail@v7@fmt@@M$0A@@detail@v7@fmt@@YA?AV?$buffer_appender@_W@012@V3012@MU?$basic_format_specs@_W@12@Vlocale_ref@012@@Z@4HA 0000000180059870 f   handles.obj
 0001:00058870       ?dtor$1@?0???$write@_WV?$buffer_appender@_W@detail@v7@fmt@@N$0A@@detail@v7@fmt@@YA?AV?$buffer_appender@_W@012@V3012@NU?$basic_format_specs@_W@12@Vlocale_ref@012@@Z@4HA 0000000180059870 f   handles.obj
 0001:00058870       ?dtor$1@?0???$write@_WV?$buffer_appender@_W@detail@v7@fmt@@O$0A@@detail@v7@fmt@@YA?AV?$buffer_appender@_W@012@V3012@OU?$basic_format_specs@_W@12@Vlocale_ref@012@@Z@4HA 0000000180059870 f   handles.obj
 0001:00058880       ?dtor$1@?0???R<lambda_c3630acb37279cf92411e07a2b271fdf>@@QEBA?AV?$basic_string@_WU?$char_traits@_W@std@@V?$allocator@_W@2@@std@@XZ@4HA 0000000180059880 f   handles.obj
 0001:00058890       ?dtor$2@?0???R<lambda_c3630acb37279cf92411e07a2b271fdf>@@QEBA?AV?$basic_string@_WU?$char_traits@_W@std@@V?$allocator@_W@2@@std@@XZ@4HA 0000000180059890 f   handles.obj
 0001:000588a0       ?dtor$3@?0???R<lambda_c3630acb37279cf92411e07a2b271fdf>@@QEBA?AV?$basic_string@_WU?$char_traits@_W@std@@V?$allocator@_W@2@@std@@XZ@4HA 00000001800598a0 f   handles.obj
 0001:000588b0       ?dtor$1@?0??GetNameByType@@YA?AV?$basic_string@_WU?$char_traits@_W@std@@V?$allocator@_W@2@@std@@PEAXGPEAVPerfThread@@@Z@4HA 00000001800598b0 f   handles.obj
 0001:000588c0       ?dtor$0@?0??query_object@@YA?AV?$unique_ptr@$$BY0A@DU?$default_delete@$$BY0A@D@std@@@std@@PEAXW4OBJECT_INFORMATION_CLASS@@@Z@4HA 00000001800598c0 f   handles.obj
 0001:000588c0       ?dtor$2@?0??GetNameByType@@YA?AV?$basic_string@_WU?$char_traits@_W@std@@V?$allocator@_W@2@@std@@PEAXGPEAVPerfThread@@@Z@4HA 00000001800598c0 f   handles.obj
 0001:000588d0       ?dtor$0@?0??Connect@Plist@@QEAA_NPEB_W00@Z@4HA 00000001800598d0 f   Pclass.obj
 0001:000588d0       ?dtor$0@?0??DeleteFiles@Plist@@QEAAHPEAUPluginPanelItem@@_K1@Z@4HA 00000001800598d0 f   Pclass.obj
 0001:000588d0       ?dtor$11@?0??GetFiles@Plist@@QEAAHPEAUPluginPanelItem@@_KHPEAPEB_W1AEAUoptions@@@Z@4HA 00000001800598d0 f   Pclass.obj
 0001:000588d0       ?dtor$12@?0??GetFiles@Plist@@QEAAHPEAUPluginPanelItem@@_KHPEAPEB_W1AEAUoptions@@@Z@4HA 00000001800598d0 f   Pclass.obj
 0001:000588d0       ?dtor$13@?0??GetFiles@Plist@@QEAAHPEAUPluginPanelItem@@_KHPEAPEB_W1AEAUoptions@@@Z@4HA 00000001800598d0 f   Pclass.obj
 0001:000588d0       ?dtor$15@?0??GetFiles@Plist@@QEAAHPEAUPluginPanelItem@@_KHPEAPEB_W1AEAUoptions@@@Z@4HA 00000001800598d0 f   Pclass.obj
 0001:000588d0       ?dtor$17@?0??GetFiles@Plist@@QEAAHPEAUPluginPanelItem@@_KHPEAPEB_W1AEAUoptions@@@Z@4HA 00000001800598d0 f   Pclass.obj
 0001:000588d0       ?dtor$20@?0??GetFiles@Plist@@QEAAHPEAUPluginPanelItem@@_KHPEAPEB_W1AEAUoptions@@@Z@4HA 00000001800598d0 f   Pclass.obj
 0001:000588d0       ?dtor$23@?0??GetFiles@Plist@@QEAAHPEAUPluginPanelItem@@_KHPEAPEB_W1AEAUoptions@@@Z@4HA 00000001800598d0 f   Pclass.obj
 0001:000588d0       ?dtor$28@?0??GetFiles@Plist@@QEAAHPEAUPluginPanelItem@@_KHPEAPEB_W1AEAUoptions@@@Z@4HA 00000001800598d0 f   Pclass.obj
 0001:000588d0       ?dtor$30@?0??GetFiles@Plist@@QEAAHPEAUPluginPanelItem@@_KHPEAPEB_W1AEAUoptions@@@Z@4HA 00000001800598d0 f   Pclass.obj
 0001:000588d0       ?dtor$32@?0??GetFiles@Plist@@QEAAHPEAUPluginPanelItem@@_KHPEAPEB_W1AEAUoptions@@@Z@4HA 00000001800598d0 f   Pclass.obj
 0001:000588d0       ?dtor$34@?0??GetFiles@Plist@@QEAAHPEAUPluginPanelItem@@_KHPEAPEB_W1AEAUoptions@@@Z@4HA 00000001800598d0 f   Pclass.obj
 0001:000588d0       ?dtor$37@?0??GetFiles@Plist@@QEAAHPEAUPluginPanelItem@@_KHPEAPEB_W1AEAUoptions@@@Z@4HA 00000001800598d0 f   Pclass.obj
 0001:000588d0       ?dtor$3@?0??DeleteFiles@Plist@@QEAAHPEAUPluginPanelItem@@_K1@Z@4HA 00000001800598d0 f   Pclass.obj
 0001:000588d0       ?dtor$3@?0??GetFiles@Plist@@QEAAHPEAUPluginPanelItem@@_KHPEAPEB_W1AEAUoptions@@@Z@4HA 00000001800598d0 f   Pclass.obj
 0001:000588d0       ?dtor$40@?0??GetFiles@Plist@@QEAAHPEAUPluginPanelItem@@_KHPEAPEB_W1AEAUoptions@@@Z@4HA 00000001800598d0 f   Pclass.obj
 0001:000588d0       ?dtor$4@?0??PrintOwnerInfo@Plist@@AEAAXPEAXK@Z@4HA 00000001800598d0 f   Pclass.obj
 0001:000588d0       ?dtor$5@?0??GetFiles@Plist@@QEAAHPEAUPluginPanelItem@@_KHPEAPEB_W1AEAUoptions@@@Z@4HA 00000001800598d0 f   Pclass.obj
 0001:000588d0       ?dtor$5@?0??PrintOwnerInfo@Plist@@AEAAXPEAXK@Z@4HA 00000001800598d0 f   Pclass.obj
 0001:000588d0       ?dtor$6@?0??PrintOwnerInfo@Plist@@AEAAXPEAXK@Z@4HA 00000001800598d0 f   Pclass.obj
 0001:000588d0       ?dtor$7@?0??GetFiles@Plist@@QEAAHPEAUPluginPanelItem@@_KHPEAPEB_W1AEAUoptions@@@Z@4HA 00000001800598d0 f   Pclass.obj
 0001:000588d0       ?dtor$9@?0??GetFiles@Plist@@QEAAHPEAUPluginPanelItem@@_KHPEAPEB_W1AEAUoptions@@@Z@4HA 00000001800598d0 f   Pclass.obj
 0001:000588d0       ?dtor$1@?0??WinError@@YAHPEB_W@Z@4HA 00000001800598d0 f   Pmix.obj
 0001:000588d0       ?dtor$3@?0??GetNameByType@@YA?AV?$basic_string@_WU?$char_traits@_W@std@@V?$allocator@_W@2@@std@@PEAXGPEAVPerfThread@@@Z@4HA 00000001800598d0 f   handles.obj
 0001:000588e0       ?dtor$12@?0??GetNameByType@@YA?AV?$basic_string@_WU?$char_traits@_W@std@@V?$allocator@_W@2@@std@@PEAXGPEAVPerfThread@@@Z@4HA 00000001800598e0 f   handles.obj
 0001:000588e0       ?dtor$3@?0??PrintHandleInfo@@YA_NKPEAX_NPEAVPerfThread@@@Z@4HA 00000001800598e0 f   handles.obj
 0001:000588f0       ?dtor$14@?0??GetNameByType@@YA?AV?$basic_string@_WU?$char_traits@_W@std@@V?$allocator@_W@2@@std@@PEAXGPEAVPerfThread@@@Z@4HA 00000001800598f0 f   handles.obj
 0001:00058900       ?dtor$20@?0??GetNameByType@@YA?AV?$basic_string@_WU?$char_traits@_W@std@@V?$allocator@_W@2@@std@@PEAXGPEAVPerfThread@@@Z@4HA 0000000180059900 f   handles.obj
 0001:00058920       ?dtor$0@?0??PrintHandleInfo@@YA_NKPEAX_NPEAVPerfThread@@@Z@4HA 0000000180059920 f   handles.obj
 0001:00058930       ?dtor$1@?0??GetVersionInfo@Plist@@SA_NPEB_WAEAV?$unique_ptr@$$BY0A@DU?$default_delete@$$BY0A@D@std@@@std@@AEAPEB_W2@Z@4HA 0000000180059930 f   Pclass.obj
 0001:00058930       ?dtor$1@?0??PrintVersionInfo@Plist@@CAXPEAXPEB_W@Z@4HA 0000000180059930 f   Pclass.obj
 0001:00058930       ?dtor$3@?0??PrintVersionInfo@Plist@@CAXPEAXPEB_W@Z@4HA 0000000180059930 f   Pclass.obj
 0001:00058930       ?dtor$0@?0??print_module_impl@@YAXQEAXAEBV?$basic_string@_WU?$char_traits@_W@std@@V?$allocator@_W@2@@std@@KAEBUoptions@@AEBV?$function@$$A6A_NPEA_W_K@Z@2@@Z@4HA 0000000180059930 f   Plist.obj
 0001:00058930       ?dtor$2@?0??PrintHandleInfo@@YA_NKPEAX_NPEAVPerfThread@@@Z@4HA 0000000180059930 f   handles.obj
 0001:00058930       ?dtor$6@?0??PrintHandleInfo@@YA_NKPEAX_NPEAVPerfThread@@@Z@4HA 0000000180059930 f   handles.obj
 0001:00058930       ?dtor$2@?0??RefreshWMIData@PerfThread@@AEAAXXZ@4HA 0000000180059930 f   perfthread.obj
 0001:00058940       ?dtor$5@?0??PrintHandleInfo@@YA_NKPEAX_NPEAVPerfThread@@@Z@4HA 0000000180059940 f   handles.obj
 0001:00058950       ?dtor$7@?0??PrintHandleInfo@@YA_NKPEAX_NPEAVPerfThread@@@Z@4HA 0000000180059950 f   handles.obj
 0001:00058960       ?dtor$20@?0??PrintHandleInfo@@YA_NKPEAX_NPEAVPerfThread@@@Z@4HA 0000000180059960 f   handles.obj
 0001:00058960       ?dtor$22@?0??PrintHandleInfo@@YA_NKPEAX_NPEAVPerfThread@@@Z@4HA 0000000180059960 f   handles.obj
 0001:00058970       ?dtor$0@?0??duplicate_handle@@YA?AV?$unique_ptr@XUhandle_closer@@@std@@PEAXK@Z@4HA 0000000180059970 f   handles.obj
 0001:00058980       ?dtor$0@?0??on_num@?$int_writer@V?$buffer_appender@_W@detail@v7@fmt@@_WI@detail@v7@fmt@@QEAAXXZ@4HA 0000000180059980 f   handles.obj
 0001:00058980       ?dtor$0@?0??on_num@?$int_writer@V?$buffer_appender@_W@detail@v7@fmt@@_W_K@detail@v7@fmt@@QEAAXXZ@4HA 0000000180059980 f   handles.obj
 0001:00058990       ?dtor$1@?0??on_num@?$int_writer@V?$buffer_appender@_W@detail@v7@fmt@@_WI@detail@v7@fmt@@QEAAXXZ@4HA 0000000180059990 f   handles.obj
 0001:00058990       ?dtor$1@?0??on_num@?$int_writer@V?$buffer_appender@_W@detail@v7@fmt@@_W_K@detail@v7@fmt@@QEAAXXZ@4HA 0000000180059990 f   handles.obj
 0001:000589a0       ?dtor$0@?0??Config@@YAHXZ@4HA 00000001800599a0 f   Pcfg.obj
 0001:000589b0       ?dtor$0@?0??Read@options@@QEAAXXZ@4HA 00000001800599b0 f   Pcfg.obj
 0001:000589b0       ?dtor$0@?0??Write@options@@QEBAXXZ@4HA 00000001800599b0 f   Pcfg.obj
 0001:000589b0       ?dtor$3@?0???0Plist@@QEAA@XZ@4HA 00000001800599b0 f   Pclass.obj
 0001:000589c0       ?dtor$0@?0???$_Assign_range@PEBUmode@@@?$vector@Umode@@V?$allocator@Umode@@@std@@@std@@AEAAXPEBUmode@@0Uforward_iterator_tag@1@@Z@4HA 00000001800599c0 f   Pclass.obj
 0001:000589d0       ?dtor$1@?0???$_Assign_range@PEBUmode@@@?$vector@Umode@@V?$allocator@Umode@@@std@@@std@@AEAAXPEBUmode@@0Uforward_iterator_tag@1@@Z@4HA 00000001800599d0 f   Pclass.obj
 0001:000589e0       ?dtor$3@?0???$_Assign_range@PEBUmode@@@?$vector@Umode@@V?$allocator@Umode@@@std@@@std@@AEAAXPEBUmode@@0Uforward_iterator_tag@1@@Z@4HA 00000001800599e0 f   Pclass.obj
 0001:000589e0       ?dtor$6@?0???$_Assign_range@PEBUmode@@@?$vector@Umode@@V?$allocator@Umode@@@std@@@std@@AEAAXPEBUmode@@0Uforward_iterator_tag@1@@Z@4HA 00000001800599e0 f   Pclass.obj
 0001:000589f0       ?dtor$4@?0???$_Assign_range@PEBUmode@@@?$vector@Umode@@V?$allocator@Umode@@@std@@@std@@AEAAXPEBUmode@@0Uforward_iterator_tag@1@@Z@4HA 00000001800599f0 f   Pclass.obj
 0001:000589f0       ?dtor$7@?0???$_Assign_range@PEBUmode@@@?$vector@Umode@@V?$allocator@Umode@@@std@@@std@@AEAAXPEBUmode@@0Uforward_iterator_tag@1@@Z@4HA 00000001800599f0 f   Pclass.obj
 0001:00058a00       ?catch$0@?0???$_Emplace_reallocate@AEB_K@?$vector@_KV?$allocator@_K@std@@@std@@QEAAPEA_KQEA_KAEB_K@Z@4HA 0000000180059a00 f   Pclass.obj
 0001:00058a00       ?catch$0@?0???$_Emplace_reallocate@_K@?$vector@_KV?$allocator@_K@std@@@std@@QEAAPEA_KQEA_K$$QEA_K@Z@4HA 0000000180059a00 f   Pclass.obj
 0001:00058a0d       __catch$??$_Emplace_reallocate@AEB_K@?$vector@_KV?$allocator@_K@std@@@std@@QEAAPEA_KQEA_KAEB_K@Z$0 0000000180059a0d f   Pclass.obj
 0001:00058a0d       __catch$??$_Emplace_reallocate@_K@?$vector@_KV?$allocator@_K@std@@@std@@QEAAPEA_KQEA_K$$QEA_K@Z$0 0000000180059a0d f   Pclass.obj
 0001:00058a30       ?catch$0@?0???$_Emplace_reallocate@UFarMenuItem@@@?$vector@UFarMenuItem@@V?$allocator@UFarMenuItem@@@std@@@std@@QEAAPEAUFarMenuItem@@QEAU2@$$QEAU2@@Z@4HA 0000000180059a30 f   Pclass.obj
 0001:00058a3d       __catch$??$_Emplace_reallocate@UFarMenuItem@@@?$vector@UFarMenuItem@@V?$allocator@UFarMenuItem@@@std@@@std@@QEAAPEAUFarMenuItem@@QEAU2@$$QEAU2@@Z$0 0000000180059a3d f   Pclass.obj
 0001:00058a60       ?catch$7@?0???$_Emplace_reallocate@V?$basic_string@_WU?$char_traits@_W@std@@V?$allocator@_W@2@@std@@@?$vector@V?$basic_string@_WU?$char_traits@_W@std@@V?$allocator@_W@2@@std@@V?$allocator@V?$basic_string@_WU?$char_traits@_W@std@@V?$allocator@_W@2@@std@@@2@@std@@QEAAPEAV?$basic_string@_WU?$char_traits@_W@std@@V?$allocator@_W@2@@1@QEAV21@$$QEAV21@@Z@4HA 0000000180059a60 f   Pclass.obj
 0001:00058a6e       __catch$??$_Emplace_reallocate@V?$basic_string@_WU?$char_traits@_W@std@@V?$allocator@_W@2@@std@@@?$vector@V?$basic_string@_WU?$char_traits@_W@std@@V?$allocator@_W@2@@std@@V?$allocator@V?$basic_string@_WU?$char_traits@_W@std@@V?$allocator@_W@2@@std@@@2@@std@@QEAAPEAV?$basic_string@_WU?$char_traits@_W@std@@V?$allocator@_W@2@@1@QEAV21@$$QEAV21@@Z$0 0000000180059a6e f   Pclass.obj
 0001:00058aa0       ?catch$0@?0???$_Resize_reallocate@U_Value_init_tag@std@@@?$vector@PEB_WV?$allocator@PEB_W@std@@@std@@AEAAX_KAEBU_Value_init_tag@1@@Z@4HA 0000000180059aa0 f   Pclass.obj
 0001:00058aad       __catch$??$_Resize_reallocate@U_Value_init_tag@std@@@?$vector@PEB_WV?$allocator@PEB_W@std@@@std@@AEAAX_KAEBU_Value_init_tag@1@@Z$0 0000000180059aad f   Pclass.obj
 0001:00058ad0       ?dtor$0@?0???$_Try_emplace@AEBK$$V@?$_Hash@V?$_Umap_traits@KPEAUHWND__@@V?$_Uhash_compare@KU?$hash@K@std@@U?$equal_to@K@2@@std@@V?$allocator@U?$pair@$$CBKPEAUHWND__@@@std@@@3@$0A@@std@@@std@@IEAA?AU?$pair@PEAU?$_List_node@U?$pair@$$CBKPEAUHWND__@@@std@@PEAX@std@@_N@1@AEBK@Z@4HA 0000000180059ad0 f   Pclass.obj
 0001:00058ad0       ?dtor$1@?0???$_Try_emplace@AEBK$$V@?$_Hash@V?$_Umap_traits@KPEAUHWND__@@V?$_Uhash_compare@KU?$hash@K@std@@U?$equal_to@K@2@@std@@V?$allocator@U?$pair@$$CBKPEAUHWND__@@@std@@@3@$0A@@std@@@std@@IEAA?AU?$pair@PEAU?$_List_node@U?$pair@$$CBKPEAUHWND__@@@std@@PEAX@std@@_N@1@AEBK@Z@4HA 0000000180059ad0 f   Pclass.obj
 0001:00058ae0       ?dtor$0@?0???0Plist@@QEAA@XZ@4HA 0000000180059ae0 f   Pclass.obj
 0001:00058af0       ?dtor$1@?0???0Plist@@QEAA@XZ@4HA 0000000180059af0 f   Pclass.obj
 0001:00058b00       ?dtor$2@?0???0Plist@@QEAA@XZ@4HA 0000000180059b00 f   Pclass.obj
 0001:00058b10       ?dtor$7@?0???0Plist@@QEAA@XZ@4HA 0000000180059b10 f   Pclass.obj
 0001:00058b30       ?dtor$0@?0??Compare@Plist@@QEBAHPEBUPluginPanelItem@@0I@Z@4HA 0000000180059b30 f   Pclass.obj
 0001:00058b40       ?dtor$1@?0??Connect@Plist@@QEAA_NPEB_W00@Z@4HA 0000000180059b40 f   Pclass.obj
 0001:00058b50       ?dtor$3@?0??Connect@Plist@@QEAA_NPEB_W00@Z@4HA 0000000180059b50 f   Pclass.obj
 0001:00058b70       ?dtor$1@?0??ConnectWMI@Plist@@AEAA_NXZ@4HA 0000000180059b70 f   Pclass.obj
 0001:00058b90       ?dtor$0@?0??DumpNTCounters@@YAXPEAXAEAVPerfThread@@KK@Z@4HA 0000000180059b90 f   Pclass.obj
 0001:00058ba0       ?dtor$1@?0??DumpNTCounters@@YAXPEAXAEAVPerfThread@@KK@Z@4HA 0000000180059ba0 f   Pclass.obj
 0001:00058ba0       ?dtor$2@?0??DumpNTCounters@@YAXPEAXAEAVPerfThread@@KK@Z@4HA 0000000180059ba0 f   Pclass.obj
 0001:00058ba0       ?dtor$2@?0??GetVersionInfo@Plist@@SA_NPEB_WAEAV?$unique_ptr@$$BY0A@DU?$default_delete@$$BY0A@D@std@@@std@@AEAPEB_W2@Z@4HA 0000000180059ba0 f   Pclass.obj
 0001:00058ba0       ?dtor$2@?0??PrintVersionInfo@Plist@@CAXPEAXPEB_W@Z@4HA 0000000180059ba0 f   Pclass.obj
 0001:00058ba0       ?dtor$4@?0??PrintVersionInfo@Plist@@CAXPEAXPEB_W@Z@4HA 0000000180059ba0 f   Pclass.obj
 0001:00058ba0       ?dtor$0@?0???$print_module@PEAX@@YAXQEAXPEAXKAEAUoptions@@AEBV?$function@$$A6A_NPEA_W_K@Z@std@@@Z@4HA 0000000180059ba0 f   Plist.obj
 0001:00058ba0       ?dtor$1@?0??print_module_impl@@YAXQEAXAEBV?$basic_string@_WU?$char_traits@_W@std@@V?$allocator@_W@2@@std@@KAEBUoptions@@AEBV?$function@$$A6A_NPEA_W_K@Z@2@@Z@4HA 0000000180059ba0 f   Plist.obj
 0001:00058bb0       ?dtor$3@?0??DumpNTCounters@@YAXPEAXAEAVPerfThread@@KK@Z@4HA 0000000180059bb0 f   Pclass.obj
 0001:00058bc0       ?dtor$0@?0??TranslateMode@@YA_NAEBV?$basic_string@_WU?$char_traits@_W@std@@V?$allocator@_W@2@@std@@AEAV12@@Z@4HA 0000000180059bc0 f   Pclass.obj
 0001:00058bc0       ?dtor$0@?0??window_ex_style@@YA@PEAUHWND__@@@Z@4HA 0000000180059bc0 f   Pclass.obj
 0001:00058bc0       ?dtor$0@?0??window_style@@YA@PEAUHWND__@@@Z@4HA 0000000180059bc0 f   Pclass.obj
 0001:00058bc0       ?dtor$183@?0??InitializePanelModes@Plist@@SAXXZ@4HA 0000000180059bc0 f   Pclass.obj
 0001:00058bc0       ?dtor$1@?0??SavePanelModes@Plist@@SAXXZ@4HA 0000000180059bc0 f   Pclass.obj
 0001:00058bc0       ?dtor$4@?0??DumpNTCounters@@YAXPEAXAEAVPerfThread@@KK@Z@4HA 0000000180059bc0 f   Pclass.obj
 0001:00058bc0       ?dtor$5@?0??DumpNTCounters@@YAXPEAXAEAVPerfThread@@KK@Z@4HA 0000000180059bc0 f   Pclass.obj
 0001:00058bd0       ?dtor$0@?0??GetFiles@Plist@@QEAAHPEAUPluginPanelItem@@_KHPEAPEB_W1AEAUoptions@@@Z@4HA 0000000180059bd0 f   Pclass.obj
 0001:00058be0       ?dtor$1@?0??GetFiles@Plist@@QEAAHPEAUPluginPanelItem@@_KHPEAPEB_W1AEAUoptions@@@Z@4HA 0000000180059be0 f   Pclass.obj
 0001:00058bf0       ?dtor$2@?0??GetFiles@Plist@@QEAAHPEAUPluginPanelItem@@_KHPEAPEB_W1AEAUoptions@@@Z@4HA 0000000180059bf0 f   Pclass.obj
 0001:00058c00       ?dtor$0@?0??PrintTitle@@YA?AV?$basic_string@_WU?$char_traits@_W@std@@V?$allocator@_W@2@@std@@V?$basic_string_view@_WU?$char_traits@_W@std@@@2@@Z@4HA 0000000180059c00 f   Pclass.obj
 0001:00058c00       ?dtor$3@?0??PrintOwnerInfo@Plist@@AEAAXPEAXK@Z@4HA 0000000180059c00 f   Pclass.obj
 0001:00058c00       ?dtor$4@?0??GetFiles@Plist@@QEAAHPEAUPluginPanelItem@@_KHPEAPEB_W1AEAUoptions@@@Z@4HA 0000000180059c00 f   Pclass.obj
 0001:00058c00       ?dtor$6@?0??GetFiles@Plist@@QEAAHPEAUPluginPanelItem@@_KHPEAPEB_W1AEAUoptions@@@Z@4HA 0000000180059c00 f   Pclass.obj
 0001:00058c00       ?dtor$8@?0??GetFiles@Plist@@QEAAHPEAUPluginPanelItem@@_KHPEAPEB_W1AEAUoptions@@@Z@4HA 0000000180059c00 f   Pclass.obj
 0001:00058c00       ?dtor$2@?0??PrintNTCurDirAndEnv@@YAXPEAX0H@Z@4HA 0000000180059c00 f   Plist.obj
 0001:00058c00       ?dtor$3@?0??PrintNTCurDirAndEnv@@YAXPEAX0H@Z@4HA 0000000180059c00 f   Plist.obj
 0001:00058c10       ?dtor$10@?0??GetFiles@Plist@@QEAAHPEAUPluginPanelItem@@_KHPEAPEB_W1AEAUoptions@@@Z@4HA 0000000180059c10 f   Pclass.obj
 0001:00058c20       ?dtor$14@?0??GetFiles@Plist@@QEAAHPEAUPluginPanelItem@@_KHPEAPEB_W1AEAUoptions@@@Z@4HA 0000000180059c20 f   Pclass.obj
 0001:00058c20       ?dtor$16@?0??GetFiles@Plist@@QEAAHPEAUPluginPanelItem@@_KHPEAPEB_W1AEAUoptions@@@Z@4HA 0000000180059c20 f   Pclass.obj
 0001:00058c20       ?dtor$18@?0??GetFiles@Plist@@QEAAHPEAUPluginPanelItem@@_KHPEAPEB_W1AEAUoptions@@@Z@4HA 0000000180059c20 f   Pclass.obj
 0001:00058c20       ?dtor$19@?0??GetFiles@Plist@@QEAAHPEAUPluginPanelItem@@_KHPEAPEB_W1AEAUoptions@@@Z@4HA 0000000180059c20 f   Pclass.obj
 0001:00058c20       ?dtor$22@?0??GetFiles@Plist@@QEAAHPEAUPluginPanelItem@@_KHPEAPEB_W1AEAUoptions@@@Z@4HA 0000000180059c20 f   Pclass.obj
 0001:00058c20       ?dtor$2@?0??PrintOwnerInfo@Plist@@AEAAXPEAXK@Z@4HA 0000000180059c20 f   Pclass.obj
 0001:00058c20       ?dtor$0@?0??PrintNTCurDirAndEnv@@YAXPEAX0H@Z@4HA 0000000180059c20 f   Plist.obj
 0001:00058c30       ?dtor$21@?0??GetFiles@Plist@@QEAAHPEAUPluginPanelItem@@_KHPEAPEB_W1AEAUoptions@@@Z@4HA 0000000180059c30 f   Pclass.obj
 0001:00058c30       ?dtor$24@?0??GetFiles@Plist@@QEAAHPEAUPluginPanelItem@@_KHPEAPEB_W1AEAUoptions@@@Z@4HA 0000000180059c30 f   Pclass.obj
 0001:00058c30       ?dtor$29@?0??GetFiles@Plist@@QEAAHPEAUPluginPanelItem@@_KHPEAPEB_W1AEAUoptions@@@Z@4HA 0000000180059c30 f   Pclass.obj
 0001:00058c30       ?dtor$31@?0??GetFiles@Plist@@QEAAHPEAUPluginPanelItem@@_KHPEAPEB_W1AEAUoptions@@@Z@4HA 0000000180059c30 f   Pclass.obj
 0001:00058c30       ?dtor$33@?0??GetFiles@Plist@@QEAAHPEAUPluginPanelItem@@_KHPEAPEB_W1AEAUoptions@@@Z@4HA 0000000180059c30 f   Pclass.obj
 0001:00058c30       ?dtor$35@?0??GetFiles@Plist@@QEAAHPEAUPluginPanelItem@@_KHPEAPEB_W1AEAUoptions@@@Z@4HA 0000000180059c30 f   Pclass.obj
 0001:00058c30       ?dtor$38@?0??GetFiles@Plist@@QEAAHPEAUPluginPanelItem@@_KHPEAPEB_W1AEAUoptions@@@Z@4HA 0000000180059c30 f   Pclass.obj
 0001:00058c30       ?dtor$41@?0??GetFiles@Plist@@QEAAHPEAUPluginPanelItem@@_KHPEAPEB_W1AEAUoptions@@@Z@4HA 0000000180059c30 f   Pclass.obj
 0001:00058c30       ?dtor$42@?0??GetFiles@Plist@@QEAAHPEAUPluginPanelItem@@_KHPEAPEB_W1AEAUoptions@@@Z@4HA 0000000180059c30 f   Pclass.obj
 0001:00058c30       ?dtor$7@?0??GetFindData@Plist@@QEAAHAEAPEAUPluginPanelItem@@AEA_K_K@Z@4HA 0000000180059c30 f   Pclass.obj
 0001:00058c30       ?dtor$7@?0??PrintOwnerInfo@Plist@@AEAAXPEAXK@Z@4HA 0000000180059c30 f   Pclass.obj
 0001:00058c30       ?dtor$1@?0??PrintNTCurDirAndEnv@@YAXPEAX0H@Z@4HA 0000000180059c30 f   Plist.obj
 0001:00058c40       ?dtor$25@?0??GetFiles@Plist@@QEAAHPEAUPluginPanelItem@@_KHPEAPEB_W1AEAUoptions@@@Z@4HA 0000000180059c40 f   Pclass.obj
 0001:00058c50       ?dtor$26@?0??GetFiles@Plist@@QEAAHPEAUPluginPanelItem@@_KHPEAPEB_W1AEAUoptions@@@Z@4HA 0000000180059c50 f   Pclass.obj
 0001:00058c60       ?dtor$27@?0??GetFiles@Plist@@QEAAHPEAUPluginPanelItem@@_KHPEAPEB_W1AEAUoptions@@@Z@4HA 0000000180059c60 f   Pclass.obj
 0001:00058c70       ?dtor$36@?0??GetFiles@Plist@@QEAAHPEAUPluginPanelItem@@_KHPEAPEB_W1AEAUoptions@@@Z@4HA 0000000180059c70 f   Pclass.obj
 0001:00058c80       ?dtor$39@?0??GetFiles@Plist@@QEAAHPEAUPluginPanelItem@@_KHPEAPEB_W1AEAUoptions@@@Z@4HA 0000000180059c80 f   Pclass.obj
 0001:00058c90       ?dtor$0@?0??GetFindData@Plist@@QEAAHAEAPEAUPluginPanelItem@@AEA_K_K@Z@4HA 0000000180059c90 f   Pclass.obj
 0001:00058ca0       ?dtor$1@?0??GetFindData@Plist@@QEAAHAEAPEAUPluginPanelItem@@AEA_K_K@Z@4HA 0000000180059ca0 f   Pclass.obj
 0001:00058cb0       ?dtor$2@?0??GetFindData@Plist@@QEAAHAEAPEAUPluginPanelItem@@AEA_K_K@Z@4HA 0000000180059cb0 f   Pclass.obj
 0001:00058cc0       ?dtor$3@?0??GetFindData@Plist@@QEAAHAEAPEAUPluginPanelItem@@AEA_K_K@Z@4HA 0000000180059cc0 f   Pclass.obj
 0001:00058cd0       ?dtor$4@?0??GetFindData@Plist@@QEAAHAEAPEAUPluginPanelItem@@AEA_K_K@Z@4HA 0000000180059cd0 f   Pclass.obj
 0001:00058cd0       ?dtor$6@?0??GetFindData@Plist@@QEAAHAEAPEAUPluginPanelItem@@AEA_K_K@Z@4HA 0000000180059cd0 f   Pclass.obj
 0001:00058ce0       ?dtor$5@?0??GetFindData@Plist@@QEAAHAEAPEAUPluginPanelItem@@AEA_K_K@Z@4HA 0000000180059ce0 f   Pclass.obj
 0001:00058cf0       ?dtor$13@?0??GetFindData@Plist@@QEAAHAEAPEAUPluginPanelItem@@AEA_K_K@Z@4HA 0000000180059cf0 f   Pclass.obj
 0001:00058d00       ?dtor$14@?0??GetFindData@Plist@@QEAAHAEAPEAUPluginPanelItem@@AEA_K_K@Z@4HA 0000000180059d00 f   Pclass.obj
 0001:00058d10       ?dtor$0@?0??ui64toa_width@@YA?AV?$basic_string@_WU?$char_traits@_W@std@@V?$allocator@_W@2@@std@@_KI_N@Z@4HA 0000000180059d10 f   Pclass.obj
 0001:00058d10       ?dtor$4@?0??GetVersionInfo@Plist@@SA_NPEB_WAEAV?$unique_ptr@$$BY0A@DU?$default_delete@$$BY0A@D@std@@@std@@AEAPEB_W2@Z@4HA 0000000180059d10 f   Pclass.obj
 0001:00058d20       ?dtor$0@?0??InitializePanelModes@Plist@@SAXXZ@4HA 0000000180059d20 f   Pclass.obj
 0001:00058d30       ?dtor$8@?0??InitializePanelModes@Plist@@SAXXZ@4HA 0000000180059d30 f   Pclass.obj
 0001:00058d40       ?dtor$9@?0??InitializePanelModes@Plist@@SAXXZ@4HA 0000000180059d40 f   Pclass.obj
 0001:00058d50       ?dtor$17@?0??InitializePanelModes@Plist@@SAXXZ@4HA 0000000180059d50 f   Pclass.obj
 0001:00058d60       ?dtor$18@?0??InitializePanelModes@Plist@@SAXXZ@4HA 0000000180059d60 f   Pclass.obj
 0001:00058d70       ?dtor$26@?0??InitializePanelModes@Plist@@SAXXZ@4HA 0000000180059d70 f   Pclass.obj
 0001:00058d80       ?dtor$27@?0??InitializePanelModes@Plist@@SAXXZ@4HA 0000000180059d80 f   Pclass.obj
 0001:00058d90       ?dtor$35@?0??InitializePanelModes@Plist@@SAXXZ@4HA 0000000180059d90 f   Pclass.obj
 0001:00058da0       ?dtor$36@?0??InitializePanelModes@Plist@@SAXXZ@4HA 0000000180059da0 f   Pclass.obj
 0001:00058db0       ?dtor$44@?0??InitializePanelModes@Plist@@SAXXZ@4HA 0000000180059db0 f   Pclass.obj
 0001:00058dc0       ?dtor$45@?0??InitializePanelModes@Plist@@SAXXZ@4HA 0000000180059dc0 f   Pclass.obj
 0001:00058dd0       ?dtor$53@?0??InitializePanelModes@Plist@@SAXXZ@4HA 0000000180059dd0 f   Pclass.obj
 0001:00058de0       ?dtor$54@?0??InitializePanelModes@Plist@@SAXXZ@4HA 0000000180059de0 f   Pclass.obj
 0001:00058df0       ?dtor$62@?0??InitializePanelModes@Plist@@SAXXZ@4HA 0000000180059df0 f   Pclass.obj
 0001:00058e00       ?dtor$63@?0??InitializePanelModes@Plist@@SAXXZ@4HA 0000000180059e00 f   Pclass.obj
 0001:00058e10       ?dtor$71@?0??InitializePanelModes@Plist@@SAXXZ@4HA 0000000180059e10 f   Pclass.obj
 0001:00058e20       ?dtor$72@?0??InitializePanelModes@Plist@@SAXXZ@4HA 0000000180059e20 f   Pclass.obj
 0001:00058e30       ?dtor$80@?0??InitializePanelModes@Plist@@SAXXZ@4HA 0000000180059e30 f   Pclass.obj
 0001:00058e40       ?dtor$81@?0??InitializePanelModes@Plist@@SAXXZ@4HA 0000000180059e40 f   Pclass.obj
 0001:00058e50       ?dtor$90@?0??InitializePanelModes@Plist@@SAXXZ@4HA 0000000180059e50 f   Pclass.obj
 0001:00058e80       ?dtor$0@?0??PrintOwnerInfo@Plist@@AEAAXPEAXK@Z@4HA 0000000180059e80 f   Pclass.obj
 0001:00058e80       ?dtor$91@?0??InitializePanelModes@Plist@@SAXXZ@4HA 0000000180059e80 f   Pclass.obj
 0001:00058e90       ?dtor$99@?0??InitializePanelModes@Plist@@SAXXZ@4HA 0000000180059e90 f   Pclass.obj
 0001:00058ea0       ?dtor$100@?0??InitializePanelModes@Plist@@SAXXZ@4HA 0000000180059ea0 f   Pclass.obj
 0001:00058eb0       ?dtor$108@?0??InitializePanelModes@Plist@@SAXXZ@4HA 0000000180059eb0 f   Pclass.obj
 0001:00058ec0       ?dtor$109@?0??InitializePanelModes@Plist@@SAXXZ@4HA 0000000180059ec0 f   Pclass.obj
 0001:00058ed0       ?dtor$117@?0??InitializePanelModes@Plist@@SAXXZ@4HA 0000000180059ed0 f   Pclass.obj
 0001:00058ee0       ?dtor$118@?0??InitializePanelModes@Plist@@SAXXZ@4HA 0000000180059ee0 f   Pclass.obj
 0001:00058ef0       ?dtor$126@?0??InitializePanelModes@Plist@@SAXXZ@4HA 0000000180059ef0 f   Pclass.obj
 0001:00058f00       ?dtor$127@?0??InitializePanelModes@Plist@@SAXXZ@4HA 0000000180059f00 f   Pclass.obj
 0001:00058f10       ?dtor$135@?0??InitializePanelModes@Plist@@SAXXZ@4HA 0000000180059f10 f   Pclass.obj
 0001:00058f20       ?dtor$136@?0??InitializePanelModes@Plist@@SAXXZ@4HA 0000000180059f20 f   Pclass.obj
 0001:00058f30       ?dtor$144@?0??InitializePanelModes@Plist@@SAXXZ@4HA 0000000180059f30 f   Pclass.obj
 0001:00058f40       ?dtor$145@?0??InitializePanelModes@Plist@@SAXXZ@4HA 0000000180059f40 f   Pclass.obj
 0001:00058f50       ?dtor$153@?0??InitializePanelModes@Plist@@SAXXZ@4HA 0000000180059f50 f   Pclass.obj
 0001:00058f60       ?dtor$154@?0??InitializePanelModes@Plist@@SAXXZ@4HA 0000000180059f60 f   Pclass.obj
 0001:00058f70       ?dtor$162@?0??InitializePanelModes@Plist@@SAXXZ@4HA 0000000180059f70 f   Pclass.obj
 0001:00058f80       ?dtor$163@?0??InitializePanelModes@Plist@@SAXXZ@4HA 0000000180059f80 f   Pclass.obj
 0001:00058f90       ?dtor$171@?0??InitializePanelModes@Plist@@SAXXZ@4HA 0000000180059f90 f   Pclass.obj
 0001:00058fa0       ?dtor$172@?0??InitializePanelModes@Plist@@SAXXZ@4HA 0000000180059fa0 f   Pclass.obj
 0001:00058fb0       ?dtor$181@?0??InitializePanelModes@Plist@@SAXXZ@4HA 0000000180059fb0 f   Pclass.obj
 0001:00058fe0       ?dtor$182@?0??InitializePanelModes@Plist@@SAXXZ@4HA 0000000180059fe0 f   Pclass.obj
 0001:00058ff0       ?dtor$1@?0??PrintOwnerInfo@Plist@@AEAAXPEAXK@Z@4HA 0000000180059ff0 f   Pclass.obj
 0001:00058ff0       ?dtor$4@?0??PrintNTCurDirAndEnv@@YAXPEAX0H@Z@4HA 0000000180059ff0 f   Plist.obj
 0001:00059000       ?dtor$0@?0??PrintVersionInfo@Plist@@CAXPEAXPEB_W@Z@4HA 000000018005a000 f   Pclass.obj
 0001:00059010       ?dtor$0@?0??ProcessEvent@Plist@@QEAAH_JPEAX@Z@4HA 000000018005a010 f   Pclass.obj
 0001:00059020       ?dtor$0@?0??ProcessKey@Plist@@QEAAHPEBU_INPUT_RECORD@@@Z@4HA 000000018005a020 f   Pclass.obj
 0001:00059020       ?dtor$1@?0??ProcessKey@Plist@@QEAAHPEBU_INPUT_RECORD@@@Z@4HA 000000018005a020 f   Pclass.obj
 0001:00059030       ?dtor$2@?0??ProcessKey@Plist@@QEAAHPEBU_INPUT_RECORD@@@Z@4HA 000000018005a030 f   Pclass.obj
 0001:00059030       ?dtor$4@?0??ProcessKey@Plist@@QEAAHPEBU_INPUT_RECORD@@@Z@4HA 000000018005a030 f   Pclass.obj
 0001:00059040       ?dtor$3@?0??ProcessKey@Plist@@QEAAHPEBU_INPUT_RECORD@@@Z@4HA 000000018005a040 f   Pclass.obj
 0001:00059050       ?dtor$7@?0??ProcessKey@Plist@@QEAAHPEBU_INPUT_RECORD@@@Z@4HA 000000018005a050 f   Pclass.obj
 0001:00059060       ?dtor$10@?0??ProcessKey@Plist@@QEAAHPEBU_INPUT_RECORD@@@Z@4HA 000000018005a060 f   Pclass.obj
 0001:00059060       ?dtor$8@?0??ProcessKey@Plist@@QEAAHPEBU_INPUT_RECORD@@@Z@4HA 000000018005a060 f   Pclass.obj
 0001:00059070       ?dtor$9@?0??ProcessKey@Plist@@QEAAHPEBU_INPUT_RECORD@@@Z@4HA 000000018005a070 f   Pclass.obj
 0001:00059080       ?dtor$11@?0??ProcessKey@Plist@@QEAAHPEBU_INPUT_RECORD@@@Z@4HA 000000018005a080 f   Pclass.obj
 0001:00059090       ?dtor$12@?0??ProcessKey@Plist@@QEAAHPEBU_INPUT_RECORD@@@Z@4HA 000000018005a090 f   Pclass.obj
 0001:000590a0       ?dtor$13@?0??ProcessKey@Plist@@QEAAHPEBU_INPUT_RECORD@@@Z@4HA 000000018005a0a0 f   Pclass.obj
 0001:000590b0       ?dtor$14@?0??ProcessKey@Plist@@QEAAHPEBU_INPUT_RECORD@@@Z@4HA 000000018005a0b0 f   Pclass.obj
 0001:000590e0       ?dtor$15@?0??ProcessKey@Plist@@QEAAHPEBU_INPUT_RECORD@@@Z@4HA 000000018005a0e0 f   Pclass.obj
 0001:00059110       ?dtor$26@?0??ProcessKey@Plist@@QEAAHPEBU_INPUT_RECORD@@@Z@4HA 000000018005a110 f   Pclass.obj
 0001:00059110       ?dtor$29@?0??ProcessKey@Plist@@QEAAHPEBU_INPUT_RECORD@@@Z@4HA 000000018005a110 f   Pclass.obj
 0001:00059130       ?dtor$33@?0??ProcessKey@Plist@@QEAAHPEBU_INPUT_RECORD@@@Z@4HA 000000018005a130 f   Pclass.obj
 0001:00059140       ?dtor$0@?0??SavePanelModes@Plist@@SAXXZ@4HA 000000018005a140 f   Pclass.obj
 0001:00059150       ?catch$0@?0??_Reallocate_exactly@?$vector@UFarMenuItem@@V?$allocator@UFarMenuItem@@@std@@@std@@AEAAX_K@Z@4HA 000000018005a150 f   Pclass.obj
 0001:0005915d       __catch$?_Reallocate_exactly@?$vector@UFarMenuItem@@V?$allocator@UFarMenuItem@@@std@@@std@@AEAAX_K@Z$0 000000018005a15d f   Pclass.obj
 0001:00059180       ?catch$2@?0??_Reallocate_exactly@?$vector@V?$basic_string@_WU?$char_traits@_W@std@@V?$allocator@_W@2@@std@@V?$allocator@V?$basic_string@_WU?$char_traits@_W@std@@V?$allocator@_W@2@@std@@@2@@std@@AEAAX_K@Z@4HA 000000018005a180 f   Pclass.obj
 0001:0005918d       __catch$?_Reallocate_exactly@?$vector@V?$basic_string@_WU?$char_traits@_W@std@@V?$allocator@_W@2@@std@@V?$allocator@V?$basic_string@_WU?$char_traits@_W@std@@V?$allocator@_W@2@@std@@@2@@std@@AEAAX_K@Z$0 000000018005a18d f   Pclass.obj
 0001:000591b0       ?catch$0@?0??_Reallocate_exactly@?$vector@_KV?$allocator@_K@std@@@std@@AEAAX_K@Z@4HA 000000018005a1b0 f   Pclass.obj
 0001:000591bd       __catch$?_Reallocate_exactly@?$vector@_KV?$allocator@_K@std@@@std@@AEAAX_K@Z$0 000000018005a1bd f   Pclass.obj
 0001:000591e0       ?dtor$0@?0??generate_titles@@YAXAEBV?$basic_string@_WU?$char_traits@_W@std@@V?$allocator@_W@2@@std@@AEAUPanelMode@@@Z@4HA 000000018005a1e0 f   Pclass.obj
 0001:000591f0       ?catch$0@?0???$_Resize_reallocate@U_Value_init_tag@std@@@?$vector@EV?$allocator@E@std@@@std@@AEAAX_KAEBU_Value_init_tag@1@@Z@4HA 000000018005a1f0 f   perfthread.obj
 0001:000591fd       __catch$??$_Resize_reallocate@U_Value_init_tag@std@@@?$vector@EV?$allocator@E@std@@@std@@AEAAX_KAEBU_Value_init_tag@1@@Z$0 000000018005a1fd f   perfthread.obj
 0001:00059220       ?dtor$0@?0???0PerfThread@@QEAA@PEB_W00@Z@4HA 000000018005a220 f   perfthread.obj
 0001:00059230       ?dtor$1@?0???0PerfThread@@QEAA@PEB_W00@Z@4HA 000000018005a230 f   perfthread.obj
 0001:00059240       ?dtor$2@?0???0PerfThread@@QEAA@PEB_W00@Z@4HA 000000018005a240 f   perfthread.obj
 0001:00059250       ?dtor$3@?0???0PerfThread@@QEAA@PEB_W00@Z@4HA 000000018005a250 f   perfthread.obj
 0001:00059260       ?dtor$4@?0???0PerfThread@@QEAA@PEB_W00@Z@4HA 000000018005a260 f   perfthread.obj
 0001:00059270       ?dtor$5@?0???0PerfThread@@QEAA@PEB_W00@Z@4HA 000000018005a270 f   perfthread.obj
 0001:00059280       ?dtor$6@?0???0PerfThread@@QEAA@PEB_W00@Z@4HA 000000018005a280 f   perfthread.obj
 0001:000592a0       ?dtor$7@?0???0PerfThread@@QEAA@PEB_W00@Z@4HA 000000018005a2a0 f   perfthread.obj
 0001:000592c0       ?dtor$8@?0???0PerfThread@@QEAA@PEB_W00@Z@4HA 000000018005a2c0 f   perfthread.obj
 0001:000592e0       ?dtor$9@?0???0PerfThread@@QEAA@PEB_W00@Z@4HA 000000018005a2e0 f   perfthread.obj
 0001:00059300       ?dtor$10@?0???0PerfThread@@QEAA@PEB_W00@Z@4HA 000000018005a300 f   perfthread.obj
 0001:00059320       ?dtor$11@?0???0PerfThread@@QEAA@PEB_W00@Z@4HA 000000018005a320 f   perfthread.obj
 0001:00059330       ?dtor$12@?0???0PerfThread@@QEAA@PEB_W00@Z@4HA 000000018005a330 f   perfthread.obj
 0001:00059340       ?dtor$0@?0??Refresh@PerfThread@@AEAAXXZ@4HA 000000018005a340 f   perfthread.obj
 0001:00059350       ?dtor$1@?0??Refresh@PerfThread@@AEAAXXZ@4HA 000000018005a350 f   perfthread.obj
 0001:00059360       ?dtor$2@?0??Refresh@PerfThread@@AEAAXXZ@4HA 000000018005a360 f   perfthread.obj
 0001:00059370       ?dtor$5@?0??Refresh@PerfThread@@AEAAXXZ@4HA 000000018005a370 f   perfthread.obj
 0001:00059380       ?catch$0@?0???$_Resize_reallocate@U_Value_init_tag@std@@@?$vector@PEAUHINSTANCE__@@V?$allocator@PEAUHINSTANCE__@@@std@@@std@@AEAAX_KAEBU_Value_init_tag@1@@Z@4HA 000000018005a380 f   Plist.obj
 0001:0005938d       __catch$??$_Resize_reallocate@U_Value_init_tag@std@@@?$vector@PEAUHINSTANCE__@@V?$allocator@PEAUHINSTANCE__@@@std@@@std@@AEAAX_KAEBU_Value_init_tag@1@@Z$0 000000018005a38d f   Plist.obj
 0001:000593b0       ?dtor$0@?0???0?$vector@UProcessPerfData@@V?$allocator@UProcessPerfData@@@std@@@std@@QEAA@AEBV01@@Z@4HA 000000018005a3b0 f   Plist.obj
 0001:000593c0       ?dtor$1@?0???0?$vector@UProcessPerfData@@V?$allocator@UProcessPerfData@@@std@@@std@@QEAA@AEBV01@@Z@4HA 000000018005a3c0 f   Plist.obj
 0001:000593d0       ?dtor$2@?0???0?$vector@UProcessPerfData@@V?$allocator@UProcessPerfData@@@std@@@std@@QEAA@AEBV01@@Z@4HA 000000018005a3d0 f   Plist.obj
 0001:000593f0       ?dtor$3@?0???0?$vector@UProcessPerfData@@V?$allocator@UProcessPerfData@@@std@@@std@@QEAA@AEBV01@@Z@4HA 000000018005a3f0 f   Plist.obj
 0001:00059410       ?dtor$4@?0???0?$vector@UProcessPerfData@@V?$allocator@UProcessPerfData@@@std@@@std@@QEAA@AEBV01@@Z@4HA 000000018005a410 f   Plist.obj
 0001:00059430       ?dtor$0@?0??GetList@@YA_NAEAPEAUPluginPanelItem@@AEA_KAEAVPerfThread@@@Z@4HA 000000018005a430 f   Plist.obj
 0001:00059440       ?dtor$0@?0??KillProcess@@YA_NKPEAUHWND__@@@Z@4HA 000000018005a440 f   Plist.obj
 0001:00059450       ?dtor$1@?0??KillProcess@@YA_NKPEAUHWND__@@@Z@4HA 000000018005a450 f   Plist.obj
 0001:00059460       ?dtor$0@?0??PrintModules@@YAXPEAXKAEAUoptions@@@Z@4HA 000000018005a460 f   Plist.obj
 0001:00059470       ?dtor$1@?0??PrintModules@@YAXPEAXKAEAUoptions@@@Z@4HA 000000018005a470 f   Plist.obj
 0001:00059480       ?dtor$2@?0??PrintModules@@YAXPEAXKAEAUoptions@@@Z@4HA 000000018005a480 f   Plist.obj
 0001:00059490       ?dtor$3@?0??PrintModules@@YAXPEAXKAEAUoptions@@@Z@4HA 000000018005a490 f   Plist.obj
 0001:00059490       ?dtor$8@?0??PrintModules@@YAXPEAXKAEAUoptions@@@Z@4HA 000000018005a490 f   Plist.obj
 0001:000594a0       ?dtor$2@?0??print_module_impl@@YAXQEAXAEBV?$basic_string@_WU?$char_traits@_W@std@@V?$allocator@_W@2@@std@@KAEBUoptions@@AEBV?$function@$$A6A_NPEA_W_K@Z@2@@Z@4HA 000000018005a4a0 f   Plist.obj
 0001:000594b0       ?dtor$0@?0??WinError@@YAHPEB_W@Z@4HA 000000018005a4b0 f   Pmix.obj
 0001:000594c0       ?dtor$0@?0???0WMIConnection@@QEAA@XZ@4HA 000000018005a4c0 f   WMI.obj
 0001:000594d0       ?dtor$0@?0??Connect@WMIConnection@@QEAA_NPEB_W00@Z@4HA 000000018005a4d0 f   WMI.obj
 0001:000594e0       ?dtor$2@?0??Connect@WMIConnection@@QEAA_NPEB_W00@Z@4HA 000000018005a4e0 f   WMI.obj
 0001:000594f0       ?dtor$3@?0??Connect@WMIConnection@@QEAA_NPEB_W00@Z@4HA 000000018005a4f0 f   WMI.obj
 0001:00059500       ?dtor$4@?0??Connect@WMIConnection@@QEAA_NPEB_W00@Z@4HA 000000018005a500 f   WMI.obj
 0001:00059500       ?dtor$9@?0??ExecMethod@WMIConnection@@AEAAHKPEB_W0K@Z@4HA 000000018005a500 f   WMI.obj
 0001:00059510       ?dtor$5@?0??Connect@WMIConnection@@QEAA_NPEB_W00@Z@4HA 000000018005a510 f   WMI.obj
 0001:00059520       ?dtor$0@?0??ExecMethod@WMIConnection@@AEAAHKPEB_W0K@Z@4HA 000000018005a520 f   WMI.obj
 0001:00059530       ?dtor$1@?0??ExecMethod@WMIConnection@@AEAAHKPEB_W0K@Z@4HA 000000018005a530 f   WMI.obj
 0001:00059530       ?dtor$4@?0??ExecMethod@WMIConnection@@AEAAHKPEB_W0K@Z@4HA 000000018005a530 f   WMI.obj
 0001:00059530       ?dtor$6@?0??ExecMethod@WMIConnection@@AEAAHKPEB_W0K@Z@4HA 000000018005a530 f   WMI.obj
 0001:00059540       ?dtor$10@?0??ExecMethod@WMIConnection@@AEAAHKPEB_W0K@Z@4HA 000000018005a540 f   WMI.obj
 0001:00059540       ?dtor$2@?0??ExecMethod@WMIConnection@@AEAAHKPEB_W0K@Z@4HA 000000018005a540 f   WMI.obj
 0001:00059550       ?dtor$3@?0??ExecMethod@WMIConnection@@AEAAHKPEB_W0K@Z@4HA 000000018005a550 f   WMI.obj
 0001:00059560       ?dtor$5@?0??ExecMethod@WMIConnection@@AEAAHKPEB_W0K@Z@4HA 000000018005a560 f   WMI.obj
 0001:00059570       ?dtor$7@?0??ExecMethod@WMIConnection@@AEAAHKPEB_W0K@Z@4HA 000000018005a570 f   WMI.obj
 0001:00059580       ?dtor$8@?0??ExecMethod@WMIConnection@@AEAAHKPEB_W0K@Z@4HA 000000018005a580 f   WMI.obj
 0001:00059590       ?dtor$1@?0??GetProcessCommandLine@WMIConnection@@QEAA?AV?$basic_string@_WU?$char_traits@_W@std@@V?$allocator@_W@2@@std@@K@Z@4HA 000000018005a590 f   WMI.obj
 0001:00059590       ?dtor$1@?0??GetProcessExecutablePath@WMIConnection@@QEAA?AV?$basic_string@_WU?$char_traits@_W@std@@V?$allocator@_W@2@@std@@K@Z@4HA 000000018005a590 f   WMI.obj
 0001:000595c0       ?dtor$2@?0??GetProcessCommandLine@WMIConnection@@QEAA?AV?$basic_string@_WU?$char_traits@_W@std@@V?$allocator@_W@2@@std@@K@Z@4HA 000000018005a5c0 f   WMI.obj
 0001:000595c0       ?dtor$2@?0??GetProcessExecutablePath@WMIConnection@@QEAA?AV?$basic_string@_WU?$char_traits@_W@std@@V?$allocator@_W@2@@std@@K@Z@4HA 000000018005a5c0 f   WMI.obj
 0001:000595d0       ?dtor$0@?0??GetProcessOwner@WMIConnection@@QEAA?AV?$basic_string@_WU?$char_traits@_W@std@@V?$allocator@_W@2@@std@@KPEAV23@@Z@4HA 000000018005a5d0 f   WMI.obj
 0001:000595e0       ?dtor$1@?0??GetProcessOwner@WMIConnection@@QEAA?AV?$basic_string@_WU?$char_traits@_W@std@@V?$allocator@_W@2@@std@@KPEAV23@@Z@4HA 000000018005a5e0 f   WMI.obj
 0001:000595e0       ?dtor$1@?0??GetProcessUserSid@WMIConnection@@QEAA?AV?$basic_string@_WU?$char_traits@_W@std@@V?$allocator@_W@2@@std@@K@Z@4HA 000000018005a5e0 f   WMI.obj
 0001:000595f0       ?dtor$2@?0??GetProcessOwner@WMIConnection@@QEAA?AV?$basic_string@_WU?$char_traits@_W@std@@V?$allocator@_W@2@@std@@KPEAV23@@Z@4HA 000000018005a5f0 f   WMI.obj
 0001:000595f0       ?dtor$2@?0??GetProcessUserSid@WMIConnection@@QEAA?AV?$basic_string@_WU?$char_traits@_W@std@@V?$allocator@_W@2@@std@@K@Z@4HA 000000018005a5f0 f   WMI.obj
 0001:00059600       ?dtor$3@?0??GetProcessOwner@WMIConnection@@QEAA?AV?$basic_string@_WU?$char_traits@_W@std@@V?$allocator@_W@2@@std@@KPEAV23@@Z@4HA 000000018005a600 f   WMI.obj
 0001:00059610       ?dtor$5@?0??GetProcessOwner@WMIConnection@@QEAA?AV?$basic_string@_WU?$char_traits@_W@std@@V?$allocator@_W@2@@std@@KPEAV23@@Z@4HA 000000018005a610 f   WMI.obj
 0001:00059610       ?dtor$5@?0??GetProcessUserSid@WMIConnection@@QEAA?AV?$basic_string@_WU?$char_traits@_W@std@@V?$allocator@_W@2@@std@@K@Z@4HA 000000018005a610 f   WMI.obj
 0001:00059620       ?dtor$0@?0??GetProcessPriority@WMIConnection@@QEAAKK@Z@4HA 000000018005a620 f   WMI.obj
 0001:00059620       ?dtor$0@?0??GetProcessSessionId@WMIConnection@@QEAAKK@Z@4HA 000000018005a620 f   WMI.obj
 0001:00059630       ?dtor$0@?0??GetProcessProperty@WMIConnection@@AEAA_NKPEB_WAEBV?$function@$$A6AXAEBUtagVARIANT@@@Z@std@@@Z@4HA 000000018005a630 f   WMI.obj
 0001:00059640       ?dtor$1@?0??GetProcessProperty@WMIConnection@@AEAA_NKPEB_WAEBV?$function@$$A6AXAEBUtagVARIANT@@@Z@std@@@Z@4HA 000000018005a640 f   WMI.obj
 0001:00059650       ?dtor$2@?0??GetProcessProperty@WMIConnection@@AEAA_NKPEB_WAEBV?$function@$$A6AXAEBUtagVARIANT@@@Z@std@@@Z@4HA 000000018005a650 f   WMI.obj
 0001:00059660       ?dtor$0@?0??GetProcessUserSid@WMIConnection@@QEAA?AV?$basic_string@_WU?$char_traits@_W@std@@V?$allocator@_W@2@@std@@K@Z@4HA 000000018005a660 f   WMI.obj
 0001:00059670       ?dtor$3@?0??GetProcessUserSid@WMIConnection@@QEAA?AV?$basic_string@_WU?$char_traits@_W@std@@V?$allocator@_W@2@@std@@K@Z@4HA 000000018005a670 f   WMI.obj
 0001:0005967c       ?dtor$0@?0??_Init@locale@std@@CAPEAV_Locimp@12@_N@Z@4HA 000000018005a67c f   libcpmt:locale0.obj
 0001:00059688       __scrt_is_nonwritable_in_current_image$filt$0 000000018005a688 f   LIBCMT:utility.obj
 0001:000596a0       ?fin$0@?0???_M@YAXPEAX_K1P6AX0@Z@Z@4HA 000000018005a6a0 f   LIBCMT:ehvecdtr.obj
 0001:000596cc       ?filt$0@?0??__ArrayUnwind@@YAXPEAX_K1P6AX0@Z@Z@4HA 000000018005a6cc f   LIBCMT:ehvecdtr.obj
 0001:0005972b       ?fin$0@?0??dllmain_crt_process_attach@@YAHQEAUHINSTANCE__@@QEAX@Z@4HA 000000018005a72b f   LIBCMT:dll_dllmain.obj
 0001:00059742       ?fin$0@?0??dllmain_crt_process_detach@@YAH_N@Z@4HA 000000018005a742 f   LIBCMT:dll_dllmain.obj
 0001:0005975b       ?fin$1@?0??dllmain_crt_process_detach@@YAH_N@Z@4HA 000000018005a75b f   LIBCMT:dll_dllmain.obj
 0001:0005976f       ?filt$0@?0??dllmain_dispatch@@YAHQEAUHINSTANCE__@@KQEAX@Z@4HA 000000018005a76f f   LIBCMT:dll_dllmain.obj
 0001:000597a5       __DestructExceptionObject$filt$0 000000018005a7a5 f   libvcruntime:ehhelpers.obj
 0001:0005983b       ?filt$0@?0???$_CallSETranslator@V__FrameHandler3@@@@YAHPEAUEHExceptionRecord@@PEA_KPEAU_CONTEXT@@PEAU_xDISPATCHER_CONTEXT@@PEBU_s_FuncInfo@@K1@Z@4HA 000000018005a83b f   libvcruntime:risctrnsctrl.obj
 0001:000598cc       ?filt$0@?0???$_CallSETranslator@V__FrameHandler4@@@@YAHPEAUEHExceptionRecord@@PEA_KPEAU_CONTEXT@@PEAU_xDISPATCHER_CONTEXT@@PEAUFuncInfo4@FH4@@K1@Z@4HA 000000018005a8cc f   libvcruntime:risctrnsctrl.obj
 0001:0005995d       ?filt$0@?0??CxxCallCatchBlock@__FrameHandler3@@SAPEAXPEAU_EXCEPTION_RECORD@@@Z@4HA 000000018005a95d f   libvcruntime:frame.obj
 0001:00059982       ?fin$1@?0??CxxCallCatchBlock@__FrameHandler3@@SAPEAXPEAU_EXCEPTION_RECORD@@@Z@4HA 000000018005a982 f   libvcruntime:frame.obj
 0001:000599fa       ?filt$0@?0??CxxCallCatchBlock@__FrameHandler4@@SAPEAXPEAU_EXCEPTION_RECORD@@@Z@4HA 000000018005a9fa f   libvcruntime:frame.obj
 0001:00059a29       ?fin$1@?0??CxxCallCatchBlock@__FrameHandler4@@SAPEAXPEAU_EXCEPTION_RECORD@@@Z@4HA 000000018005aa29 f   libvcruntime:frame.obj
 0001:00059aac       ?filt$0@?0??FrameUnwindToState@__FrameHandler3@@SAXPEA_KPEAU_xDISPATCHER_CONTEXT@@PEBU_s_FuncInfo@@H@Z@4HA 000000018005aaac f   libvcruntime:frame.obj
 0001:00059ac2       ?fin$1@?0??FrameUnwindToState@__FrameHandler3@@SAXPEA_KPEAU_xDISPATCHER_CONTEXT@@PEBU_s_FuncInfo@@H@Z@4HA 000000018005aac2 f   libvcruntime:frame.obj
 0001:00059ae5       ?filt$0@?0??FrameUnwindToState@__FrameHandler4@@SAXPEA_KPEAU_xDISPATCHER_CONTEXT@@PEAUFuncInfo4@FH4@@H@Z@4HA 000000018005aae5 f   libvcruntime:frame.obj
 0001:00059afb       ?fin$1@?0??FrameUnwindToState@__FrameHandler4@@SAXPEA_KPEAU_xDISPATCHER_CONTEXT@@PEAUFuncInfo4@FH4@@H@Z@4HA 000000018005aafb f   libvcruntime:frame.obj
 0001:00059b1e       __acrt_initialize_lowio$fin$0 000000018005ab1e f   libucrt:ioinit.obj
 0001:00059b1e       __acrt_lowio_ensure_fh_exists$fin$0 000000018005ab1e f   libucrt:osfinfo.obj
 0001:00059b37       ?fin$0@?0???$?RV<lambda_0ae27a3a962d80f24befdcbee591983d>@@AEAV<lambda_8d0ee55de4b1038c4002e0adecdf1839>@@V<lambda_dc504788e8f1664fe9b84e20bfb512f2>@@@?$__crt_seh_guarded_call@X@@QEAAX$$QEAV<lambda_0ae27a3a962d80f24befdcbee591983d>@@AEAV<lambda_8d0ee55de4b1038c4002e0adecdf1839>@@$$QEAV<lambda_dc504788e8f1664fe9b84e20bfb512f2>@@@Z@4HA 000000018005ab37 f   libucrt:per_thread_data.obj
 0001:00059b37       ?fin$0@?0???$?RV<lambda_2d41944a1d46af3157314b8a01080d33>@@AEAV<lambda_8f455de75cd7d7f24b4096f044d8b9e6>@@V<lambda_aa500f224e6afead328df44964fe2772>@@@?$__crt_seh_guarded_call@X@@QEAAX$$QEAV<lambda_2d41944a1d46af3157314b8a01080d33>@@AEAV<lambda_8f455de75cd7d7f24b4096f044d8b9e6>@@$$QEAV<lambda_aa500f224e6afead328df44964fe2772>@@@Z@4HA 000000018005ab37 f   libucrt:per_thread_data.obj
 0001:00059b37       ?fin$0@?0???$?RV<lambda_aa87e3671a710a21b5dc78c0bdf72e11>@@AEAV<lambda_92619d2358a28f41a33ba319515a20b9>@@V<lambda_6992ecaafeb10aed2b74cb1fae11a551>@@@?$__crt_seh_guarded_call@X@@QEAAX$$QEAV<lambda_aa87e3671a710a21b5dc78c0bdf72e11>@@AEAV<lambda_92619d2358a28f41a33ba319515a20b9>@@$$QEAV<lambda_6992ecaafeb10aed2b74cb1fae11a551>@@@Z@4HA 000000018005ab37 f   libucrt:per_thread_data.obj
 0001:00059b37       ?fin$0@?0???$?RV<lambda_f2e299630e499de9f9a165e60fcd3db5>@@AEAV<lambda_2ae9d31cdba2644fcbeaf08da7c24588>@@V<lambda_40d01ff24d0e7b3814fdbdcee8eab3c7>@@@?$__crt_seh_guarded_call@X@@QEAAX$$QEAV<lambda_f2e299630e499de9f9a165e60fcd3db5>@@AEAV<lambda_2ae9d31cdba2644fcbeaf08da7c24588>@@$$QEAV<lambda_40d01ff24d0e7b3814fdbdcee8eab3c7>@@@Z@4HA 000000018005ab37 f   libucrt:per_thread_data.obj
 0001:00059b37       ?fin$0@?0???$?RV<lambda_48fc4a32460bb0512d3b13f8499328be>@@AEAV<lambda_6c3dac0a4f3f9cefca9bb494422f9b77>@@V<lambda_0a2f2c9f9a56eb2b08bfa6ff61d331c5>@@@?$__crt_seh_guarded_call@H@@QEAAH$$QEAV<lambda_48fc4a32460bb0512d3b13f8499328be>@@AEAV<lambda_6c3dac0a4f3f9cefca9bb494422f9b77>@@$$QEAV<lambda_0a2f2c9f9a56eb2b08bfa6ff61d331c5>@@@Z@4HA 000000018005ab37 f   libucrt:winapi_thunks.obj
 0001:00059b37       ?fin$0@?0???$?RV<lambda_41e84717acc955b55e9d0d529e507b68>@@AEAV<lambda_b37934c380d97b75fd242ea49540127a>@@V<lambda_bb6db9f9ac473960206e0d4b942b5506>@@@?$__crt_seh_guarded_call@PEAD@@QEAAPEAD$$QEAV<lambda_41e84717acc955b55e9d0d529e507b68>@@AEAV<lambda_b37934c380d97b75fd242ea49540127a>@@$$QEAV<lambda_bb6db9f9ac473960206e0d4b942b5506>@@@Z@4HA 000000018005ab37 f   libucrt:setlocale.obj
 0001:00059b37       ?fin$0@?0???$?RV<lambda_1d892b297fdedeee07ed8124eeb2f2fa>@@AEAV<lambda_ffc046909424fd52df0ac47e64813305>@@V<lambda_01a7098693036236037e7cdb9bca3d73>@@@?$__crt_seh_guarded_call@X@@QEAAX$$QEAV<lambda_1d892b297fdedeee07ed8124eeb2f2fa>@@AEAV<lambda_ffc046909424fd52df0ac47e64813305>@@$$QEAV<lambda_01a7098693036236037e7cdb9bca3d73>@@@Z@4HA 000000018005ab37 f   libucrt:wsetlocale.obj
 0001:00059b37       ?fin$0@?0???$?RV<lambda_efdfa57d1f175319df784efa44bb7b81>@@AEAV<lambda_5f0a4c1567f8adc6734073e5d1e1b35c>@@V<lambda_2e8a7d3640ea6ccb4c2413664c2db6fd>@@@?$__crt_seh_guarded_call@X@@QEAAX$$QEAV<lambda_efdfa57d1f175319df784efa44bb7b81>@@AEAV<lambda_5f0a4c1567f8adc6734073e5d1e1b35c>@@$$QEAV<lambda_2e8a7d3640ea6ccb4c2413664c2db6fd>@@@Z@4HA 000000018005ab37 f   libucrt:mbctype.obj
 0001:00059b37       ?fin$0@?0???$?RV<lambda_450d765d439847d4c735a33c368b5fc0>@@AEAV<lambda_44731a7d0e6d81c3e6aa82d741081786>@@V<lambda_601a2a7da3b7a96e9554ac7215c4b07c>@@@?$__crt_seh_guarded_call@P6AXH@Z@@QEAAP6AXH@Z$$QEAV<lambda_450d765d439847d4c735a33c368b5fc0>@@AEAV<lambda_44731a7d0e6d81c3e6aa82d741081786>@@$$QEAV<lambda_601a2a7da3b7a96e9554ac7215c4b07c>@@@Z@4HA 000000018005ab37 f   libucrt:signal.obj
 0001:00059b37       ?fin$0@?0???$?RV<lambda_d80eeec6fff315bfe5c115232f3240e3>@@AEAV<lambda_6e4b09c48022b2350581041d5f6b0c4c>@@V<lambda_2358e3775559c9db80273638284d5e45>@@@?$__crt_seh_guarded_call@X@@QEAAX$$QEAV<lambda_d80eeec6fff315bfe5c115232f3240e3>@@AEAV<lambda_6e4b09c48022b2350581041d5f6b0c4c>@@$$QEAV<lambda_2358e3775559c9db80273638284d5e45>@@@Z@4HA 000000018005ab37 f   libucrt:exit.obj
 0001:00059b37       ?fin$0@?0???$?RV<lambda_638799b9deba96c50f710eeac98168cd>@@AEAV<lambda_22ebabd17bc4fa466a2aca6d8deb888d>@@V<lambda_a6f7d7db0129f75315ebf26d50c089f1>@@@?$__crt_seh_guarded_call@H@@QEAAH$$QEAV<lambda_638799b9deba96c50f710eeac98168cd>@@AEAV<lambda_22ebabd17bc4fa466a2aca6d8deb888d>@@$$QEAV<lambda_a6f7d7db0129f75315ebf26d50c089f1>@@@Z@4HA 000000018005ab37 f   libucrt:onexit.obj
 0001:00059b37       ?fin$0@?0???$?RV<lambda_7777bce6b2f8c936911f934f8298dc43>@@AEAV<lambda_f03950bc5685219e0bcd2087efbe011e>@@V<lambda_3883c3dff614d5e0c5f61bb1ac94921c>@@@?$__crt_seh_guarded_call@H@@QEAAH$$QEAV<lambda_7777bce6b2f8c936911f934f8298dc43>@@AEAV<lambda_f03950bc5685219e0bcd2087efbe011e>@@$$QEAV<lambda_3883c3dff614d5e0c5f61bb1ac94921c>@@@Z@4HA 000000018005ab37 f   libucrt:onexit.obj
 0001:00059b51       ?filt$0@?0???R<lambda_6e4b09c48022b2350581041d5f6b0c4c>@@QEBA@XZ@4HA 000000018005ab51 f   libucrt:exit.obj
 0001:00059b6c       _query_new_handler$fin$0   000000018005ab6c f   libucrt:new_handler.obj
 0001:00059b82       _fcloseall$fin$0           000000018005ab82 f   libucrt:closeall.obj
 0001:00059b9b       ?fin$0@?0???$?RV<lambda_842d9ff0dc9ef11c61343bbaebe7f885>@@AEAV<lambda_c5860995281e5c4ce005b3de8f5874ee>@@V<lambda_d90129c13df834fdcbf8d2b88dafcf2d>@@@?$__crt_seh_guarded_call@X@@QEAAX$$QEAV<lambda_842d9ff0dc9ef11c61343bbaebe7f885>@@AEAV<lambda_c5860995281e5c4ce005b3de8f5874ee>@@$$QEAV<lambda_d90129c13df834fdcbf8d2b88dafcf2d>@@@Z@4HA 000000018005ab9b f   libucrt:fflush.obj
 0001:00059bb6       ?fin$0@?0???$?RV<lambda_886d6c58226a84441f68b9f2b8217b83>@@AEAV<lambda_ab61a845afdef5b7c387490eaf3616ee>@@V<lambda_f7f22ab5edc0698d5f6905b0d3f44752>@@@?$__crt_seh_guarded_call@X@@QEAAX$$QEAV<lambda_886d6c58226a84441f68b9f2b8217b83>@@AEAV<lambda_ab61a845afdef5b7c387490eaf3616ee>@@$$QEAV<lambda_f7f22ab5edc0698d5f6905b0d3f44752>@@@Z@4HA 000000018005abb6 f   libucrt:fflush.obj
 0001:00059bd3       _write$fin$0               000000018005abd3 f   libucrt:write.obj
 0001:00059bea       ?fin$0@?0???$?RV<lambda_410d79af7f07d98d83a3f525b3859a53>@@AEAV<lambda_3e16ef9562a7dcce91392c22ab16ea36>@@V<lambda_38119f0e861e05405d8a144b9b982f0a>@@@?$__crt_seh_guarded_call@X@@QEAAX$$QEAV<lambda_410d79af7f07d98d83a3f525b3859a53>@@AEAV<lambda_3e16ef9562a7dcce91392c22ab16ea36>@@$$QEAV<lambda_38119f0e861e05405d8a144b9b982f0a>@@@Z@4HA 000000018005abea f   libucrt:wsetlocale.obj
 0001:00059c04       ?fin$0@?0???$?RV<lambda_7f2adfce497ff2baa965cd4f576ecfd1>@@AEAV<lambda_2a444430fde8c29194d880d93eed5e8f>@@AEAV<lambda_8dff2cf36a5417162780cd64fa2883ef>@@@?$__crt_seh_guarded_call@X@@QEAAX$$QEAV<lambda_7f2adfce497ff2baa965cd4f576ecfd1>@@AEAV<lambda_2a444430fde8c29194d880d93eed5e8f>@@AEAV<lambda_8dff2cf36a5417162780cd64fa2883ef>@@@Z@4HA 000000018005ac04 f   libucrt:wsetlocale.obj
 0001:00059c25       ?dtor$0@?0??_wcstombs_l_helper@@YA_KPEADPEB_W_KPEAU__crt_locale_pointers@@@Z@4HA 000000018005ac25 f   libucrt:wcstombs.obj
 0001:00059c31       _ctrlfp$filt$0             000000018005ac31 f   libucrt:fpctrl.obj
 0001:00059c5d       raise$fin$0                000000018005ac5d f   libucrt:signal.obj
 0001:00059c7e       ?fin$0@?0??update_thread_multibyte_data_internal@@YAPEAU__crt_multibyte_data@@QEAU__acrt_ptd@@QEAPEAU1@@Z@4HA 000000018005ac7e f   libucrt:mbctype.obj
 0001:00059c97       __acrt_update_thread_locale_data$fin$0 000000018005ac97 f   libucrt:locale_refcounting.obj
 0001:00059cb0       fclose$fin$0               000000018005acb0 f   libucrt:fclose.obj
 0001:00059cc8       ?fin$0@?0???$?RV<lambda_751a882b2c74d4b022dec766aa51a29a>@@AEAV<lambda_628dfdc04ba53c8bfc02c9951375f3f5>@@V<lambda_f6c7be5f7998530c34de24c7437d6b54>@@@?$__crt_seh_guarded_call@H@@QEAAH$$QEAV<lambda_751a882b2c74d4b022dec766aa51a29a>@@AEAV<lambda_628dfdc04ba53c8bfc02c9951375f3f5>@@$$QEAV<lambda_f6c7be5f7998530c34de24c7437d6b54>@@@Z@4HA 000000018005acc8 f   libucrt:close.obj
 0001:00059cc8       ?fin$0@?0???$?RV<lambda_a37b2b86f63e897a80ea819b0eb08c01>@@AEAV<lambda_38ce7e780aa69e748d6df282ebc68efe>@@V<lambda_99fb1378e971ab6e7edea83e3a7a83a2>@@@?$__crt_seh_guarded_call@H@@QEAAH$$QEAV<lambda_a37b2b86f63e897a80ea819b0eb08c01>@@AEAV<lambda_38ce7e780aa69e748d6df282ebc68efe>@@$$QEAV<lambda_99fb1378e971ab6e7edea83e3a7a83a2>@@@Z@4HA 000000018005acc8 f   libucrt:commit.obj
 0001:00059cf0       _IsNonwritableInCurrentImage$filt$0 000000018005acf0 f   LIBCMT:pesect.obj
 0001:00059d10       ??__F?m_PanelModesDataLocal@Plist@@0V?$vector@Umode@@V?$allocator@Umode@@@std@@@std@@A@@YAXXZ 000000018005ad10 f   fileio.obj
 0001:00059d20       ??__F?m_PanelModesDataRemote@Plist@@0V?$vector@Umode@@V?$allocator@Umode@@@std@@@std@@A@@YAXXZ 000000018005ad20 f   fileio.obj
 0001:00059d30       ??__FUserAccountID@?1??GetUserAccountID@@YA@XZ@YAXXZ 000000018005ad30 f   handles.obj
 0001:00059da0       ??__FTitle@?1??GetOpenPanelInfo@Plist@@QEAAXPEAUOpenPanelInfo@@@Z@YAXXZ 000000018005ada0 f   Pclass.obj
 0001:00059e10       ??__FhDebugToken@@YAXXZ    000000018005ae10 f   Plist.obj
 0001:00059e24       ??__Finitlocks@std@@YAXXZ  000000018005ae24 f   libcpmt:xlock.obj
 0001:00059e30       ??__F_Fac_tidy_reg@std@@YAXXZ 000000018005ae30 f   libcpmt:locale0.obj
 0001:00059e8c       ??__Fclassic_locale@std@@YAXXZ 000000018005ae8c f   libcpmt:locale0.obj
 0001:00059ecc       ??__Finit_atexit@@YAXXZ    000000018005aecc f   libcpmt:iosptrs.obj
 0001:00059f14       ??__Finitlocks@std@@YAXXZ  000000018005af14 f   libcpmt:iosptrs.obj
 0001:00059f20       $xdatasym                  000000018005af20     chkstk.obj
 0001:00059f28       $unwind$?ItemWidth@PluginDialogBuilder@@CA_JAEBUFarDialogItem@@@Z 000000018005af28     Pcfg.obj
 0001:00059f28       $unwind$??__FTitle@?1??GetOpenPanelInfo@Plist@@QEAAXPEAUOpenPanelInfo@@@Z@YAXXZ 000000018005af28     Pclass.obj
 0001:00059f28       $unwind$?WmiError@Plist@@AEBAXXZ 000000018005af28     Pclass.obj
 0001:00059f28       $unwind$?_Xlength@?$vector@PEB_WV?$allocator@PEB_W@std@@@std@@CAXXZ 000000018005af28     Pclass.obj
 0001:00059f28       $unwind$?_Xlength@?$vector@UFarMenuItem@@V?$allocator@UFarMenuItem@@@std@@@std@@CAXXZ 000000018005af28     Pclass.obj
 0001:00059f28       $unwind$?_Xlength@?$vector@Umode@@V?$allocator@Umode@@@std@@@std@@CAXXZ 000000018005af28     Pclass.obj
 0001:00059f28       $unwind$?_Xlength@?$vector@V?$basic_string@_WU?$char_traits@_W@std@@V?$allocator@_W@2@@std@@V?$allocator@V?$basic_string@_WU?$char_traits@_W@std@@V?$allocator@_W@2@@std@@@2@@std@@CAXXZ 000000018005af28     Pclass.obj
 0001:00059f28       $unwind$?_Xlength@?$vector@_KV?$allocator@_K@std@@@std@@CAXXZ 000000018005af28     Pclass.obj
 0001:00059f28       $unwind$?_Xran@?$_String_val@U?$_Simple_types@_W@std@@@std@@SAXXZ 000000018005af28     Pclass.obj
 0001:00059f28       $unwind$?allocate@?$allocator@UFarMenuItem@@@std@@QEAAPEAUFarMenuItem@@_K@Z 000000018005af28     Pclass.obj
 0001:00059f28       $unwind$?allocate@?$allocator@V?$basic_string@_WU?$char_traits@_W@std@@V?$allocator@_W@2@@std@@@std@@QEAAPEAV?$basic_string@_WU?$char_traits@_W@std@@V?$allocator@_W@2@@2@_K@Z 000000018005af28     Pclass.obj
 0001:00059f28       $unwind$?allocate@?$allocator@_K@std@@QEAAPEA_K_K@Z 000000018005af28     Pclass.obj
 0001:00059f28       $unwind$?deallocate@?$allocator@PEB_W@std@@QEAAXQEAPEB_W_K@Z 000000018005af28     Pclass.obj
 0001:00059f28       $unwind$?deallocate@?$allocator@UFarMenuItem@@@std@@QEAAXQEAUFarMenuItem@@_K@Z 000000018005af28     Pclass.obj
 0001:00059f28       $unwind$?deallocate@?$allocator@V?$basic_string@_WU?$char_traits@_W@std@@V?$allocator@_W@2@@std@@@std@@QEAAXQEAV?$basic_string@_WU?$char_traits@_W@std@@V?$allocator@_W@2@@2@_K@Z 000000018005af28     Pclass.obj
 0001:00059f28       $unwind$?deallocate@?$allocator@_K@std@@QEAAXQEA_K_K@Z 000000018005af28     Pclass.obj
 0001:00059f28       $unwind$?_Do_call@?$_Func_impl_no_alloc@V<lambda_87e110110aa5c29eaf754372c3484d5b>@@_NPEA_W_K@std@@EEAA_N$$QEAPEA_W$$QEA_K@Z 000000018005af28     Plist.obj
 0001:00059f28       $unwind$?_Xlength@?$vector@PEAUHINSTANCE__@@V?$allocator@PEAUHINSTANCE__@@@std@@@std@@CAXXZ 000000018005af28     Plist.obj
 0001:00059f28       $unwind$?allocate@?$allocator@PEAUHINSTANCE__@@@std@@QEAAPEAPEAUHINSTANCE__@@_K@Z 000000018005af28     Plist.obj
 0001:00059f28       $unwind$?deallocate@?$allocator@PEAUHINSTANCE__@@@std@@QEAAXQEAPEAUHINSTANCE__@@_K@Z 000000018005af28     Plist.obj
 0001:00059f28       $unwind$?dynamic_bind@@YAXXZ 000000018005af28     Proclist.obj
 0001:00059f28       $unwind$?is_wow64_process@@YA_NPEAX@Z 000000018005af28     Proclist.obj
 0001:00059f28       $unwind$CompareW           000000018005af28     Proclist.obj
 0001:00059f28       $unwind$ConfigureW         000000018005af28     Proclist.obj
 0001:00059f28       $unwind$DeleteFilesW       000000018005af28     Proclist.obj
 0001:00059f28       $unwind$GetFindDataW       000000018005af28     Proclist.obj
 0001:00059f28       $unwind$GetGlobalInfoW     000000018005af28     Proclist.obj
 0001:00059f28       $unwind$ProcessPanelEventW 000000018005af28     Proclist.obj
 0001:00059f28       $unwind$ProcessPanelInputW 000000018005af28     Proclist.obj
 0001:00059f28       $unwind$?deallocate@?$allocator@_W@std@@QEAAXQEA_W_K@Z 000000018005af28     fileio.obj
 0001:00059f28       $unwind$??1?$basic_memory_buffer@D$0BPE@V?$allocator@D@std@@@v7@fmt@@QEAA@XZ 000000018005af28     format.obj
 0001:00059f28       $unwind$??1?$basic_memory_buffer@I$0CA@V?$allocator@I@std@@@v7@fmt@@QEAA@XZ 000000018005af28     format.obj
 0001:00059f28       $unwind$??1?$basic_memory_buffer@_W$0BPE@V?$allocator@_W@std@@@v7@fmt@@QEAA@XZ 000000018005af28     format.obj
 0001:00059f28       $unwind$??1bigint@detail@v7@fmt@@QEAA@XZ 000000018005af28     format.obj
 0001:00059f28       $unwind$??1locale@std@@QEAA@XZ 000000018005af28     format.obj
 0001:00059f28       $unwind$?_Xlen@?$basic_string@DU?$char_traits@D@std@@V?$allocator@D@2@@std@@CAXXZ 000000018005af28     format.obj
 0001:00059f28       $unwind$?_Xlen@?$basic_string@_WU?$char_traits@_W@std@@V?$allocator@_W@2@@std@@CAXXZ 000000018005af28     format.obj
 0001:00059f28       $unwind$?allocate@?$allocator@_W@std@@QEAAPEA_W_K@Z 000000018005af28     format.obj
 0001:00059f28       $unwind$??__FUserAccountID@?1??GetUserAccountID@@YA@XZ@YAXXZ 000000018005af28     handles.obj
 0001:00059f28       $unwind$?_Xlength@?$vector@EV?$allocator@E@std@@@std@@CAXXZ 000000018005af28     perfthread.obj
 0001:00059f28       $unwind$?_Xlength@?$vector@UProcessPerfData@@V?$allocator@UProcessPerfData@@@std@@@std@@CAXXZ 000000018005af28     perfthread.obj
 0001:00059f28       $unwind$?deallocate@?$allocator@E@std@@QEAAXQEAE_K@Z 000000018005af28     perfthread.obj
 0001:00059f28       $unwind$__scrt_initialize_default_local_stdio_options 000000018005af28     LIBCMT:default_local_stdio_options.obj
 0001:00059f28       $unwind$?dllmain_crt_dispatch@@YAHQEAUHINSTANCE__@@KQEAX@Z 000000018005af28     LIBCMT:dll_dllmain.obj
 0001:00059f28       $unwind$__report_rangecheckfailure 000000018005af28     LIBCMT:gs_report.obj
 0001:00059f28       $unwind$__GSHandlerCheck   000000018005af28     LIBCMT:gshandler.obj
 0001:00059f28       $unwind$__scrt_acquire_startup_lock 000000018005af28     LIBCMT:utility.obj
 0001:00059f28       $unwind$__scrt_dllmain_after_initialize_c 000000018005af28     LIBCMT:utility.obj
 0001:00059f28       $unwind$__scrt_dllmain_before_initialize_c 000000018005af28     LIBCMT:utility.obj
 0001:00059f28       $unwind$__scrt_dllmain_crt_thread_attach 000000018005af28     LIBCMT:utility.obj
 0001:00059f28       $unwind$__scrt_dllmain_crt_thread_detach 000000018005af28     LIBCMT:utility.obj
 0001:00059f28       $unwind$__scrt_dllmain_uninitialize_c 000000018005af28     LIBCMT:utility.obj
 0001:00059f28       $unwind$__scrt_dllmain_uninitialize_critical 000000018005af28     LIBCMT:utility.obj
 0001:00059f28       $unwind$atexit             000000018005af28     LIBCMT:utility.obj
 0001:00059f28       $unwind$??__Einitlocks@std@@YAXXZ 000000018005af28     libcpmt:iosptrs.obj
 0001:00059f28       $unwind$?_Atexit@@YAXP6AXXZ@Z 000000018005af28     libcpmt:iosptrs.obj
 0001:00059f28       $unwind$??__Fclassic_locale@std@@YAXXZ 000000018005af28     libcpmt:locale0.obj
 0001:00059f28       $unwind$?_Locinfo_dtor@_Locinfo@std@@SAXPEAV12@@Z 000000018005af28     libcpmt:locale0.obj
 0001:00059f28       $unwind$_Deletegloballocale 000000018005af28     libcpmt:locale0.obj
 0001:00059f28       $unwind$tidy_global        000000018005af28     libcpmt:locale0.obj
 0001:00059f28       $unwind$__crtInitializeCriticalSectionEx 000000018005af28     libcpmt:winapisupp.obj
 0001:00059f28       $unwind$??1_Lockit@std@@QEAA@XZ 000000018005af28     libcpmt:xlock.obj
 0001:00059f28       $unwind$??__Einitlocks@std@@YAXXZ 000000018005af28     libcpmt:xlock.obj
 0001:00059f28       $unwind$__current_exception 000000018005af28     libvcruntime:ehhelpers.obj
 0001:00059f28       $unwind$__current_exception_context 000000018005af28     libvcruntime:ehhelpers.obj
 0001:00059f28       $unwind$__std_terminate    000000018005af28     libvcruntime:ehhelpers.obj
 0001:00059f28       $unwind$?GetCurrentState@__FrameHandler3@@SAHPEA_KPEAU_xDISPATCHER_CONTEXT@@PEBU_s_FuncInfo@@@Z 000000018005af28     libvcruntime:ehstate.obj
 0001:00059f28       $unwind$__vcrt_initialize  000000018005af28     libvcruntime:initialization.obj
 0001:00059f28       $unwind$__vcrt_thread_attach 000000018005af28     libvcruntime:initialization.obj
 0001:00059f28       $unwind$__vcrt_thread_detach 000000018005af28     libvcruntime:initialization.obj
 0001:00059f28       $unwind$__vcrt_uninitialize 000000018005af28     libvcruntime:initialization.obj
 0001:00059f28       $unwind$__vcrt_uninitialize_critical 000000018005af28     libvcruntime:initialization.obj
 0001:00059f28       $unwind$__vcrt_initialize_locks 000000018005af28     libvcruntime:locks.obj
 0001:00059f28       $unwind$__vcrt_freefls     000000018005af28     libvcruntime:per_thread_data.obj
 0001:00059f28       $unwind$__vcrt_getptd      000000018005af28     libvcruntime:per_thread_data.obj
 0001:00059f28       $unwind$__vcrt_initialize_ptd 000000018005af28     libvcruntime:per_thread_data.obj
 0001:00059f28       $unwind$__vcrt_uninitialize_ptd 000000018005af28     libvcruntime:per_thread_data.obj
 0001:00059f28       $unwind$_purecall          000000018005af28     libvcruntime:purevirt.obj
 0001:00059f28       $unwind$?FrameUnwindToEmptyState@__FrameHandler4@@SAXPEA_KPEAU_xDISPATCHER_CONTEXT@@PEAUFuncInfo4@FH4@@@Z 000000018005af28     libvcruntime:risctrnsctrl.obj
 0001:00059f28       $unwind$_GetImageBase      000000018005af28     libvcruntime:risctrnsctrl.obj
 0001:00059f28       $unwind$_GetThrowImageBase 000000018005af28     libvcruntime:risctrnsctrl.obj
 0001:00059f28       $unwind$__dcrt_terminate_console_output 000000018005af28     libucrt:initcon.obj
 0001:00059f28       $unwind$??$uninitialize_environment_internal@D@@YAXAEAPEAPEAD@Z 000000018005af28     libucrt:environment_initialization.obj
 0001:00059f28       $unwind$??$uninitialize_environment_internal@_W@@YAXAEAPEAPEA_W@Z 000000018005af28     libucrt:environment_initialization.obj
 0001:00059f28       $unwind$__dcrt_uninitialize_environments_nolock 000000018005af28     libucrt:environment_initialization.obj
 0001:00059f28       $unwind$?__c32rtomb_utf8@__crt_mbstring@@YA_KPEAD_UPEAU_Mbstatet@@@Z 000000018005af28     libucrt:c32rtomb.obj
 0001:00059f28       $unwind$__acrt_initialize_heap 000000018005af28     libucrt:heap_handle.obj
 0001:00059f28       $unwind$_msize_base        000000018005af28     libucrt:msize.obj
 0001:00059f28       $unwind$?initialize_multibyte@@YAHXZ 000000018005af28     libucrt:multibyte_initializer.obj
 0001:00059f28       $unwind$__acrt_thread_attach 000000018005af28     libucrt:initialization.obj
 0001:00059f28       $unwind$__acrt_thread_detach 000000018005af28     libucrt:initialization.obj
 0001:00059f28       $unwind$__acrt_uninitialize 000000018005af28     libucrt:initialization.obj
 0001:00059f28       $unwind$__acrt_uninitialize_critical 000000018005af28     libucrt:initialization.obj
 0001:00059f28       $unwind$initialize_c       000000018005af28     libucrt:initialization.obj
 0001:00059f28       $unwind$uninitialize_allocated_io_buffers 000000018005af28     libucrt:initialization.obj
 0001:00059f28       $unwind$uninitialize_environment 000000018005af28     libucrt:initialization.obj
 0001:00059f28       $unwind$_lock_locales      000000018005af28     libucrt:locks.obj
 0001:00059f28       $unwind$__acrt_initialize_ptd 000000018005af28     libucrt:per_thread_data.obj
 0001:00059f28       $unwind$__acrt_uninitialize_ptd 000000018005af28     libucrt:per_thread_data.obj
 0001:00059f28       $unwind$__acrt_AreFileApisANSI 000000018005af28     libucrt:winapi_thunks.obj
 0001:00059f28       $unwind$__acrt_can_use_vista_locale_apis 000000018005af28     libucrt:winapi_thunks.obj
 0001:00059f28       $unwind$__acrt_eagerly_load_locale_apis 000000018005af28     libucrt:winapi_thunks.obj
 0001:00059f28       $unwind$__pctype_func      000000018005af28     libucrt:ctype.obj
 0001:00059f28       $unwind$___lc_codepage_func 000000018005af28     libucrt:initctype.obj
 0001:00059f28       $unwind$___lc_locale_name_func 000000018005af28     libucrt:initctype.obj
 0001:00059f28       $unwind$___mb_cur_max_func 000000018005af28     libucrt:initctype.obj
 0001:00059f28       $unwind$__acrt_release_locale_ref 000000018005af28     libucrt:locale_refcounting.obj
 0001:00059f28       $unwind$localeconv         000000018005af28     libucrt:localeconv.obj
 0001:00059f28       $unwind$_copytlocinfo_nolock 000000018005af28     libucrt:wsetlocale.obj
 0001:00059f28       $unwind$_isatty            000000018005af28     libucrt:isatty.obj
 0001:00059f28       $unwind$_get_osfhandle     000000018005af28     libucrt:osfinfo.obj
 0001:00059f28       $unwind$__acrt_initialize_multibyte 000000018005af28     libucrt:mbctype.obj
 0001:00059f28       $unwind$__acrt_update_thread_multibyte_data 000000018005af28     libucrt:mbctype.obj
 0001:00059f28       $unwind$__doserrno         000000018005af28     libucrt:errno.obj
 0001:00059f28       $unwind$_errno             000000018005af28     libucrt:errno.obj
 0001:00059f28       $unwind$_invoke_watson     000000018005af28     libucrt:invalid_parameter.obj
 0001:00059f28       $unwind$abort              000000018005af28     libucrt:abort.obj
 0001:00059f28       $unwind$__acrt_initialize_command_line 000000018005af28     libucrt:argv_data.obj
 0001:00059f28       $unwind$_fileno            000000018005af28     libucrt:fileno.obj
 0001:00059f28       $unwind$?state_case_normal_tchar@?$output_processor@DV?$string_output_adapter@D@__crt_stdio_output@@V?$format_validation_base@DV?$string_output_adapter@D@__crt_stdio_output@@@2@@__crt_stdio_output@@AEAA_ND@Z 000000018005af28     libucrt:output.obj
 0001:00059f28       $unwind$?state_case_size@?$output_processor@DV?$string_output_adapter@D@__crt_stdio_output@@V?$format_validation_base@DV?$string_output_adapter@D@__crt_stdio_output@@@2@@__crt_stdio_output@@AEAA_NXZ 000000018005af28     libucrt:output.obj
 0001:00059f28       $unwind$_wcsicmp           000000018005af28     libucrt:wcsicmp.obj
 0001:00059f28       $unwind$_wcsnicmp          000000018005af28     libucrt:wcsnicmp.obj
 0001:00059f28       $unwind$_statfp            000000018005af28     libucrt:fpctrl.obj
 0001:00059f28       $unwind$_set_errno_from_matherr 000000018005af28     libucrt:fpexcept.obj
 0001:00059f30       $unwind$??_GPluginCheckBoxBinding@@UEAAPEAXI@Z 000000018005af30     Pcfg.obj
 0001:00059f30       $unwind$?SaveValue@PluginCheckBoxBinding@@UEAAXPEBUFarDialogItem@@H@Z 000000018005af30     Pcfg.obj
 0001:00059f30       $unwind$??1?$_Hash_vec@V?$allocator@V?$_List_unchecked_iterator@V?$_List_val@U?$_List_simple_types@U?$pair@$$CBKPEAUHWND__@@@std@@@std@@@std@@@std@@@std@@@std@@QEAA@XZ 000000018005af30     Pclass.obj
 0001:00059f30       $unwind$??1?$unique_ptr@VPerfThread@@U?$default_delete@VPerfThread@@@std@@@std@@QEAA@XZ 000000018005af30     Pclass.obj
 0001:00059f30       $unwind$??1?$unique_ptr@VWMIConnection@@U?$default_delete@VWMIConnection@@@std@@@std@@QEAA@XZ 000000018005af30     Pclass.obj
 0001:00059f30       $unwind$??1?$vector@UFarMenuItem@@V?$allocator@UFarMenuItem@@@std@@@std@@QEAA@XZ 000000018005af30     Pclass.obj
 0001:00059f30       $unwind$??1?$vector@_KV?$allocator@_K@std@@@std@@QEAA@XZ 000000018005af30     Pclass.obj
 0001:00059f30       $unwind$??1ProcessData@@QEAA@XZ 000000018005af30     Pclass.obj
 0001:00059f30       $unwind$??4?$unique_ptr@VPerfThread@@U?$default_delete@VPerfThread@@@std@@@std@@QEAAAEAV01@$$QEAV01@@Z 000000018005af30     Pclass.obj
 0001:00059f30       $unwind$??_GPluginEditFieldBinding@@UEAAPEAXI@Z 000000018005af30     Pclass.obj
 0001:00059f30       $unwind$?SaveValue@PluginEditFieldBinding@@UEAAXPEBUFarDialogItem@@H@Z 000000018005af30     Pclass.obj
 0001:00059f30       $unwind$??1?$function@$$A6A_NPEA_W_K@Z@std@@QEAA@XZ 000000018005af30     Plist.obj
 0001:00059f30       $unwind$??1?$vector@PEAUHINSTANCE__@@V?$allocator@PEAUHINSTANCE__@@@std@@@std@@QEAA@XZ 000000018005af30     Plist.obj
 0001:00059f30       $unwind$?Enable@DebugToken@@QEAA_NXZ 000000018005af30     Plist.obj
 0001:00059f30       $unwind$?Revert@DebugToken@@QEAA_NXZ 000000018005af30     Plist.obj
 0001:00059f30       $unwind$ClosePanelW        000000018005af30     Proclist.obj
 0001:00059f30       $unwind$SetStartupInfoW    000000018005af30     Proclist.obj
 0001:00059f30       $unwind$??1?$function@$$A6AXAEBUtagVARIANT@@@Z@std@@QEAA@XZ 000000018005af30     WMI.obj
 0001:00059f30       $unwind$?Disconnect@WMIConnection@@QEAAXXZ 000000018005af30     WMI.obj
 0001:00059f30       $unwind$??1?$basic_string@_WU?$char_traits@_W@std@@V?$allocator@_W@2@@std@@QEAA@XZ 000000018005af30     fileio.obj
 0001:00059f30       $unwind$??1columns@@QEAA@XZ 000000018005af30     fileio.obj
 0001:00059f30       $unwind$?_Tidy_deallocate@?$basic_string@_WU?$char_traits@_W@std@@V?$allocator@_W@2@@std@@AEAAXXZ 000000018005af30     fileio.obj
 0001:00059f30       $unwind$??0bad_alloc@std@@QEAA@AEBV01@@Z 000000018005af30     format.obj
 0001:00059f30       $unwind$??0bad_array_new_length@std@@QEAA@AEBV01@@Z 000000018005af30     format.obj
 0001:00059f30       $unwind$??0bad_cast@std@@QEAA@AEBV01@@Z 000000018005af30     format.obj
 0001:00059f30       $unwind$??0exception@std@@QEAA@AEBV01@@Z 000000018005af30     format.obj
 0001:00059f30       $unwind$??0format_error@v7@fmt@@QEAA@AEBV012@@Z 000000018005af30     format.obj
 0001:00059f30       $unwind$??0runtime_error@std@@QEAA@AEBV01@@Z 000000018005af30     format.obj
 0001:00059f30       $unwind$??1?$_Tidy_guard@V?$numpunct@_W@std@@@std@@QEAA@XZ 000000018005af30     format.obj
 0001:00059f30       $unwind$??1?$_Yarn@D@std@@QEAA@XZ 000000018005af30     format.obj
 0001:00059f30       $unwind$??1?$_Yarn@_W@std@@QEAA@XZ 000000018005af30     format.obj
 0001:00059f30       $unwind$??1?$basic_string@DU?$char_traits@D@std@@V?$allocator@D@2@@std@@QEAA@XZ 000000018005af30     format.obj
 0001:00059f30       $unwind$??_3bigint@detail@v7@fmt@@QEAAAEAV0123@H@Z 000000018005af30     format.obj
 0001:00059f30       $unwind$??_G_Facet_base@std@@UEAAPEAXI@Z 000000018005af30     format.obj
 0001:00059f30       $unwind$?do_falsename@?$numpunct@_W@std@@MEBA?AV?$basic_string@_WU?$char_traits@_W@std@@V?$allocator@_W@2@@2@XZ 000000018005af30     format.obj
 0001:00059f30       $unwind$?do_grouping@?$numpunct@_W@std@@MEBA?AV?$basic_string@DU?$char_traits@D@std@@V?$allocator@D@2@@2@XZ 000000018005af30     format.obj
 0001:00059f30       $unwind$?do_truename@?$numpunct@_W@std@@MEBA?AV?$basic_string@_WU?$char_traits@_W@std@@V?$allocator@_W@2@@2@XZ 000000018005af30     format.obj
 0001:00059f30       $unwind$??$parse_float_type_spec@Uerror_handler@detail@v7@fmt@@_W@detail@v7@fmt@@YA?AUfloat_specs@012@AEBU?$basic_format_specs@_W@12@$$QEAUerror_handler@012@@Z 000000018005af30     handles.obj
 0001:00059f30       $unwind$?check_sign@?$numeric_specs_checker@V?$specs_handler@V?$basic_format_parse_context@_WUerror_handler@detail@v7@fmt@@@v7@fmt@@V?$basic_format_context@V?$buffer_appender@_W@detail@v7@fmt@@_W@23@@detail@v7@fmt@@@detail@v7@fmt@@QEAAXXZ 000000018005af30     handles.obj
 0001:00059f30       $unwind$??1?$vector@EV?$allocator@E@std@@@std@@QEAA@XZ 000000018005af30     perfthread.obj
 0001:00059f30       $unwind$??1?$vector@_WV?$allocator@_W@std@@@std@@QEAA@XZ 000000018005af30     perfthread.obj
 0001:00059f30       $unwind$??1PerfThread@@QEAA@XZ 000000018005af30     perfthread.obj
 0001:00059f30       $unwind$?SyncReread@PerfThread@@QEAAXXZ 000000018005af30     perfthread.obj
 0001:00059f30       $unwind$__raise_securityfailure 000000018005af30     LIBCMT:gs_report.obj
 0001:00059f30       $unwind$??2@YAPEAX_K@Z     000000018005af30     LIBCMT:new_scalar.obj
 0001:00059f30       $unwind$??_Gtype_info@@UEAAPEAXI@Z 000000018005af30     LIBCMT:std_type_info_static.obj
 0001:00059f30       $unwind$__scrt_initialize_crt 000000018005af30     LIBCMT:utility.obj
 0001:00059f30       $unwind$__scrt_initialize_onexit_tables 000000018005af30     LIBCMT:utility.obj
 0001:00059f30       $unwind$__scrt_release_startup_lock 000000018005af30     LIBCMT:utility.obj
 0001:00059f30       $unwind$__scrt_uninitialize_crt 000000018005af30     LIBCMT:utility.obj
 0001:00059f30       $unwind$_onexit            000000018005af30     LIBCMT:utility.obj
 0001:00059f30       $unwind$??__F_Fac_tidy_reg@std@@YAXXZ 000000018005af30     libcpmt:locale0.obj
 0001:00059f30       $unwind$?_Facet_Register@std@@YAXPEAV_Facet_base@1@@Z 000000018005af30     libcpmt:locale0.obj
 0001:00059f30       $unwind$?_Setgloballocale@locale@std@@CAXPEAX@Z 000000018005af30     libcpmt:locale0.obj
 0001:00059f30       $unwind$?initialize_pointers@@YAHXZ 000000018005af30     libcpmt:winapisupp.obj
 0001:00059f30       $unwind$??0_Lockit@std@@QEAA@H@Z 000000018005af30     libcpmt:xlock.obj
 0001:00059f30       $unwind$??1_Init_locks@std@@QEAA@XZ 000000018005af30     libcpmt:xlock.obj
 0001:00059f30       $unwind$??0bad_function_call@std@@QEAA@AEBV01@@Z 000000018005af30     libcpmt:xthrow.obj
 0001:00059f30       $unwind$??0length_error@std@@QEAA@AEBV01@@Z 000000018005af30     libcpmt:xthrow.obj
 0001:00059f30       $unwind$??0logic_error@std@@QEAA@AEBV01@@Z 000000018005af30     libcpmt:xthrow.obj
 0001:00059f30       $unwind$??0out_of_range@std@@QEAA@AEBV01@@Z 000000018005af30     libcpmt:xthrow.obj
 0001:00059f30       $unwind$_IsExceptionObjectToBeDestroyed 000000018005af30     libvcruntime:ehhelpers.obj
 0001:00059f30       $unwind$?GetUnwindTryBlock@__FrameHandler3@@SAHPEA_KPEAU_xDISPATCHER_CONTEXT@@PEBU_s_FuncInfo@@@Z 000000018005af30     libvcruntime:ehstate.obj
 0001:00059f30       $unwind$?StateFromIp@__FrameHandler3@@SAHPEBU_s_FuncInfo@@PEAU_xDISPATCHER_CONTEXT@@_K@Z 000000018005af30     libvcruntime:ehstate.obj
 0001:00059f30       $unwind$??0HandlerMap4@FH4@@QEAA@PEBUTryBlockMapEntry4@1@_KH@Z 000000018005af30     libvcruntime:frame.obj
 0001:00059f30       $unwind$??0bad_exception@std@@QEAA@AEBV01@@Z 000000018005af30     libvcruntime:frame.obj
 0001:00059f30       $unwind$?ExFilterRethrow@@YAHPEAU_EXCEPTION_POINTERS@@PEAUEHExceptionRecord@@PEAH@Z 000000018005af30     libvcruntime:frame.obj
 0001:00059f30       $unwind$__vcrt_uninitialize_locks 000000018005af30     libvcruntime:locks.obj
 0001:00059f30       $unwind$__vcrt_freeptd     000000018005af30     libvcruntime:per_thread_data.obj
 0001:00059f30       $unwind$?ExecutionInCatch@__FrameHandler3@@SA_NPEAU_xDISPATCHER_CONTEXT@@PEBU_s_FuncInfo@@@Z 000000018005af30     libvcruntime:risctrnsctrl.obj
 0001:00059f30       $unwind$_CreateFrameInfo   000000018005af30     libvcruntime:risctrnsctrl.obj
 0001:00059f30       $unwind$_SetImageBase      000000018005af30     libvcruntime:risctrnsctrl.obj
 0001:00059f30       $unwind$_SetThrowImageBase 000000018005af30     libvcruntime:risctrnsctrl.obj
 0001:00059f30       $unwind$__std_exception_destroy 000000018005af30     libvcruntime:std_exception.obj
 0001:00059f30       $unwind$__std_type_info_destroy_list 000000018005af30     libvcruntime:std_type_info.obj
 0001:00059f30       $unwind$__vcrt_FlsAlloc    000000018005af30     libvcruntime:winapi_downlevel.obj
 0001:00059f30       $unwind$__vcrt_FlsFree     000000018005af30     libvcruntime:winapi_downlevel.obj
 0001:00059f30       $unwind$__vcrt_FlsGetValue 000000018005af30     libvcruntime:winapi_downlevel.obj
 0001:00059f30       $unwind$?__c16rtomb_utf8@__crt_mbstring@@YA_KPEAD_SPEAU_Mbstatet@@@Z 000000018005af30     libucrt:c16rtomb.obj
 0001:00059f30       $unwind$_calloc_base       000000018005af30     libucrt:calloc_base.obj
 0001:00059f30       $unwind$_malloc_base       000000018005af30     libucrt:malloc_base.obj
 0001:00059f30       $unwind$_callnewh          000000018005af30     libucrt:new_handler.obj
 0001:00059f30       $unwind$initialize_pointers 000000018005af30     libucrt:initialization.obj
 0001:00059f30       $unwind$uninitialize_allocated_memory 000000018005af30     libucrt:initialization.obj
 0001:00059f30       $unwind$__acrt_initialize_locks 000000018005af30     libucrt:locks.obj
 0001:00059f30       $unwind$__acrt_uninitialize_locks 000000018005af30     libucrt:locks.obj
 0001:00059f30       $unwind$__acrt_freeptd     000000018005af30     libucrt:per_thread_data.obj
 0001:00059f30       $unwind$__acrt_getptd_head 000000018005af30     libucrt:per_thread_data.obj
 0001:00059f30       $unwind$__acrt_get_process_end_policy 000000018005af30     libucrt:win_policies.obj
 0001:00059f30       $unwind$__acrt_AppPolicyGetProcessTerminationMethodInternal 000000018005af30     libucrt:winapi_thunks.obj
 0001:00059f30       $unwind$__acrt_FlsAlloc    000000018005af30     libucrt:winapi_thunks.obj
 0001:00059f30       $unwind$__acrt_FlsFree     000000018005af30     libucrt:winapi_thunks.obj
 0001:00059f30       $unwind$__acrt_FlsGetValue 000000018005af30     libucrt:winapi_thunks.obj
 0001:00059f30       $unwind$__acrt_IsValidLocaleName 000000018005af30     libucrt:winapi_thunks.obj
 0001:00059f30       $unwind$__acrt_uninitialize_winapi_thunks 000000018005af30     libucrt:winapi_thunks.obj
 0001:00059f30       $unwind$__acrt_update_locale_info 000000018005af30     libucrt:locale_update.obj
 0001:00059f30       $unwind$__acrt_update_multibyte_info 000000018005af30     libucrt:locale_update.obj
 0001:00059f30       $unwind$__acrt_allocate_buffer_for_argv 000000018005af30     libucrt:argv_parsing.obj
 0001:00059f30       $unwind$?exit_or_terminate_process@@YAXI@Z 000000018005af30     libucrt:exit.obj
 0001:00059f30       $unwind$?try_cor_exit_process@@YAXI@Z 000000018005af30     libucrt:exit.obj
 0001:00059f30       $unwind$__acrt_uninitialize_stdio 000000018005af30     libucrt:_file.obj
 0001:00059f30       $unwind$__acrt_stdio_free_buffer_nolock 000000018005af30     libucrt:_freebuf.obj
 0001:00059f30       $unwind$_fflush_nolock     000000018005af30     libucrt:fflush.obj
 0001:00059f30       $unwind$?state_case_normal@?$output_processor@DV?$string_output_adapter@D@__crt_stdio_output@@V?$format_validation_base@DV?$string_output_adapter@D@__crt_stdio_output@@@2@@__crt_stdio_output@@AEAA_NXZ 000000018005af30     libucrt:output.obj
 0001:00059f30       $unwind$?type_case_c_tchar@?$output_processor@DV?$string_output_adapter@D@__crt_stdio_output@@V?$format_validation_base@DV?$string_output_adapter@D@__crt_stdio_output@@@2@@__crt_stdio_output@@AEAA_ND@Z 000000018005af30     libucrt:output.obj
 0001:00059f30       $unwind$?type_case_s@?$output_processor@DV?$string_output_adapter@D@__crt_stdio_output@@V?$format_validation_base@DV?$string_output_adapter@D@__crt_stdio_output@@@2@@__crt_stdio_output@@AEAA_NXZ 000000018005af30     libucrt:output.obj
 0001:00059f30       $unwind$strcpy_s           000000018005af30     libucrt:strcpy_s.obj
 0001:00059f30       $unwind$wcscat_s           000000018005af30     libucrt:wcscat_s.obj
 0001:00059f30       $unwind$wcscpy_s           000000018005af30     libucrt:wcscpy_s.obj
 0001:00059f30       $unwind$_clrfp             000000018005af30     libucrt:fpctrl.obj
 0001:00059f30       $unwind$_set_statfp        000000018005af30     libucrt:fpctrl.obj
 0001:00059f30       $unwind$_clearfp           000000018005af30     libucrt:ieee.obj
 0001:00059f30       $unwind$fegetenv           000000018005af30     libucrt:fegetenv.obj
 0001:00059f30       $unwind$feholdexcept       000000018005af30     libucrt:feholdexcept.obj
 0001:00059f30       $unwind$fesetenv           000000018005af30     libucrt:fesetenv.obj
 0001:00059f38       $unwind$??4columns@@QEAAAEAU0@AEBU0@@Z 000000018005af38     Pclass.obj
 0001:00059f38       $unwind$GetPluginInfoW     000000018005af38     Proclist.obj
 0001:00059f38       $unwind$OpenW              000000018005af38     Proclist.obj
 0001:00059f38       $unwind$??1mode@@QEAA@XZ   000000018005af38     fileio.obj
 0001:00059f38       $unwind$??$?XH@bigint@detail@v7@fmt@@QEAAAEAV0123@H@Z 000000018005af38     format.obj
 0001:00059f38       $unwind$??_G?$numpunct@_W@std@@MEAAPEAXI@Z 000000018005af38     format.obj
 0001:00059f38       $unwind$??_Gbad_alloc@std@@UEAAPEAXI@Z 000000018005af38     format.obj
 0001:00059f38       $unwind$??_Gbad_array_new_length@std@@UEAAPEAXI@Z 000000018005af38     format.obj
 0001:00059f38       $unwind$??_Gbad_cast@std@@UEAAPEAXI@Z 000000018005af38     format.obj
 0001:00059f38       $unwind$??_Gexception@std@@UEAAPEAXI@Z 000000018005af38     format.obj
 0001:00059f38       $unwind$??_Gformat_error@v7@fmt@@UEAAPEAXI@Z 000000018005af38     format.obj
 0001:00059f38       $unwind$??_Gruntime_error@std@@UEAAPEAXI@Z 000000018005af38     format.obj
 0001:00059f38       $unwind$?try_resize@?$buffer@D@detail@v7@fmt@@QEAAX_K@Z 000000018005af38     format.obj
 0001:00059f38       $unwind$??1?$_Uninitialized_backout_al@V?$allocator@UProcessPerfData@@@std@@@std@@QEAA@XZ 000000018005af38     perfthread.obj
 0001:00059f38       $unwind$??4ProcessPerfData@@QEAAAEAU0@AEBU0@@Z 000000018005af38     perfthread.obj
 0001:00059f38       $unwind$_RTC_Initialize    000000018005af38     LIBCMT:initsect.obj
 0001:00059f38       $unwind$_RTC_Terminate     000000018005af38     LIBCMT:initsect.obj
 0001:00059f38       $unwind$??_G_Locimp@locale@std@@MEAAPEAXI@Z 000000018005af38     libcpmt:locale0.obj
 0001:00059f38       $unwind$?_Locinfo_ctor@_Locinfo@std@@SAXPEAV12@PEBD@Z 000000018005af38     libcpmt:locale0.obj
 0001:00059f38       $unwind$?_New_Locimp@_Locimp@locale@std@@CAPEAV123@_N@Z 000000018005af38     libcpmt:locale0.obj
 0001:00059f38       $unwind$??0_Init_locks@std@@QEAA@XZ 000000018005af38     libcpmt:xlock.obj
 0001:00059f38       $unwind$??_Gbad_function_call@std@@UEAAPEAXI@Z 000000018005af38     libcpmt:xthrow.obj
 0001:00059f38       $unwind$??_Glength_error@std@@UEAAPEAXI@Z 000000018005af38     libcpmt:xthrow.obj
 0001:00059f38       $unwind$??_Glogic_error@std@@UEAAPEAXI@Z 000000018005af38     libcpmt:xthrow.obj
 0001:00059f38       $unwind$??_Gout_of_range@std@@UEAAPEAXI@Z 000000018005af38     libcpmt:xthrow.obj
 0001:00059f38       $unwind$_Getcvt            000000018005af38     libcpmt:xwctomb.obj
 0001:00059f38       $unwind$__FrameUnwindFilter 000000018005af38     libvcruntime:ehhelpers.obj
 0001:00059f38       $unwind$?SetUnwindTryBlock@__FrameHandler3@@SAXPEA_KPEAU_xDISPATCHER_CONTEXT@@PEBU_s_FuncInfo@@H@Z 000000018005af38     libvcruntime:ehstate.obj
 0001:00059f38       $unwind$??_Gbad_exception@std@@UEAAPEAXI@Z 000000018005af38     libvcruntime:frame.obj
 0001:00059f38       $unwind$?ExFilterRethrowFH4@@YAHPEAU_EXCEPTION_POINTERS@@PEAUEHExceptionRecord@@HPEAH@Z 000000018005af38     libvcruntime:frame.obj
 0001:00059f38       $unwind$_FindAndUnlinkFrame 000000018005af38     libvcruntime:risctrnsctrl.obj
 0001:00059f38       $unwind$__vcrt_FlsSetValue 000000018005af38     libvcruntime:winapi_downlevel.obj
 0001:00059f38       $unwind$??$common_initialize_environment_nolock@D@@YAHXZ 000000018005af38     libucrt:environment_initialization.obj
 0001:00059f38       $unwind$__acrt_fp_strflt_to_string 000000018005af38     libucrt:_fptostr.obj
 0001:00059f38       $unwind$_realloc_base      000000018005af38     libucrt:realloc_base.obj
 0001:00059f38       $unwind$?replace_current_thread_locale_nolock@@YAXQEAU__acrt_ptd@@QEAU__crt_locale_data@@@Z 000000018005af38     libucrt:per_thread_data.obj
 0001:00059f38       $unwind$__acrt_execute_uninitializers 000000018005af38     libucrt:shared_initialization.obj
 0001:00059f38       $unwind$__acrt_FlsSetValue 000000018005af38     libucrt:winapi_thunks.obj
 0001:00059f38       $unwind$__acrt_GetUserDefaultLocaleName 000000018005af38     libucrt:winapi_thunks.obj
 0001:00059f38       $unwind$__acrt_LocaleNameToLCID 000000018005af38     libucrt:winapi_thunks.obj
 0001:00059f38       $unwind$GetLocaleNameFromLangCountry 000000018005af38     libucrt:get_qualified_locale.obj
 0001:00059f38       $unwind$GetLocaleNameFromLanguage 000000018005af38     libucrt:get_qualified_locale.obj
 0001:00059f38       $unwind$GetLcidFromLangCountry 000000018005af38     libucrt:getqloc_downlevel.obj
 0001:00059f38       $unwind$GetLcidFromLanguage 000000018005af38     libucrt:getqloc_downlevel.obj
 0001:00059f38       $unwind$_updatetlocinfoEx_nolock 000000018005af38     libucrt:locale_refcounting.obj
 0001:00059f38       $unwind$_close_nolock      000000018005af38     libucrt:close.obj
 0001:00059f38       $unwind$__acrt_uninitialize_lowio 000000018005af38     libucrt:ioinit.obj
 0001:00059f38       $unwind$__acrt_errno_map_os_error 000000018005af38     libucrt:errno.obj
 0001:00059f38       $unwind$_initterm_e        000000018005af38     libucrt:initterm.obj
 0001:00059f38       $unwind$_fclose_nolock     000000018005af38     libucrt:fclose.obj
 0001:00059f38       $unwind$strncpy_s          000000018005af38     libucrt:strncpy_s.obj
 0001:00059f38       $unwind$wcsncat_s          000000018005af38     libucrt:wcsncat_s.obj
 0001:00059f38       $unwind$wcsncpy_s          000000018005af38     libucrt:wcsncpy_s.obj
 0001:00059f38       $unwind$wcstok             000000018005af38     libucrt:wcstok.obj
 0001:00059f44       $unwind$??1?$vector@Umode@@V?$allocator@Umode@@@std@@@std@@QEAA@XZ 000000018005af44     fileio.obj
 0001:00059f50       $chain$0$??1?$vector@Umode@@V?$allocator@Umode@@@std@@@std@@QEAA@XZ 000000018005af50     fileio.obj
 0001:00059f64       $chain$1$??1?$vector@Umode@@V?$allocator@Umode@@@std@@@std@@QEAA@XZ 000000018005af64     fileio.obj
 0001:00059f78       $chain$2$??1?$vector@Umode@@V?$allocator@Umode@@@std@@@std@@QEAA@XZ 000000018005af78     fileio.obj
 0001:00059f88       $chain$3$??1?$vector@Umode@@V?$allocator@Umode@@@std@@@std@@QEAA@XZ 000000018005af88     fileio.obj
 0001:00059f98       $unwind$?_Do_call@?$_Func_impl_no_alloc@V<lambda_c6a5923e4ab0669d9f7c2a6c892502eb>@@_NPEA_W_K@std@@EEAA_N$$QEAPEA_W$$QEA_K@Z 000000018005af98     Plist.obj
 0001:00059f98       $unwind$?SetProcessPriority@WMIConnection@@QEAAHKK@Z 000000018005af98     WMI.obj
 0001:00059f98       $unwind$?TerminateProcess@WMIConnection@@QEAAHK@Z 000000018005af98     WMI.obj
 0001:00059f98       $unwind$?WriteToFile@@YA_KPEAXAEBV?$basic_string_view@_WU?$char_traits@_W@std@@@std@@@Z 000000018005af98     fileio.obj
 0001:00059f98       $unwind$_wtol              000000018005af98     libucrt:atox.obj
 0001:00059f98       $unwind$mbstowcs_s         000000018005af98     libucrt:mbstowcs.obj
 0001:00059f98       $unwind$strtol             000000018005af98     libucrt:strtox.obj
 0001:00059f98       $unwind$wctomb_s           000000018005af98     libucrt:wctomb.obj
 0001:00059f98       $unwind$_itow_s            000000018005af98     libucrt:xtoa.obj
 0001:00059f98       $unwind$parse_bcp47_code_page 000000018005af98     libucrt:wsetlocale.obj
 0001:00059f98       $unwind$_invalid_parameter_noinfo 000000018005af98     libucrt:invalid_parameter.obj
 0001:00059f98       $unwind$_invalid_parameter_noinfo_noreturn 000000018005af98     libucrt:invalid_parameter.obj
 0001:00059f98       $unwind$_log10_special     000000018005af98     libucrt:log_special.obj
 0001:00059fa0       $unwind$?WriteToFile@@YA_KPEAX_W@Z 000000018005afa0     fileio.obj
 0001:00059fa0       $unwind$__report_gsfailure 000000018005afa0     LIBCMT:gs_report.obj
 0001:00059fa8       $unwind$??$_Destroy_range@V?$allocator@Umode@@@std@@@std@@YAXPEAUmode@@QEAU1@AEAV?$allocator@Umode@@@0@@Z 000000018005afa8     fileio.obj
 0001:00059fb0       $chain$0$??$_Destroy_range@V?$allocator@Umode@@@std@@@std@@YAXPEAUmode@@QEAU1@AEAV?$allocator@Umode@@@0@@Z 000000018005afb0     fileio.obj
 0001:00059fc4       $chain$1$??$_Destroy_range@V?$allocator@Umode@@@std@@@std@@YAXPEAUmode@@QEAU1@AEAV?$allocator@Umode@@@0@@Z 000000018005afc4     fileio.obj
 0001:00059fd4       $unwind$?CreateToken@DebugToken@@SA_NXZ 000000018005afd4     Plist.obj
 0001:00059fd4       $unwind$?Message@@YAHIPEB_WPEAPEB_W_K2@Z 000000018005afd4     Proclist.obj
 0001:00059fd4       $unwind$GetFilesW          000000018005afd4     Proclist.obj
 0001:00059fd4       $unwind$??$do_throw@Vformat_error@v7@fmt@@@detail@v7@fmt@@YAXAEBVformat_error@12@@Z 000000018005afd4     format.obj
 0001:00059fd4       $unwind$?_Throw_bad_array_new_length@std@@YAXXZ 000000018005afd4     format.obj
 0001:00059fd4       $unwind$?_Throw_bad_cast@std@@YAXXZ 000000018005afd4     format.obj
 0001:00059fd4       $unwind$?__scrt_throw_std_bad_alloc@@YAXXZ 000000018005afd4     LIBCMT:throw_bad_alloc.obj
 0001:00059fd4       $unwind$?__scrt_throw_std_bad_array_new_length@@YAXXZ 000000018005afd4     LIBCMT:throw_bad_alloc.obj
 0001:00059fd4       $unwind$?_Xbad_alloc@std@@YAXXZ 000000018005afd4     libcpmt:xthrow.obj
 0001:00059fd4       $unwind$?_Xbad_function_call@std@@YAXXZ 000000018005afd4     libcpmt:xthrow.obj
 0001:00059fd4       $unwind$?_Xlength_error@std@@YAXPEBD@Z 000000018005afd4     libcpmt:xthrow.obj
 0001:00059fd4       $unwind$?_Xout_of_range@std@@YAXPEBD@Z 000000018005afd4     libcpmt:xthrow.obj
 0001:00059fd4       $unwind$?_Xruntime_error@std@@YAXPEBD@Z 000000018005afd4     libcpmt:xthrow.obj
 0001:00059fd4       $unwind$_raise_exc         000000018005afd4     libucrt:fpexcept.obj
 0001:00059fd4       $unwind$_raise_excf        000000018005afd4     libucrt:fpexcept.obj
 0001:00059fdc       $unwind$?assign@?$basic_string@DU?$char_traits@D@std@@V?$allocator@D@2@@std@@QEAAAEAV12@QEBD_K@Z 000000018005afdc     format.obj
 0001:00059ff0       $chain$0$?assign@?$basic_string@DU?$char_traits@D@std@@V?$allocator@D@2@@std@@QEAAAEAV12@QEBD_K@Z 000000018005aff0     format.obj
 0001:0005a004       $chain$1$?assign@?$basic_string@DU?$char_traits@D@std@@V?$allocator@D@2@@std@@QEAAAEAV12@QEBD_K@Z 000000018005b004     format.obj
 0001:0005a004       $chain$3$?assign@?$basic_string@DU?$char_traits@D@std@@V?$allocator@D@2@@std@@QEAAAEAV12@QEBD_K@Z 000000018005b004     format.obj
 0001:0005a014       $chain$2$?assign@?$basic_string@DU?$char_traits@D@std@@V?$allocator@D@2@@std@@QEAAAEAV12@QEBD_K@Z 000000018005b014     format.obj
 0001:0005a028       $unwind$?FreeFindData@Plist@@SAXPEAUPluginPanelItem@@_K@Z 000000018005b028     Pclass.obj
 0001:0005a028       $unwind$?assign@?$basic_string@_WU?$char_traits@_W@std@@V?$allocator@_W@2@@std@@QEAAAEAV12@QEB_W_K@Z 000000018005b028     format.obj
 0001:0005a028       $unwind$??$common_xtox@K_W@@YAHKQEA_W_KI_N@Z 000000018005b028     libucrt:xtoa.obj
 0001:0005a028       $unwind$TranslateName      000000018005b028     libucrt:getqloc_downlevel.obj
 0001:0005a028       $unwind$__acrt_DownlevelLocaleNameToLCID 000000018005b028     libucrt:lcidtoname_downlevel.obj
 0001:0005a028       $unwind$??R<lambda_f03950bc5685219e0bcd2087efbe011e>@@QEBAHXZ 000000018005b028     libucrt:onexit.obj
 0001:0005a028       $unwind$?type_case_integer@?$output_processor@DV?$string_output_adapter@D@__crt_stdio_output@@V?$format_validation_base@DV?$string_output_adapter@D@__crt_stdio_output@@@2@@__crt_stdio_output@@AEAA_NI_N@Z 000000018005b028     libucrt:output.obj
 0001:0005a040       $unwind$??0runtime_error@std@@QEAA@PEBD@Z 000000018005b040     format.obj
 0001:0005a040       $unwind$??0length_error@std@@QEAA@PEBD@Z 000000018005b040     libcpmt:xthrow.obj
 0001:0005a040       $unwind$??0out_of_range@std@@QEAA@PEBD@Z 000000018005b040     libcpmt:xthrow.obj
 0001:0005a040       $unwind$?__mbrtowc_utf8@__crt_mbstring@@YA_KPEA_WPEBD_KPEAU_Mbstatet@@@Z 000000018005b040     libucrt:mbrtowc.obj
 0001:0005a040       $unwind$??$common_xtox_s@K_W@@YAHKQEA_W_KI_N@Z 000000018005b040     libucrt:xtoa.obj
 0001:0005a048       $unwind$??1_Locinfo@std@@QEAA@XZ 000000018005b048     format.obj
 0001:0005a05c       $cppxdata$??1_Locinfo@std@@QEAA@XZ 000000018005b05c     format.obj
 0001:0005a061       $ip2state$??1_Locinfo@std@@QEAA@XZ 000000018005b061     format.obj
 0001:0005a064       $unwind$??$_Copy_unchecked@PEBUmode@@PEAU1@@std@@YAPEAUmode@@PEBU1@0PEAU1@@Z 000000018005b064     Pclass.obj
 0001:0005a064       $unwind$??1Plist@@QEAA@XZ  000000018005b064     Pclass.obj
 0001:0005a064       $unwind$??$_Maklocstr@D@std@@YAPEADPEBDPEADAEBU_Cvtvec@@@Z 000000018005b064     format.obj
 0001:0005a064       $unwind$??$make_unique@$$BY0A@_W$0A@@std@@YA?AV?$unique_ptr@$$BY0A@_WU?$default_delete@$$BY0A@_W@std@@@0@_K@Z 000000018005b064     handles.obj
 0001:0005a064       $unwind$??$write@_WV?$buffer_appender@_W@detail@v7@fmt@@@detail@v7@fmt@@YA?AV?$buffer_appender@_W@012@V3012@_W@Z 000000018005b064     handles.obj
 0001:0005a064       $unwind$_DllMainCRTStartup 000000018005b064     LIBCMT:dll_dllmain.obj
 0001:0005a064       $unwind$??4?$_Yarn@D@std@@QEAAAEAV01@PEBD@Z 000000018005b064     libcpmt:locale0.obj
 0001:0005a064       $unwind$__vcrt_getptd_noexit 000000018005b064     libvcruntime:per_thread_data.obj
 0001:0005a064       $unwind$?CatchTryBlock@__FrameHandler3@@SAPEBU_s_TryBlockMapEntry@@PEBU_s_FuncInfo@@H@Z 000000018005b064     libvcruntime:risctrnsctrl.obj
 0001:0005a064       $unwind$?FrameUnwindToEmptyState@__FrameHandler3@@SAXPEA_KPEAU_xDISPATCHER_CONTEXT@@PEBU_s_FuncInfo@@@Z 000000018005b064     libvcruntime:risctrnsctrl.obj
 0001:0005a064       $unwind$__vcrt_InitializeCriticalSectionEx 000000018005b064     libvcruntime:winapi_downlevel.obj
 0001:0005a064       $unwind$memcpy_s           000000018005b064     libucrt:cfout.obj
 0001:0005a064       $unwind$memcpy_s           000000018005b064     libucrt:strtod.obj
 0001:0005a064       $unwind$__acrt_getptd      000000018005b064     libucrt:per_thread_data.obj
 0001:0005a064       $unwind$__acrt_getptd_noexit 000000018005b064     libucrt:per_thread_data.obj
 0001:0005a064       $unwind$__acrt_execute_initializers 000000018005b064     libucrt:shared_initialization.obj
 0001:0005a064       $unwind$__acrt_InitializeCriticalSectionEx 000000018005b064     libucrt:winapi_thunks.obj
 0001:0005a064       $unwind$?free_crt_array_internal@@YAXQEAPEBX_K@Z 000000018005b064     libucrt:inittime.obj
 0001:0005a064       $unwind$__acrt_locale_initialize_time 000000018005b064     libucrt:inittime.obj
 0001:0005a064       $unwind$??$common_lseek_nolock@_J@@YA_JH_JH@Z 000000018005b064     libucrt:lseek.obj
 0001:0005a064       $unwind$__acrt_stdio_flush_nolock 000000018005b064     libucrt:fflush.obj
 0001:0005a064       $unwind$??0_LocaleUpdate@@QEAA@QEAU__crt_locale_pointers@@@Z 000000018005b064     libucrt:output.obj
 0001:0005a064       $unwind$?type_case_n@?$output_processor@DV?$string_output_adapter@D@__crt_stdio_output@@V?$format_validation_base@DV?$string_output_adapter@D@__crt_stdio_output@@@2@@__crt_stdio_output@@AEAA_NXZ 000000018005b064     libucrt:output.obj
 0001:0005a064       $unwind$_exception_enabled 000000018005b064     libucrt:libm_error.obj
 0001:0005a074       $unwind$?on_error@error_handler@detail@v7@fmt@@QEAAXPEBD@Z 000000018005b074     format.obj
 0001:0005a084       $cppxdata$?on_error@error_handler@detail@v7@fmt@@QEAAXPEBD@Z 000000018005b084     format.obj
 0001:0005a08d       $stateUnwindMap$?on_error@error_handler@detail@v7@fmt@@QEAAXPEBD@Z 000000018005b08d     format.obj
 0001:0005a08d       $stateUnwindMap$??$handle_int_type_spec@AEAU?$int_writer@V?$buffer_appender@_W@detail@v7@fmt@@_WI@detail@v7@fmt@@@detail@v7@fmt@@YAXDAEAU?$int_writer@V?$buffer_appender@_W@detail@v7@fmt@@_WI@012@@Z 000000018005b08d     handles.obj
 0001:0005a08d       $stateUnwindMap$??$handle_int_type_spec@AEAU?$int_writer@V?$buffer_appender@_W@detail@v7@fmt@@_W_K@detail@v7@fmt@@@detail@v7@fmt@@YAXDAEAU?$int_writer@V?$buffer_appender@_W@detail@v7@fmt@@_W_K@012@@Z 000000018005b08d     handles.obj
 0001:0005a08d       $stateUnwindMap$?on_fill@?$specs_setter@_W@detail@v7@fmt@@QEAAXV?$basic_string_view@_W@34@@Z 000000018005b08d     handles.obj
 0001:0005a08d       $stateUnwindMap$?write@?$arg_formatter_base@V?$buffer_appender@_W@detail@v7@fmt@@_WUerror_handler@234@@detail@v7@fmt@@IEAAXPEB_W@Z 000000018005b08d     handles.obj
 0001:0005a094       $ip2state$?on_error@error_handler@detail@v7@fmt@@QEAAXPEBD@Z 000000018005b094     format.obj
 0001:0005a098       $unwind$??$grouping_impl@_W@detail@v7@fmt@@YA?AV?$basic_string@DU?$char_traits@D@std@@V?$allocator@D@2@@std@@Vlocale_ref@012@@Z 000000018005b098     format.obj
 0001:0005a0a8       $cppxdata$??$grouping_impl@_W@detail@v7@fmt@@YA?AV?$basic_string@DU?$char_traits@D@std@@V?$allocator@D@2@@std@@Vlocale_ref@012@@Z 000000018005b0a8     format.obj
 0001:0005a0b1       $stateUnwindMap$??$decimal_point_impl@_W@detail@v7@fmt@@YA_WVlocale_ref@012@@Z 000000018005b0b1     format.obj
 0001:0005a0b1       $stateUnwindMap$??$grouping_impl@_W@detail@v7@fmt@@YA?AV?$basic_string@DU?$char_traits@D@std@@V?$allocator@D@2@@std@@Vlocale_ref@012@@Z 000000018005b0b1     format.obj
 0001:0005a0b1       $stateUnwindMap$??$thousands_sep_impl@_W@detail@v7@fmt@@YA_WVlocale_ref@012@@Z 000000018005b0b1     format.obj
 0001:0005a0b8       $ip2state$??$grouping_impl@_W@detail@v7@fmt@@YA?AV?$basic_string@DU?$char_traits@D@std@@V?$allocator@D@2@@std@@Vlocale_ref@012@@Z 000000018005b0b8     format.obj
 0001:0005a0c0       $unwind$??$decimal_point_impl@_W@detail@v7@fmt@@YA_WVlocale_ref@012@@Z 000000018005b0c0     format.obj
 0001:0005a0c0       $unwind$??$thousands_sep_impl@_W@detail@v7@fmt@@YA_WVlocale_ref@012@@Z 000000018005b0c0     format.obj
 0001:0005a0d0       $cppxdata$??$decimal_point_impl@_W@detail@v7@fmt@@YA_WVlocale_ref@012@@Z 000000018005b0d0     format.obj
 0001:0005a0d0       $cppxdata$??$thousands_sep_impl@_W@detail@v7@fmt@@YA_WVlocale_ref@012@@Z 000000018005b0d0     format.obj
 0001:0005a0d9       $ip2state$??$decimal_point_impl@_W@detail@v7@fmt@@YA_WVlocale_ref@012@@Z 000000018005b0d9     format.obj
 0001:0005a0d9       $ip2state$??$thousands_sep_impl@_W@detail@v7@fmt@@YA_WVlocale_ref@012@@Z 000000018005b0d9     format.obj
 0001:0005a0e0       $unwind$?AddEditField@PluginDialogBuilder@@QEAAPEAUFarDialogItem@@PEA_WHHPEB_W_N@Z 000000018005b0e0     Pclass.obj
 0001:0005a0e0       $unwind$??0?$basic_string@_WU?$char_traits@_W@std@@V?$allocator@_W@2@@std@@QEAA@_K_W@Z 000000018005b0e0     Plist.obj
 0001:0005a0e0       $unwind$?grow@?$basic_memory_buffer@D$0BPE@V?$allocator@D@std@@@v7@fmt@@MEAAX_K@Z 000000018005b0e0     format.obj
 0001:0005a0e0       $unwind$?grow@?$basic_memory_buffer@I$0CA@V?$allocator@I@std@@@v7@fmt@@MEAAX_K@Z 000000018005b0e0     format.obj
 0001:0005a0e0       $unwind$?grow@?$basic_memory_buffer@_W$0BPE@V?$allocator@_W@std@@@v7@fmt@@MEAAX_K@Z 000000018005b0e0     format.obj
 0001:0005a0e0       $unwind$??$write@_W@detail@v7@fmt@@YA?AV?$buffer_appender@_W@012@V3012@V?$basic_string_view@_W@12@@Z 000000018005b0e0     handles.obj
 0001:0005a0e0       $unwind$??$write@_WV?$buffer_appender@_W@detail@v7@fmt@@@detail@v7@fmt@@YA?AV?$buffer_appender@_W@012@V3012@_N@Z 000000018005b0e0     handles.obj
 0001:0005a0e0       $unwind$??R<lambda_7ff01892a3078927ded4185f7a58b615>@@QEBA?AV?$buffer_appender@_W@detail@v7@fmt@@V1234@@Z 000000018005b0e0     handles.obj
 0001:0005a0f8       $unwind$??$format_float@N@detail@v7@fmt@@YAHNHUfloat_specs@012@AEAV?$buffer@D@012@@Z 000000018005b0f8     format.obj
 0001:0005a0f8       $unwind$??$format_float@O@detail@v7@fmt@@YAHOHUfloat_specs@012@AEAV?$buffer@D@012@@Z 000000018005b0f8     format.obj
 0001:0005a108       $chain$0$??$format_float@N@detail@v7@fmt@@YAHNHUfloat_specs@012@AEAV?$buffer@D@012@@Z 000000018005b108     format.obj
 0001:0005a11c       $chain$2$??$format_float@N@detail@v7@fmt@@YAHNHUfloat_specs@012@AEAV?$buffer@D@012@@Z 000000018005b11c     format.obj
 0001:0005a130       $chain$5$??$format_float@N@detail@v7@fmt@@YAHNHUfloat_specs@012@AEAV?$buffer@D@012@@Z 000000018005b130     format.obj
 0001:0005a14c       $chain$6$??$format_float@N@detail@v7@fmt@@YAHNHUfloat_specs@012@AEAV?$buffer@D@012@@Z 000000018005b14c     format.obj
 0001:0005a15c       $chain$7$??$format_float@N@detail@v7@fmt@@YAHNHUfloat_specs@012@AEAV?$buffer@D@012@@Z 000000018005b15c     format.obj
 0001:0005a17c       $chain$0$??$format_float@O@detail@v7@fmt@@YAHOHUfloat_specs@012@AEAV?$buffer@D@012@@Z 000000018005b17c     format.obj
 0001:0005a190       $chain$2$??$format_float@O@detail@v7@fmt@@YAHOHUfloat_specs@012@AEAV?$buffer@D@012@@Z 000000018005b190     format.obj
 0001:0005a1a4       $chain$5$??$format_float@O@detail@v7@fmt@@YAHOHUfloat_specs@012@AEAV?$buffer@D@012@@Z 000000018005b1a4     format.obj
 0001:0005a1c0       $chain$6$??$format_float@O@detail@v7@fmt@@YAHOHUfloat_specs@012@AEAV?$buffer@D@012@@Z 000000018005b1c0     format.obj
 0001:0005a1d0       $chain$7$??$format_float@O@detail@v7@fmt@@YAHOHUfloat_specs@012@AEAV?$buffer@D@012@@Z 000000018005b1d0     format.obj
 0001:0005a1f0       $unwind$??$snprintf_float@N@detail@v7@fmt@@YAHNHUfloat_specs@012@AEAV?$buffer@D@012@@Z 000000018005b1f0     format.obj
 0001:0005a1f0       $unwind$??$snprintf_float@O@detail@v7@fmt@@YAHOHUfloat_specs@012@AEAV?$buffer@D@012@@Z 000000018005b1f0     format.obj
 0001:0005a210       $unwind$?fmt_snprintf@detail@v7@fmt@@YAHPEAD_KPEBDZZ 000000018005b210     format.obj
 0001:0005a220       $chain$1$??_3bigint@detail@v7@fmt@@QEAAAEAV0123@H@Z 000000018005b220     format.obj
 0001:0005a238       $chain$2$??_3bigint@detail@v7@fmt@@QEAAAEAV0123@H@Z 000000018005b238     format.obj
 0001:0005a248       $unwind$?compare@detail@v7@fmt@@YAHAEBVbigint@123@0@Z 000000018005b248     format.obj
 0001:0005a248       $unwind$??$type_case_integer_parse_into_buffer@I@?$output_processor@DV?$string_output_adapter@D@__crt_stdio_output@@V?$format_validation_base@DV?$string_output_adapter@D@__crt_stdio_output@@@2@@__crt_stdio_output@@AEAAXII_N@Z 000000018005b248     libucrt:output.obj
 0001:0005a248       $unwind$??$type_case_integer_parse_into_buffer@_K@?$output_processor@DV?$string_output_adapter@D@__crt_stdio_output@@V?$format_validation_base@DV?$string_output_adapter@D@__crt_stdio_output@@@2@@__crt_stdio_output@@AEAAX_KI_N@Z 000000018005b248     libucrt:output.obj
 0001:0005a248       $unwind$__acrt_wcstok_s_novalidation 000000018005b248     libucrt:wcstok_s.obj
 0001:0005a250       $unwind$?add_compare@detail@v7@fmt@@YAHAEBVbigint@123@00@Z 000000018005b250     format.obj
 0001:0005a26c       $unwind$?assign_pow10@bigint@detail@v7@fmt@@QEAAXH@Z 000000018005b26c     format.obj
 0001:0005a280       $unwind$?square@bigint@detail@v7@fmt@@QEAAXXZ 000000018005b280     format.obj
 0001:0005a2a8       $cppxdata$?square@bigint@detail@v7@fmt@@QEAAXXZ 000000018005b2a8     format.obj
 0001:0005a2b1       $stateUnwindMap$?square@bigint@detail@v7@fmt@@QEAAXXZ 000000018005b2b1     format.obj
 0001:0005a2bd       $ip2state$?square@bigint@detail@v7@fmt@@QEAAXXZ 000000018005b2bd     format.obj
 0001:0005a2c8       $unwind$?divmod_assign@bigint@detail@v7@fmt@@QEAAHAEBV1234@@Z 000000018005b2c8     format.obj
 0001:0005a2dc       $chain$2$?divmod_assign@bigint@detail@v7@fmt@@QEAAHAEBV1234@@Z 000000018005b2dc     format.obj
 0001:0005a2f0       $chain$3$?divmod_assign@bigint@detail@v7@fmt@@QEAAHAEBV1234@@Z 000000018005b2f0     format.obj
 0001:0005a300       $unwind$?get_cached_power@?$cache_accessor@N@dragonbox@detail@v7@fmt@@SA?AUuint128_wrapper@345@H@Z 000000018005b300     format.obj
 0001:0005a314       $unwind$??$get@Vlocale@std@@@locale_ref@detail@v7@fmt@@QEBA?AVlocale@std@@XZ 000000018005b314     format.obj
 0001:0005a330       $cppxdata$??$get@Vlocale@std@@@locale_ref@detail@v7@fmt@@QEBA?AVlocale@std@@XZ 000000018005b330     format.obj
 0001:0005a339       $stateUnwindMap$??1?$ptr_setter@V?$unique_ptr@UIWbemClassObject@@Ucom_closer@@@std@@@@QEAA@XZ 000000018005b339     WMI.obj
 0001:0005a339       $stateUnwindMap$??1WMIConnection@@QEAA@XZ 000000018005b339     WMI.obj
 0001:0005a339       $stateUnwindMap$??$get@Vlocale@std@@@locale_ref@detail@v7@fmt@@QEBA?AVlocale@std@@XZ 000000018005b339     format.obj
 0001:0005a33f       $ip2state$??$get@Vlocale@std@@@locale_ref@detail@v7@fmt@@QEBA?AVlocale@std@@XZ 000000018005b33f     format.obj
 0001:0005a344       $unwind$??$use_facet@V?$numpunct@_W@std@@@std@@YAAEBV?$numpunct@_W@0@AEBVlocale@0@@Z 000000018005b344     format.obj
 0001:0005a35c       $cppxdata$??$use_facet@V?$numpunct@_W@std@@@std@@YAAEBV?$numpunct@_W@0@AEBVlocale@0@@Z 000000018005b35c     format.obj
 0001:0005a365       $stateUnwindMap$??$use_facet@V?$numpunct@_W@std@@@std@@YAAEBV?$numpunct@_W@0@AEBVlocale@0@@Z 000000018005b365     format.obj
 0001:0005a372       $ip2state$??$use_facet@V?$numpunct@_W@std@@@std@@YAAEBV?$numpunct@_W@0@AEBVlocale@0@@Z 000000018005b372     format.obj
 0001:0005a37c       $unwind$?_Getcat@?$numpunct@_W@std@@SA_KPEAPEBVfacet@locale@2@PEBV42@@Z 000000018005b37c     format.obj
 0001:0005a39c       $cppxdata$?_Getcat@?$numpunct@_W@std@@SA_KPEAPEBVfacet@locale@2@PEBV42@@Z 000000018005b39c     format.obj
 0001:0005a3a5       $stateUnwindMap$?_Getcat@?$numpunct@_W@std@@SA_KPEAPEBVfacet@locale@2@PEBV42@@Z 000000018005b3a5     format.obj
 0001:0005a3e8       $ip2state$?_Getcat@?$numpunct@_W@std@@SA_KPEAPEBVfacet@locale@2@PEBV42@@Z 000000018005b3e8     format.obj
 0001:0005a3f8       $unwind$?dtor$14@?0??ProcessKey@Plist@@QEAAHPEBU_INPUT_RECORD@@@Z@4HA 000000018005b3f8     Pclass.obj
 0001:0005a3f8       $unwind$?dtor$15@?0??ProcessKey@Plist@@QEAAHPEBU_INPUT_RECORD@@@Z@4HA 000000018005b3f8     Pclass.obj
 0001:0005a3f8       $unwind$?dtor$181@?0??InitializePanelModes@Plist@@SAXXZ@4HA 000000018005b3f8     Pclass.obj
 0001:0005a3f8       $unwind$?dtor$1@?0??ConnectWMI@Plist@@AEAA_NXZ@4HA 000000018005b3f8     Pclass.obj
 0001:0005a3f8       $unwind$?dtor$26@?0??ProcessKey@Plist@@QEAAHPEBU_INPUT_RECORD@@@Z@4HA 000000018005b3f8     Pclass.obj
 0001:0005a3f8       $unwind$?dtor$29@?0??ProcessKey@Plist@@QEAAHPEBU_INPUT_RECORD@@@Z@4HA 000000018005b3f8     Pclass.obj
 0001:0005a3f8       $unwind$?dtor$3@?0??Connect@Plist@@QEAA_NPEB_W00@Z@4HA 000000018005b3f8     Pclass.obj
 0001:0005a3f8       $unwind$?dtor$7@?0???0Plist@@QEAA@XZ@4HA 000000018005b3f8     Pclass.obj
 0001:0005a3f8       $unwind$?dtor$90@?0??InitializePanelModes@Plist@@SAXXZ@4HA 000000018005b3f8     Pclass.obj
 0001:0005a3f8       $unwind$?dtor$1@?0??GetProcessCommandLine@WMIConnection@@QEAA?AV?$basic_string@_WU?$char_traits@_W@std@@V?$allocator@_W@2@@std@@K@Z@4HA 000000018005b3f8     WMI.obj
 0001:0005a3f8       $unwind$?dtor$1@?0??GetProcessExecutablePath@WMIConnection@@QEAA?AV?$basic_string@_WU?$char_traits@_W@std@@V?$allocator@_W@2@@std@@K@Z@4HA 000000018005b3f8     WMI.obj
 0001:0005a3f8       $unwind$?dtor$0@?0??_Getcat@?$numpunct@_W@std@@SA_KPEAPEBVfacet@locale@2@PEBV42@@Z@4HA 000000018005b3f8     format.obj
 0001:0005a3f8       $unwind$?dtor$1@?0??_Getcat@?$numpunct@_W@std@@SA_KPEAPEBVfacet@locale@2@PEBV42@@Z@4HA 000000018005b3f8     format.obj
 0001:0005a3f8       $unwind$?fin$0@?0??dllmain_crt_process_attach@@YAHQEAUHINSTANCE__@@QEAX@Z@4HA 000000018005b3f8     LIBCMT:dll_dllmain.obj
 0001:0005a3f8       $unwind$?fin$0@?0??dllmain_crt_process_detach@@YAH_N@Z@4HA 000000018005b3f8     LIBCMT:dll_dllmain.obj
 0001:0005a3f8       $unwind$?fin$1@?0??dllmain_crt_process_detach@@YAH_N@Z@4HA 000000018005b3f8     LIBCMT:dll_dllmain.obj
 0001:0005a3f8       $unwind$?fin$0@?0???_M@YAXPEAX_K1P6AX0@Z@Z@4HA 000000018005b3f8     LIBCMT:ehvecdtr.obj
 0001:0005a3f8       $unwind$_IsNonwritableInCurrentImage$filt$0 000000018005b3f8     LIBCMT:pesect.obj
 0001:0005a3f8       $unwind$?filt$0@?0??CxxCallCatchBlock@__FrameHandler3@@SAPEAXPEAU_EXCEPTION_RECORD@@@Z@4HA 000000018005b3f8     libvcruntime:frame.obj
 0001:0005a3f8       $unwind$?filt$0@?0??CxxCallCatchBlock@__FrameHandler4@@SAPEAXPEAU_EXCEPTION_RECORD@@@Z@4HA 000000018005b3f8     libvcruntime:frame.obj
 0001:0005a3f8       $unwind$?filt$0@?0??FrameUnwindToState@__FrameHandler3@@SAXPEA_KPEAU_xDISPATCHER_CONTEXT@@PEBU_s_FuncInfo@@H@Z@4HA 000000018005b3f8     libvcruntime:frame.obj
 0001:0005a3f8       $unwind$?fin$1@?0??FrameUnwindToState@__FrameHandler3@@SAXPEA_KPEAU_xDISPATCHER_CONTEXT@@PEBU_s_FuncInfo@@H@Z@4HA 000000018005b3f8     libvcruntime:frame.obj
 0001:0005a3f8       $unwind$_query_new_handler$fin$0 000000018005b3f8     libucrt:new_handler.obj
 0001:0005a3f8       $unwind$?fin$0@?0???$?RV<lambda_0ae27a3a962d80f24befdcbee591983d>@@AEAV<lambda_8d0ee55de4b1038c4002e0adecdf1839>@@V<lambda_dc504788e8f1664fe9b84e20bfb512f2>@@@?$__crt_seh_guarded_call@X@@QEAAX$$QEAV<lambda_0ae27a3a962d80f24befdcbee591983d>@@AEAV<lambda_8d0ee55de4b1038c4002e0adecdf1839>@@$$QEAV<lambda_dc504788e8f1664fe9b84e20bfb512f2>@@@Z@4HA 000000018005b3f8     libucrt:per_thread_data.obj
 0001:0005a3f8       $unwind$?fin$0@?0???$?RV<lambda_2d41944a1d46af3157314b8a01080d33>@@AEAV<lambda_8f455de75cd7d7f24b4096f044d8b9e6>@@V<lambda_aa500f224e6afead328df44964fe2772>@@@?$__crt_seh_guarded_call@X@@QEAAX$$QEAV<lambda_2d41944a1d46af3157314b8a01080d33>@@AEAV<lambda_8f455de75cd7d7f24b4096f044d8b9e6>@@$$QEAV<lambda_aa500f224e6afead328df44964fe2772>@@@Z@4HA 000000018005b3f8     libucrt:per_thread_data.obj
 0001:0005a3f8       $unwind$?fin$0@?0???$?RV<lambda_aa87e3671a710a21b5dc78c0bdf72e11>@@AEAV<lambda_92619d2358a28f41a33ba319515a20b9>@@V<lambda_6992ecaafeb10aed2b74cb1fae11a551>@@@?$__crt_seh_guarded_call@X@@QEAAX$$QEAV<lambda_aa87e3671a710a21b5dc78c0bdf72e11>@@AEAV<lambda_92619d2358a28f41a33ba319515a20b9>@@$$QEAV<lambda_6992ecaafeb10aed2b74cb1fae11a551>@@@Z@4HA 000000018005b3f8     libucrt:per_thread_data.obj
 0001:0005a3f8       $unwind$?fin$0@?0???$?RV<lambda_f2e299630e499de9f9a165e60fcd3db5>@@AEAV<lambda_2ae9d31cdba2644fcbeaf08da7c24588>@@V<lambda_40d01ff24d0e7b3814fdbdcee8eab3c7>@@@?$__crt_seh_guarded_call@X@@QEAAX$$QEAV<lambda_f2e299630e499de9f9a165e60fcd3db5>@@AEAV<lambda_2ae9d31cdba2644fcbeaf08da7c24588>@@$$QEAV<lambda_40d01ff24d0e7b3814fdbdcee8eab3c7>@@@Z@4HA 000000018005b3f8     libucrt:per_thread_data.obj
 0001:0005a3f8       $unwind$?fin$0@?0???$?RV<lambda_48fc4a32460bb0512d3b13f8499328be>@@AEAV<lambda_6c3dac0a4f3f9cefca9bb494422f9b77>@@V<lambda_0a2f2c9f9a56eb2b08bfa6ff61d331c5>@@@?$__crt_seh_guarded_call@H@@QEAAH$$QEAV<lambda_48fc4a32460bb0512d3b13f8499328be>@@AEAV<lambda_6c3dac0a4f3f9cefca9bb494422f9b77>@@$$QEAV<lambda_0a2f2c9f9a56eb2b08bfa6ff61d331c5>@@@Z@4HA 000000018005b3f8     libucrt:winapi_thunks.obj
 0001:0005a3f8       $unwind$__acrt_update_thread_locale_data$fin$0 000000018005b3f8     libucrt:locale_refcounting.obj
 0001:0005a3f8       $unwind$?fin$0@?0???$?RV<lambda_41e84717acc955b55e9d0d529e507b68>@@AEAV<lambda_b37934c380d97b75fd242ea49540127a>@@V<lambda_bb6db9f9ac473960206e0d4b942b5506>@@@?$__crt_seh_guarded_call@PEAD@@QEAAPEAD$$QEAV<lambda_41e84717acc955b55e9d0d529e507b68>@@AEAV<lambda_b37934c380d97b75fd242ea49540127a>@@$$QEAV<lambda_bb6db9f9ac473960206e0d4b942b5506>@@@Z@4HA 000000018005b3f8     libucrt:setlocale.obj
 0001:0005a3f8       $unwind$?fin$0@?0???$?RV<lambda_1d892b297fdedeee07ed8124eeb2f2fa>@@AEAV<lambda_ffc046909424fd52df0ac47e64813305>@@V<lambda_01a7098693036236037e7cdb9bca3d73>@@@?$__crt_seh_guarded_call@X@@QEAAX$$QEAV<lambda_1d892b297fdedeee07ed8124eeb2f2fa>@@AEAV<lambda_ffc046909424fd52df0ac47e64813305>@@$$QEAV<lambda_01a7098693036236037e7cdb9bca3d73>@@@Z@4HA 000000018005b3f8     libucrt:wsetlocale.obj
 0001:0005a3f8       $unwind$?fin$0@?0???$?RV<lambda_410d79af7f07d98d83a3f525b3859a53>@@AEAV<lambda_3e16ef9562a7dcce91392c22ab16ea36>@@V<lambda_38119f0e861e05405d8a144b9b982f0a>@@@?$__crt_seh_guarded_call@X@@QEAAX$$QEAV<lambda_410d79af7f07d98d83a3f525b3859a53>@@AEAV<lambda_3e16ef9562a7dcce91392c22ab16ea36>@@$$QEAV<lambda_38119f0e861e05405d8a144b9b982f0a>@@@Z@4HA 000000018005b3f8     libucrt:wsetlocale.obj
 0001:0005a3f8       $unwind$?fin$0@?0???$?RV<lambda_7f2adfce497ff2baa965cd4f576ecfd1>@@AEAV<lambda_2a444430fde8c29194d880d93eed5e8f>@@AEAV<lambda_8dff2cf36a5417162780cd64fa2883ef>@@@?$__crt_seh_guarded_call@X@@QEAAX$$QEAV<lambda_7f2adfce497ff2baa965cd4f576ecfd1>@@AEAV<lambda_2a444430fde8c29194d880d93eed5e8f>@@AEAV<lambda_8dff2cf36a5417162780cd64fa2883ef>@@@Z@4HA 000000018005b3f8     libucrt:wsetlocale.obj
 0001:0005a3f8       $unwind$?fin$0@?0???$?RV<lambda_751a882b2c74d4b022dec766aa51a29a>@@AEAV<lambda_628dfdc04ba53c8bfc02c9951375f3f5>@@V<lambda_f6c7be5f7998530c34de24c7437d6b54>@@@?$__crt_seh_guarded_call@H@@QEAAH$$QEAV<lambda_751a882b2c74d4b022dec766aa51a29a>@@AEAV<lambda_628dfdc04ba53c8bfc02c9951375f3f5>@@$$QEAV<lambda_f6c7be5f7998530c34de24c7437d6b54>@@@Z@4HA 000000018005b3f8     libucrt:close.obj
 0001:0005a3f8       $unwind$?fin$0@?0???$?RV<lambda_a37b2b86f63e897a80ea819b0eb08c01>@@AEAV<lambda_38ce7e780aa69e748d6df282ebc68efe>@@V<lambda_99fb1378e971ab6e7edea83e3a7a83a2>@@@?$__crt_seh_guarded_call@H@@QEAAH$$QEAV<lambda_a37b2b86f63e897a80ea819b0eb08c01>@@AEAV<lambda_38ce7e780aa69e748d6df282ebc68efe>@@$$QEAV<lambda_99fb1378e971ab6e7edea83e3a7a83a2>@@@Z@4HA 000000018005b3f8     libucrt:commit.obj
 0001:0005a3f8       $unwind$__acrt_initialize_lowio$fin$0 000000018005b3f8     libucrt:ioinit.obj
 0001:0005a3f8       $unwind$__acrt_lowio_ensure_fh_exists$fin$0 000000018005b3f8     libucrt:osfinfo.obj
 0001:0005a3f8       $unwind$_write$fin$0       000000018005b3f8     libucrt:write.obj
 0001:0005a3f8       $unwind$?fin$0@?0???$?RV<lambda_efdfa57d1f175319df784efa44bb7b81>@@AEAV<lambda_5f0a4c1567f8adc6734073e5d1e1b35c>@@V<lambda_2e8a7d3640ea6ccb4c2413664c2db6fd>@@@?$__crt_seh_guarded_call@X@@QEAAX$$QEAV<lambda_efdfa57d1f175319df784efa44bb7b81>@@AEAV<lambda_5f0a4c1567f8adc6734073e5d1e1b35c>@@$$QEAV<lambda_2e8a7d3640ea6ccb4c2413664c2db6fd>@@@Z@4HA 000000018005b3f8     libucrt:mbctype.obj
 0001:0005a3f8       $unwind$?fin$0@?0??update_thread_multibyte_data_internal@@YAPEAU__crt_multibyte_data@@QEAU__acrt_ptd@@QEAPEAU1@@Z@4HA 000000018005b3f8     libucrt:mbctype.obj
 0001:0005a3f8       $unwind$?fin$0@?0???$?RV<lambda_450d765d439847d4c735a33c368b5fc0>@@AEAV<lambda_44731a7d0e6d81c3e6aa82d741081786>@@V<lambda_601a2a7da3b7a96e9554ac7215c4b07c>@@@?$__crt_seh_guarded_call@P6AXH@Z@@QEAAP6AXH@Z$$QEAV<lambda_450d765d439847d4c735a33c368b5fc0>@@AEAV<lambda_44731a7d0e6d81c3e6aa82d741081786>@@$$QEAV<lambda_601a2a7da3b7a96e9554ac7215c4b07c>@@@Z@4HA 000000018005b3f8     libucrt:signal.obj
 0001:0005a3f8       $unwind$raise$fin$0        000000018005b3f8     libucrt:signal.obj
 0001:0005a3f8       $unwind$?filt$0@?0???R<lambda_6e4b09c48022b2350581041d5f6b0c4c>@@QEBA@XZ@4HA 000000018005b3f8     libucrt:exit.obj
 0001:0005a3f8       $unwind$?fin$0@?0???$?RV<lambda_d80eeec6fff315bfe5c115232f3240e3>@@AEAV<lambda_6e4b09c48022b2350581041d5f6b0c4c>@@V<lambda_2358e3775559c9db80273638284d5e45>@@@?$__crt_seh_guarded_call@X@@QEAAX$$QEAV<lambda_d80eeec6fff315bfe5c115232f3240e3>@@AEAV<lambda_6e4b09c48022b2350581041d5f6b0c4c>@@$$QEAV<lambda_2358e3775559c9db80273638284d5e45>@@@Z@4HA 000000018005b3f8     libucrt:exit.obj
 0001:0005a3f8       $unwind$?fin$0@?0???$?RV<lambda_638799b9deba96c50f710eeac98168cd>@@AEAV<lambda_22ebabd17bc4fa466a2aca6d8deb888d>@@V<lambda_a6f7d7db0129f75315ebf26d50c089f1>@@@?$__crt_seh_guarded_call@H@@QEAAH$$QEAV<lambda_638799b9deba96c50f710eeac98168cd>@@AEAV<lambda_22ebabd17bc4fa466a2aca6d8deb888d>@@$$QEAV<lambda_a6f7d7db0129f75315ebf26d50c089f1>@@@Z@4HA 000000018005b3f8     libucrt:onexit.obj
 0001:0005a3f8       $unwind$?fin$0@?0???$?RV<lambda_7777bce6b2f8c936911f934f8298dc43>@@AEAV<lambda_f03950bc5685219e0bcd2087efbe011e>@@V<lambda_3883c3dff614d5e0c5f61bb1ac94921c>@@@?$__crt_seh_guarded_call@H@@QEAAH$$QEAV<lambda_7777bce6b2f8c936911f934f8298dc43>@@AEAV<lambda_f03950bc5685219e0bcd2087efbe011e>@@$$QEAV<lambda_3883c3dff614d5e0c5f61bb1ac94921c>@@@Z@4HA 000000018005b3f8     libucrt:onexit.obj
 0001:0005a3f8       $unwind$_fcloseall$fin$0   000000018005b3f8     libucrt:closeall.obj
 0001:0005a3f8       $unwind$fclose$fin$0       000000018005b3f8     libucrt:fclose.obj
 0001:0005a3f8       $unwind$?fin$0@?0???$?RV<lambda_842d9ff0dc9ef11c61343bbaebe7f885>@@AEAV<lambda_c5860995281e5c4ce005b3de8f5874ee>@@V<lambda_d90129c13df834fdcbf8d2b88dafcf2d>@@@?$__crt_seh_guarded_call@X@@QEAAX$$QEAV<lambda_842d9ff0dc9ef11c61343bbaebe7f885>@@AEAV<lambda_c5860995281e5c4ce005b3de8f5874ee>@@$$QEAV<lambda_d90129c13df834fdcbf8d2b88dafcf2d>@@@Z@4HA 000000018005b3f8     libucrt:fflush.obj
 0001:0005a3f8       $unwind$?fin$0@?0???$?RV<lambda_886d6c58226a84441f68b9f2b8217b83>@@AEAV<lambda_ab61a845afdef5b7c387490eaf3616ee>@@V<lambda_f7f22ab5edc0698d5f6905b0d3f44752>@@@?$__crt_seh_guarded_call@X@@QEAAX$$QEAV<lambda_886d6c58226a84441f68b9f2b8217b83>@@AEAV<lambda_ab61a845afdef5b7c387490eaf3616ee>@@$$QEAV<lambda_f7f22ab5edc0698d5f6905b0d3f44752>@@@Z@4HA 000000018005b3f8     libucrt:fflush.obj
 0001:0005a3f8       $unwind$_ctrlfp$filt$0     000000018005b3f8     libucrt:fpctrl.obj
 0001:0005a400       $unwind$?_Init@?$numpunct@_W@std@@IEAAXAEBV_Locinfo@2@_N@Z 000000018005b400     format.obj
 0001:0005a424       $cppxdata$?_Init@?$numpunct@_W@std@@IEAAXAEBV_Locinfo@2@_N@Z 000000018005b424     format.obj
 0001:0005a42d       $stateUnwindMap$?_Init@?$numpunct@_W@std@@IEAAXAEBV_Locinfo@2@_N@Z 000000018005b42d     format.obj
 0001:0005a434       $ip2state$?_Init@?$numpunct@_W@std@@IEAAXAEBV_Locinfo@2@_N@Z 000000018005b434     format.obj
 0001:0005a438       $unwind$??$to_decimal@M@dragonbox@detail@v7@fmt@@YA?AU?$decimal_fp@M@0123@M@Z 000000018005b438     format.obj
 0001:0005a444       $chain$5$??$to_decimal@M@dragonbox@detail@v7@fmt@@YA?AU?$decimal_fp@M@0123@M@Z 000000018005b444     format.obj
 0001:0005a46c       $unwind$??$write@DV?$buffer_appender@D@detail@v7@fmt@@I$0A@@detail@v7@fmt@@YA?AV?$buffer_appender@D@012@V3012@I@Z 000000018005b46c     format.obj
 0001:0005a46c       $unwind$??$write@_WV?$buffer_appender@_W@detail@v7@fmt@@H$0A@@detail@v7@fmt@@YA?AV?$buffer_appender@_W@012@V3012@H@Z 000000018005b46c     handles.obj
 0001:0005a46c       $unwind$??$write@_WV?$buffer_appender@_W@detail@v7@fmt@@I$0A@@detail@v7@fmt@@YA?AV?$buffer_appender@_W@012@V3012@I@Z 000000018005b46c     handles.obj
 0001:0005a488       $unwind$??$to_decimal@N@dragonbox@detail@v7@fmt@@YA?AU?$decimal_fp@N@0123@N@Z 000000018005b488     format.obj
 0001:0005a498       $chain$3$??$to_decimal@N@dragonbox@detail@v7@fmt@@YA?AU?$decimal_fp@N@0123@N@Z 000000018005b498     format.obj
 0001:0005a4b8       $chain$4$??$to_decimal@N@dragonbox@detail@v7@fmt@@YA?AU?$decimal_fp@N@0123@N@Z 000000018005b4b8     format.obj
 0001:0005a4c8       $unwind$??$write@DV?$buffer_appender@D@detail@v7@fmt@@_K$0A@@detail@v7@fmt@@YA?AV?$buffer_appender@D@012@V3012@_K@Z 000000018005b4c8     format.obj
 0001:0005a4e4       $unwind$??$fallback_format@N@detail@v7@fmt@@YAXNH_NAEAV?$buffer@D@012@AEAH@Z 000000018005b4e4     format.obj
 0001:0005a4e4       $unwind$??$fallback_format@O@detail@v7@fmt@@YAXOH_NAEAV?$buffer@D@012@AEAH@Z 000000018005b4e4     format.obj
 0001:0005a508       $cppxdata$??$fallback_format@N@detail@v7@fmt@@YAXNH_NAEAV?$buffer@D@012@AEAH@Z 000000018005b508     format.obj
 0001:0005a508       $cppxdata$??$fallback_format@O@detail@v7@fmt@@YAXOH_NAEAV?$buffer@D@012@AEAH@Z 000000018005b508     format.obj
 0001:0005a511       $stateUnwindMap$??$fallback_format@N@detail@v7@fmt@@YAXNH_NAEAV?$buffer@D@012@AEAH@Z 000000018005b511     format.obj
 0001:0005a511       $stateUnwindMap$??$fallback_format@O@detail@v7@fmt@@YAXOH_NAEAV?$buffer@D@012@AEAH@Z 000000018005b511     format.obj
 0001:0005a52d       $ip2state$??$fallback_format@N@detail@v7@fmt@@YAXNH_NAEAV?$buffer@D@012@AEAH@Z 000000018005b52d     format.obj
 0001:0005a52d       $ip2state$??$fallback_format@O@detail@v7@fmt@@YAXOH_NAEAV?$buffer@D@012@AEAH@Z 000000018005b52d     format.obj
 0001:0005a534       $unwind$??$format_decimal@DIV?$buffer_appender@D@detail@v7@fmt@@$0A@@detail@v7@fmt@@YA?AU?$format_decimal_result@V?$buffer_appender@D@detail@v7@fmt@@@012@V?$buffer_appender@D@012@IH@Z 000000018005b534     format.obj
 0001:0005a534       $unwind$??$parse_arg_id@_WAEAU?$id_adapter@AEAU?$format_handler@V?$buffer_appender@_W@detail@v7@fmt@@_WV?$basic_format_context@V?$buffer_appender@_W@detail@v7@fmt@@_W@34@@detail@v7@fmt@@_W@detail@v7@fmt@@@detail@v7@fmt@@YAPEB_WPEB_W0AEAU?$id_adapter@AEAU?$format_handler@V?$buffer_appender@_W@detail@v7@fmt@@_WV?$basic_format_context@V?$buffer_appender@_W@detail@v7@fmt@@_W@34@@detail@v7@fmt@@_W@012@@Z 000000018005b534     handles.obj
 0001:0005a534       $unwind$__acrt_GetLocaleInfoEx 000000018005b534     libucrt:winapi_thunks.obj
 0001:0005a534       $unwind$__acrt_LCIDToLocaleName 000000018005b534     libucrt:winapi_thunks.obj
 0001:0005a534       $unwind$__acrt_DownlevelLCIDToLocaleName 000000018005b534     libucrt:lcidtoname_downlevel.obj
 0001:0005a534       $unwind$__lc_lctowcs       000000018005b534     libucrt:wsetlocale.obj
 0001:0005a534       $unwind$_invalid_parameter 000000018005b534     libucrt:invalid_parameter.obj
 0001:0005a534       $unwind$_wcsdup            000000018005b534     libucrt:wcsdup.obj
 0001:0005a548       $unwind$??$format_decimal@D_KV?$buffer_appender@D@detail@v7@fmt@@$0A@@detail@v7@fmt@@YA?AU?$format_decimal_result@V?$buffer_appender@D@detail@v7@fmt@@@012@V?$buffer_appender@D@012@_KH@Z 000000018005b548     format.obj
 0001:0005a548       $unwind$??$format_decimal@_WIV?$buffer_appender@_W@detail@v7@fmt@@$0A@@detail@v7@fmt@@YA?AU?$format_decimal_result@V?$buffer_appender@_W@detail@v7@fmt@@@012@V?$buffer_appender@_W@012@IH@Z 000000018005b548     handles.obj
 0001:0005a548       $unwind$__dcrt_write_console 000000018005b548     libucrt:initcon.obj
 0001:0005a548       $unwind$??$__acrt_wcs_to_mbs_cp@U__crt_win32_buffer_no_resizing@@@@YAHQEB_WAEAV?$__crt_win32_buffer@DU__crt_win32_buffer_no_resizing@@@@I@Z 000000018005b548     libucrt:strftime.obj
 0001:0005a55c       $unwind$?_Change_array@?$vector@_KV?$allocator@_K@std@@@std@@AEAAXQEA_K_K1@Z 000000018005b55c     Pclass.obj
 0001:0005a55c       $unwind$?OpenProcessForced@@YAPEAXPEAVDebugToken@@KKH@Z 000000018005b55c     Plist.obj
 0001:0005a55c       $unwind$??0?$basic_string@_WU?$char_traits@_W@std@@V?$allocator@_W@2@@std@@QEAA@AEBV01@@Z 000000018005b55c     handles.obj
 0001:0005a55c       $unwind$?on_text@?$format_handler@V?$buffer_appender@_W@detail@v7@fmt@@_WV?$basic_format_context@V?$buffer_appender@_W@detail@v7@fmt@@_W@34@@detail@v7@fmt@@QEAAXPEB_W0@Z 000000018005b55c     handles.obj
 0001:0005a55c       $unwind$__scrt_dllmain_exception_filter 000000018005b55c     LIBCMT:utility.obj
 0001:0005a55c       $unwind$?GetHandlerSearchState@__FrameHandler3@@SAHPEA_KPEAU_xDISPATCHER_CONTEXT@@PEBU_s_FuncInfo@@@Z 000000018005b55c     libvcruntime:frame.obj
 0001:0005a55c       $unwind$?Is_bad_exception_allowed@@YAEPEBU_s_ESTypeList@@@Z 000000018005b55c     libvcruntime:frame.obj
 0001:0005a55c       $unwind$_ischartype_l      000000018005b55c     libucrt:strtod.obj
 0001:0005a55c       $unwind$_recalloc_base     000000018005b55c     libucrt:recalloc.obj
 0001:0005a55c       $unwind$__acrt_free_locale 000000018005b55c     libucrt:locale_refcounting.obj
 0001:0005a55c       $unwind$__acrt_lowio_create_handle_array 000000018005b55c     libucrt:osfinfo.obj
 0001:0005a55c       $unwind$?setSBCS@@YAXPEAU__crt_multibyte_data@@@Z 000000018005b55c     libucrt:mbctype.obj
 0001:0005a55c       $unwind$_seh_filter_exe    000000018005b55c     libucrt:exception_filter.obj
 0001:0005a55c       $unwind$_initterm          000000018005b55c     libucrt:initterm.obj
 0001:0005a55c       $unwind$??$ensure_buffer_is_big_enough@D@formatting_buffer@__crt_stdio_output@@QEAA_N_K@Z 000000018005b55c     libucrt:output.obj
 0001:0005a570       $unwind$?append@?$basic_string@_WU?$char_traits@_W@std@@V?$allocator@_W@2@@std@@QEAAAEAV12@QEB_W_K@Z 000000018005b570     handles.obj
 0001:0005a570       $unwind$?GetEstablisherFrame@__FrameHandler3@@SAPEA_KPEA_KPEAU_xDISPATCHER_CONTEXT@@PEBU_s_FuncInfo@@0@Z 000000018005b570     libvcruntime:risctrnsctrl.obj
 0001:0005a588       $chain$0$?append@?$basic_string@_WU?$char_traits@_W@std@@V?$allocator@_W@2@@std@@QEAAAEAV12@QEB_W_K@Z 000000018005b588     handles.obj
 0001:0005a59c       $chain$1$?append@?$basic_string@_WU?$char_traits@_W@std@@V?$allocator@_W@2@@std@@QEAAAEAV12@QEB_W_K@Z 000000018005b59c     handles.obj
 0001:0005a59c       $chain$3$?append@?$basic_string@_WU?$char_traits@_W@std@@V?$allocator@_W@2@@std@@QEAAAEAV12@QEB_W_K@Z 000000018005b59c     handles.obj
 0001:0005a5ac       $chain$2$?append@?$basic_string@_WU?$char_traits@_W@std@@V?$allocator@_W@2@@std@@QEAAAEAV12@QEB_W_K@Z 000000018005b5ac     handles.obj
 0001:0005a5c0       $unwind$??1DebugToken@@QEAA@XZ 000000018005b5c0     handles.obj
 0001:0005a5d0       $cppxdata$??1DebugToken@@QEAA@XZ 000000018005b5d0     handles.obj
 0001:0005a5d5       $ip2state$??1DebugToken@@QEAA@XZ 000000018005b5d5     handles.obj
 0001:0005a5d8       $unwind$?PrintHandleInfo@@YA_NKPEAX_NPEAVPerfThread@@@Z 000000018005b5d8     handles.obj
 0001:0005a5f8       $cppxdata$?PrintHandleInfo@@YA_NKPEAX_NPEAVPerfThread@@@Z 000000018005b5f8     handles.obj
 0001:0005a601       $stateUnwindMap$?PrintHandleInfo@@YA_NKPEAX_NPEAVPerfThread@@@Z 000000018005b601     handles.obj
 0001:0005a62f       $ip2state$?PrintHandleInfo@@YA_NKPEAX_NPEAVPerfThread@@@Z 000000018005b62f     handles.obj
 0001:0005a64c       $unwind$?query_object@@YA?AV?$unique_ptr@$$BY0A@DU?$default_delete@$$BY0A@D@std@@@std@@PEAXW4OBJECT_INFORMATION_CLASS@@@Z 000000018005b64c     handles.obj
 0001:0005a668       $cppxdata$?query_object@@YA?AV?$unique_ptr@$$BY0A@DU?$default_delete@$$BY0A@D@std@@@std@@PEAXW4OBJECT_INFORMATION_CLASS@@@Z 000000018005b668     handles.obj
 0001:0005a671       $stateUnwindMap$?query_object@@YA?AV?$unique_ptr@$$BY0A@DU?$default_delete@$$BY0A@D@std@@@std@@PEAXW4OBJECT_INFORMATION_CLASS@@@Z 000000018005b671     handles.obj
 0001:0005a678       $ip2state$?query_object@@YA?AV?$unique_ptr@$$BY0A@DU?$default_delete@$$BY0A@D@std@@@std@@PEAXW4OBJECT_INFORMATION_CLASS@@@Z 000000018005b678     handles.obj
 0001:0005a680       $unwind$?GetFileNameThread@test@?4??GetFileName@@YA?AV?$basic_string@_WU?$char_traits@_W@std@@V?$allocator@_W@2@@std@@PEAX@Z@SAK0@Z 000000018005b680     handles.obj
 0001:0005a688       $unwind$??R<lambda_c3630acb37279cf92411e07a2b271fdf>@@QEBA?AV?$basic_string@_WU?$char_traits@_W@std@@V?$allocator@_W@2@@std@@XZ 000000018005b688     handles.obj
 0001:0005a6ac       $cppxdata$??R<lambda_c3630acb37279cf92411e07a2b271fdf>@@QEBA?AV?$basic_string@_WU?$char_traits@_W@std@@V?$allocator@_W@2@@std@@XZ 000000018005b6ac     handles.obj
 0001:0005a6b5       $stateUnwindMap$??R<lambda_c3630acb37279cf92411e07a2b271fdf>@@QEBA?AV?$basic_string@_WU?$char_traits@_W@std@@V?$allocator@_W@2@@std@@XZ 000000018005b6b5     handles.obj
 0001:0005a6c8       $ip2state$??R<lambda_c3630acb37279cf92411e07a2b271fdf>@@QEBA?AV?$basic_string@_WU?$char_traits@_W@std@@V?$allocator@_W@2@@std@@XZ 000000018005b6c8     handles.obj
 0001:0005a6d0       $unwind$?GetNameByType@@YA?AV?$basic_string@_WU?$char_traits@_W@std@@V?$allocator@_W@2@@std@@PEAXGPEAVPerfThread@@@Z 000000018005b6d0     handles.obj
 0001:0005a6f8       $cppxdata$?GetNameByType@@YA?AV?$basic_string@_WU?$char_traits@_W@std@@V?$allocator@_W@2@@std@@PEAXGPEAVPerfThread@@@Z 000000018005b6f8     handles.obj
 0001:0005a701       $stateUnwindMap$?GetNameByType@@YA?AV?$basic_string@_WU?$char_traits@_W@std@@V?$allocator@_W@2@@std@@PEAXGPEAVPerfThread@@@Z 000000018005b701     handles.obj
 0001:0005a72b       $ip2state$?GetNameByType@@YA?AV?$basic_string@_WU?$char_traits@_W@std@@V?$allocator@_W@2@@std@@PEAXGPEAVPerfThread@@@Z 000000018005b72b     handles.obj
 0001:0005a748       $unwind$?dtor$20@?0??GetNameByType@@YA?AV?$basic_string@_WU?$char_traits@_W@std@@V?$allocator@_W@2@@std@@PEAXGPEAVPerfThread@@@Z@4HA 000000018005b748     handles.obj
 0001:0005a748       $unwind$__scrt_is_nonwritable_in_current_image$filt$0 000000018005b748     LIBCMT:utility.obj
 0001:0005a750       $unwind$??1?$scoped_lock@VPerfThread@@@std@@QEAA@XZ 000000018005b750     handles.obj
 0001:0005a760       $cppxdata$??1?$scoped_lock@VPerfThread@@@std@@QEAA@XZ 000000018005b760     handles.obj
 0001:0005a765       $ip2state$??1?$scoped_lock@VPerfThread@@@std@@QEAA@XZ 000000018005b765     handles.obj
 0001:0005a768       $unwind$?duplicate_handle@@YA?AV?$unique_ptr@XUhandle_closer@@@std@@PEAXK@Z 000000018005b768     handles.obj
 0001:0005a784       $cppxdata$?duplicate_handle@@YA?AV?$unique_ptr@XUhandle_closer@@@std@@PEAXK@Z 000000018005b784     handles.obj
 0001:0005a78d       $stateUnwindMap$?duplicate_handle@@YA?AV?$unique_ptr@XUhandle_closer@@@std@@PEAXK@Z 000000018005b78d     handles.obj
 0001:0005a799       $ip2state$?duplicate_handle@@YA?AV?$unique_ptr@XUhandle_closer@@@std@@PEAXK@Z 000000018005b799     handles.obj
 0001:0005a7a0       $unwind$??$vformat@_W$0A@@detail@v7@fmt@@YA?AV?$basic_string@_WU?$char_traits@_W@std@@V?$allocator@_W@2@@std@@V?$basic_string_view@_W@12@V?$basic_format_args@V?$basic_format_context@V?$buffer_appender@_W@detail@v7@fmt@@_W@v7@fmt@@@12@@Z 000000018005b7a0     handles.obj
 0001:0005a7c0       $cppxdata$??$vformat@_W$0A@@detail@v7@fmt@@YA?AV?$basic_string@_WU?$char_traits@_W@std@@V?$allocator@_W@2@@std@@V?$basic_string_view@_W@12@V?$basic_format_args@V?$basic_format_context@V?$buffer_appender@_W@detail@v7@fmt@@_W@v7@fmt@@@12@@Z 000000018005b7c0     handles.obj
 0001:0005a7c9       $stateUnwindMap$??$vformat@_W$0A@@detail@v7@fmt@@YA?AV?$basic_string@_WU?$char_traits@_W@std@@V?$allocator@_W@2@@std@@V?$basic_string_view@_W@12@V?$basic_format_args@V?$basic_format_context@V?$buffer_appender@_W@detail@v7@fmt@@_W@v7@fmt@@@12@@Z 000000018005b7c9     handles.obj
 0001:0005a7d1       $ip2state$??$vformat@_W$0A@@detail@v7@fmt@@YA?AV?$basic_string@_WU?$char_traits@_W@std@@V?$allocator@_W@2@@std@@V?$basic_string_view@_W@12@V?$basic_format_args@V?$basic_format_context@V?$buffer_appender@_W@detail@v7@fmt@@_W@v7@fmt@@@12@@Z 000000018005b7d1     handles.obj
 0001:0005a7d8       $unwind$?on_fill@?$specs_setter@_W@detail@v7@fmt@@QEAAXV?$basic_string_view@_W@34@@Z 000000018005b7d8     handles.obj
 0001:0005a7e8       $cppxdata$?on_fill@?$specs_setter@_W@detail@v7@fmt@@QEAAXV?$basic_string_view@_W@34@@Z 000000018005b7e8     handles.obj
 0001:0005a7f1       $ip2state$?on_fill@?$specs_setter@_W@detail@v7@fmt@@QEAAXV?$basic_string_view@_W@34@@Z 000000018005b7f1     handles.obj
 0001:0005a7f8       $unwind$??$visit_format_arg@U?$default_arg_formatter@V?$buffer_appender@_W@detail@v7@fmt@@_W@detail@v7@fmt@@V?$basic_format_context@V?$buffer_appender@_W@detail@v7@fmt@@_W@34@@v7@fmt@@YA?AV?$buffer_appender@_W@detail@01@$$QEAU?$default_arg_formatter@V?$buffer_appender@_W@detail@v7@fmt@@_W@301@AEBV?$basic_format_arg@V?$basic_format_context@V?$buffer_appender@_W@detail@v7@fmt@@_W@v7@fmt@@@01@@Z 000000018005b7f8     handles.obj
 0001:0005a820       $cppxdata$??$visit_format_arg@U?$default_arg_formatter@V?$buffer_appender@_W@detail@v7@fmt@@_W@detail@v7@fmt@@V?$basic_format_context@V?$buffer_appender@_W@detail@v7@fmt@@_W@34@@v7@fmt@@YA?AV?$buffer_appender@_W@detail@01@$$QEAU?$default_arg_formatter@V?$buffer_appender@_W@detail@v7@fmt@@_W@301@AEBV?$basic_format_arg@V?$basic_format_context@V?$buffer_appender@_W@detail@v7@fmt@@_W@v7@fmt@@@01@@Z 000000018005b820     handles.obj
 0001:0005a829       $stateUnwindMap$??$visit_format_arg@U?$default_arg_formatter@V?$buffer_appender@_W@detail@v7@fmt@@_W@detail@v7@fmt@@V?$basic_format_context@V?$buffer_appender@_W@detail@v7@fmt@@_W@34@@v7@fmt@@YA?AV?$buffer_appender@_W@detail@01@$$QEAU?$default_arg_formatter@V?$buffer_appender@_W@detail@v7@fmt@@_W@301@AEBV?$basic_format_arg@V?$basic_format_context@V?$buffer_appender@_W@detail@v7@fmt@@_W@v7@fmt@@@01@@Z 000000018005b829     handles.obj
 0001:0005a830       $ip2state$??$visit_format_arg@U?$default_arg_formatter@V?$buffer_appender@_W@detail@v7@fmt@@_W@detail@v7@fmt@@V?$basic_format_context@V?$buffer_appender@_W@detail@v7@fmt@@_W@34@@v7@fmt@@YA?AV?$buffer_appender@_W@detail@01@$$QEAU?$default_arg_formatter@V?$buffer_appender@_W@detail@v7@fmt@@_W@301@AEBV?$basic_format_arg@V?$basic_format_context@V?$buffer_appender@_W@detail@v7@fmt@@_W@v7@fmt@@@01@@Z 000000018005b830     handles.obj
 0001:0005a838       $unwind$?on_replacement_field@?$format_handler@V?$buffer_appender@_W@detail@v7@fmt@@_WV?$basic_format_context@V?$buffer_appender@_W@detail@v7@fmt@@_W@34@@detail@v7@fmt@@QEAAXHPEB_W@Z 000000018005b838     handles.obj
 0001:0005a840       $unwind$?on_format_specs@?$format_handler@V?$buffer_appender@_W@detail@v7@fmt@@_WV?$basic_format_context@V?$buffer_appender@_W@detail@v7@fmt@@_W@34@@detail@v7@fmt@@QEAAPEB_WHPEB_W0@Z 000000018005b840     handles.obj
 0001:0005a858       $chain$0$?on_format_specs@?$format_handler@V?$buffer_appender@_W@detail@v7@fmt@@_WV?$basic_format_context@V?$buffer_appender@_W@detail@v7@fmt@@_W@34@@detail@v7@fmt@@QEAAPEB_WHPEB_W0@Z 000000018005b858     handles.obj
 0001:0005a86c       $chain$1$?on_format_specs@?$format_handler@V?$buffer_appender@_W@detail@v7@fmt@@_WV?$basic_format_context@V?$buffer_appender@_W@detail@v7@fmt@@_W@34@@detail@v7@fmt@@QEAAPEB_WHPEB_W0@Z 000000018005b86c     handles.obj
 0001:0005a87c       $unwind$??$parse_format_string@$0A@_WAEAU?$format_handler@V?$buffer_appender@_W@detail@v7@fmt@@_WV?$basic_format_context@V?$buffer_appender@_W@detail@v7@fmt@@_W@34@@detail@v7@fmt@@@detail@v7@fmt@@YAXV?$basic_string_view@_W@12@AEAU?$format_handler@V?$buffer_appender@_W@detail@v7@fmt@@_WV?$basic_format_context@V?$buffer_appender@_W@detail@v7@fmt@@_W@34@@012@@Z 000000018005b87c     handles.obj
 0001:0005a894       $chain$0$??$parse_format_string@$0A@_WAEAU?$format_handler@V?$buffer_appender@_W@detail@v7@fmt@@_WV?$basic_format_context@V?$buffer_appender@_W@detail@v7@fmt@@_W@34@@detail@v7@fmt@@@detail@v7@fmt@@YAXV?$basic_string_view@_W@12@AEAU?$format_handler@V?$buffer_appender@_W@detail@v7@fmt@@_WV?$basic_format_context@V?$buffer_appender@_W@detail@v7@fmt@@_W@34@@012@@Z 000000018005b894     handles.obj
 0001:0005a8a8       $chain$1$??$parse_format_string@$0A@_WAEAU?$format_handler@V?$buffer_appender@_W@detail@v7@fmt@@_WV?$basic_format_context@V?$buffer_appender@_W@detail@v7@fmt@@_W@34@@detail@v7@fmt@@@detail@v7@fmt@@YAXV?$basic_string_view@_W@12@AEAU?$format_handler@V?$buffer_appender@_W@detail@v7@fmt@@_WV?$basic_format_context@V?$buffer_appender@_W@detail@v7@fmt@@_W@34@@012@@Z 000000018005b8a8     handles.obj
 0001:0005a8b8       $unwind$??Rwriter@?1???$parse_format_string@$0A@_WAEAU?$format_handler@V?$buffer_appender@_W@detail@v7@fmt@@_WV?$basic_format_context@V?$buffer_appender@_W@detail@v7@fmt@@_W@34@@detail@v7@fmt@@@detail@v7@fmt@@YAXV?$basic_string_view@_W@23@AEAU?$format_handler@V?$buffer_appender@_W@detail@v7@fmt@@_WV?$basic_format_context@V?$buffer_appender@_W@detail@v7@fmt@@_W@34@@123@@Z@QEAAXPEB_W2@Z 000000018005b8b8     handles.obj
 0001:0005a8c4       $chain$0$??Rwriter@?1???$parse_format_string@$0A@_WAEAU?$format_handler@V?$buffer_appender@_W@detail@v7@fmt@@_WV?$basic_format_context@V?$buffer_appender@_W@detail@v7@fmt@@_W@34@@detail@v7@fmt@@@detail@v7@fmt@@YAXV?$basic_string_view@_W@23@AEAU?$format_handler@V?$buffer_appender@_W@detail@v7@fmt@@_WV?$basic_format_context@V?$buffer_appender@_W@detail@v7@fmt@@_W@34@@123@@Z@QEAAXPEB_W2@Z 000000018005b8c4     handles.obj
 0001:0005a8d8       $chain$1$??Rwriter@?1???$parse_format_string@$0A@_WAEAU?$format_handler@V?$buffer_appender@_W@detail@v7@fmt@@_WV?$basic_format_context@V?$buffer_appender@_W@detail@v7@fmt@@_W@34@@detail@v7@fmt@@@detail@v7@fmt@@YAXV?$basic_string_view@_W@23@AEAU?$format_handler@V?$buffer_appender@_W@detail@v7@fmt@@_WV?$basic_format_context@V?$buffer_appender@_W@detail@v7@fmt@@_W@34@@123@@Z@QEAAXPEB_W2@Z 000000018005b8d8     handles.obj
 0001:0005a8e8       $chain$2$??Rwriter@?1???$parse_format_string@$0A@_WAEAU?$format_handler@V?$buffer_appender@_W@detail@v7@fmt@@_WV?$basic_format_context@V?$buffer_appender@_W@detail@v7@fmt@@_W@34@@detail@v7@fmt@@@detail@v7@fmt@@YAXV?$basic_string_view@_W@23@AEAU?$format_handler@V?$buffer_appender@_W@detail@v7@fmt@@_WV?$basic_format_context@V?$buffer_appender@_W@detail@v7@fmt@@_W@34@@123@@Z@QEAAXPEB_W2@Z 000000018005b8e8     handles.obj
 0001:0005a8fc       $unwind$??$write@_WV?$buffer_appender@_W@detail@v7@fmt@@_J$0A@@detail@v7@fmt@@YA?AV?$buffer_appender@_W@012@V3012@_J@Z 000000018005b8fc     handles.obj
 0001:0005a914       $unwind$??$write@_WV?$buffer_appender@_W@detail@v7@fmt@@_K$0A@@detail@v7@fmt@@YA?AV?$buffer_appender@_W@012@V3012@_K@Z 000000018005b914     handles.obj
 0001:0005a928       $unwind$??$parse_format_specs@_WAEAV?$specs_checker@V?$specs_handler@V?$basic_format_parse_context@_WUerror_handler@detail@v7@fmt@@@v7@fmt@@V?$basic_format_context@V?$buffer_appender@_W@detail@v7@fmt@@_W@23@@detail@v7@fmt@@@detail@v7@fmt@@@detail@v7@fmt@@YAPEB_WPEB_W0AEAV?$specs_checker@V?$specs_handler@V?$basic_format_parse_context@_WUerror_handler@detail@v7@fmt@@@v7@fmt@@V?$basic_format_context@V?$buffer_appender@_W@detail@v7@fmt@@_W@23@@detail@v7@fmt@@@012@@Z 000000018005b928     handles.obj
 0001:0005a940       $unwind$?write@?$arg_formatter_base@V?$buffer_appender@_W@detail@v7@fmt@@_WUerror_handler@234@@detail@v7@fmt@@IEAAXPEB_W@Z 000000018005b940     handles.obj
 0001:0005a958       $cppxdata$?write@?$arg_formatter_base@V?$buffer_appender@_W@detail@v7@fmt@@_WUerror_handler@234@@detail@v7@fmt@@IEAAXPEB_W@Z 000000018005b958     handles.obj
 0001:0005a961       $ip2state$?write@?$arg_formatter_base@V?$buffer_appender@_W@detail@v7@fmt@@_WUerror_handler@234@@detail@v7@fmt@@IEAAXPEB_W@Z 000000018005b961     handles.obj
 0001:0005a968       $unwind$?_Tidy@?$vector@V?$basic_string@_WU?$char_traits@_W@std@@V?$allocator@_W@2@@std@@V?$allocator@V?$basic_string@_WU?$char_traits@_W@std@@V?$allocator@_W@2@@std@@@2@@std@@AEAAXXZ 000000018005b968     Pclass.obj
 0001:0005a968       $unwind$??$?RH$0A@@?$arg_formatter_base@V?$buffer_appender@_W@detail@v7@fmt@@_WUerror_handler@234@@detail@v7@fmt@@QEAA?AV?$buffer_appender@_W@123@H@Z 000000018005b968     handles.obj
 0001:0005a968       $unwind$?_Tidy@?$vector@UProcessPerfData@@V?$allocator@UProcessPerfData@@@std@@@std@@AEAAXXZ 000000018005b968     perfthread.obj
 0001:0005a968       $unwind$?_Locimp_dtor@_Locimp@locale@std@@CAXPEAV123@@Z 000000018005b968     libcpmt:locale0.obj
 0001:0005a968       $unwind$iswctype           000000018005b968     libucrt:iswctype.obj
 0001:0005a974       $unwind$??$visit_format_arg@V?$arg_formatter@V?$buffer_appender@_W@detail@v7@fmt@@_W@detail@v7@fmt@@V?$basic_format_context@V?$buffer_appender@_W@detail@v7@fmt@@_W@34@@v7@fmt@@YA?AV?$buffer_appender@_W@detail@01@$$QEAV?$arg_formatter@V?$buffer_appender@_W@detail@v7@fmt@@_W@301@AEBV?$basic_format_arg@V?$basic_format_context@V?$buffer_appender@_W@detail@v7@fmt@@_W@v7@fmt@@@01@@Z 000000018005b974     handles.obj
 0001:0005a988       $chain$0$??$visit_format_arg@V?$arg_formatter@V?$buffer_appender@_W@detail@v7@fmt@@_W@detail@v7@fmt@@V?$basic_format_context@V?$buffer_appender@_W@detail@v7@fmt@@_W@34@@v7@fmt@@YA?AV?$buffer_appender@_W@detail@01@$$QEAV?$arg_formatter@V?$buffer_appender@_W@detail@v7@fmt@@_W@301@AEBV?$basic_format_arg@V?$basic_format_context@V?$buffer_appender@_W@detail@v7@fmt@@_W@v7@fmt@@@01@@Z 000000018005b988     handles.obj
 0001:0005a99c       $chain$1$??$visit_format_arg@V?$arg_formatter@V?$buffer_appender@_W@detail@v7@fmt@@_W@detail@v7@fmt@@V?$basic_format_context@V?$buffer_appender@_W@detail@v7@fmt@@_W@34@@v7@fmt@@YA?AV?$buffer_appender@_W@detail@01@$$QEAV?$arg_formatter@V?$buffer_appender@_W@detail@v7@fmt@@_W@301@AEBV?$basic_format_arg@V?$basic_format_context@V?$buffer_appender@_W@detail@v7@fmt@@_W@v7@fmt@@@01@@Z 000000018005b99c     handles.obj
 0001:0005a9ac       $unwind$??$write_ptr@_WV?$buffer_appender@_W@detail@v7@fmt@@_K@detail@v7@fmt@@YA?AV?$buffer_appender@_W@012@V3012@_KPEBU?$basic_format_specs@_W@12@@Z 000000018005b9ac     handles.obj
 0001:0005a9bc       $chain$1$??$write_ptr@_WV?$buffer_appender@_W@detail@v7@fmt@@_K@detail@v7@fmt@@YA?AV?$buffer_appender@_W@012@V3012@_KPEBU?$basic_format_specs@_W@12@@Z 000000018005b9bc     handles.obj
 0001:0005a9d4       $chain$2$??$write_ptr@_WV?$buffer_appender@_W@detail@v7@fmt@@_K@detail@v7@fmt@@YA?AV?$buffer_appender@_W@012@V3012@_KPEBU?$basic_format_specs@_W@12@@Z 000000018005b9d4     handles.obj
 0001:0005a9e4       $unwind$??$format_decimal@_W_K@detail@v7@fmt@@YA?AU?$format_decimal_result@PEA_W@012@PEA_W_KH@Z 000000018005b9e4     handles.obj
 0001:0005a9e4       $unwind$__GSHandlerCheckCommon 000000018005b9e4     LIBCMT:gshandler.obj
 0001:0005a9e4       $unwind$__acrt_WideCharToMultiByte 000000018005b9e4     libucrt:widechartomultibyte.obj
 0001:0005a9ec       $chain$0$??$format_decimal@_W_K@detail@v7@fmt@@YA?AU?$format_decimal_result@PEA_W@012@PEA_W_KH@Z 000000018005b9ec     handles.obj
 0001:0005aa00       $chain$1$??$format_decimal@_W_K@detail@v7@fmt@@YA?AU?$format_decimal_result@PEA_W@012@PEA_W_KH@Z 000000018005ba00     handles.obj
 0001:0005aa10       $unwind$??$format_decimal@_W_KV?$buffer_appender@_W@detail@v7@fmt@@$0A@@detail@v7@fmt@@YA?AU?$format_decimal_result@V?$buffer_appender@_W@detail@v7@fmt@@@012@V?$buffer_appender@_W@012@_KH@Z 000000018005ba10     handles.obj
 0001:0005aa10       $unwind$?fp_format_e@@YAHQEBNQEAD_K12H_NIQEAU__crt_locale_pointers@@@Z 000000018005ba10     libucrt:cvt.obj
 0001:0005aa10       $unwind$_mbtowc_l          000000018005ba10     libucrt:mbtowc.obj
 0001:0005aa10       $unwind$__acrt_LCMapStringEx 000000018005ba10     libucrt:winapi_thunks.obj
 0001:0005aa10       $unwind$__acrt_LCMapStringW 000000018005ba10     libucrt:lcmapstringw.obj
 0001:0005aa24       $unwind$??$write_nonfinite@_WV?$buffer_appender@_W@detail@v7@fmt@@@detail@v7@fmt@@YA?AV?$buffer_appender@_W@012@V3012@_NAEBU?$basic_format_specs@_W@12@AEBUfloat_specs@012@@Z 000000018005ba24     handles.obj
 0001:0005aa24       $unwind$?try_get_function@@YAPEAXW4function_id@?A0x81a78551@@QEBDQEBW4module_id@2@2@Z 000000018005ba24     libvcruntime:winapi_downlevel.obj
 0001:0005aa24       $unwind$?try_get_function@@YAPEAXW4function_id@?A0x391cf84c@@QEBDQEBW4module_id@2@2@Z 000000018005ba24     libucrt:winapi_thunks.obj
 0001:0005aa40       $unwind$??$write_float@V?$buffer_appender@_W@detail@v7@fmt@@U?$decimal_fp@M@dragonbox@234@_W@detail@v7@fmt@@YA?AV?$buffer_appender@_W@012@V3012@AEBU?$decimal_fp@M@dragonbox@012@AEBU?$basic_format_specs@_W@12@Ufloat_specs@012@_W@Z 000000018005ba40     handles.obj
 0001:0005aa40       $unwind$??$write_float@V?$buffer_appender@_W@detail@v7@fmt@@U?$decimal_fp@N@dragonbox@234@_W@detail@v7@fmt@@YA?AV?$buffer_appender@_W@012@V3012@AEBU?$decimal_fp@N@dragonbox@012@AEBU?$basic_format_specs@_W@12@Ufloat_specs@012@_W@Z 000000018005ba40     handles.obj
 0001:0005aa60       $unwind$??$write@_W@?$arg_formatter_base@V?$buffer_appender@_W@detail@v7@fmt@@_WUerror_handler@234@@detail@v7@fmt@@AEAAXV?$basic_string_view@_W@23@AEBU?$basic_format_specs@_W@23@@Z 000000018005ba60     handles.obj
 0001:0005aa78       $unwind$?on_char@char_spec_handler@?$arg_formatter_base@V?$buffer_appender@_W@detail@v7@fmt@@_WUerror_handler@234@@detail@v7@fmt@@QEAAXXZ 000000018005ba78     handles.obj
 0001:0005aa88       $chain$0$?on_char@char_spec_handler@?$arg_formatter_base@V?$buffer_appender@_W@detail@v7@fmt@@_WUerror_handler@234@@detail@v7@fmt@@QEAAXXZ 000000018005ba88     handles.obj
 0001:0005aa9c       $chain$1$?on_char@char_spec_handler@?$arg_formatter_base@V?$buffer_appender@_W@detail@v7@fmt@@_WUerror_handler@234@@detail@v7@fmt@@QEAAXXZ 000000018005ba9c     handles.obj
 0001:0005aaac       $unwind$??$get_id@_W@?$basic_format_args@V?$basic_format_context@V?$buffer_appender@_W@detail@v7@fmt@@_W@v7@fmt@@@v7@fmt@@QEBAHV?$basic_string_view@_W@12@@Z 000000018005baac     handles.obj
 0001:0005aac4       $unwind$??$copy_str@_WPEBDV?$buffer_appender@_W@detail@v7@fmt@@$0A@@detail@v7@fmt@@YA?AV?$buffer_appender@_W@012@PEBD0V3012@@Z 000000018005bac4     handles.obj
 0001:0005aad8       $chain$0$??$copy_str@_WPEBDV?$buffer_appender@_W@detail@v7@fmt@@$0A@@detail@v7@fmt@@YA?AV?$buffer_appender@_W@012@PEBD0V3012@@Z 000000018005bad8     handles.obj
 0001:0005aaec       $chain$1$??$copy_str@_WPEBDV?$buffer_appender@_W@detail@v7@fmt@@$0A@@detail@v7@fmt@@YA?AV?$buffer_appender@_W@012@PEBD0V3012@@Z 000000018005baec     handles.obj
 0001:0005aafc       $unwind$??$write_int@H@?$arg_formatter_base@V?$buffer_appender@_W@detail@v7@fmt@@_WUerror_handler@234@@detail@v7@fmt@@AEAAXHAEBU?$basic_format_specs@_W@23@@Z 000000018005bafc     handles.obj
 0001:0005ab04       $unwind$??$format_uint@$03_WV?$buffer_appender@_W@detail@v7@fmt@@_K@detail@v7@fmt@@YA?AV?$buffer_appender@_W@012@V3012@_KH_N@Z 000000018005bb04     handles.obj
 0001:0005ab10       $chain$1$??$format_uint@$03_WV?$buffer_appender@_W@detail@v7@fmt@@_K@detail@v7@fmt@@YA?AV?$buffer_appender@_W@012@V3012@_KH_N@Z 000000018005bb10     handles.obj
 0001:0005ab28       $chain$2$??$format_uint@$03_WV?$buffer_appender@_W@detail@v7@fmt@@_K@detail@v7@fmt@@YA?AV?$buffer_appender@_W@012@V3012@_KH_N@Z 000000018005bb28     handles.obj
 0001:0005ab3c       $chain$3$??$format_uint@$03_WV?$buffer_appender@_W@detail@v7@fmt@@_K@detail@v7@fmt@@YA?AV?$buffer_appender@_W@012@V3012@_KH_N@Z 000000018005bb3c     handles.obj
 0001:0005ab4c       $chain$4$??$format_uint@$03_WV?$buffer_appender@_W@detail@v7@fmt@@_K@detail@v7@fmt@@YA?AV?$buffer_appender@_W@012@V3012@_KH_N@Z 000000018005bb4c     handles.obj
 0001:0005ab5c       $unwind$??R<lambda_25250293cfc32af92054c3b40a759709>@@QEBA?AV?$buffer_appender@_W@detail@v7@fmt@@V1234@@Z 000000018005bb5c     handles.obj
 0001:0005ab5c       $unwind$??R<lambda_d927b2905a963478236b832f97f040e8>@@QEBA?AV?$buffer_appender@_W@detail@v7@fmt@@V1234@@Z 000000018005bb5c     handles.obj
 0001:0005ab5c       $unwind$??R<lambda_e1d60fde0f959a301c462adcda67875d>@@QEBA?AV?$buffer_appender@_W@detail@v7@fmt@@V1234@@Z 000000018005bb5c     handles.obj
 0001:0005ab6c       $chain$0$??R<lambda_25250293cfc32af92054c3b40a759709>@@QEBA?AV?$buffer_appender@_W@detail@v7@fmt@@V1234@@Z 000000018005bb6c     handles.obj
 0001:0005ab80       $chain$1$??R<lambda_25250293cfc32af92054c3b40a759709>@@QEBA?AV?$buffer_appender@_W@detail@v7@fmt@@V1234@@Z 000000018005bb80     handles.obj
 0001:0005ab90       $unwind$??$write_significand@V?$buffer_appender@_W@detail@v7@fmt@@_W@detail@v7@fmt@@YA?AV?$buffer_appender@_W@012@V3012@PEBDHH_W@Z 000000018005bb90     handles.obj
 0001:0005aba8       $chain$0$??$write_significand@V?$buffer_appender@_W@detail@v7@fmt@@_W@detail@v7@fmt@@YA?AV?$buffer_appender@_W@012@V3012@PEBDHH_W@Z 000000018005bba8     handles.obj
 0001:0005abbc       $chain$1$??$write_significand@V?$buffer_appender@_W@detail@v7@fmt@@_W@detail@v7@fmt@@YA?AV?$buffer_appender@_W@012@V3012@PEBDHH_W@Z 000000018005bbbc     handles.obj
 0001:0005abcc       $unwind$??$write_significand@V?$buffer_appender@_W@detail@v7@fmt@@I_W$0A@@detail@v7@fmt@@YA?AV?$buffer_appender@_W@012@V3012@IHH_W@Z 000000018005bbcc     handles.obj
 0001:0005abe4       $unwind$??$write_exponent@_WV?$buffer_appender@_W@detail@v7@fmt@@@detail@v7@fmt@@YA?AV?$buffer_appender@_W@012@HV3012@@Z 000000018005bbe4     handles.obj
 0001:0005abf0       $chain$0$??$write_exponent@_WV?$buffer_appender@_W@detail@v7@fmt@@@detail@v7@fmt@@YA?AV?$buffer_appender@_W@012@HV3012@@Z 000000018005bbf0     handles.obj
 0001:0005ac04       $chain$1$??$write_exponent@_WV?$buffer_appender@_W@detail@v7@fmt@@@detail@v7@fmt@@YA?AV?$buffer_appender@_W@012@HV3012@@Z 000000018005bc04     handles.obj
 0001:0005ac18       $chain$2$??$write_exponent@_WV?$buffer_appender@_W@detail@v7@fmt@@@detail@v7@fmt@@YA?AV?$buffer_appender@_W@012@HV3012@@Z 000000018005bc18     handles.obj
 0001:0005ac2c       $chain$3$??$write_exponent@_WV?$buffer_appender@_W@detail@v7@fmt@@@detail@v7@fmt@@YA?AV?$buffer_appender@_W@012@HV3012@@Z 000000018005bc2c     handles.obj
 0001:0005ac40       $chain$4$??$write_exponent@_WV?$buffer_appender@_W@detail@v7@fmt@@@detail@v7@fmt@@YA?AV?$buffer_appender@_W@012@HV3012@@Z 000000018005bc40     handles.obj
 0001:0005ac50       $chain$5$??$write_exponent@_WV?$buffer_appender@_W@detail@v7@fmt@@@detail@v7@fmt@@YA?AV?$buffer_appender@_W@012@HV3012@@Z 000000018005bc50     handles.obj
 0001:0005ac60       $chain$6$??$write_exponent@_WV?$buffer_appender@_W@detail@v7@fmt@@@detail@v7@fmt@@YA?AV?$buffer_appender@_W@012@HV3012@@Z 000000018005bc60     handles.obj
 0001:0005ac70       $chain$7$??$write_exponent@_WV?$buffer_appender@_W@detail@v7@fmt@@@detail@v7@fmt@@YA?AV?$buffer_appender@_W@012@HV3012@@Z 000000018005bc70     handles.obj
 0001:0005ac80       $unwind$??R<lambda_4616bb99871fbb1d7aed0362dec9937f>@@QEBA?AV?$buffer_appender@_W@detail@v7@fmt@@V1234@@Z 000000018005bc80     handles.obj
 0001:0005ac80       $unwind$??R<lambda_c6a38d432852b55707518153570cf009>@@QEBA?AV?$buffer_appender@_W@detail@v7@fmt@@V1234@@Z 000000018005bc80     handles.obj
 0001:0005ac80       $unwind$??R<lambda_d4f56f40af5457baa4f93da9d151ebf1>@@QEBA?AV?$buffer_appender@_W@detail@v7@fmt@@V1234@@Z 000000018005bc80     handles.obj
 0001:0005ac80       $unwind$??R<lambda_d5afad9a80eedd7ee5d65dd8636b3113>@@QEBA?AV?$buffer_appender@_W@detail@v7@fmt@@V1234@@Z 000000018005bc80     handles.obj
 0001:0005ac98       $chain$0$??R<lambda_d927b2905a963478236b832f97f040e8>@@QEBA?AV?$buffer_appender@_W@detail@v7@fmt@@V1234@@Z 000000018005bc98     handles.obj
 0001:0005acac       $chain$1$??R<lambda_d927b2905a963478236b832f97f040e8>@@QEBA?AV?$buffer_appender@_W@detail@v7@fmt@@V1234@@Z 000000018005bcac     handles.obj
 0001:0005acbc       $unwind$??$write_significand@V?$buffer_appender@_W@detail@v7@fmt@@_K_W$0A@@detail@v7@fmt@@YA?AV?$buffer_appender@_W@012@V3012@_KHH_W@Z 000000018005bcbc     handles.obj
 0001:0005acd4       $unwind$??$parse_arg_id@_WU?$precision_adapter@AEAV?$specs_checker@V?$specs_handler@V?$basic_format_parse_context@_WUerror_handler@detail@v7@fmt@@@v7@fmt@@V?$basic_format_context@V?$buffer_appender@_W@detail@v7@fmt@@_W@23@@detail@v7@fmt@@@detail@v7@fmt@@_W@detail@v7@fmt@@@detail@v7@fmt@@YAPEB_WPEB_W0$$QEAU?$precision_adapter@AEAV?$specs_checker@V?$specs_handler@V?$basic_format_parse_context@_WUerror_handler@detail@v7@fmt@@@v7@fmt@@V?$basic_format_context@V?$buffer_appender@_W@detail@v7@fmt@@_W@23@@detail@v7@fmt@@@detail@v7@fmt@@_W@012@@Z 000000018005bcd4     handles.obj
 0001:0005acd4       $unwind$??$parse_arg_id@_WU?$width_adapter@AEAV?$specs_checker@V?$specs_handler@V?$basic_format_parse_context@_WUerror_handler@detail@v7@fmt@@@v7@fmt@@V?$basic_format_context@V?$buffer_appender@_W@detail@v7@fmt@@_W@23@@detail@v7@fmt@@@detail@v7@fmt@@_W@detail@v7@fmt@@@detail@v7@fmt@@YAPEB_WPEB_W0$$QEAU?$width_adapter@AEAV?$specs_checker@V?$specs_handler@V?$basic_format_parse_context@_WUerror_handler@detail@v7@fmt@@@v7@fmt@@V?$basic_format_context@V?$buffer_appender@_W@detail@v7@fmt@@_W@23@@detail@v7@fmt@@@detail@v7@fmt@@_W@012@@Z 000000018005bcd4     handles.obj
 0001:0005acf4       $unwind$??$write@_WV?$buffer_appender@_W@detail@v7@fmt@@M$0A@@detail@v7@fmt@@YA?AV?$buffer_appender@_W@012@V3012@MU?$basic_format_specs@_W@12@Vlocale_ref@012@@Z 000000018005bcf4     handles.obj
 0001:0005ad20       $cppxdata$??$write@_WV?$buffer_appender@_W@detail@v7@fmt@@M$0A@@detail@v7@fmt@@YA?AV?$buffer_appender@_W@012@V3012@MU?$basic_format_specs@_W@12@Vlocale_ref@012@@Z 000000018005bd20     handles.obj
 0001:0005ad29       $stateUnwindMap$??$write@_WV?$buffer_appender@_W@detail@v7@fmt@@M$0A@@detail@v7@fmt@@YA?AV?$buffer_appender@_W@012@V3012@MU?$basic_format_specs@_W@12@Vlocale_ref@012@@Z 000000018005bd29     handles.obj
 0001:0005ad29       $stateUnwindMap$??$write@_WV?$buffer_appender@_W@detail@v7@fmt@@N$0A@@detail@v7@fmt@@YA?AV?$buffer_appender@_W@012@V3012@NU?$basic_format_specs@_W@12@Vlocale_ref@012@@Z 000000018005bd29     handles.obj
 0001:0005ad29       $stateUnwindMap$??$write@_WV?$buffer_appender@_W@detail@v7@fmt@@O$0A@@detail@v7@fmt@@YA?AV?$buffer_appender@_W@012@V3012@OU?$basic_format_specs@_W@12@Vlocale_ref@012@@Z 000000018005bd29     handles.obj
 0001:0005ad37       $ip2state$??$write@_WV?$buffer_appender@_W@detail@v7@fmt@@M$0A@@detail@v7@fmt@@YA?AV?$buffer_appender@_W@012@V3012@MU?$basic_format_specs@_W@12@Vlocale_ref@012@@Z 000000018005bd37     handles.obj
 0001:0005ad48       $unwind$??$write@_WV?$buffer_appender@_W@detail@v7@fmt@@N$0A@@detail@v7@fmt@@YA?AV?$buffer_appender@_W@012@V3012@NU?$basic_format_specs@_W@12@Vlocale_ref@012@@Z 000000018005bd48     handles.obj
 0001:0005ad48       $unwind$??$write@_WV?$buffer_appender@_W@detail@v7@fmt@@O$0A@@detail@v7@fmt@@YA?AV?$buffer_appender@_W@012@V3012@OU?$basic_format_specs@_W@12@Vlocale_ref@012@@Z 000000018005bd48     handles.obj
 0001:0005ad74       $cppxdata$??$write@_WV?$buffer_appender@_W@detail@v7@fmt@@N$0A@@detail@v7@fmt@@YA?AV?$buffer_appender@_W@012@V3012@NU?$basic_format_specs@_W@12@Vlocale_ref@012@@Z 000000018005bd74     handles.obj
 0001:0005ad74       $cppxdata$??$write@_WV?$buffer_appender@_W@detail@v7@fmt@@O$0A@@detail@v7@fmt@@YA?AV?$buffer_appender@_W@012@V3012@OU?$basic_format_specs@_W@12@Vlocale_ref@012@@Z 000000018005bd74     handles.obj
 0001:0005ad7d       $ip2state$??$write@_WV?$buffer_appender@_W@detail@v7@fmt@@N$0A@@detail@v7@fmt@@YA?AV?$buffer_appender@_W@012@V3012@NU?$basic_format_specs@_W@12@Vlocale_ref@012@@Z 000000018005bd7d     handles.obj
 0001:0005ad7d       $ip2state$??$write@_WV?$buffer_appender@_W@detail@v7@fmt@@O$0A@@detail@v7@fmt@@YA?AV?$buffer_appender@_W@012@V3012@OU?$basic_format_specs@_W@12@Vlocale_ref@012@@Z 000000018005bd7d     handles.obj
 0001:0005ad8c       $unwind$??$write@D_WV?$buffer_appender@_W@detail@v7@fmt@@@detail@v7@fmt@@YA?AV?$buffer_appender@_W@012@V3012@V?$basic_string_view@D@12@AEBU?$basic_format_specs@_W@12@@Z 000000018005bd8c     handles.obj
 0001:0005ada8       $unwind$?on_dec@?$int_writer@V?$buffer_appender@_W@detail@v7@fmt@@_WI@detail@v7@fmt@@QEAAXXZ 000000018005bda8     handles.obj
 0001:0005ada8       $unwind$?on_dec@?$int_writer@V?$buffer_appender@_W@detail@v7@fmt@@_W_K@detail@v7@fmt@@QEAAXXZ 000000018005bda8     handles.obj
 0001:0005adb4       $unwind$?on_bin@?$int_writer@V?$buffer_appender@_W@detail@v7@fmt@@_WI@detail@v7@fmt@@QEAAXXZ 000000018005bdb4     handles.obj
 0001:0005adb4       $unwind$?on_bin@?$int_writer@V?$buffer_appender@_W@detail@v7@fmt@@_W_K@detail@v7@fmt@@QEAAXXZ 000000018005bdb4     handles.obj
 0001:0005adb4       $unwind$?on_hex@?$int_writer@V?$buffer_appender@_W@detail@v7@fmt@@_WI@detail@v7@fmt@@QEAAXXZ 000000018005bdb4     handles.obj
 0001:0005adb4       $unwind$?on_oct@?$int_writer@V?$buffer_appender@_W@detail@v7@fmt@@_WI@detail@v7@fmt@@QEAAXXZ 000000018005bdb4     handles.obj
 0001:0005adb4       $unwind$?on_oct@?$int_writer@V?$buffer_appender@_W@detail@v7@fmt@@_W_K@detail@v7@fmt@@QEAAXXZ 000000018005bdb4     handles.obj
 0001:0005adc4       $unwind$?on_num@?$int_writer@V?$buffer_appender@_W@detail@v7@fmt@@_WI@detail@v7@fmt@@QEAAXXZ 000000018005bdc4     handles.obj
 0001:0005ade8       $cppxdata$?on_num@?$int_writer@V?$buffer_appender@_W@detail@v7@fmt@@_WI@detail@v7@fmt@@QEAAXXZ 000000018005bde8     handles.obj
 0001:0005adf1       $stateUnwindMap$?on_num@?$int_writer@V?$buffer_appender@_W@detail@v7@fmt@@_WI@detail@v7@fmt@@QEAAXXZ 000000018005bdf1     handles.obj
 0001:0005adf1       $stateUnwindMap$?on_num@?$int_writer@V?$buffer_appender@_W@detail@v7@fmt@@_W_K@detail@v7@fmt@@QEAAXXZ 000000018005bdf1     handles.obj
 0001:0005adfe       $ip2state$?on_num@?$int_writer@V?$buffer_appender@_W@detail@v7@fmt@@_WI@detail@v7@fmt@@QEAAXXZ 000000018005bdfe     handles.obj
 0001:0005ae0c       $unwind$??$handle_int_type_spec@AEAU?$int_writer@V?$buffer_appender@_W@detail@v7@fmt@@_WI@detail@v7@fmt@@@detail@v7@fmt@@YAXDAEAU?$int_writer@V?$buffer_appender@_W@detail@v7@fmt@@_WI@012@@Z 000000018005be0c     handles.obj
 0001:0005ae20       $cppxdata$??$handle_int_type_spec@AEAU?$int_writer@V?$buffer_appender@_W@detail@v7@fmt@@_WI@detail@v7@fmt@@@detail@v7@fmt@@YAXDAEAU?$int_writer@V?$buffer_appender@_W@detail@v7@fmt@@_WI@012@@Z 000000018005be20     handles.obj
 0001:0005ae29       $ip2state$??$handle_int_type_spec@AEAU?$int_writer@V?$buffer_appender@_W@detail@v7@fmt@@_WI@detail@v7@fmt@@@detail@v7@fmt@@YAXDAEAU?$int_writer@V?$buffer_appender@_W@detail@v7@fmt@@_WI@012@@Z 000000018005be29     handles.obj
 0001:0005ae30       $unwind$??$write_padded@$01V?$buffer_appender@_W@detail@v7@fmt@@_WAEAV<lambda_4b4910ffabc1dcd104aab6476c46284c>@@@detail@v7@fmt@@YA?AV?$buffer_appender@_W@012@V3012@AEBU?$basic_format_specs@_W@12@_K2AEAV<lambda_4b4910ffabc1dcd104aab6476c46284c>@@@Z 000000018005be30     handles.obj
 0001:0005ae30       $unwind$??$write_padded@$01V?$buffer_appender@_W@detail@v7@fmt@@_WAEAV<lambda_6ab46ab70aabe8efae7e4774521859cf>@@@detail@v7@fmt@@YA?AV?$buffer_appender@_W@012@V3012@AEBU?$basic_format_specs@_W@12@_K2AEAV<lambda_6ab46ab70aabe8efae7e4774521859cf>@@@Z 000000018005be30     handles.obj
 0001:0005ae30       $unwind$??$write_padded@$01V?$buffer_appender@_W@detail@v7@fmt@@_WAEAV<lambda_fd39a64e3d11c49bae2c0eea12a77202>@@@detail@v7@fmt@@YA?AV?$buffer_appender@_W@012@V3012@AEBU?$basic_format_specs@_W@12@_K2AEAV<lambda_fd39a64e3d11c49bae2c0eea12a77202>@@@Z 000000018005be30     handles.obj
 0001:0005ae4c       $unwind$?on_num@?$int_writer@V?$buffer_appender@_W@detail@v7@fmt@@_W_K@detail@v7@fmt@@QEAAXXZ 000000018005be4c     handles.obj
 0001:0005ae70       $cppxdata$?on_num@?$int_writer@V?$buffer_appender@_W@detail@v7@fmt@@_W_K@detail@v7@fmt@@QEAAXXZ 000000018005be70     handles.obj
 0001:0005ae79       $ip2state$?on_num@?$int_writer@V?$buffer_appender@_W@detail@v7@fmt@@_W_K@detail@v7@fmt@@QEAAXXZ 000000018005be79     handles.obj
 0001:0005ae88       $unwind$??$handle_int_type_spec@AEAU?$int_writer@V?$buffer_appender@_W@detail@v7@fmt@@_W_K@detail@v7@fmt@@@detail@v7@fmt@@YAXDAEAU?$int_writer@V?$buffer_appender@_W@detail@v7@fmt@@_W_K@012@@Z 000000018005be88     handles.obj
 0001:0005aea4       $cppxdata$??$handle_int_type_spec@AEAU?$int_writer@V?$buffer_appender@_W@detail@v7@fmt@@_W_K@detail@v7@fmt@@@detail@v7@fmt@@YAXDAEAU?$int_writer@V?$buffer_appender@_W@detail@v7@fmt@@_W_K@012@@Z 000000018005bea4     handles.obj
 0001:0005aead       $ip2state$??$handle_int_type_spec@AEAU?$int_writer@V?$buffer_appender@_W@detail@v7@fmt@@_W_K@detail@v7@fmt@@@detail@v7@fmt@@YAXDAEAU?$int_writer@V?$buffer_appender@_W@detail@v7@fmt@@_W_K@012@@Z 000000018005bead     handles.obj
 0001:0005aeb4       $unwind$??$write_bytes@_WV?$buffer_appender@_W@detail@v7@fmt@@@detail@v7@fmt@@YA?AV?$buffer_appender@_W@012@V3012@V?$basic_string_view@D@12@AEBU?$basic_format_specs@_W@12@@Z 000000018005beb4     handles.obj
 0001:0005aecc       $chain$0$??$write_bytes@_WV?$buffer_appender@_W@detail@v7@fmt@@@detail@v7@fmt@@YA?AV?$buffer_appender@_W@012@V3012@V?$basic_string_view@D@12@AEBU?$basic_format_specs@_W@12@@Z 000000018005becc     handles.obj
 0001:0005aee0       $chain$1$??$write_bytes@_WV?$buffer_appender@_W@detail@v7@fmt@@@detail@v7@fmt@@YA?AV?$buffer_appender@_W@012@V3012@V?$basic_string_view@D@12@AEBU?$basic_format_specs@_W@12@@Z 000000018005bee0     handles.obj
 0001:0005aef0       $unwind$??$write_float@V?$buffer_appender@_W@detail@v7@fmt@@Ubig_decimal_fp@234@_W@detail@v7@fmt@@YA?AV?$buffer_appender@_W@012@V3012@AEBUbig_decimal_fp@012@AEBU?$basic_format_specs@_W@12@Ufloat_specs@012@_W@Z 000000018005bef0     handles.obj
 0001:0005af10       $unwind$??$fill@V?$buffer_appender@_W@detail@v7@fmt@@_W@detail@v7@fmt@@YA?AV?$buffer_appender@_W@012@V3012@_KAEBU?$fill_t@_W@012@@Z 000000018005bf10     handles.obj
 0001:0005af24       $chain$1$??$fill@V?$buffer_appender@_W@detail@v7@fmt@@_W@detail@v7@fmt@@YA?AV?$buffer_appender@_W@012@V3012@_KAEBU?$fill_t@_W@012@@Z 000000018005bf24     handles.obj
 0001:0005af3c       $chain$2$??$fill@V?$buffer_appender@_W@detail@v7@fmt@@_W@detail@v7@fmt@@YA?AV?$buffer_appender@_W@012@V3012@_KAEBU?$fill_t@_W@012@@Z 000000018005bf3c     handles.obj
 0001:0005af4c       $chain$0$??R<lambda_e1d60fde0f959a301c462adcda67875d>@@QEBA?AV?$buffer_appender@_W@detail@v7@fmt@@V1234@@Z 000000018005bf4c     handles.obj
 0001:0005af60       $chain$1$??R<lambda_e1d60fde0f959a301c462adcda67875d>@@QEBA?AV?$buffer_appender@_W@detail@v7@fmt@@V1234@@Z 000000018005bf60     handles.obj
 0001:0005af70       $unwind$??R<lambda_38f4362beee931acc75a0518550420fe>@@QEBA?AV?$buffer_appender@_W@detail@v7@fmt@@V1234@@Z 000000018005bf70     handles.obj
 0001:0005af84       $chain$0$??R<lambda_38f4362beee931acc75a0518550420fe>@@QEBA?AV?$buffer_appender@_W@detail@v7@fmt@@V1234@@Z 000000018005bf84     handles.obj
 0001:0005af98       $chain$1$??R<lambda_38f4362beee931acc75a0518550420fe>@@QEBA?AV?$buffer_appender@_W@detail@v7@fmt@@V1234@@Z 000000018005bf98     handles.obj
 0001:0005afa8       $unwind$??$get_dynamic_spec@Vprecision_checker@detail@v7@fmt@@V?$basic_format_arg@V?$basic_format_context@V?$buffer_appender@_W@detail@v7@fmt@@_W@v7@fmt@@@34@Uerror_handler@234@@detail@v7@fmt@@YAHV?$basic_format_arg@V?$basic_format_context@V?$buffer_appender@_W@detail@v7@fmt@@_W@v7@fmt@@@12@Uerror_handler@012@@Z 000000018005bfa8     handles.obj
 0001:0005afa8       $unwind$??$get_dynamic_spec@Vwidth_checker@detail@v7@fmt@@V?$basic_format_arg@V?$basic_format_context@V?$buffer_appender@_W@detail@v7@fmt@@_W@v7@fmt@@@34@Uerror_handler@234@@detail@v7@fmt@@YAHV?$basic_format_arg@V?$basic_format_context@V?$buffer_appender@_W@detail@v7@fmt@@_W@v7@fmt@@@12@Uerror_handler@012@@Z 000000018005bfa8     handles.obj
 0001:0005afb0       $unwind$?_Change_array@?$vector@UFarMenuItem@@V?$allocator@UFarMenuItem@@@std@@@std@@AEAAXQEAUFarMenuItem@@_K1@Z 000000018005bfb0     Pclass.obj
 0001:0005afb0       $unwind$??$fill_n@V?$buffer_appender@_W@detail@v7@fmt@@_K_W@std@@YA?AV?$buffer_appender@_W@detail@v7@fmt@@V1234@_KAEB_W@Z 000000018005bfb0     handles.obj
 0001:0005afb0       $unwind$__std_exception_copy 000000018005bfb0     libvcruntime:std_exception.obj
 0001:0005afb0       $unwind$_wcstombs_s_l      000000018005bfb0     libucrt:wcstombs.obj
 0001:0005afb0       $unwind$string_is_alpha    000000018005bfb0     libucrt:wsetlocale.obj
 0001:0005afb0       $unwind$_free_osfhnd       000000018005bfb0     libucrt:osfinfo.obj
 0001:0005afc4       $unwind$??R<lambda_ba169d804ecb8b91f048b0e1f2362dff>@@QEBA?AV?$buffer_appender@_W@detail@v7@fmt@@V1234@@Z 000000018005bfc4     handles.obj
 0001:0005afd8       $chain$0$??R<lambda_ba169d804ecb8b91f048b0e1f2362dff>@@QEBA?AV?$buffer_appender@_W@detail@v7@fmt@@V1234@@Z 000000018005bfd8     handles.obj
 0001:0005afec       $chain$1$??R<lambda_ba169d804ecb8b91f048b0e1f2362dff>@@QEBA?AV?$buffer_appender@_W@detail@v7@fmt@@V1234@@Z 000000018005bfec     handles.obj
 0001:0005affc       $unwind$??R<lambda_e3c7c83dd69d7722b8735cfc6878b68a>@@QEBA?AV?$buffer_appender@_W@detail@v7@fmt@@V1234@@Z 000000018005bffc     handles.obj
 0001:0005b010       $chain$0$??R<lambda_e3c7c83dd69d7722b8735cfc6878b68a>@@QEBA?AV?$buffer_appender@_W@detail@v7@fmt@@V1234@@Z 000000018005c010     handles.obj
 0001:0005b024       $chain$1$??R<lambda_e3c7c83dd69d7722b8735cfc6878b68a>@@QEBA?AV?$buffer_appender@_W@detail@v7@fmt@@V1234@@Z 000000018005c024     handles.obj
 0001:0005b034       $unwind$??R<lambda_38a3182dcdaee82dcf81af4713909e9c>@@QEBA?AV?$buffer_appender@_W@detail@v7@fmt@@V1234@@Z 000000018005c034     handles.obj
 0001:0005b034       $unwind$??R<lambda_62e20fa9c93b0c475eedfc8d4cf093c4>@@QEBA?AV?$buffer_appender@_W@detail@v7@fmt@@V1234@@Z 000000018005c034     handles.obj
 0001:0005b048       $chain$0$??R<lambda_62e20fa9c93b0c475eedfc8d4cf093c4>@@QEBA?AV?$buffer_appender@_W@detail@v7@fmt@@V1234@@Z 000000018005c048     handles.obj
 0001:0005b05c       $chain$1$??R<lambda_62e20fa9c93b0c475eedfc8d4cf093c4>@@QEBA?AV?$buffer_appender@_W@detail@v7@fmt@@V1234@@Z 000000018005c05c     handles.obj
 0001:0005b06c       $unwind$??R<lambda_841f10f506f41ae45cd8677d3beb5225>@@QEBA?AV?$buffer_appender@_W@detail@v7@fmt@@V1234@@Z 000000018005c06c     handles.obj
 0001:0005b080       $chain$0$??R<lambda_841f10f506f41ae45cd8677d3beb5225>@@QEBA?AV?$buffer_appender@_W@detail@v7@fmt@@V1234@@Z 000000018005c080     handles.obj
 0001:0005b094       $chain$1$??R<lambda_841f10f506f41ae45cd8677d3beb5225>@@QEBA?AV?$buffer_appender@_W@detail@v7@fmt@@V1234@@Z 000000018005c094     handles.obj
 0001:0005b0a4       $chain$0$??R<lambda_38a3182dcdaee82dcf81af4713909e9c>@@QEBA?AV?$buffer_appender@_W@detail@v7@fmt@@V1234@@Z 000000018005c0a4     handles.obj
 0001:0005b0b8       $chain$1$??R<lambda_38a3182dcdaee82dcf81af4713909e9c>@@QEBA?AV?$buffer_appender@_W@detail@v7@fmt@@V1234@@Z 000000018005c0b8     handles.obj
 0001:0005b0c8       $unwind$??$write_padded@$01V?$buffer_appender@_W@detail@v7@fmt@@_WAEAV<lambda_02ef13d7388f44676ab23b4b72cf4858>@@@detail@v7@fmt@@YA?AV?$buffer_appender@_W@012@V3012@AEBU?$basic_format_specs@_W@12@_K2AEAV<lambda_02ef13d7388f44676ab23b4b72cf4858>@@@Z 000000018005c0c8     handles.obj
 0001:0005b0c8       $unwind$??$write_padded@$01V?$buffer_appender@_W@detail@v7@fmt@@_WAEAV<lambda_b50b9b8d8e7acaa70e6c58706d54422a>@@@detail@v7@fmt@@YA?AV?$buffer_appender@_W@012@V3012@AEBU?$basic_format_specs@_W@12@_K2AEAV<lambda_b50b9b8d8e7acaa70e6c58706d54422a>@@@Z 000000018005c0c8     handles.obj
 0001:0005b0c8       $unwind$??$write_padded@$01V?$buffer_appender@_W@detail@v7@fmt@@_WAEAV<lambda_c4418f031026211e2c1713642e49e80a>@@@detail@v7@fmt@@YA?AV?$buffer_appender@_W@012@V3012@AEBU?$basic_format_specs@_W@12@_K2AEAV<lambda_c4418f031026211e2c1713642e49e80a>@@@Z 000000018005c0c8     handles.obj
 0001:0005b0e4       $unwind$??1PluginSettings@@QEAA@XZ 000000018005c0e4     Pcfg.obj
 0001:0005b0f4       $cppxdata$??1PluginSettings@@QEAA@XZ 000000018005c0f4     Pcfg.obj
 0001:0005b0f9       $ip2state$??1PluginSettings@@QEAA@XZ 000000018005c0f9     Pcfg.obj
 0001:0005b0fc       $unwind$??1PluginDialogBuilder@@QEAA@XZ 000000018005c0fc     Pcfg.obj
 0001:0005b114       $cppxdata$??1PluginDialogBuilder@@QEAA@XZ 000000018005c114     Pcfg.obj
 0001:0005b119       $ip2state$??1PluginDialogBuilder@@QEAA@XZ 000000018005c119     Pcfg.obj
 0001:0005b11c       $unwind$?AddButtons@PluginDialogBuilder@@QEAAXHPEBHHH@Z 000000018005c11c     Pcfg.obj
 0001:0005b128       $chain$4$?AddButtons@PluginDialogBuilder@@QEAAXHPEBHHH@Z 000000018005c128     Pcfg.obj
 0001:0005b14c       $chain$5$?AddButtons@PluginDialogBuilder@@QEAAXHPEBHHH@Z 000000018005c14c     Pcfg.obj
 0001:0005b15c       $unwind$?ShowDialogEx@PluginDialogBuilder@@QEAA_JXZ 000000018005c15c     Pcfg.obj
 0001:0005b168       $chain$4$?ShowDialogEx@PluginDialogBuilder@@QEAA_JXZ 000000018005c168     Pcfg.obj
 0001:0005b18c       $chain$6$?ShowDialogEx@PluginDialogBuilder@@QEAA_JXZ 000000018005c18c     Pcfg.obj
 0001:0005b1a4       $chain$7$?ShowDialogEx@PluginDialogBuilder@@QEAA_JXZ 000000018005c1a4     Pcfg.obj
 0001:0005b1b8       $chain$8$?ShowDialogEx@PluginDialogBuilder@@QEAA_JXZ 000000018005c1b8     Pcfg.obj
 0001:0005b1c8       $unwind$?AddDialogItem@PluginDialogBuilder@@AEAAPEAUFarDialogItem@@W4FARDIALOGITEMTYPES@@PEB_W@Z 000000018005c1c8     Pcfg.obj
 0001:0005b1d8       $chain$0$?AddDialogItem@PluginDialogBuilder@@AEAAPEAUFarDialogItem@@W4FARDIALOGITEMTYPES@@PEB_W@Z 000000018005c1d8     Pcfg.obj
 0001:0005b1ec       $chain$1$?AddDialogItem@PluginDialogBuilder@@AEAAPEAUFarDialogItem@@W4FARDIALOGITEMTYPES@@PEB_W@Z 000000018005c1ec     Pcfg.obj
 0001:0005b200       $chain$2$?AddDialogItem@PluginDialogBuilder@@AEAAPEAUFarDialogItem@@W4FARDIALOGITEMTYPES@@PEB_W@Z 000000018005c200     Pcfg.obj
 0001:0005b210       $chain$3$?AddDialogItem@PluginDialogBuilder@@AEAAPEAUFarDialogItem@@W4FARDIALOGITEMTYPES@@PEB_W@Z 000000018005c210     Pcfg.obj
 0001:0005b220       $unwind$?Read@options@@QEAAXXZ 000000018005c220     Pcfg.obj
 0001:0005b240       $cppxdata$?Read@options@@QEAAXXZ 000000018005c240     Pcfg.obj
 0001:0005b249       $stateUnwindMap$?Read@options@@QEAAXXZ 000000018005c249     Pcfg.obj
 0001:0005b249       $stateUnwindMap$?Write@options@@QEBAXXZ 000000018005c249     Pcfg.obj
 0001:0005b255       $ip2state$?Read@options@@QEAAXXZ 000000018005c255     Pcfg.obj
 0001:0005b260       $unwind$?Write@options@@QEBAXXZ 000000018005c260     Pcfg.obj
 0001:0005b280       $cppxdata$?Write@options@@QEBAXXZ 000000018005c280     Pcfg.obj
 0001:0005b289       $ip2state$?Write@options@@QEBAXXZ 000000018005c289     Pcfg.obj
 0001:0005b294       $unwind$?Config@@YAHXZ     000000018005c294     Pcfg.obj
 0001:0005b2bc       $cppxdata$?Config@@YAHXZ   000000018005c2bc     Pcfg.obj
 0001:0005b2c5       $stateUnwindMap$?Config@@YAHXZ 000000018005c2c5     Pcfg.obj
 0001:0005b2d2       $ip2state$?Config@@YAHXZ   000000018005c2d2     Pcfg.obj
 0001:0005b2e0       $unwind$?append@?$basic_string@_WU?$char_traits@_W@std@@V?$allocator@_W@2@@std@@QEAAAEAV12@_K_W@Z 000000018005c2e0     Pclass.obj
 0001:0005b2f4       $chain$1$?append@?$basic_string@_WU?$char_traits@_W@std@@V?$allocator@_W@2@@std@@QEAAAEAV12@_K_W@Z 000000018005c2f4     Pclass.obj
 0001:0005b30c       $chain$2$?append@?$basic_string@_WU?$char_traits@_W@std@@V?$allocator@_W@2@@std@@QEAAAEAV12@_K_W@Z 000000018005c30c     Pclass.obj
 0001:0005b30c       $chain$4$?append@?$basic_string@_WU?$char_traits@_W@std@@V?$allocator@_W@2@@std@@QEAAAEAV12@_K_W@Z 000000018005c30c     Pclass.obj
 0001:0005b31c       $chain$3$?append@?$basic_string@_WU?$char_traits@_W@std@@V?$allocator@_W@2@@std@@QEAAAEAV12@_K_W@Z 000000018005c31c     Pclass.obj
 0001:0005b334       $unwind$?insert@?$basic_string@_WU?$char_traits@_W@std@@V?$allocator@_W@2@@std@@QEAAAEAV12@_KQEB_W0@Z 000000018005c334     Pclass.obj
 0001:0005b340       $chain$2$?insert@?$basic_string@_WU?$char_traits@_W@std@@V?$allocator@_W@2@@std@@QEAAAEAV12@_KQEB_W0@Z 000000018005c340     Pclass.obj
 0001:0005b35c       $chain$3$?insert@?$basic_string@_WU?$char_traits@_W@std@@V?$allocator@_W@2@@std@@QEAAAEAV12@_KQEB_W0@Z 000000018005c35c     Pclass.obj
 0001:0005b36c       $unwind$??0Plist@@QEAA@XZ  000000018005c36c     Pclass.obj
 0001:0005b388       $cppxdata$??0Plist@@QEAA@XZ 000000018005c388     Pclass.obj
 0001:0005b391       $stateUnwindMap$??0Plist@@QEAA@XZ 000000018005c391     Pclass.obj
 0001:0005b3b1       $ip2state$??0Plist@@QEAA@XZ 000000018005c3b1     Pclass.obj
 0001:0005b3c0       $unwind$?Connect@Plist@@QEAA_NPEB_W00@Z 000000018005c3c0     Pclass.obj
 0001:0005b3e0       $cppxdata$?Connect@Plist@@QEAA_NPEB_W00@Z 000000018005c3e0     Pclass.obj
 0001:0005b3e9       $stateUnwindMap$?Connect@Plist@@QEAA_NPEB_W00@Z 000000018005c3e9     Pclass.obj
 0001:0005b3fc       $ip2state$?Connect@Plist@@QEAA_NPEB_W00@Z 000000018005c3fc     Pclass.obj
 0001:0005b40c       $unwind$?GetFindData@Plist@@QEAAHAEAPEAUPluginPanelItem@@AEA_K_K@Z 000000018005c40c     Pclass.obj
 0001:0005b430       $cppxdata$?GetFindData@Plist@@QEAAHAEAPEAUPluginPanelItem@@AEA_K_K@Z 000000018005c430     Pclass.obj
 0001:0005b439       $stateUnwindMap$?GetFindData@Plist@@QEAAHAEAPEAUPluginPanelItem@@AEA_K_K@Z 000000018005c439     Pclass.obj
 0001:0005b482       $ip2state$?GetFindData@Plist@@QEAAHAEAPEAUPluginPanelItem@@AEA_K_K@Z 000000018005c482     Pclass.obj
 0001:0005b4b0       $unwind$?GetOpenPanelInfo@Plist@@QEAAXPEAUOpenPanelInfo@@@Z 000000018005c4b0     Pclass.obj
 0001:0005b4c4       $chain$0$?GetOpenPanelInfo@Plist@@QEAAXPEAUOpenPanelInfo@@@Z 000000018005c4c4     Pclass.obj
 0001:0005b4d8       $chain$1$?GetOpenPanelInfo@Plist@@QEAAXPEAUOpenPanelInfo@@@Z 000000018005c4d8     Pclass.obj
 0001:0005b4e8       $unwind$?GetFiles@Plist@@QEAAHPEAUPluginPanelItem@@_KHPEAPEB_W1AEAUoptions@@@Z 000000018005c4e8     Pclass.obj
 0001:0005b50c       $cppxdata$?GetFiles@Plist@@QEAAHPEAUPluginPanelItem@@_KHPEAPEB_W1AEAUoptions@@@Z 000000018005c50c     Pclass.obj
 0001:0005b515       $stateUnwindMap$?GetFiles@Plist@@QEAAHPEAUPluginPanelItem@@_KHPEAPEB_W1AEAUoptions@@@Z 000000018005c515     Pclass.obj
 0001:0005b5cd       $ip2state$?GetFiles@Plist@@QEAAHPEAUPluginPanelItem@@_KHPEAPEB_W1AEAUoptions@@@Z 000000018005c5cd     Pclass.obj
 0001:0005b690       $unwind$?DeleteFiles@Plist@@QEAAHPEAUPluginPanelItem@@_K1@Z 000000018005c690     Pclass.obj
 0001:0005b6b8       $cppxdata$?DeleteFiles@Plist@@QEAAHPEAUPluginPanelItem@@_K1@Z 000000018005c6b8     Pclass.obj
 0001:0005b6c1       $stateUnwindMap$?DeleteFiles@Plist@@QEAAHPEAUPluginPanelItem@@_K1@Z 000000018005c6c1     Pclass.obj
 0001:0005b6c8       $ip2state$?DeleteFiles@Plist@@QEAAHPEAUPluginPanelItem@@_K1@Z 000000018005c6c8     Pclass.obj
 0001:0005b6d8       $unwind$?ProcessEvent@Plist@@QEAAH_JPEAX@Z 000000018005c6d8     Pclass.obj
 0001:0005b6f8       $cppxdata$?ProcessEvent@Plist@@QEAAH_JPEAX@Z 000000018005c6f8     Pclass.obj
 0001:0005b701       $stateUnwindMap$?ProcessEvent@Plist@@QEAAH_JPEAX@Z 000000018005c701     Pclass.obj
 0001:0005b70d       $ip2state$?ProcessEvent@Plist@@QEAAH_JPEAX@Z 000000018005c70d     Pclass.obj
 0001:0005b718       $unwind$?Compare@Plist@@QEBAHPEBUPluginPanelItem@@0I@Z 000000018005c718     Pclass.obj
 0001:0005b738       $cppxdata$?Compare@Plist@@QEBAHPEBUPluginPanelItem@@0I@Z 000000018005c738     Pclass.obj
 0001:0005b741       $stateUnwindMap$?Compare@Plist@@QEBAHPEBUPluginPanelItem@@0I@Z 000000018005c741     Pclass.obj
 0001:0005b74e       $ip2state$?Compare@Plist@@QEBAHPEBUPluginPanelItem@@0I@Z 000000018005c74e     Pclass.obj
 0001:0005b75c       $unwind$?ProcessKey@Plist@@QEAAHPEBU_INPUT_RECORD@@@Z 000000018005c75c     Pclass.obj
 0001:0005b780       $cppxdata$?ProcessKey@Plist@@QEAAHPEBU_INPUT_RECORD@@@Z 000000018005c780     Pclass.obj
 0001:0005b789       $stateUnwindMap$?ProcessKey@Plist@@QEAAHPEBU_INPUT_RECORD@@@Z 000000018005c789     Pclass.obj
 0001:0005b7f5       $ip2state$?ProcessKey@Plist@@QEAAHPEBU_INPUT_RECORD@@@Z 000000018005c7f5     Pclass.obj
 0001:0005b85c       $unwind$?PanelModes@Plist@@QEAAPEAUPanelMode@@AEA_K@Z 000000018005c85c     Pclass.obj
 0001:0005b86c       $chain$2$?PanelModes@Plist@@QEAAPEAUPanelMode@@AEA_K@Z 000000018005c86c     Pclass.obj
 0001:0005b888       $chain$3$?PanelModes@Plist@@QEAAPEAUPanelMode@@AEA_K@Z 000000018005c888     Pclass.obj
 0001:0005b89c       $unwind$?GetVersionInfo@Plist@@SA_NPEB_WAEAV?$unique_ptr@$$BY0A@DU?$default_delete@$$BY0A@D@std@@@std@@AEAPEB_W2@Z 000000018005c89c     Pclass.obj
 0001:0005b8c4       $cppxdata$?GetVersionInfo@Plist@@SA_NPEB_WAEAV?$unique_ptr@$$BY0A@DU?$default_delete@$$BY0A@D@std@@@std@@AEAPEB_W2@Z 000000018005c8c4     Pclass.obj
 0001:0005b8cd       $stateUnwindMap$?GetVersionInfo@Plist@@SA_NPEB_WAEAV?$unique_ptr@$$BY0A@DU?$default_delete@$$BY0A@D@std@@@std@@AEAPEB_W2@Z 000000018005c8cd     Pclass.obj
 0001:0005b8e0       $ip2state$?GetVersionInfo@Plist@@SA_NPEB_WAEAV?$unique_ptr@$$BY0A@DU?$default_delete@$$BY0A@D@std@@@std@@AEAPEB_W2@Z 000000018005c8e0     Pclass.obj
 0001:0005b8f4       $unwind$?SavePanelModes@Plist@@SAXXZ 000000018005c8f4     Pclass.obj
 0001:0005b920       $cppxdata$?SavePanelModes@Plist@@SAXXZ 000000018005c920     Pclass.obj
 0001:0005b929       $stateUnwindMap$?SavePanelModes@Plist@@SAXXZ 000000018005c929     Pclass.obj
 0001:0005b93c       $ip2state$?SavePanelModes@Plist@@SAXXZ 000000018005c93c     Pclass.obj
 0001:0005b94c       $unwind$?InitializePanelModes@Plist@@SAXXZ 000000018005c94c     Pclass.obj
 0001:0005b970       $cppxdata$?InitializePanelModes@Plist@@SAXXZ 000000018005c970     Pclass.obj
 0001:0005b979       $stateUnwindMap$?InitializePanelModes@Plist@@SAXXZ 000000018005c979     Pclass.obj
 0001:0005baa4       $ip2state$?InitializePanelModes@Plist@@SAXXZ 000000018005caa4     Pclass.obj
 0001:0005bb1c       $unwind$?PrintVersionInfo@Plist@@CAXPEAXPEB_W@Z 000000018005cb1c     Pclass.obj
 0001:0005bb3c       $cppxdata$?PrintVersionInfo@Plist@@CAXPEAXPEB_W@Z 000000018005cb3c     Pclass.obj
 0001:0005bb45       $stateUnwindMap$?PrintVersionInfo@Plist@@CAXPEAXPEB_W@Z 000000018005cb45     Pclass.obj
 0001:0005bb59       $ip2state$?PrintVersionInfo@Plist@@CAXPEAXPEB_W@Z 000000018005cb59     Pclass.obj
 0001:0005bb6c       $unwind$?Reread@Plist@@AEAAXXZ 000000018005cb6c     Pclass.obj
 0001:0005bb78       $unwind$?PrintOwnerInfo@Plist@@AEAAXPEAXK@Z 000000018005cb78     Pclass.obj
 0001:0005bb9c       $cppxdata$?PrintOwnerInfo@Plist@@AEAAXPEAXK@Z 000000018005cb9c     Pclass.obj
 0001:0005bba5       $stateUnwindMap$?PrintOwnerInfo@Plist@@AEAAXPEAXK@Z 000000018005cba5     Pclass.obj
 0001:0005bbce       $ip2state$?PrintOwnerInfo@Plist@@AEAAXPEAXK@Z 000000018005cbce     Pclass.obj
 0001:0005bbec       $unwind$?ConnectWMI@Plist@@AEAA_NXZ 000000018005cbec     Pclass.obj
 0001:0005bc08       $cppxdata$?ConnectWMI@Plist@@AEAA_NXZ 000000018005cc08     Pclass.obj
 0001:0005bc11       $stateUnwindMap$?ConnectWMI@Plist@@AEAA_NXZ 000000018005cc11     Pclass.obj
 0001:0005bc17       $ip2state$?ConnectWMI@Plist@@AEAA_NXZ 000000018005cc17     Pclass.obj
 0001:0005bc20       $chain$0$?WmiError@Plist@@AEBAXXZ 000000018005cc20     Pclass.obj
 0001:0005bc34       $chain$1$?WmiError@Plist@@AEBAXXZ 000000018005cc34     Pclass.obj
 0001:0005bc44       $chain$0$??4?$unique_ptr@VPerfThread@@U?$default_delete@VPerfThread@@@std@@@std@@QEAAAEAV01@$$QEAV01@@Z 000000018005cc44     Pclass.obj
 0001:0005bc58       $chain$1$??4?$unique_ptr@VPerfThread@@U?$default_delete@VPerfThread@@@std@@@std@@QEAAAEAV01@$$QEAV01@@Z 000000018005cc58     Pclass.obj
 0001:0005bc68       $unwind$?_Clear_and_reserve_geometric@?$vector@Umode@@V?$allocator@Umode@@@std@@@std@@AEAAX_K@Z 000000018005cc68     Pclass.obj
 0001:0005bc78       $chain$0$?_Clear_and_reserve_geometric@?$vector@Umode@@V?$allocator@Umode@@@std@@@std@@AEAAX_K@Z 000000018005cc78     Pclass.obj
 0001:0005bc8c       $chain$1$?_Clear_and_reserve_geometric@?$vector@Umode@@V?$allocator@Umode@@@std@@@std@@AEAAX_K@Z 000000018005cc8c     Pclass.obj
 0001:0005bca0       $chain$3$?_Clear_and_reserve_geometric@?$vector@Umode@@V?$allocator@Umode@@@std@@@std@@AEAAX_K@Z 000000018005cca0     Pclass.obj
 0001:0005bcb4       $chain$4$?_Clear_and_reserve_geometric@?$vector@Umode@@V?$allocator@Umode@@@std@@@std@@AEAAX_K@Z 000000018005ccb4     Pclass.obj
 0001:0005bcc4       $unwind$?DurationToText@@YA?AV?$basic_string@_WU?$char_traits@_W@std@@V?$allocator@_W@2@@std@@_K@Z 000000018005ccc4     Pclass.obj
 0001:0005bcdc       $unwind$?ui64toa_width@@YA?AV?$basic_string@_WU?$char_traits@_W@std@@V?$allocator@_W@2@@std@@_KI_N@Z 000000018005ccdc     Pclass.obj
 0001:0005bd0c       $cppxdata$?ui64toa_width@@YA?AV?$basic_string@_WU?$char_traits@_W@std@@V?$allocator@_W@2@@std@@_KI_N@Z 000000018005cd0c     Pclass.obj
 0001:0005bd15       $stateUnwindMap$?ui64toa_width@@YA?AV?$basic_string@_WU?$char_traits@_W@std@@V?$allocator@_W@2@@std@@_KI_N@Z 000000018005cd15     Pclass.obj
 0001:0005bd1c       $ip2state$?ui64toa_width@@YA?AV?$basic_string@_WU?$char_traits@_W@std@@V?$allocator@_W@2@@std@@_KI_N@Z 000000018005cd1c     Pclass.obj
 0001:0005bd28       $unwind$?PrintTitle@@YA?AV?$basic_string@_WU?$char_traits@_W@std@@V?$allocator@_W@2@@std@@V?$basic_string_view@_WU?$char_traits@_W@std@@@2@@Z 000000018005cd28     Pclass.obj
 0001:0005bd3c       $cppxdata$?PrintTitle@@YA?AV?$basic_string@_WU?$char_traits@_W@std@@V?$allocator@_W@2@@std@@V?$basic_string_view@_WU?$char_traits@_W@std@@@2@@Z 000000018005cd3c     Pclass.obj
 0001:0005bd45       $stateUnwindMap$?PrintTitle@@YA?AV?$basic_string@_WU?$char_traits@_W@std@@V?$allocator@_W@2@@std@@V?$basic_string_view@_WU?$char_traits@_W@std@@@2@@Z 000000018005cd45     Pclass.obj
 0001:0005bd4c       $ip2state$?PrintTitle@@YA?AV?$basic_string@_WU?$char_traits@_W@std@@V?$allocator@_W@2@@std@@V?$basic_string_view@_WU?$char_traits@_W@std@@@2@@Z 000000018005cd4c     Pclass.obj
 0001:0005bd54       $unwind$?TranslateMode@@YA_NAEBV?$basic_string@_WU?$char_traits@_W@std@@V?$allocator@_W@2@@std@@AEAV12@@Z 000000018005cd54     Pclass.obj
 0001:0005bd74       $cppxdata$?TranslateMode@@YA_NAEBV?$basic_string@_WU?$char_traits@_W@std@@V?$allocator@_W@2@@std@@AEAV12@@Z 000000018005cd74     Pclass.obj
 0001:0005bd7d       $stateUnwindMap$?TranslateMode@@YA_NAEBV?$basic_string@_WU?$char_traits@_W@std@@V?$allocator@_W@2@@std@@AEAV12@@Z 000000018005cd7d     Pclass.obj
 0001:0005bd7d       $stateUnwindMap$?window_ex_style@@YA@PEAUHWND__@@@Z 000000018005cd7d     Pclass.obj
 0001:0005bd7d       $stateUnwindMap$?window_style@@YA@PEAUHWND__@@@Z 000000018005cd7d     Pclass.obj
 0001:0005bd84       $ip2state$?TranslateMode@@YA_NAEBV?$basic_string@_WU?$char_traits@_W@std@@V?$allocator@_W@2@@std@@AEAV12@@Z 000000018005cd84     Pclass.obj
 0001:0005bd90       $unwind$?generate_titles@@YAXAEBV?$basic_string@_WU?$char_traits@_W@std@@V?$allocator@_W@2@@std@@AEAUPanelMode@@@Z 000000018005cd90     Pclass.obj
 0001:0005bdb0       $cppxdata$?generate_titles@@YAXAEBV?$basic_string@_WU?$char_traits@_W@std@@V?$allocator@_W@2@@std@@AEAUPanelMode@@@Z 000000018005cdb0     Pclass.obj
 0001:0005bdb9       $stateUnwindMap$?generate_titles@@YAXAEBV?$basic_string@_WU?$char_traits@_W@std@@V?$allocator@_W@2@@std@@AEAUPanelMode@@@Z 000000018005cdb9     Pclass.obj
 0001:0005bdc0       $ip2state$?generate_titles@@YAXAEBV?$basic_string@_WU?$char_traits@_W@std@@V?$allocator@_W@2@@std@@AEAUPanelMode@@@Z 000000018005cdc0     Pclass.obj
 0001:0005bdc8       $unwind$?EnumWndProc@@YAHPEAUHWND__@@_J@Z 000000018005cdc8     Pclass.obj
 0001:0005bdd8       $unwind$??1?$_Hash@V?$_Umap_traits@KPEAUHWND__@@V?$_Uhash_compare@KU?$hash@K@std@@U?$equal_to@K@2@@std@@V?$allocator@U?$pair@$$CBKPEAUHWND__@@@std@@@3@$0A@@std@@@std@@QEAA@XZ 000000018005cdd8     Pclass.obj
 0001:0005bdd8       $unwind$??1?$list@U?$pair@$$CBKPEAUHWND__@@@std@@V?$allocator@U?$pair@$$CBKPEAUHWND__@@@std@@@2@@std@@QEAA@XZ 000000018005cdd8     Pclass.obj
 0001:0005bde0       $chain$0$??1?$list@U?$pair@$$CBKPEAUHWND__@@@std@@V?$allocator@U?$pair@$$CBKPEAUHWND__@@@std@@@2@@std@@QEAA@XZ 000000018005cde0     Pclass.obj
 0001:0005bdf4       $chain$1$??1?$list@U?$pair@$$CBKPEAUHWND__@@@std@@V?$allocator@U?$pair@$$CBKPEAUHWND__@@@std@@@2@@std@@QEAA@XZ 000000018005cdf4     Pclass.obj
 0001:0005be04       $unwind$?_Forced_rehash@?$_Hash@V?$_Umap_traits@KPEAUHWND__@@V?$_Uhash_compare@KU?$hash@K@std@@U?$equal_to@K@2@@std@@V?$allocator@U?$pair@$$CBKPEAUHWND__@@@std@@@3@$0A@@std@@@std@@IEAAX_K@Z 000000018005ce04     Pclass.obj
 0001:0005be10       $chain$1$?_Forced_rehash@?$_Hash@V?$_Umap_traits@KPEAUHWND__@@V?$_Uhash_compare@KU?$hash@K@std@@U?$equal_to@K@2@@std@@V?$allocator@U?$pair@$$CBKPEAUHWND__@@@std@@@3@$0A@@std@@@std@@IEAAX_K@Z 000000018005ce10     Pclass.obj
 0001:0005be28       $chain$2$?_Forced_rehash@?$_Hash@V?$_Umap_traits@KPEAUHWND__@@V?$_Uhash_compare@KU?$hash@K@std@@U?$equal_to@K@2@@std@@V?$allocator@U?$pair@$$CBKPEAUHWND__@@@std@@@3@$0A@@std@@@std@@IEAAX_K@Z 000000018005ce28     Pclass.obj
 0001:0005be3c       $chain$3$?_Forced_rehash@?$_Hash@V?$_Umap_traits@KPEAUHWND__@@V?$_Uhash_compare@KU?$hash@K@std@@U?$equal_to@K@2@@std@@V?$allocator@U?$pair@$$CBKPEAUHWND__@@@std@@@3@$0A@@std@@@std@@IEAAX_K@Z 000000018005ce3c     Pclass.obj
 0001:0005be4c       $chain$5$?_Forced_rehash@?$_Hash@V?$_Umap_traits@KPEAUHWND__@@V?$_Uhash_compare@KU?$hash@K@std@@U?$equal_to@K@2@@std@@V?$allocator@U?$pair@$$CBKPEAUHWND__@@@std@@@3@$0A@@std@@@std@@IEAAX_K@Z 000000018005ce4c     Pclass.obj
 0001:0005be68       $chain$6$?_Forced_rehash@?$_Hash@V?$_Umap_traits@KPEAUHWND__@@V?$_Uhash_compare@KU?$hash@K@std@@U?$equal_to@K@2@@std@@V?$allocator@U?$pair@$$CBKPEAUHWND__@@@std@@@3@$0A@@std@@@std@@IEAAX_K@Z 000000018005ce68     Pclass.obj
 0001:0005be78       $unwind$?_Assign_grow@?$_Hash_vec@V?$allocator@V?$_List_unchecked_iterator@V?$_List_val@U?$_List_simple_types@U?$pair@$$CBKPEAUHWND__@@@std@@@std@@@std@@@std@@@std@@@std@@QEAAX_KV?$_List_unchecked_iterator@V?$_List_val@U?$_List_simple_types@U?$pair@$$CBKPEAUHWND__@@@std@@@std@@@std@@@2@@Z 000000018005ce78     Pclass.obj
 0001:0005be84       $chain$1$?_Assign_grow@?$_Hash_vec@V?$allocator@V?$_List_unchecked_iterator@V?$_List_val@U?$_List_simple_types@U?$pair@$$CBKPEAUHWND__@@@std@@@std@@@std@@@std@@@std@@@std@@QEAAX_KV?$_List_unchecked_iterator@V?$_List_val@U?$_List_simple_types@U?$pair@$$CBKPEAUHWND__@@@std@@@std@@@std@@@2@@Z 000000018005ce84     Pclass.obj
 0001:0005be9c       $chain$2$?_Assign_grow@?$_Hash_vec@V?$allocator@V?$_List_unchecked_iterator@V?$_List_val@U?$_List_simple_types@U?$pair@$$CBKPEAUHWND__@@@std@@@std@@@std@@@std@@@std@@@std@@QEAAX_KV?$_List_unchecked_iterator@V?$_List_val@U?$_List_simple_types@U?$pair@$$CBKPEAUHWND__@@@std@@@std@@@std@@@2@@Z 000000018005ce9c     Pclass.obj
 0001:0005beac       $chain$3$?_Assign_grow@?$_Hash_vec@V?$allocator@V?$_List_unchecked_iterator@V?$_List_val@U?$_List_simple_types@U?$pair@$$CBKPEAUHWND__@@@std@@@std@@@std@@@std@@@std@@@std@@QEAAX_KV?$_List_unchecked_iterator@V?$_List_val@U?$_List_simple_types@U?$pair@$$CBKPEAUHWND__@@@std@@@std@@@std@@@2@@Z 000000018005ceac     Pclass.obj
 0001:0005bec4       $chain$0$??1?$_Hash@V?$_Umap_traits@KPEAUHWND__@@V?$_Uhash_compare@KU?$hash@K@std@@U?$equal_to@K@2@@std@@V?$allocator@U?$pair@$$CBKPEAUHWND__@@@std@@@3@$0A@@std@@@std@@QEAA@XZ 000000018005cec4     Pclass.obj
 0001:0005bed8       $chain$1$??1?$_Hash@V?$_Umap_traits@KPEAUHWND__@@V?$_Uhash_compare@KU?$hash@K@std@@U?$equal_to@K@2@@std@@V?$allocator@U?$pair@$$CBKPEAUHWND__@@@std@@@3@$0A@@std@@@std@@QEAA@XZ 000000018005ced8     Pclass.obj
 0001:0005bee8       $unwind$?_Reallocate_exactly@?$vector@V?$basic_string@_WU?$char_traits@_W@std@@V?$allocator@_W@2@@std@@V?$allocator@V?$basic_string@_WU?$char_traits@_W@std@@V?$allocator@_W@2@@std@@@2@@std@@AEAAX_K@Z 000000018005cee8     Pclass.obj
 0001:0005befc       $cppxdata$?_Reallocate_exactly@?$vector@V?$basic_string@_WU?$char_traits@_W@std@@V?$allocator@_W@2@@std@@V?$allocator@V?$basic_string@_WU?$char_traits@_W@std@@V?$allocator@_W@2@@std@@@2@@std@@AEAAX_K@Z 000000018005cefc     Pclass.obj
 0001:0005bf09       $stateUnwindMap$??$_Emplace_reallocate@AEB_K@?$vector@_KV?$allocator@_K@std@@@std@@QEAAPEA_KQEA_KAEB_K@Z 000000018005cf09     Pclass.obj
 0001:0005bf09       $stateUnwindMap$??$_Emplace_reallocate@UFarMenuItem@@@?$vector@UFarMenuItem@@V?$allocator@UFarMenuItem@@@std@@@std@@QEAAPEAUFarMenuItem@@QEAU2@$$QEAU2@@Z 000000018005cf09     Pclass.obj
 0001:0005bf09       $stateUnwindMap$??$_Emplace_reallocate@V?$basic_string@_WU?$char_traits@_W@std@@V?$allocator@_W@2@@std@@@?$vector@V?$basic_string@_WU?$char_traits@_W@std@@V?$allocator@_W@2@@std@@V?$allocator@V?$basic_string@_WU?$char_traits@_W@std@@V?$allocator@_W@2@@std@@@2@@std@@QEAAPEAV?$basic_string@_WU?$char_traits@_W@std@@V?$allocator@_W@2@@1@QEAV21@$$QEAV21@@Z 000000018005cf09     Pclass.obj
 0001:0005bf09       $stateUnwindMap$??$_Emplace_reallocate@_K@?$vector@_KV?$allocator@_K@std@@@std@@QEAAPEA_KQEA_K$$QEA_K@Z 000000018005cf09     Pclass.obj
 0001:0005bf09       $stateUnwindMap$??$_Resize_reallocate@U_Value_init_tag@std@@@?$vector@PEB_WV?$allocator@PEB_W@std@@@std@@AEAAX_KAEBU_Value_init_tag@1@@Z 000000018005cf09     Pclass.obj
 0001:0005bf09       $stateUnwindMap$?_Reallocate_exactly@?$vector@UFarMenuItem@@V?$allocator@UFarMenuItem@@@std@@@std@@AEAAX_K@Z 000000018005cf09     Pclass.obj
 0001:0005bf09       $stateUnwindMap$?_Reallocate_exactly@?$vector@V?$basic_string@_WU?$char_traits@_W@std@@V?$allocator@_W@2@@std@@V?$allocator@V?$basic_string@_WU?$char_traits@_W@std@@V?$allocator@_W@2@@std@@@2@@std@@AEAAX_K@Z 000000018005cf09     Pclass.obj
 0001:0005bf09       $stateUnwindMap$?_Reallocate_exactly@?$vector@_KV?$allocator@_K@std@@@std@@AEAAX_K@Z 000000018005cf09     Pclass.obj
 0001:0005bf09       $stateUnwindMap$??$_Resize_reallocate@U_Value_init_tag@std@@@?$vector@PEAUHINSTANCE__@@V?$allocator@PEAUHINSTANCE__@@@std@@@std@@AEAAX_KAEBU_Value_init_tag@1@@Z 000000018005cf09     Plist.obj
 0001:0005bf09       $stateUnwindMap$??$_Resize_reallocate@U_Value_init_tag@std@@@?$vector@EV?$allocator@E@std@@@std@@AEAAX_KAEBU_Value_init_tag@1@@Z 000000018005cf09     perfthread.obj
 0001:0005bf0c       $tryMap$?_Reallocate_exactly@?$vector@V?$basic_string@_WU?$char_traits@_W@std@@V?$allocator@_W@2@@std@@V?$allocator@V?$basic_string@_WU?$char_traits@_W@std@@V?$allocator@_W@2@@std@@@2@@std@@AEAAX_K@Z 000000018005cf0c     Pclass.obj
 0001:0005bf14       $handlerMap$?_Reallocate_exactly@?$vector@V?$basic_string@_WU?$char_traits@_W@std@@V?$allocator@_W@2@@std@@V?$allocator@V?$basic_string@_WU?$char_traits@_W@std@@V?$allocator@_W@2@@std@@@2@@std@@AEAAX_K@Z 000000018005cf14     Pclass.obj
 0001:0005bf1b       $ip2state$?_Reallocate_exactly@?$vector@V?$basic_string@_WU?$char_traits@_W@std@@V?$allocator@_W@2@@std@@V?$allocator@V?$basic_string@_WU?$char_traits@_W@std@@V?$allocator@_W@2@@std@@@2@@std@@AEAAX_K@Z 000000018005cf1b     Pclass.obj
 0001:0005bf20       $unwind$?catch$0@?0???$_Emplace_reallocate@AEB_K@?$vector@_KV?$allocator@_K@std@@@std@@QEAAPEA_KQEA_KAEB_K@Z@4HA 000000018005cf20     Pclass.obj
 0001:0005bf20       $unwind$?catch$0@?0???$_Emplace_reallocate@UFarMenuItem@@@?$vector@UFarMenuItem@@V?$allocator@UFarMenuItem@@@std@@@std@@QEAAPEAUFarMenuItem@@QEAU2@$$QEAU2@@Z@4HA 000000018005cf20     Pclass.obj
 0001:0005bf20       $unwind$?catch$0@?0???$_Emplace_reallocate@_K@?$vector@_KV?$allocator@_K@std@@@std@@QEAAPEA_KQEA_K$$QEA_K@Z@4HA 000000018005cf20     Pclass.obj
 0001:0005bf20       $unwind$?catch$0@?0???$_Resize_reallocate@U_Value_init_tag@std@@@?$vector@PEB_WV?$allocator@PEB_W@std@@@std@@AEAAX_KAEBU_Value_init_tag@1@@Z@4HA 000000018005cf20     Pclass.obj
 0001:0005bf20       $unwind$?catch$0@?0??_Reallocate_exactly@?$vector@UFarMenuItem@@V?$allocator@UFarMenuItem@@@std@@@std@@AEAAX_K@Z@4HA 000000018005cf20     Pclass.obj
 0001:0005bf20       $unwind$?catch$0@?0??_Reallocate_exactly@?$vector@_KV?$allocator@_K@std@@@std@@AEAAX_K@Z@4HA 000000018005cf20     Pclass.obj
 0001:0005bf20       $unwind$?catch$2@?0??_Reallocate_exactly@?$vector@V?$basic_string@_WU?$char_traits@_W@std@@V?$allocator@_W@2@@std@@V?$allocator@V?$basic_string@_WU?$char_traits@_W@std@@V?$allocator@_W@2@@std@@@2@@std@@AEAAX_K@Z@4HA 000000018005cf20     Pclass.obj
 0001:0005bf20       $unwind$?catch$0@?0???$_Resize_reallocate@U_Value_init_tag@std@@@?$vector@PEAUHINSTANCE__@@V?$allocator@PEAUHINSTANCE__@@@std@@@std@@AEAAX_KAEBU_Value_init_tag@1@@Z@4HA 000000018005cf20     Plist.obj
 0001:0005bf20       $unwind$?catch$0@?0???$_Resize_reallocate@U_Value_init_tag@std@@@?$vector@EV?$allocator@E@std@@@std@@AEAAX_KAEBU_Value_init_tag@1@@Z@4HA 000000018005cf20     perfthread.obj
 0001:0005bf28       $unwind$?_Destroy@?$vector@V?$basic_string@_WU?$char_traits@_W@std@@V?$allocator@_W@2@@std@@V?$allocator@V?$basic_string@_WU?$char_traits@_W@std@@V?$allocator@_W@2@@std@@@2@@std@@AEAAXPEAV?$basic_string@_WU?$char_traits@_W@std@@V?$allocator@_W@2@@2@0@Z 000000018005cf28     Pclass.obj
 0001:0005bf28       $unwind$??$free_environment@D@@YAXQEAPEAD@Z 000000018005cf28     libucrt:environment_initialization.obj
 0001:0005bf28       $unwind$??$free_environment@_W@@YAXQEAPEA_W@Z 000000018005cf28     libucrt:environment_initialization.obj
 0001:0005bf34       $unwind$?_Change_array@?$vector@V?$basic_string@_WU?$char_traits@_W@std@@V?$allocator@_W@2@@std@@V?$allocator@V?$basic_string@_WU?$char_traits@_W@std@@V?$allocator@_W@2@@std@@@2@@std@@AEAAXQEAV?$basic_string@_WU?$char_traits@_W@std@@V?$allocator@_W@2@@2@_K1@Z 000000018005cf34     Pclass.obj
 0001:0005bf48       $chain$0$?_Change_array@?$vector@V?$basic_string@_WU?$char_traits@_W@std@@V?$allocator@_W@2@@std@@V?$allocator@V?$basic_string@_WU?$char_traits@_W@std@@V?$allocator@_W@2@@std@@@2@@std@@AEAAXQEAV?$basic_string@_WU?$char_traits@_W@std@@V?$allocator@_W@2@@2@_K1@Z 000000018005cf48     Pclass.obj
 0001:0005bf5c       $chain$1$?_Change_array@?$vector@V?$basic_string@_WU?$char_traits@_W@std@@V?$allocator@_W@2@@std@@V?$allocator@V?$basic_string@_WU?$char_traits@_W@std@@V?$allocator@_W@2@@std@@@2@@std@@AEAAXQEAV?$basic_string@_WU?$char_traits@_W@std@@V?$allocator@_W@2@@2@_K1@Z 000000018005cf5c     Pclass.obj
 0001:0005bf6c       $chain$0$?_Tidy@?$vector@V?$basic_string@_WU?$char_traits@_W@std@@V?$allocator@_W@2@@std@@V?$allocator@V?$basic_string@_WU?$char_traits@_W@std@@V?$allocator@_W@2@@std@@@2@@std@@AEAAXXZ 000000018005cf6c     Pclass.obj
 0001:0005bf80       $chain$1$?_Tidy@?$vector@V?$basic_string@_WU?$char_traits@_W@std@@V?$allocator@_W@2@@std@@V?$allocator@V?$basic_string@_WU?$char_traits@_W@std@@V?$allocator@_W@2@@std@@@2@@std@@AEAAXXZ 000000018005cf80     Pclass.obj
 0001:0005bf90       $unwind$??$_Emplace_reallocate@V?$basic_string@_WU?$char_traits@_W@std@@V?$allocator@_W@2@@std@@@?$vector@V?$basic_string@_WU?$char_traits@_W@std@@V?$allocator@_W@2@@std@@V?$allocator@V?$basic_string@_WU?$char_traits@_W@std@@V?$allocator@_W@2@@std@@@2@@std@@QEAAPEAV?$basic_string@_WU?$char_traits@_W@std@@V?$allocator@_W@2@@1@QEAV21@$$QEAV21@@Z 000000018005cf90     Pclass.obj
 0001:0005bfac       $cppxdata$??$_Emplace_reallocate@V?$basic_string@_WU?$char_traits@_W@std@@V?$allocator@_W@2@@std@@@?$vector@V?$basic_string@_WU?$char_traits@_W@std@@V?$allocator@_W@2@@std@@V?$allocator@V?$basic_string@_WU?$char_traits@_W@std@@V?$allocator@_W@2@@std@@@2@@std@@QEAAPEAV?$basic_string@_WU?$char_traits@_W@std@@V?$allocator@_W@2@@1@QEAV21@$$QEAV21@@Z 000000018005cfac     Pclass.obj
 0001:0005bfb9       $tryMap$??$_Emplace_reallocate@V?$basic_string@_WU?$char_traits@_W@std@@V?$allocator@_W@2@@std@@@?$vector@V?$basic_string@_WU?$char_traits@_W@std@@V?$allocator@_W@2@@std@@V?$allocator@V?$basic_string@_WU?$char_traits@_W@std@@V?$allocator@_W@2@@std@@@2@@std@@QEAAPEAV?$basic_string@_WU?$char_traits@_W@std@@V?$allocator@_W@2@@1@QEAV21@$$QEAV21@@Z 000000018005cfb9     Pclass.obj
 0001:0005bfc1       $handlerMap$??$_Emplace_reallocate@V?$basic_string@_WU?$char_traits@_W@std@@V?$allocator@_W@2@@std@@@?$vector@V?$basic_string@_WU?$char_traits@_W@std@@V?$allocator@_W@2@@std@@V?$allocator@V?$basic_string@_WU?$char_traits@_W@std@@V?$allocator@_W@2@@std@@@2@@std@@QEAAPEAV?$basic_string@_WU?$char_traits@_W@std@@V?$allocator@_W@2@@1@QEAV21@$$QEAV21@@Z 000000018005cfc1     Pclass.obj
 0001:0005bfc8       $ip2state$??$_Emplace_reallocate@AEB_K@?$vector@_KV?$allocator@_K@std@@@std@@QEAAPEA_KQEA_KAEB_K@Z 000000018005cfc8     Pclass.obj
 0001:0005bfc8       $ip2state$??$_Emplace_reallocate@V?$basic_string@_WU?$char_traits@_W@std@@V?$allocator@_W@2@@std@@@?$vector@V?$basic_string@_WU?$char_traits@_W@std@@V?$allocator@_W@2@@std@@V?$allocator@V?$basic_string@_WU?$char_traits@_W@std@@V?$allocator@_W@2@@std@@@2@@std@@QEAAPEAV?$basic_string@_WU?$char_traits@_W@std@@V?$allocator@_W@2@@1@QEAV21@$$QEAV21@@Z 000000018005cfc8     Pclass.obj
 0001:0005bfc8       $ip2state$??$_Emplace_reallocate@_K@?$vector@_KV?$allocator@_K@std@@@std@@QEAAPEA_KQEA_K$$QEA_K@Z 000000018005cfc8     Pclass.obj
 0001:0005bfcc       $unwind$?catch$7@?0???$_Emplace_reallocate@V?$basic_string@_WU?$char_traits@_W@std@@V?$allocator@_W@2@@std@@@?$vector@V?$basic_string@_WU?$char_traits@_W@std@@V?$allocator@_W@2@@std@@V?$allocator@V?$basic_string@_WU?$char_traits@_W@std@@V?$allocator@_W@2@@std@@@2@@std@@QEAAPEAV?$basic_string@_WU?$char_traits@_W@std@@V?$allocator@_W@2@@1@QEAV21@$$QEAV21@@Z@4HA 000000018005cfcc     Pclass.obj
 0001:0005bfd8       $unwind$?window_style@@YA@PEAUHWND__@@@Z 000000018005cfd8     Pclass.obj
 0001:0005bffc       $cppxdata$?window_style@@YA@PEAUHWND__@@@Z 000000018005cffc     Pclass.obj
 0001:0005c005       $ip2state$?window_style@@YA@PEAUHWND__@@@Z 000000018005d005     Pclass.obj
 0001:0005c010       $unwind$?window_ex_style@@YA@PEAUHWND__@@@Z 000000018005d010     Pclass.obj
 0001:0005c034       $cppxdata$?window_ex_style@@YA@PEAUHWND__@@@Z 000000018005d034     Pclass.obj
 0001:0005c03d       $ip2state$?window_ex_style@@YA@PEAUHWND__@@@Z 000000018005d03d     Pclass.obj
 0001:0005c048       $unwind$?DumpNTCounters@@YAXPEAXAEAVPerfThread@@KK@Z 000000018005d048     Pclass.obj
 0001:0005c070       $cppxdata$?DumpNTCounters@@YAXPEAXAEAVPerfThread@@KK@Z 000000018005d070     Pclass.obj
 0001:0005c079       $stateUnwindMap$?DumpNTCounters@@YAXPEAXAEAVPerfThread@@KK@Z 000000018005d079     Pclass.obj
 0001:0005c0a1       $ip2state$?DumpNTCounters@@YAXPEAXAEAVPerfThread@@KK@Z 000000018005d0a1     Pclass.obj
 0001:0005c0c0       $unwind$?_Reallocate_exactly@?$vector@UFarMenuItem@@V?$allocator@UFarMenuItem@@@std@@@std@@AEAAX_K@Z 000000018005d0c0     Pclass.obj
 0001:0005c0d8       $cppxdata$?_Reallocate_exactly@?$vector@UFarMenuItem@@V?$allocator@UFarMenuItem@@@std@@@std@@AEAAX_K@Z 000000018005d0d8     Pclass.obj
 0001:0005c0e5       $tryMap$?_Reallocate_exactly@?$vector@UFarMenuItem@@V?$allocator@UFarMenuItem@@@std@@@std@@AEAAX_K@Z 000000018005d0e5     Pclass.obj
 0001:0005c0ed       $handlerMap$?_Reallocate_exactly@?$vector@UFarMenuItem@@V?$allocator@UFarMenuItem@@@std@@@std@@AEAAX_K@Z 000000018005d0ed     Pclass.obj
 0001:0005c0f4       $ip2state$?_Reallocate_exactly@?$vector@UFarMenuItem@@V?$allocator@UFarMenuItem@@@std@@@std@@AEAAX_K@Z 000000018005d0f4     Pclass.obj
 0001:0005c0f8       $unwind$?_Reallocate_exactly@?$vector@_KV?$allocator@_K@std@@@std@@AEAAX_K@Z 000000018005d0f8     Pclass.obj
 0001:0005c110       $cppxdata$?_Reallocate_exactly@?$vector@_KV?$allocator@_K@std@@@std@@AEAAX_K@Z 000000018005d110     Pclass.obj
 0001:0005c11d       $tryMap$?_Reallocate_exactly@?$vector@_KV?$allocator@_K@std@@@std@@AEAAX_K@Z 000000018005d11d     Pclass.obj
 0001:0005c125       $handlerMap$?_Reallocate_exactly@?$vector@_KV?$allocator@_K@std@@@std@@AEAAX_K@Z 000000018005d125     Pclass.obj
 0001:0005c12c       $ip2state$?_Reallocate_exactly@?$vector@_KV?$allocator@_K@std@@@std@@AEAAX_K@Z 000000018005d12c     Pclass.obj
 0001:0005c130       $unwind$??$_Emplace_reallocate@AEB_K@?$vector@_KV?$allocator@_K@std@@@std@@QEAAPEA_KQEA_KAEB_K@Z 000000018005d130     Pclass.obj
 0001:0005c130       $unwind$??$_Emplace_reallocate@_K@?$vector@_KV?$allocator@_K@std@@@std@@QEAAPEA_KQEA_K$$QEA_K@Z 000000018005d130     Pclass.obj
 0001:0005c14c       $cppxdata$??$_Emplace_reallocate@AEB_K@?$vector@_KV?$allocator@_K@std@@@std@@QEAAPEA_KQEA_KAEB_K@Z 000000018005d14c     Pclass.obj
 0001:0005c14c       $cppxdata$??$_Emplace_reallocate@_K@?$vector@_KV?$allocator@_K@std@@@std@@QEAAPEA_KQEA_K$$QEA_K@Z 000000018005d14c     Pclass.obj
 0001:0005c159       $tryMap$??$_Emplace_reallocate@AEB_K@?$vector@_KV?$allocator@_K@std@@@std@@QEAAPEA_KQEA_KAEB_K@Z 000000018005d159     Pclass.obj
 0001:0005c159       $tryMap$??$_Emplace_reallocate@_K@?$vector@_KV?$allocator@_K@std@@@std@@QEAAPEA_KQEA_K$$QEA_K@Z 000000018005d159     Pclass.obj
 0001:0005c161       $handlerMap$??$_Emplace_reallocate@AEB_K@?$vector@_KV?$allocator@_K@std@@@std@@QEAAPEA_KQEA_KAEB_K@Z 000000018005d161     Pclass.obj
 0001:0005c161       $handlerMap$??$_Emplace_reallocate@_K@?$vector@_KV?$allocator@_K@std@@@std@@QEAAPEA_KQEA_K$$QEA_K@Z 000000018005d161     Pclass.obj
 0001:0005c168       $unwind$??$_Emplace_reallocate@UFarMenuItem@@@?$vector@UFarMenuItem@@V?$allocator@UFarMenuItem@@@std@@@std@@QEAAPEAUFarMenuItem@@QEAU2@$$QEAU2@@Z 000000018005d168     Pclass.obj
 0001:0005c184       $cppxdata$??$_Emplace_reallocate@UFarMenuItem@@@?$vector@UFarMenuItem@@V?$allocator@UFarMenuItem@@@std@@@std@@QEAAPEAUFarMenuItem@@QEAU2@$$QEAU2@@Z 000000018005d184     Pclass.obj
 0001:0005c191       $tryMap$??$_Emplace_reallocate@UFarMenuItem@@@?$vector@UFarMenuItem@@V?$allocator@UFarMenuItem@@@std@@@std@@QEAAPEAUFarMenuItem@@QEAU2@$$QEAU2@@Z 000000018005d191     Pclass.obj
 0001:0005c199       $handlerMap$??$_Emplace_reallocate@UFarMenuItem@@@?$vector@UFarMenuItem@@V?$allocator@UFarMenuItem@@@std@@@std@@QEAAPEAUFarMenuItem@@QEAU2@$$QEAU2@@Z 000000018005d199     Pclass.obj
 0001:0005c1a0       $ip2state$??$_Emplace_reallocate@UFarMenuItem@@@?$vector@UFarMenuItem@@V?$allocator@UFarMenuItem@@@std@@@std@@QEAAPEAUFarMenuItem@@QEAU2@$$QEAU2@@Z 000000018005d1a0     Pclass.obj
 0001:0005c1a4       $unwind$??$_Try_emplace@AEBK$$V@?$_Hash@V?$_Umap_traits@KPEAUHWND__@@V?$_Uhash_compare@KU?$hash@K@std@@U?$equal_to@K@2@@std@@V?$allocator@U?$pair@$$CBKPEAUHWND__@@@std@@@3@$0A@@std@@@std@@IEAA?AU?$pair@PEAU?$_List_node@U?$pair@$$CBKPEAUHWND__@@@std@@PEAX@std@@_N@1@AEBK@Z 000000018005d1a4     Pclass.obj
 0001:0005c1c8       $cppxdata$??$_Try_emplace@AEBK$$V@?$_Hash@V?$_Umap_traits@KPEAUHWND__@@V?$_Uhash_compare@KU?$hash@K@std@@U?$equal_to@K@2@@std@@V?$allocator@U?$pair@$$CBKPEAUHWND__@@@std@@@3@$0A@@std@@@std@@IEAA?AU?$pair@PEAU?$_List_node@U?$pair@$$CBKPEAUHWND__@@@std@@PEAX@std@@_N@1@AEBK@Z 000000018005d1c8     Pclass.obj
 0001:0005c1d1       $stateUnwindMap$??$_Try_emplace@AEBK$$V@?$_Hash@V?$_Umap_traits@KPEAUHWND__@@V?$_Uhash_compare@KU?$hash@K@std@@U?$equal_to@K@2@@std@@V?$allocator@U?$pair@$$CBKPEAUHWND__@@@std@@@3@$0A@@std@@@std@@IEAA?AU?$pair@PEAU?$_List_node@U?$pair@$$CBKPEAUHWND__@@@std@@PEAX@std@@_N@1@AEBK@Z 000000018005d1d1     Pclass.obj
 0001:0005c1de       $ip2state$??$_Try_emplace@AEBK$$V@?$_Hash@V?$_Umap_traits@KPEAUHWND__@@V?$_Uhash_compare@KU?$hash@K@std@@U?$equal_to@K@2@@std@@V?$allocator@U?$pair@$$CBKPEAUHWND__@@@std@@@3@$0A@@std@@@std@@IEAA?AU?$pair@PEAU?$_List_node@U?$pair@$$CBKPEAUHWND__@@@std@@PEAX@std@@_N@1@AEBK@Z 000000018005d1de     Pclass.obj
 0001:0005c1e8       $unwind$??$_Assign_range@PEBUmode@@@?$vector@Umode@@V?$allocator@Umode@@@std@@@std@@AEAAXPEBUmode@@0Uforward_iterator_tag@1@@Z 000000018005d1e8     Pclass.obj
 0001:0005c204       $cppxdata$??$_Assign_range@PEBUmode@@@?$vector@Umode@@V?$allocator@Umode@@@std@@@std@@AEAAXPEBUmode@@0Uforward_iterator_tag@1@@Z 000000018005d204     Pclass.obj
 0001:0005c20d       $stateUnwindMap$??$_Assign_range@PEBUmode@@@?$vector@Umode@@V?$allocator@Umode@@@std@@@std@@AEAAXPEBUmode@@0Uforward_iterator_tag@1@@Z 000000018005d20d     Pclass.obj
 0001:0005c230       $ip2state$??$_Assign_range@PEBUmode@@@?$vector@Umode@@V?$allocator@Umode@@@std@@@std@@AEAAXPEBUmode@@0Uforward_iterator_tag@1@@Z 000000018005d230     Pclass.obj
 0001:0005c244       $unwind$??$_Reallocate_grow_by@V<lambda_51c4cb9729979bd953fe6d1bff5c73b0>@@_K_K_W@?$basic_string@_WU?$char_traits@_W@std@@V?$allocator@_W@2@@std@@AEAAAEAV01@_KV<lambda_51c4cb9729979bd953fe6d1bff5c73b0>@@_K2_W@Z 000000018005d244     Pclass.obj
 0001:0005c254       $chain$3$??$_Reallocate_grow_by@V<lambda_51c4cb9729979bd953fe6d1bff5c73b0>@@_K_K_W@?$basic_string@_WU?$char_traits@_W@std@@V?$allocator@_W@2@@std@@AEAAAEAV01@_KV<lambda_51c4cb9729979bd953fe6d1bff5c73b0>@@_K2_W@Z 000000018005d254     Pclass.obj
 0001:0005c274       $chain$5$??$_Reallocate_grow_by@V<lambda_51c4cb9729979bd953fe6d1bff5c73b0>@@_K_K_W@?$basic_string@_WU?$char_traits@_W@std@@V?$allocator@_W@2@@std@@AEAAAEAV01@_KV<lambda_51c4cb9729979bd953fe6d1bff5c73b0>@@_K2_W@Z 000000018005d274     Pclass.obj
 0001:0005c294       $chain$6$??$_Reallocate_grow_by@V<lambda_51c4cb9729979bd953fe6d1bff5c73b0>@@_K_K_W@?$basic_string@_WU?$char_traits@_W@std@@V?$allocator@_W@2@@std@@AEAAAEAV01@_KV<lambda_51c4cb9729979bd953fe6d1bff5c73b0>@@_K2_W@Z 000000018005d294     Pclass.obj
 0001:0005c2a4       $unwind$??$_Reallocate_grow_by@V<lambda_967c2ed818824c5314a20ec3af46b793>@@_KPEB_W_K@?$basic_string@_WU?$char_traits@_W@std@@V?$allocator@_W@2@@std@@AEAAAEAV01@_KV<lambda_967c2ed818824c5314a20ec3af46b793>@@_KPEB_W2@Z 000000018005d2a4     Pclass.obj
 0001:0005c2b4       $chain$3$??$_Reallocate_grow_by@V<lambda_967c2ed818824c5314a20ec3af46b793>@@_KPEB_W_K@?$basic_string@_WU?$char_traits@_W@std@@V?$allocator@_W@2@@std@@AEAAAEAV01@_KV<lambda_967c2ed818824c5314a20ec3af46b793>@@_KPEB_W2@Z 000000018005d2b4     Pclass.obj
 0001:0005c2d4       $chain$5$??$_Reallocate_grow_by@V<lambda_967c2ed818824c5314a20ec3af46b793>@@_KPEB_W_K@?$basic_string@_WU?$char_traits@_W@std@@V?$allocator@_W@2@@std@@AEAAAEAV01@_KV<lambda_967c2ed818824c5314a20ec3af46b793>@@_KPEB_W2@Z 000000018005d2d4     Pclass.obj
 0001:0005c2f4       $chain$6$??$_Reallocate_grow_by@V<lambda_967c2ed818824c5314a20ec3af46b793>@@_KPEB_W_K@?$basic_string@_WU?$char_traits@_W@std@@V?$allocator@_W@2@@std@@AEAAAEAV01@_KV<lambda_967c2ed818824c5314a20ec3af46b793>@@_KPEB_W2@Z 000000018005d2f4     Pclass.obj
 0001:0005c304       $unwind$??$fill@PEAV?$_List_unchecked_iterator@V?$_List_val@U?$_List_simple_types@U?$pair@$$CBKPEAUHWND__@@@std@@@std@@@std@@@std@@V12@@std@@YAXQEAV?$_List_unchecked_iterator@V?$_List_val@U?$_List_simple_types@U?$pair@$$CBKPEAUHWND__@@@std@@@std@@@std@@@0@0AEBV10@@Z 000000018005d304     Pclass.obj
 0001:0005c30c       $chain$0$??$fill@PEAV?$_List_unchecked_iterator@V?$_List_val@U?$_List_simple_types@U?$pair@$$CBKPEAUHWND__@@@std@@@std@@@std@@@std@@V12@@std@@YAXQEAV?$_List_unchecked_iterator@V?$_List_val@U?$_List_simple_types@U?$pair@$$CBKPEAUHWND__@@@std@@@std@@@std@@@0@0AEBV10@@Z 000000018005d30c     Pclass.obj
 0001:0005c320       $chain$1$??$fill@PEAV?$_List_unchecked_iterator@V?$_List_val@U?$_List_simple_types@U?$pair@$$CBKPEAUHWND__@@@std@@@std@@@std@@@std@@V12@@std@@YAXQEAV?$_List_unchecked_iterator@V?$_List_val@U?$_List_simple_types@U?$pair@$$CBKPEAUHWND__@@@std@@@std@@@std@@@0@0AEBV10@@Z 000000018005d320     Pclass.obj
 0001:0005c330       $unwind$??$_Resize_reallocate@U_Value_init_tag@std@@@?$vector@PEB_WV?$allocator@PEB_W@std@@@std@@AEAAX_KAEBU_Value_init_tag@1@@Z 000000018005d330     Pclass.obj
 0001:0005c348       $cppxdata$??$_Resize_reallocate@U_Value_init_tag@std@@@?$vector@PEB_WV?$allocator@PEB_W@std@@@std@@AEAAX_KAEBU_Value_init_tag@1@@Z 000000018005d348     Pclass.obj
 0001:0005c355       $tryMap$??$_Resize_reallocate@U_Value_init_tag@std@@@?$vector@PEB_WV?$allocator@PEB_W@std@@@std@@AEAAX_KAEBU_Value_init_tag@1@@Z 000000018005d355     Pclass.obj
 0001:0005c35d       $handlerMap$??$_Resize_reallocate@U_Value_init_tag@std@@@?$vector@PEB_WV?$allocator@PEB_W@std@@@std@@AEAAX_KAEBU_Value_init_tag@1@@Z 000000018005d35d     Pclass.obj
 0001:0005c364       $ip2state$??$_Resize_reallocate@U_Value_init_tag@std@@@?$vector@PEB_WV?$allocator@PEB_W@std@@@std@@AEAAX_KAEBU_Value_init_tag@1@@Z 000000018005d364     Pclass.obj
 0001:0005c370       $unwind$??0PerfThread@@QEAA@PEB_W00@Z 000000018005d370     perfthread.obj
 0001:0005c394       $cppxdata$??0PerfThread@@QEAA@PEB_W00@Z 000000018005d394     perfthread.obj
 0001:0005c39d       $stateUnwindMap$??0PerfThread@@QEAA@PEB_W00@Z 000000018005d39d     perfthread.obj
 0001:0005c3e2       $ip2state$??0PerfThread@@QEAA@PEB_W00@Z 000000018005d3e2     perfthread.obj
 0001:0005c3f4       $unwind$?GetProcessData@PerfThread@@QEAAPEAUProcessPerfData@@KK@Z 000000018005d3f4     perfthread.obj
 0001:0005c400       $chain$0$?GetProcessData@PerfThread@@QEAAPEAUProcessPerfData@@KK@Z 000000018005d400     perfthread.obj
 0001:0005c414       $chain$1$?GetProcessData@PerfThread@@QEAAPEAUProcessPerfData@@KK@Z 000000018005d414     perfthread.obj
 0001:0005c424       $unwind$?ThreadProc@PerfThread@@CAKPEAX@Z 000000018005d424     perfthread.obj
 0001:0005c424       $unwind$parse_bcp47_language 000000018005d424     libucrt:wsetlocale.obj
 0001:0005c424       $unwind$parse_bcp47_script 000000018005d424     libucrt:wsetlocale.obj
 0001:0005c430       $unwind$?Refresh@PerfThread@@AEAAXXZ 000000018005d430     perfthread.obj
 0001:0005c450       $cppxdata$?Refresh@PerfThread@@AEAAXXZ 000000018005d450     perfthread.obj
 0001:0005c459       $stateUnwindMap$?Refresh@PerfThread@@AEAAXXZ 000000018005d459     perfthread.obj
 0001:0005c47a       $ip2state$?Refresh@PerfThread@@AEAAXXZ 000000018005d47a     perfthread.obj
 0001:0005c494       $unwind$?RefreshWMIData@PerfThread@@AEAAXXZ 000000018005d494     perfthread.obj
 0001:0005c4b8       $cppxdata$?RefreshWMIData@PerfThread@@AEAAXXZ 000000018005d4b8     perfthread.obj
 0001:0005c4c1       $stateUnwindMap$?RefreshWMIData@PerfThread@@AEAAXXZ 000000018005d4c1     perfthread.obj
 0001:0005c4c8       $ip2state$?RefreshWMIData@PerfThread@@AEAAXXZ 000000018005d4c8     perfthread.obj
 0001:0005c4d0       $chain$0$?_Tidy@?$vector@UProcessPerfData@@V?$allocator@UProcessPerfData@@@std@@@std@@AEAAXXZ 000000018005d4d0     perfthread.obj
 0001:0005c4e4       $chain$1$?_Tidy@?$vector@UProcessPerfData@@V?$allocator@UProcessPerfData@@@std@@@std@@AEAAXXZ 000000018005d4e4     perfthread.obj
 0001:0005c4f4       $unwind$??$_Construct_n_copies_of_ty@U_Value_init_tag@std@@@?$vector@UProcessPerfData@@V?$allocator@UProcessPerfData@@@std@@@std@@AEAAX_KAEBU_Value_init_tag@1@@Z 000000018005d4f4     perfthread.obj
 0001:0005c500       $chain$2$??$_Construct_n_copies_of_ty@U_Value_init_tag@std@@@?$vector@UProcessPerfData@@V?$allocator@UProcessPerfData@@@std@@@std@@AEAAX_KAEBU_Value_init_tag@1@@Z 000000018005d500     perfthread.obj
 0001:0005c51c       $chain$3$??$_Construct_n_copies_of_ty@U_Value_init_tag@std@@@?$vector@UProcessPerfData@@V?$allocator@UProcessPerfData@@@std@@@std@@AEAAX_KAEBU_Value_init_tag@1@@Z 000000018005d51c     perfthread.obj
 0001:0005c530       $chain$4$??$_Construct_n_copies_of_ty@U_Value_init_tag@std@@@?$vector@UProcessPerfData@@V?$allocator@UProcessPerfData@@@std@@@std@@AEAAX_KAEBU_Value_init_tag@1@@Z 000000018005d530     perfthread.obj
 0001:0005c530       $chain$6$??$_Construct_n_copies_of_ty@U_Value_init_tag@std@@@?$vector@UProcessPerfData@@V?$allocator@UProcessPerfData@@@std@@@std@@AEAAX_KAEBU_Value_init_tag@1@@Z 000000018005d530     perfthread.obj
 0001:0005c54c       $chain$5$??$_Construct_n_copies_of_ty@U_Value_init_tag@std@@@?$vector@UProcessPerfData@@V?$allocator@UProcessPerfData@@@std@@@std@@AEAAX_KAEBU_Value_init_tag@1@@Z 000000018005d54c     perfthread.obj
 0001:0005c55c       $unwind$??$_Resize_reallocate@U_Value_init_tag@std@@@?$vector@EV?$allocator@E@std@@@std@@AEAAX_KAEBU_Value_init_tag@1@@Z 000000018005d55c     perfthread.obj
 0001:0005c574       $cppxdata$??$_Resize_reallocate@U_Value_init_tag@std@@@?$vector@EV?$allocator@E@std@@@std@@AEAAX_KAEBU_Value_init_tag@1@@Z 000000018005d574     perfthread.obj
 0001:0005c581       $tryMap$??$_Resize_reallocate@U_Value_init_tag@std@@@?$vector@EV?$allocator@E@std@@@std@@AEAAX_KAEBU_Value_init_tag@1@@Z 000000018005d581     perfthread.obj
 0001:0005c589       $handlerMap$??$_Resize_reallocate@U_Value_init_tag@std@@@?$vector@EV?$allocator@E@std@@@std@@AEAAX_KAEBU_Value_init_tag@1@@Z 000000018005d589     perfthread.obj
 0001:0005c590       $ip2state$??$_Resize_reallocate@U_Value_init_tag@std@@@?$vector@EV?$allocator@E@std@@@std@@AEAAX_KAEBU_Value_init_tag@1@@Z 000000018005d590     perfthread.obj
 0001:0005c598       $unwind$?GetList@@YA_NAEAPEAUPluginPanelItem@@AEA_KAEAVPerfThread@@@Z 000000018005d598     Plist.obj
 0001:0005c5b8       $cppxdata$?GetList@@YA_NAEAPEAUPluginPanelItem@@AEA_KAEAVPerfThread@@@Z 000000018005d5b8     Plist.obj
 0001:0005c5c1       $stateUnwindMap$?GetList@@YA_NAEAPEAUPluginPanelItem@@AEA_KAEAVPerfThread@@@Z 000000018005d5c1     Plist.obj
 0001:0005c5c8       $ip2state$?GetList@@YA_NAEAPEAUPluginPanelItem@@AEA_KAEAVPerfThread@@@Z 000000018005d5c8     Plist.obj
 0001:0005c5d0       $unwind$?KillProcess@@YA_NKPEAUHWND__@@@Z 000000018005d5d0     Plist.obj
 0001:0005c5ec       $cppxdata$?KillProcess@@YA_NKPEAUHWND__@@@Z 000000018005d5ec     Plist.obj
 0001:0005c5f5       $stateUnwindMap$?KillProcess@@YA_NKPEAUHWND__@@@Z 000000018005d5f5     Plist.obj
 0001:0005c603       $ip2state$?KillProcess@@YA_NKPEAUHWND__@@@Z 000000018005d603     Plist.obj
 0001:0005c60c       $chain$1$?CreateToken@DebugToken@@SA_NXZ 000000018005d60c     Plist.obj
 0001:0005c624       $chain$2$?CreateToken@DebugToken@@SA_NXZ 000000018005d624     Plist.obj
 0001:0005c638       $unwind$?PrintNTCurDirAndEnv@@YAXPEAX0H@Z 000000018005d638     Plist.obj
 0001:0005c660       $cppxdata$?PrintNTCurDirAndEnv@@YAXPEAX0H@Z 000000018005d660     Plist.obj
 0001:0005c669       $stateUnwindMap$?PrintNTCurDirAndEnv@@YAXPEAX0H@Z 000000018005d669     Plist.obj
 0001:0005c685       $ip2state$?PrintNTCurDirAndEnv@@YAXPEAX0H@Z 000000018005d685     Plist.obj
 0001:0005c698       $unwind$?PrintModules@@YAXPEAXKAEAUoptions@@@Z 000000018005d698     Plist.obj
 0001:0005c6c4       $cppxdata$?PrintModules@@YAXPEAXKAEAUoptions@@@Z 000000018005d6c4     Plist.obj
 0001:0005c6cd       $stateUnwindMap$?PrintModules@@YAXPEAXKAEAUoptions@@@Z 000000018005d6cd     Plist.obj
 0001:0005c6e7       $ip2state$?PrintModules@@YAXPEAXKAEAUoptions@@@Z 000000018005d6e7     Plist.obj
 0001:0005c6fc       $unwind$?GetPData@@YA_NAEAUProcessData@@AEBUProcessPerfData@@@Z 000000018005d6fc     Plist.obj
 0001:0005c710       $chain$1$?GetPData@@YA_NAEAUProcessData@@AEBUProcessPerfData@@@Z 000000018005d710     Plist.obj
 0001:0005c728       $chain$3$?GetPData@@YA_NAEAUProcessData@@AEBUProcessPerfData@@@Z 000000018005d728     Plist.obj
 0001:0005c740       $chain$4$?GetPData@@YA_NAEAUProcessData@@AEBUProcessPerfData@@@Z 000000018005d740     Plist.obj
 0001:0005c750       $unwind$??0?$vector@UProcessPerfData@@V?$allocator@UProcessPerfData@@@std@@@std@@QEAA@AEBV01@@Z 000000018005d750     Plist.obj
 0001:0005c76c       $cppxdata$??0?$vector@UProcessPerfData@@V?$allocator@UProcessPerfData@@@std@@@std@@QEAA@AEBV01@@Z 000000018005d76c     Plist.obj
 0001:0005c775       $stateUnwindMap$??0?$vector@UProcessPerfData@@V?$allocator@UProcessPerfData@@@std@@@std@@QEAA@AEBV01@@Z 000000018005d775     Plist.obj
 0001:0005c791       $ip2state$??0?$vector@UProcessPerfData@@V?$allocator@UProcessPerfData@@@std@@@std@@QEAA@AEBV01@@Z 000000018005d791     Plist.obj
 0001:0005c7a4       $unwind$?FreeUserData@@YAXQEAXQEBUFarPanelItemFreeInfo@@@Z 000000018005d7a4     Plist.obj
 0001:0005c7a4       $unwind$_free_base         000000018005d7a4     libucrt:free_base.obj
 0001:0005c7a4       $unwind$?destroy_fls@@YAXPEAX@Z 000000018005d7a4     libucrt:per_thread_data.obj
 0001:0005c7a4       $unwind$__acrt_locale_free_numeric 000000018005d7a4     libucrt:initnum.obj
 0001:0005c7a4       $unwind$__acrt_locale_free_lc_time_if_unreferenced 000000018005d7a4     libucrt:locale_refcounting.obj
 0001:0005c7ac       $unwind$?read_string@?$ipc_functions@$0A@@@SA?AV?$basic_string@_WU?$char_traits@_W@std@@V?$allocator@_W@2@@std@@PEAXAEBUUNICODE_STRING_SAME@detail@@@Z 000000018005d7ac     Plist.obj
 0001:0005c7c0       $unwind$?GetOpenProcessData@?$ipc_functions@$0A@@@SAXPEAXPEAV?$basic_string@_WU?$char_traits@_W@std@@V?$allocator@_W@2@@std@@1111@Z 000000018005d7c0     Plist.obj
 0001:0005c7dc       $chain$0$?GetOpenProcessData@?$ipc_functions@$0A@@@SAXPEAXPEAV?$basic_string@_WU?$char_traits@_W@std@@V?$allocator@_W@2@@std@@1111@Z 000000018005d7dc     Plist.obj
 0001:0005c7f0       $chain$1$?GetOpenProcessData@?$ipc_functions@$0A@@@SAXPEAXPEAV?$basic_string@_WU?$char_traits@_W@std@@V?$allocator@_W@2@@std@@1111@Z 000000018005d7f0     Plist.obj
 0001:0005c800       $chain$2$?GetOpenProcessData@?$ipc_functions@$0A@@@SAXPEAXPEAV?$basic_string@_WU?$char_traits@_W@std@@V?$allocator@_W@2@@std@@1111@Z 000000018005d800     Plist.obj
 0001:0005c814       $unwind$?print_module_impl@@YAXQEAXAEBV?$basic_string@_WU?$char_traits@_W@std@@V?$allocator@_W@2@@std@@KAEBUoptions@@AEBV?$function@$$A6A_NPEA_W_K@Z@2@@Z 000000018005d814     Plist.obj
 0001:0005c834       $cppxdata$?print_module_impl@@YAXQEAXAEBV?$basic_string@_WU?$char_traits@_W@std@@V?$allocator@_W@2@@std@@KAEBUoptions@@AEBV?$function@$$A6A_NPEA_W_K@Z@2@@Z 000000018005d834     Plist.obj
 0001:0005c83d       $stateUnwindMap$?print_module_impl@@YAXQEAXAEBV?$basic_string@_WU?$char_traits@_W@std@@V?$allocator@_W@2@@std@@KAEBUoptions@@AEBV?$function@$$A6A_NPEA_W_K@Z@2@@Z 000000018005d83d     Plist.obj
 0001:0005c851       $ip2state$?print_module_impl@@YAXQEAXAEBV?$basic_string@_WU?$char_traits@_W@std@@V?$allocator@_W@2@@std@@KAEBUoptions@@AEBV?$function@$$A6A_NPEA_W_K@Z@2@@Z 000000018005d851     Plist.obj
 0001:0005c864       $unwind$??R<lambda_fbad59960194a21b5f35257a64aadaa4>@@QEBAXXZ 000000018005d864     Plist.obj
 0001:0005c864       $unwind$ProcessCodePage    000000018005d864     libucrt:get_qualified_locale.obj
 0001:0005c864       $unwind$ProcessCodePage    000000018005d864     libucrt:getqloc_downlevel.obj
 0001:0005c864       $unwind$TestDefaultLanguage 000000018005d864     libucrt:getqloc_downlevel.obj
 0001:0005c874       $unwind$??$print_module@PEAX@@YAXQEAXPEAXKAEAUoptions@@AEBV?$function@$$A6A_NPEA_W_K@Z@std@@@Z 000000018005d874     Plist.obj
 0001:0005c894       $cppxdata$??$print_module@PEAX@@YAXQEAXPEAXKAEAUoptions@@AEBV?$function@$$A6A_NPEA_W_K@Z@std@@@Z 000000018005d894     Plist.obj
 0001:0005c89d       $stateUnwindMap$??$print_module@PEAX@@YAXQEAXPEAXKAEAUoptions@@AEBV?$function@$$A6A_NPEA_W_K@Z@std@@@Z 000000018005d89d     Plist.obj
 0001:0005c8a4       $ip2state$??$print_module@PEAX@@YAXQEAXPEAXKAEAUoptions@@AEBV?$function@$$A6A_NPEA_W_K@Z@std@@@Z 000000018005d8a4     Plist.obj
 0001:0005c8ac       $unwind$??$_Resize_reallocate@U_Value_init_tag@std@@@?$vector@PEAUHINSTANCE__@@V?$allocator@PEAUHINSTANCE__@@@std@@@std@@AEAAX_KAEBU_Value_init_tag@1@@Z 000000018005d8ac     Plist.obj
 0001:0005c8c4       $cppxdata$??$_Resize_reallocate@U_Value_init_tag@std@@@?$vector@PEAUHINSTANCE__@@V?$allocator@PEAUHINSTANCE__@@@std@@@std@@AEAAX_KAEBU_Value_init_tag@1@@Z 000000018005d8c4     Plist.obj
 0001:0005c8d1       $tryMap$??$_Resize_reallocate@U_Value_init_tag@std@@@?$vector@PEAUHINSTANCE__@@V?$allocator@PEAUHINSTANCE__@@@std@@@std@@AEAAX_KAEBU_Value_init_tag@1@@Z 000000018005d8d1     Plist.obj
 0001:0005c8d9       $handlerMap$??$_Resize_reallocate@U_Value_init_tag@std@@@?$vector@PEAUHINSTANCE__@@V?$allocator@PEAUHINSTANCE__@@@std@@@std@@AEAAX_KAEBU_Value_init_tag@1@@Z 000000018005d8d9     Plist.obj
 0001:0005c8e0       $ip2state$??$_Resize_reallocate@U_Value_init_tag@std@@@?$vector@PEAUHINSTANCE__@@V?$allocator@PEAUHINSTANCE__@@@std@@@std@@AEAAX_KAEBU_Value_init_tag@1@@Z 000000018005d8e0     Plist.obj
 0001:0005c8e4       $unwind$?ConvertDate@@YAXAEBU_FILETIME@@PEA_W1@Z 000000018005d8e4     Pmix.obj
 0001:0005c8f0       $unwind$?WinError@@YAHPEB_W@Z 000000018005d8f0     Pmix.obj
 0001:0005c910       $cppxdata$?WinError@@YAHPEB_W@Z 000000018005d910     Pmix.obj
 0001:0005c919       $stateUnwindMap$?WinError@@YAHPEB_W@Z 000000018005d919     Pmix.obj
 0001:0005c927       $ip2state$?WinError@@YAHPEB_W@Z 000000018005d927     Pmix.obj
 0001:0005c930       $unwind$??0WMIConnection@@QEAA@XZ 000000018005d930     WMI.obj
 0001:0005c940       $cppxdata$??0WMIConnection@@QEAA@XZ 000000018005d940     WMI.obj
 0001:0005c949       $stateUnwindMap$??0WMIConnection@@QEAA@XZ 000000018005d949     WMI.obj
 0001:0005c950       $ip2state$??0WMIConnection@@QEAA@XZ 000000018005d950     WMI.obj
 0001:0005c954       $unwind$??1WMIConnection@@QEAA@XZ 000000018005d954     WMI.obj
 0001:0005c964       $cppxdata$??1WMIConnection@@QEAA@XZ 000000018005d964     WMI.obj
 0001:0005c96d       $ip2state$??1WMIConnection@@QEAA@XZ 000000018005d96d     WMI.obj
 0001:0005c974       $unwind$?Connect@WMIConnection@@QEAA_NPEB_W00@Z 000000018005d974     WMI.obj
 0001:0005c99c       $cppxdata$?Connect@WMIConnection@@QEAA_NPEB_W00@Z 000000018005d99c     WMI.obj
 0001:0005c9a5       $stateUnwindMap$?Connect@WMIConnection@@QEAA_NPEB_W00@Z 000000018005d9a5     WMI.obj
 0001:0005c9d1       $ip2state$?Connect@WMIConnection@@QEAA_NPEB_W00@Z 000000018005d9d1     WMI.obj
 0001:0005c9e0       $unwind$?GetProcessPriority@WMIConnection@@QEAAKK@Z 000000018005d9e0     WMI.obj
 0001:0005c9e0       $unwind$?GetProcessSessionId@WMIConnection@@QEAAKK@Z 000000018005d9e0     WMI.obj
 0001:0005c9f0       $cppxdata$?GetProcessPriority@WMIConnection@@QEAAKK@Z 000000018005d9f0     WMI.obj
 0001:0005c9f0       $cppxdata$?GetProcessSessionId@WMIConnection@@QEAAKK@Z 000000018005d9f0     WMI.obj
 0001:0005c9f9       $stateUnwindMap$?GetProcessPriority@WMIConnection@@QEAAKK@Z 000000018005d9f9     WMI.obj
 0001:0005c9f9       $stateUnwindMap$?GetProcessSessionId@WMIConnection@@QEAAKK@Z 000000018005d9f9     WMI.obj
 0001:0005ca00       $ip2state$?GetProcessPriority@WMIConnection@@QEAAKK@Z 000000018005da00     WMI.obj
 0001:0005ca00       $ip2state$?GetProcessSessionId@WMIConnection@@QEAAKK@Z 000000018005da00     WMI.obj
 0001:0005ca04       $unwind$?GetProcessOwner@WMIConnection@@QEAA?AV?$basic_string@_WU?$char_traits@_W@std@@V?$allocator@_W@2@@std@@KPEAV23@@Z 000000018005da04     WMI.obj
 0001:0005ca24       $cppxdata$?GetProcessOwner@WMIConnection@@QEAA?AV?$basic_string@_WU?$char_traits@_W@std@@V?$allocator@_W@2@@std@@KPEAV23@@Z 000000018005da24     WMI.obj
 0001:0005ca2d       $stateUnwindMap$?GetProcessOwner@WMIConnection@@QEAA?AV?$basic_string@_WU?$char_traits@_W@std@@V?$allocator@_W@2@@std@@KPEAV23@@Z 000000018005da2d     WMI.obj
 0001:0005ca5a       $ip2state$?GetProcessOwner@WMIConnection@@QEAA?AV?$basic_string@_WU?$char_traits@_W@std@@V?$allocator@_W@2@@std@@KPEAV23@@Z 000000018005da5a     WMI.obj
 0001:0005ca68       $unwind$?GetProcessUserSid@WMIConnection@@QEAA?AV?$basic_string@_WU?$char_traits@_W@std@@V?$allocator@_W@2@@std@@K@Z 000000018005da68     WMI.obj
 0001:0005ca88       $cppxdata$?GetProcessUserSid@WMIConnection@@QEAA?AV?$basic_string@_WU?$char_traits@_W@std@@V?$allocator@_W@2@@std@@K@Z 000000018005da88     WMI.obj
 0001:0005ca91       $stateUnwindMap$?GetProcessUserSid@WMIConnection@@QEAA?AV?$basic_string@_WU?$char_traits@_W@std@@V?$allocator@_W@2@@std@@K@Z 000000018005da91     WMI.obj
 0001:0005cabe       $ip2state$?GetProcessUserSid@WMIConnection@@QEAA?AV?$basic_string@_WU?$char_traits@_W@std@@V?$allocator@_W@2@@std@@K@Z 000000018005dabe     WMI.obj
 0001:0005cacc       $unwind$?GetProcessCommandLine@WMIConnection@@QEAA?AV?$basic_string@_WU?$char_traits@_W@std@@V?$allocator@_W@2@@std@@K@Z 000000018005dacc     WMI.obj
 0001:0005cacc       $unwind$?GetProcessExecutablePath@WMIConnection@@QEAA?AV?$basic_string@_WU?$char_traits@_W@std@@V?$allocator@_W@2@@std@@K@Z 000000018005dacc     WMI.obj
 0001:0005cadc       $cppxdata$?GetProcessCommandLine@WMIConnection@@QEAA?AV?$basic_string@_WU?$char_traits@_W@std@@V?$allocator@_W@2@@std@@K@Z 000000018005dadc     WMI.obj
 0001:0005cadc       $cppxdata$?GetProcessExecutablePath@WMIConnection@@QEAA?AV?$basic_string@_WU?$char_traits@_W@std@@V?$allocator@_W@2@@std@@K@Z 000000018005dadc     WMI.obj
 0001:0005cae5       $stateUnwindMap$?GetProcessCommandLine@WMIConnection@@QEAA?AV?$basic_string@_WU?$char_traits@_W@std@@V?$allocator@_W@2@@std@@K@Z 000000018005dae5     WMI.obj
 0001:0005cae5       $stateUnwindMap$?GetProcessExecutablePath@WMIConnection@@QEAA?AV?$basic_string@_WU?$char_traits@_W@std@@V?$allocator@_W@2@@std@@K@Z 000000018005dae5     WMI.obj
 0001:0005caf1       $ip2state$?GetProcessCommandLine@WMIConnection@@QEAA?AV?$basic_string@_WU?$char_traits@_W@std@@V?$allocator@_W@2@@std@@K@Z 000000018005daf1     WMI.obj
 0001:0005caf1       $ip2state$?GetProcessExecutablePath@WMIConnection@@QEAA?AV?$basic_string@_WU?$char_traits@_W@std@@V?$allocator@_W@2@@std@@K@Z 000000018005daf1     WMI.obj
 0001:0005caf4       $unwind$?ExecMethod@WMIConnection@@AEAAHKPEB_W0K@Z 000000018005daf4     WMI.obj
 0001:0005cb18       $cppxdata$?ExecMethod@WMIConnection@@AEAAHKPEB_W0K@Z 000000018005db18     WMI.obj
 0001:0005cb21       $stateUnwindMap$?ExecMethod@WMIConnection@@AEAAHKPEB_W0K@Z 000000018005db21     WMI.obj
 0001:0005cb80       $ip2state$?ExecMethod@WMIConnection@@AEAAHKPEB_W0K@Z 000000018005db80     WMI.obj
 0001:0005cba0       $unwind$?GetProcessProperty@WMIConnection@@AEAA_NKPEB_WAEBV?$function@$$A6AXAEBUtagVARIANT@@@Z@std@@@Z 000000018005dba0     WMI.obj
 0001:0005cbc0       $cppxdata$?GetProcessProperty@WMIConnection@@AEAA_NKPEB_WAEBV?$function@$$A6AXAEBUtagVARIANT@@@Z@std@@@Z 000000018005dbc0     WMI.obj
 0001:0005cbc9       $stateUnwindMap$?GetProcessProperty@WMIConnection@@AEAA_NKPEB_WAEBV?$function@$$A6AXAEBUtagVARIANT@@@Z@std@@@Z 000000018005dbc9     WMI.obj
 0001:0005cbe9       $ip2state$?GetProcessProperty@WMIConnection@@AEAA_NKPEB_WAEBV?$function@$$A6AXAEBUtagVARIANT@@@Z@std@@@Z 000000018005dbe9     WMI.obj
 0001:0005cbf8       $unwind$?ProcessPath@@YA@K@Z 000000018005dbf8     WMI.obj
 0001:0005cc00       $unwind$??1?$unique_ptr@UIWbemClassObject@@Ucom_closer@@@std@@QEAA@XZ 000000018005dc00     WMI.obj
 0001:0005cc00       $unwind$??1?$unique_ptr@UIWbemLocator@@Ucom_closer@@@std@@QEAA@XZ 000000018005dc00     WMI.obj
 0001:0005cc10       $cppxdata$??1?$unique_ptr@UIWbemClassObject@@Ucom_closer@@@std@@QEAA@XZ 000000018005dc10     WMI.obj
 0001:0005cc10       $cppxdata$??1?$unique_ptr@UIWbemLocator@@Ucom_closer@@@std@@QEAA@XZ 000000018005dc10     WMI.obj
 0001:0005cc15       $ip2state$??1?$unique_ptr@UIWbemClassObject@@Ucom_closer@@@std@@QEAA@XZ 000000018005dc15     WMI.obj
 0001:0005cc15       $ip2state$??1?$unique_ptr@UIWbemLocator@@Ucom_closer@@@std@@QEAA@XZ 000000018005dc15     WMI.obj
 0001:0005cc18       $unwind$??1?$ptr_setter@V?$unique_ptr@UIWbemClassObject@@Ucom_closer@@@std@@@@QEAA@XZ 000000018005dc18     WMI.obj
 0001:0005cc28       $cppxdata$??1?$ptr_setter@V?$unique_ptr@UIWbemClassObject@@Ucom_closer@@@std@@@@QEAA@XZ 000000018005dc28     WMI.obj
 0001:0005cc31       $ip2state$??1?$ptr_setter@V?$unique_ptr@UIWbemClassObject@@Ucom_closer@@@std@@@@QEAA@XZ 000000018005dc31     WMI.obj
 0001:0005cc34       $chain$0$?dynamic_bind@@YAXXZ 000000018005dc34     Proclist.obj
 0001:0005cc48       $chain$1$?dynamic_bind@@YAXXZ 000000018005dc48     Proclist.obj
 0001:0005cc58       $unwind$?_Init@locale@std@@CAPEAV_Locimp@12@_N@Z 000000018005dc58     libcpmt:locale0.obj
 0001:0005cc6c       $stateUnwindMap$?_Init@locale@std@@CAPEAV_Locimp@12@_N@Z 000000018005dc6c     libcpmt:locale0.obj
 0001:0005cc78       $ip2state$?_Init@locale@std@@CAPEAV_Locimp@12@_N@Z 000000018005dc78     libcpmt:locale0.obj
 0001:0005cc88       $unwind$_Mbrtowc           000000018005dc88     libcpmt:xmbtowc.obj
 0001:0005cc88       $unwind$?getStateFromIterators@UWMap4@FH4@@SAHAEBViterator@12@H0H0@Z 000000018005dc88     libvcruntime:frame.obj
 0001:0005cc88       $unwind$?commit_locale_name@_expandlocale_locale_name_cache@@QEAAXQEB_W_K@Z 000000018005dc88     libucrt:wsetlocale.obj
 0001:0005cc88       $unwind$__acrt_copy_locale_name 000000018005dc88     libucrt:wsetlocale.obj
 0001:0005cc88       $unwind$strpbrk            000000018005dc88     libucrt:strpbrk.obj
 0001:0005cc98       $unwind$??__Finit_atexit@@YAXXZ 000000018005dc98     libcpmt:iosptrs.obj
 0001:0005cca8       $stateUnwindMap$??__Finit_atexit@@YAXXZ 000000018005dca8     libcpmt:iosptrs.obj
 0001:0005ccb0       $ip2state$??__Finit_atexit@@YAXXZ 000000018005dcb0     libcpmt:iosptrs.obj
 0001:0005ccb8       $unwind$__scrt_is_nonwritable_in_current_image 000000018005dcb8     LIBCMT:utility.obj
 0001:0005ccd8       $unwind$??_M@YAXPEAX_K1P6AX0@Z@Z 000000018005dcd8     LIBCMT:ehvecdtr.obj
 0001:0005cd00       $unwind$?__ArrayUnwind@@YAXPEAX_K1P6AX0@Z@Z 000000018005dd00     LIBCMT:ehvecdtr.obj
 0001:0005cd2c       $unwind$?filt$0@?0??__ArrayUnwind@@YAXPEAX_K1P6AX0@Z@Z@4HA 000000018005dd2c     LIBCMT:ehvecdtr.obj
 0001:0005cd2c       $unwind$__DestructExceptionObject$filt$0 000000018005dd2c     libvcruntime:ehhelpers.obj
 0001:0005cd2c       $unwind$?fin$1@?0??CxxCallCatchBlock@__FrameHandler3@@SAPEAXPEAU_EXCEPTION_RECORD@@@Z@4HA 000000018005dd2c     libvcruntime:frame.obj
 0001:0005cd2c       $unwind$?fin$1@?0??CxxCallCatchBlock@__FrameHandler4@@SAPEAXPEAU_EXCEPTION_RECORD@@@Z@4HA 000000018005dd2c     libvcruntime:frame.obj
 0001:0005cd38       $unwind$?dllmain_crt_process_attach@@YAHQEAUHINSTANCE__@@QEAX@Z 000000018005dd38     LIBCMT:dll_dllmain.obj
 0001:0005cd74       $unwind$?dllmain_crt_process_detach@@YAH_N@Z 000000018005dd74     LIBCMT:dll_dllmain.obj
 0001:0005cdc8       $unwind$?dllmain_dispatch@@YAHQEAUHINSTANCE__@@KQEAX@Z 000000018005ddc8     LIBCMT:dll_dllmain.obj
 0001:0005cdf0       $unwind$?filt$0@?0??dllmain_dispatch@@YAHQEAUHINSTANCE__@@KQEAX@Z@4HA 000000018005ddf0     LIBCMT:dll_dllmain.obj
 0001:0005cdf0       $unwind$?filt$0@?0??FrameUnwindToState@__FrameHandler4@@SAXPEA_KPEAU_xDISPATCHER_CONTEXT@@PEAUFuncInfo4@FH4@@H@Z@4HA 000000018005ddf0     libvcruntime:frame.obj
 0001:0005cdf0       $unwind$?fin$1@?0??FrameUnwindToState@__FrameHandler4@@SAXPEA_KPEAU_xDISPATCHER_CONTEXT@@PEAUFuncInfo4@FH4@@H@Z@4HA 000000018005ddf0     libvcruntime:frame.obj
 0001:0005cdf8       $unwind$__GSHandlerCheck_EH 000000018005ddf8     LIBCMT:gshandlereh.obj
 0001:0005cdf8       $unwind$__GSHandlerCheck_SEH 000000018005ddf8     LIBCMT:gshandlerseh.obj
 0001:0005cdf8       $unwind$??$TypeMatchHelper@V__FrameHandler3@@@@YAHPEBU_s_HandlerType@@PEBU_s_CatchableType@@PEBU_s_ThrowInfo@@@Z 000000018005ddf8     libvcruntime:frame.obj
 0001:0005cdf8       $unwind$??$TypeMatchHelper@V__FrameHandler4@@@@YAHPEAUHandlerType4@FH4@@PEBU_s_CatchableType@@PEBU_s_ThrowInfo@@@Z 000000018005ddf8     libvcruntime:frame.obj
 0001:0005cdf8       $unwind$?initialize_stdio_handles_nolock@@YAXXZ 000000018005ddf8     libucrt:ioinit.obj
 0001:0005cdf8       $unwind$__acrt_initialize_stdio 000000018005ddf8     libucrt:_file.obj
 0001:0005ce10       $xdatasym                  000000018005de10     LIBCMT:amdsecgs.obj
 0001:0005ce14       $unwind$__isa_available_init 000000018005de14     LIBCMT:cpu_disp.obj
 0001:0005ce24       $unwind$__scrt_fastfail    000000018005de24     LIBCMT:utility_desktop.obj
 0001:0005ce34       $unwind$__security_init_cookie 000000018005de34     LIBCMT:gs_support.obj
 0001:0005ce40       $xdatasym                  000000018005de40     LIBCMT:guard_dispatch.obj
 0001:0005ce44       $unwind$__report_securityfailure 000000018005de44     LIBCMT:gs_report.obj
 0001:0005ce4c       $unwind$capture_current_context 000000018005de4c     LIBCMT:gs_report.obj
 0001:0005ce58       $unwind$capture_previous_context 000000018005de58     LIBCMT:gs_report.obj
 0001:0005ce64       $unwind$__DestructExceptionObject 000000018005de64     libvcruntime:ehhelpers.obj
 0001:0005ce84       $unwind$_CxxThrowException 000000018005de84     libvcruntime:throw.obj
 0001:0005ce94       $unwind$?DecompFuncInfo@FH4@@YA_JPEAEAEAUFuncInfo4@1@_KH_N@Z 000000018005de94     libvcruntime:risctrnsctrl.obj
 0001:0005ceac       $unwind$?UnwindNestedFrames@__FrameHandler3@@SAXPEA_KPEAUEHExceptionRecord@@PEAU_CONTEXT@@0PEAXPEBU_s_FuncInfo@@HHPEBU_s_HandlerType@@PEAU_xDISPATCHER_CONTEXT@@E@Z 000000018005deac     libvcruntime:risctrnsctrl.obj
 0001:0005cec0       $unwind$?GetRangeOfTrysToCheck@__FrameHandler3@@SA?AU?$pair@Viterator@TryBlockMap@__FrameHandler3@@V123@@std@@AEAVTryBlockMap@1@HPEAU_xDISPATCHER_CONTEXT@@PEBU_s_FuncInfo@@H@Z 000000018005dec0     libvcruntime:risctrnsctrl.obj
 0001:0005ced8       $unwind$?UnwindNestedFrames@__FrameHandler4@@SAXPEA_KPEAUEHExceptionRecord@@PEAU_CONTEXT@@0PEAXPEAUFuncInfo4@FH4@@HHPEAUHandlerType4@5@PEAU_xDISPATCHER_CONTEXT@@E@Z 000000018005ded8     libvcruntime:risctrnsctrl.obj
 0001:0005ceec       $unwind$?GetRangeOfTrysToCheck@__FrameHandler4@@SA?AU?$pair@Viterator@TryBlockMap4@FH4@@V123@@std@@AEAVTryBlockMap4@FH4@@HPEAU_xDISPATCHER_CONTEXT@@PEAUFuncInfo4@5@H@Z 000000018005deec     libvcruntime:risctrnsctrl.obj
 0001:0005cf08       $unwind$__CxxFrameHandler3 000000018005df08     libvcruntime:risctrnsctrl.obj
 0001:0005cf1c       $unwind$__CxxFrameHandler4 000000018005df1c     libvcruntime:risctrnsctrl.obj
 0001:0005cf30       $unwind$??$_CallSETranslator@V__FrameHandler4@@@@YAHPEAUEHExceptionRecord@@PEA_KPEAU_CONTEXT@@PEAU_xDISPATCHER_CONTEXT@@PEAUFuncInfo4@FH4@@K1@Z 000000018005df30     libvcruntime:risctrnsctrl.obj
 0001:0005cf50       $unwind$?filt$0@?0???$_CallSETranslator@V__FrameHandler3@@@@YAHPEAUEHExceptionRecord@@PEA_KPEAU_CONTEXT@@PEAU_xDISPATCHER_CONTEXT@@PEBU_s_FuncInfo@@K1@Z@4HA 000000018005df50     libvcruntime:risctrnsctrl.obj
 0001:0005cf50       $unwind$?filt$0@?0???$_CallSETranslator@V__FrameHandler4@@@@YAHPEAUEHExceptionRecord@@PEA_KPEAU_CONTEXT@@PEAU_xDISPATCHER_CONTEXT@@PEAUFuncInfo4@FH4@@K1@Z@4HA 000000018005df50     libvcruntime:risctrnsctrl.obj
 0001:0005cf5c       $unwind$??$_CallSETranslator@V__FrameHandler3@@@@YAHPEAUEHExceptionRecord@@PEA_KPEAU_CONTEXT@@PEAU_xDISPATCHER_CONTEXT@@PEBU_s_FuncInfo@@K1@Z 000000018005df5c     libvcruntime:risctrnsctrl.obj
 0001:0005cf80       $xdatasym                  000000018005df80     libvcruntime:memchr.obj
 0001:0005cf88       $xdatasym                  000000018005df88     libvcruntime:memcmp.obj
 0001:0005cf90       $xdatasym                  000000018005df90     libvcruntime:memcpy.obj
 0001:0005cfa0       $xdatasym                  000000018005dfa0     libvcruntime:memset.obj
 0001:0005cfb0       $unwind$__C_specific_handler 000000018005dfb0     libvcruntime:riscchandler.obj
 0001:0005cfb0       $unwind$__acrt_locale_initialize_numeric 000000018005dfb0     libucrt:initnum.obj
 0001:0005cfcc       $unwind$?StateFromIp@__FrameHandler4@@SAHPEAUFuncInfo4@FH4@@PEAU_xDISPATCHER_CONTEXT@@_K@Z 000000018005dfcc     libvcruntime:ehstate.obj
 0001:0005cfe0       $unwind$?getStartStop@UWMap4@FH4@@QEAAXHHAEAViterator@12@0@Z 000000018005dfe0     libvcruntime:frame.obj
 0001:0005cff8       $unwind$?FrameUnwindToState@__FrameHandler3@@SAXPEA_KPEAU_xDISPATCHER_CONTEXT@@PEBU_s_FuncInfo@@H@Z 000000018005dff8     libvcruntime:frame.obj
 0001:0005d044       $unwind$?CxxCallCatchBlock@__FrameHandler3@@SAPEAXPEAU_EXCEPTION_RECORD@@@Z 000000018005e044     libvcruntime:frame.obj
 0001:0005d080       $unwind$?FrameUnwindToState@__FrameHandler4@@SAXPEA_KPEAU_xDISPATCHER_CONTEXT@@PEAUFuncInfo4@FH4@@H@Z 000000018005e080     libvcruntime:frame.obj
 0001:0005d0c8       $unwind$?CxxCallCatchBlock@__FrameHandler4@@SAPEAXPEAU_EXCEPTION_RECORD@@@Z 000000018005e0c8     libvcruntime:frame.obj
 0001:0005d124       $unwind$?IsInExceptionSpec@@YAEPEAUEHExceptionRecord@@PEBU_s_ESTypeList@@@Z 000000018005e124     libvcruntime:frame.obj
 0001:0005d140       $unwind$??$__InternalCxxFrameHandler@V__FrameHandler3@@@@YA?AW4_EXCEPTION_DISPOSITION@@PEAUEHExceptionRecord@@PEA_KPEAU_CONTEXT@@PEAU_xDISPATCHER_CONTEXT@@PEBU_s_FuncInfo@@H1E@Z 000000018005e140     libvcruntime:frame.obj
 0001:0005d158       $unwind$??$__InternalCxxFrameHandler@V__FrameHandler4@@@@YA?AW4_EXCEPTION_DISPOSITION@@PEAUEHExceptionRecord@@PEA_KPEAU_CONTEXT@@PEAU_xDISPATCHER_CONTEXT@@PEAUFuncInfo4@FH4@@H1E@Z 000000018005e158     libvcruntime:frame.obj
 0001:0005d170       $unwind$??$BuildCatchObjectHelperInternal@V__FrameHandler3@@@@YAHPEAUEHExceptionRecord@@PEAXPEBU_s_HandlerType@@PEBU_s_CatchableType@@@Z 000000018005e170     libvcruntime:frame.obj
 0001:0005d1b0       $unwind$??$BuildCatchObjectHelperInternal@V__FrameHandler4@@@@YAHPEAUEHExceptionRecord@@PEAXPEAUHandlerType4@FH4@@PEBU_s_CatchableType@@@Z 000000018005e1b0     libvcruntime:frame.obj
 0001:0005d1f0       $unwind$??$BuildCatchObjectInternal@V__FrameHandler3@@@@YAXPEAUEHExceptionRecord@@PEAXPEBU_s_HandlerType@@PEBU_s_CatchableType@@@Z 000000018005e1f0     libvcruntime:frame.obj
 0001:0005d21c       $unwind$??$BuildCatchObjectInternal@V__FrameHandler4@@@@YAXPEAUEHExceptionRecord@@PEAXPEAUHandlerType4@FH4@@PEBU_s_CatchableType@@@Z 000000018005e21c     libvcruntime:frame.obj
 0001:0005d248       $unwind$??$FindHandler@V__FrameHandler3@@@@YAXPEAUEHExceptionRecord@@PEA_KPEAU_CONTEXT@@PEAU_xDISPATCHER_CONTEXT@@PEBU_s_FuncInfo@@EH1@Z 000000018005e248     libvcruntime:frame.obj
 0001:0005d268       $unwind$??$FindHandler@V__FrameHandler4@@@@YAXPEAUEHExceptionRecord@@PEA_KPEAU_CONTEXT@@PEAU_xDISPATCHER_CONTEXT@@PEAUFuncInfo4@FH4@@EH1@Z 000000018005e268     libvcruntime:frame.obj
 0001:0005d288       $unwind$??$CatchIt@V__FrameHandler3@@@@YAXPEAUEHExceptionRecord@@PEA_KPEAU_CONTEXT@@PEAU_xDISPATCHER_CONTEXT@@PEBU_s_FuncInfo@@PEBU_s_HandlerType@@PEBU_s_CatchableType@@PEBU_s_TryBlockMapEntry@@H1EE@Z 000000018005e288     libvcruntime:frame.obj
 0001:0005d288       $unwind$??$CatchIt@V__FrameHandler4@@@@YAXPEAUEHExceptionRecord@@PEA_KPEAU_CONTEXT@@PEAU_xDISPATCHER_CONTEXT@@PEAUFuncInfo4@FH4@@PEAUHandlerType4@4@PEBU_s_CatchableType@@PEAUTryBlockMapEntry4@4@H1EE@Z 000000018005e288     libvcruntime:frame.obj
 0001:0005d2a0       $unwind$??$FindHandlerForForeignException@V__FrameHandler3@@@@YAXPEAUEHExceptionRecord@@PEA_KPEAU_CONTEXT@@PEAU_xDISPATCHER_CONTEXT@@PEBU_s_FuncInfo@@HH1@Z 000000018005e2a0     libvcruntime:frame.obj
 0001:0005d2bc       $unwind$??$FindHandlerForForeignException@V__FrameHandler4@@@@YAXPEAUEHExceptionRecord@@PEA_KPEAU_CONTEXT@@PEAU_xDISPATCHER_CONTEXT@@PEAUFuncInfo4@FH4@@HH1@Z 000000018005e2bc     libvcruntime:frame.obj
 0001:0005d2e0       $xdatasym                  000000018005e2e0     libvcruntime:notify.obj
 0001:0005d2f0       $xdatasym                  000000018005e2f0     libvcruntime:handlers.obj
 0001:0005d310       $unwind$__acrt_call_reportfault 000000018005e310     libucrt:invalid_parameter.obj
 0001:0005d330       $unwind$_dclass            000000018005e330     libucrt:nan.obj
 0001:0005d330       $unwind$_fdclass           000000018005e330     libucrt:nanf.obj
 0001:0005d330       $unwind$_ldclass           000000018005e330     libucrt:nanl.obj
 0001:0005d330       $unwind$round              000000018005e330     libucrt:round.obj
 0001:0005d338       $unwind$__stdio_common_vsnprintf_s 000000018005e338     libucrt:output.obj
 0001:0005d350       $unwind$?write_string@?$string_output_adapter@D@__crt_stdio_output@@QEBAXQEBDHQEAHAEAV__crt_deferred_errno_cache@@@Z 000000018005e350     libucrt:output.obj
 0001:0005d368       $unwind$??$common_vsprintf@Vformat_validation_base@__crt_stdio_output@@D@@YAH_KQEAD0QEBDQEAU__crt_locale_pointers@@1@Z 000000018005e368     libucrt:output.obj
 0001:0005d388       $unwind$??$write_multiple_characters@V?$string_output_adapter@D@__crt_stdio_output@@D@__crt_stdio_output@@YAXAEBV?$string_output_adapter@D@0@DHQEAH@Z 000000018005e388     libucrt:output.obj
 0001:0005d394       $unwind$?process@?$output_processor@DV?$string_output_adapter@D@__crt_stdio_output@@V?$format_validation_base@DV?$string_output_adapter@D@__crt_stdio_output@@@2@@__crt_stdio_output@@QEAAHXZ 000000018005e394     libucrt:output.obj
 0001:0005d3a8       $unwind$?parse_int_from_format_string@?$output_processor@DV?$string_output_adapter@D@__crt_stdio_output@@V?$format_validation_base@DV?$string_output_adapter@D@__crt_stdio_output@@@2@@__crt_stdio_output@@AEAA_NQEAH@Z 000000018005e3a8     libucrt:output.obj
 0001:0005d3bc       $unwind$?state_case_type@?$output_processor@DV?$string_output_adapter@D@__crt_stdio_output@@V?$format_validation_base@DV?$string_output_adapter@D@__crt_stdio_output@@@2@@__crt_stdio_output@@AEAA_NXZ 000000018005e3bc     libucrt:output.obj
 0001:0005d3d4       $unwind$?type_case_a@?$output_processor@DV?$string_output_adapter@D@__crt_stdio_output@@V?$format_validation_base@DV?$string_output_adapter@D@__crt_stdio_output@@@2@@__crt_stdio_output@@AEAA_NXZ 000000018005e3d4     libucrt:output.obj
 0001:0005d3e0       $unwind$?write_stored_string_tchar@?$output_processor@DV?$string_output_adapter@D@__crt_stdio_output@@V?$format_validation_base@DV?$string_output_adapter@D@__crt_stdio_output@@@2@@__crt_stdio_output@@AEAA_ND@Z 000000018005e3e0     libucrt:output.obj
 0001:0005d3f8       $unwind$terminate          000000018005e3f8     libucrt:terminate.obj
 0001:0005d418       $unwind$__acrt_lowio_destroy_handle_array 000000018005e418     libucrt:osfinfo.obj
 0001:0005d428       $unwind$__acrt_lowio_ensure_fh_exists 000000018005e428     libucrt:osfinfo.obj
 0001:0005d454       $unwind$log2               000000018005e454     libucrt:log2.obj
 0001:0005d460       $unwind$__dcrt_lowio_ensure_console_output_initialized 000000018005e460     libucrt:initcon.obj
 0001:0005d460       $unwind$_isleadbyte_l      000000018005e460     libucrt:_wctype.obj
 0001:0005d460       $unwind$?getSystemCP@@YAHH@Z 000000018005e460     libucrt:mbctype.obj
 0001:0005d468       $unwind$__acrt_initialize_winapi_thunks 000000018005e468     libucrt:winapi_thunks.obj
 0001:0005d468       $unwind$wcsncpy            000000018005e468     libucrt:wcsncpy.obj
 0001:0005d470       $xdatasym                  000000018005e470     libucrt:log10.obj
 0001:0005d480       $xdatasym                  000000018005e480     libucrt:pow.obj
 0001:0005d490       $unwind$setlocale          000000018005e490     libucrt:setlocale.obj
 0001:0005d498       $unwind$??R<lambda_b37934c380d97b75fd242ea49540127a>@@QEBAPEADXZ 000000018005e498     libucrt:setlocale.obj
 0001:0005d4b0       $unwind$??$?RV<lambda_41e84717acc955b55e9d0d529e507b68>@@AEAV<lambda_b37934c380d97b75fd242ea49540127a>@@V<lambda_bb6db9f9ac473960206e0d4b942b5506>@@@?$__crt_seh_guarded_call@PEAD@@QEAAPEAD$$QEAV<lambda_41e84717acc955b55e9d0d529e507b68>@@AEAV<lambda_b37934c380d97b75fd242ea49540127a>@@$$QEAV<lambda_bb6db9f9ac473960206e0d4b942b5506>@@@Z 000000018005e4b0     libucrt:setlocale.obj
 0001:0005d4d4       $unwind$__acrt_locale_initialize_ctype 000000018005e4d4     libucrt:initctype.obj
 0001:0005d4fc       $unwind$?divide@__crt_strtox@@YA_KAEAUbig_integer@1@AEBU21@@Z 000000018005e4fc     libucrt:strtod.obj
 0001:0005d514       $chain$0$?divide@__crt_strtox@@YA_KAEAUbig_integer@1@AEBU21@@Z 000000018005e514     libucrt:strtod.obj
 0001:0005d528       $chain$1$?divide@__crt_strtox@@YA_KAEAUbig_integer@1@AEBU21@@Z 000000018005e528     libucrt:strtod.obj
 0001:0005d538       $xdatasym                  000000018005e538     libucrt:powf.obj
 0001:0005d548       $unwind$parse_bcp47_region 000000018005e548     libucrt:wsetlocale.obj
 0001:0005d548       $unwind$??$__acrt_mbs_to_wcs_cp@U__crt_win32_buffer_internal_dynamic_resizing@@@@YAHQEBDAEAV?$__crt_win32_buffer@_WU__crt_win32_buffer_internal_dynamic_resizing@@@@I@Z 000000018005e548     libucrt:strftime.obj
 0001:0005d560       $unwind$?common_exit@@YAXHW4_crt_exit_cleanup_mode@@W4_crt_exit_return_mode@@@Z 000000018005e560     libucrt:exit.obj
 0001:0005d56c       $unwind$??R<lambda_6e4b09c48022b2350581041d5f6b0c4c>@@QEBA@XZ 000000018005e56c     libucrt:exit.obj
 0001:0005d58c       $unwind$??$?RV<lambda_d80eeec6fff315bfe5c115232f3240e3>@@AEAV<lambda_6e4b09c48022b2350581041d5f6b0c4c>@@V<lambda_2358e3775559c9db80273638284d5e45>@@@?$__crt_seh_guarded_call@X@@QEAAX$$QEAV<lambda_d80eeec6fff315bfe5c115232f3240e3>@@AEAV<lambda_6e4b09c48022b2350581041d5f6b0c4c>@@$$QEAV<lambda_2358e3775559c9db80273638284d5e45>@@@Z 000000018005e58c     libucrt:exit.obj
 0001:0005d5b0       $unwind$_configure_narrow_argv 000000018005e5b0     libucrt:argv_parsing.obj
 0001:0005d5c4       $unwind$TranslateName      000000018005e5c4     libucrt:get_qualified_locale.obj
 0001:0005d5c4       $unwind$??$parse_command_line@D@@YAXPEADPEAPEAD0PEA_K2@Z 000000018005e5c4     libucrt:argv_parsing.obj
 0001:0005d5e0       $unwind$??$create_environment@D@@YAQEAPEADQEAD@Z 000000018005e5e0     libucrt:environment_initialization.obj
 0001:0005d5e0       $unwind$__lc_wcstolc       000000018005e5e0     libucrt:wsetlocale.obj
 0001:0005d5f8       $unwind$_register_onexit_function 000000018005e5f8     libucrt:onexit.obj
 0001:0005d600       $unwind$_execute_onexit_table 000000018005e600     libucrt:onexit.obj
 0001:0005d608       $unwind$??R<lambda_22ebabd17bc4fa466a2aca6d8deb888d>@@QEBAHXZ 000000018005e608     libucrt:onexit.obj
 0001:0005d620       $unwind$??$?RV<lambda_638799b9deba96c50f710eeac98168cd>@@AEAV<lambda_22ebabd17bc4fa466a2aca6d8deb888d>@@V<lambda_a6f7d7db0129f75315ebf26d50c089f1>@@@?$__crt_seh_guarded_call@H@@QEAAH$$QEAV<lambda_638799b9deba96c50f710eeac98168cd>@@AEAV<lambda_22ebabd17bc4fa466a2aca6d8deb888d>@@$$QEAV<lambda_a6f7d7db0129f75315ebf26d50c089f1>@@@Z 000000018005e620     libucrt:onexit.obj
 0001:0005d644       $unwind$??$?RV<lambda_7777bce6b2f8c936911f934f8298dc43>@@AEAV<lambda_f03950bc5685219e0bcd2087efbe011e>@@V<lambda_3883c3dff614d5e0c5f61bb1ac94921c>@@@?$__crt_seh_guarded_call@H@@QEAAH$$QEAV<lambda_7777bce6b2f8c936911f934f8298dc43>@@AEAV<lambda_f03950bc5685219e0bcd2087efbe011e>@@$$QEAV<lambda_3883c3dff614d5e0c5f61bb1ac94921c>@@@Z 000000018005e644     libucrt:onexit.obj
 0001:0005d668       $unwind$_query_new_handler 000000018005e668     libucrt:new_handler.obj
 0001:0005d688       $unwind$??$parse_integer@KV?$c_string_character_source@D@__crt_strtox@@@__crt_strtox@@YAKQEAU__crt_locale_pointers@@V?$c_string_character_source@D@0@H_N@Z 000000018005e688     libucrt:atox.obj
 0001:0005d6a4       $unwind$??$parse_integer@KV?$c_string_character_source@_W@__crt_strtox@@@__crt_strtox@@YAKQEAU__crt_locale_pointers@@V?$c_string_character_source@_W@0@H_N@Z 000000018005e6a4     libucrt:atox.obj
 0001:0005d6c0       $xdatasym                  000000018005e6c0     libucrt:strncmp.obj
 0001:0005d6c4       $unwind$?construct_ptd_array@@YAXQEAU__acrt_ptd@@@Z 000000018005e6c4     libucrt:per_thread_data.obj
 0001:0005d6cc       $unwind$?destroy_ptd_array@@YAXQEAU__acrt_ptd@@@Z 000000018005e6cc     libucrt:per_thread_data.obj
 0001:0005d6d4       $unwind$??$?RV<lambda_0ae27a3a962d80f24befdcbee591983d>@@AEAV<lambda_8d0ee55de4b1038c4002e0adecdf1839>@@V<lambda_dc504788e8f1664fe9b84e20bfb512f2>@@@?$__crt_seh_guarded_call@X@@QEAAX$$QEAV<lambda_0ae27a3a962d80f24befdcbee591983d>@@AEAV<lambda_8d0ee55de4b1038c4002e0adecdf1839>@@$$QEAV<lambda_dc504788e8f1664fe9b84e20bfb512f2>@@@Z 000000018005e6d4     libucrt:per_thread_data.obj
 0001:0005d6f8       $unwind$??$?RV<lambda_aa87e3671a710a21b5dc78c0bdf72e11>@@AEAV<lambda_92619d2358a28f41a33ba319515a20b9>@@V<lambda_6992ecaafeb10aed2b74cb1fae11a551>@@@?$__crt_seh_guarded_call@X@@QEAAX$$QEAV<lambda_aa87e3671a710a21b5dc78c0bdf72e11>@@AEAV<lambda_92619d2358a28f41a33ba319515a20b9>@@$$QEAV<lambda_6992ecaafeb10aed2b74cb1fae11a551>@@@Z 000000018005e6f8     libucrt:per_thread_data.obj
 0001:0005d71c       $unwind$??$?RV<lambda_f2e299630e499de9f9a165e60fcd3db5>@@AEAV<lambda_2ae9d31cdba2644fcbeaf08da7c24588>@@V<lambda_40d01ff24d0e7b3814fdbdcee8eab3c7>@@@?$__crt_seh_guarded_call@X@@QEAAX$$QEAV<lambda_f2e299630e499de9f9a165e60fcd3db5>@@AEAV<lambda_2ae9d31cdba2644fcbeaf08da7c24588>@@$$QEAV<lambda_40d01ff24d0e7b3814fdbdcee8eab3c7>@@@Z 000000018005e71c     libucrt:per_thread_data.obj
 0001:0005d740       $unwind$??$?RV<lambda_2d41944a1d46af3157314b8a01080d33>@@AEAV<lambda_8f455de75cd7d7f24b4096f044d8b9e6>@@V<lambda_aa500f224e6afead328df44964fe2772>@@@?$__crt_seh_guarded_call@X@@QEAAX$$QEAV<lambda_2d41944a1d46af3157314b8a01080d33>@@AEAV<lambda_8f455de75cd7d7f24b4096f044d8b9e6>@@$$QEAV<lambda_aa500f224e6afead328df44964fe2772>@@@Z 000000018005e740     libucrt:per_thread_data.obj
 0001:0005d764       $unwind$__acrt_EnumSystemLocalesEx 000000018005e764     libucrt:winapi_thunks.obj
 0001:0005d774       $unwind$??$?RV<lambda_48fc4a32460bb0512d3b13f8499328be>@@AEAV<lambda_6c3dac0a4f3f9cefca9bb494422f9b77>@@V<lambda_0a2f2c9f9a56eb2b08bfa6ff61d331c5>@@@?$__crt_seh_guarded_call@H@@QEAAH$$QEAV<lambda_48fc4a32460bb0512d3b13f8499328be>@@AEAV<lambda_6c3dac0a4f3f9cefca9bb494422f9b77>@@$$QEAV<lambda_0a2f2c9f9a56eb2b08bfa6ff61d331c5>@@@Z 000000018005e774     libucrt:winapi_thunks.obj
 0001:0005d798       $unwind$_fcloseall         000000018005e798     libucrt:closeall.obj
 0001:0005d7bc       $unwind$?common_flush_all@@YAH_N@Z 000000018005e7bc     libucrt:fflush.obj
 0001:0005d7c4       $unwind$??$?RV<lambda_842d9ff0dc9ef11c61343bbaebe7f885>@@AEAV<lambda_c5860995281e5c4ce005b3de8f5874ee>@@V<lambda_d90129c13df834fdcbf8d2b88dafcf2d>@@@?$__crt_seh_guarded_call@X@@QEAAX$$QEAV<lambda_842d9ff0dc9ef11c61343bbaebe7f885>@@AEAV<lambda_c5860995281e5c4ce005b3de8f5874ee>@@$$QEAV<lambda_d90129c13df834fdcbf8d2b88dafcf2d>@@@Z 000000018005e7c4     libucrt:fflush.obj
 0001:0005d7e8       $unwind$??$?RV<lambda_886d6c58226a84441f68b9f2b8217b83>@@AEAV<lambda_ab61a845afdef5b7c387490eaf3616ee>@@V<lambda_f7f22ab5edc0698d5f6905b0d3f44752>@@@?$__crt_seh_guarded_call@X@@QEAAX$$QEAV<lambda_886d6c58226a84441f68b9f2b8217b83>@@AEAV<lambda_ab61a845afdef5b7c387490eaf3616ee>@@$$QEAV<lambda_f7f22ab5edc0698d5f6905b0d3f44752>@@@Z 000000018005e7e8     libucrt:fflush.obj
 0001:0005d810       $unwind$__acrt_initialize_lowio 000000018005e810     libucrt:ioinit.obj
 0001:0005d830       $unwind$?initialize_inherited_file_handles_nolock@@YAXXZ 000000018005e830     libucrt:ioinit.obj
 0001:0005d84c       $unwind$_write             000000018005e84c     libucrt:write.obj
 0001:0005d87c       $unwind$_write_nolock      000000018005e87c     libucrt:write.obj
 0001:0005d894       $unwind$?write_double_translated_ansi_nolock@@YA?AUwrite_result@?A0x17268360@@HQEBDI@Z 000000018005e894     libucrt:write.obj
 0001:0005d8b8       $unwind$?write_text_ansi_nolock@@YA?AUwrite_result@?A0x17268360@@HQEBDI@Z 000000018005e8b8     libucrt:write.obj
 0001:0005d8b8       $unwind$?write_text_utf16le_nolock@@YA?AUwrite_result@?A0x17268360@@HQEBDI@Z 000000018005e8b8     libucrt:write.obj
 0001:0005d8d8       $unwind$?write_text_utf8_nolock@@YA?AUwrite_result@?A0x17268360@@HQEBDI@Z 000000018005e8d8     libucrt:write.obj
 0001:0005d8fc       $unwind$_wctomb_s_l        000000018005e8fc     libucrt:wctomb.obj
 0001:0005d90c       $unwind$__acrt_fp_format   000000018005e90c     libucrt:cvt.obj
 0001:0005d920       $unwind$?fp_format_e_internal@@YAHQEAD_KH_NIQEAU_strflt@@2QEAU__crt_locale_pointers@@@Z 000000018005e920     libucrt:cvt.obj
 0001:0005d938       $unwind$?fp_format_a@@YAHQEBNPEAD_KQEAD2H_NIQEAU__crt_locale_pointers@@@Z 000000018005e938     libucrt:cvt.obj
 0001:0005d954       $unwind$__dcrt_get_narrow_environment_from_os 000000018005e954     libucrt:get_environment_from_os.obj
 0001:0005d954       $unwind$?fp_format_f_internal@@YAHQEAD_KHQEAU_strflt@@_NQEAU__crt_locale_pointers@@@Z 000000018005e954     libucrt:cvt.obj
 0001:0005d954       $unwind$??$__acrt_wcs_to_mbs_cp@U__crt_win32_buffer_internal_dynamic_resizing@@@@YAHQEB_WAEAV?$__crt_win32_buffer@DU__crt_win32_buffer_internal_dynamic_resizing@@@@I@Z 000000018005e954     libucrt:argv_wildcards.obj
 0001:0005d96c       $unwind$?fp_format_g@@YAHQEBNQEAD_K12H_NIQEAU__crt_locale_pointers@@@Z 000000018005e96c     libucrt:cvt.obj
 0001:0005d980       $unwind$_wsetlocale        000000018005e980     libucrt:wsetlocale.obj
 0001:0005d988       $unwind$_expandlocale      000000018005e988     libucrt:wsetlocale.obj
 0001:0005d9a8       $unwind$_wcscats           000000018005e9a8     libucrt:wsetlocale.obj
 0001:0005d9b8       $unwind$_wsetlocale_set_cat 000000018005e9b8     libucrt:wsetlocale.obj
 0001:0005d9b8       $unwind$??$expand_argument_wildcards@D@@YAHQEAD0AEAV?$argument_list@D@?A0x5f5c8891@@@Z 000000018005e9b8     libucrt:argv_wildcards.obj
 0001:0005d9dc       $unwind$_wsetlocale_get_all 000000018005e9dc     libucrt:wsetlocale.obj
 0001:0005d9dc       $unwind$??$copy_and_add_argument_to_buffer@D@@YAHQEBD0_KAEAV?$argument_list@D@?A0x5f5c8891@@@Z 000000018005e9dc     libucrt:argv_wildcards.obj
 0001:0005d9f8       $unwind$_wsetlocale_nolock 000000018005e9f8     libucrt:wsetlocale.obj
 0001:0005da1c       $unwind$__acrt_uninitialize_locale 000000018005ea1c     libucrt:wsetlocale.obj
 0001:0005da1c       $unwind$__acrt_get_sigabrt_handler 000000018005ea1c     libucrt:signal.obj
 0001:0005da24       $unwind$??R<lambda_2a444430fde8c29194d880d93eed5e8f>@@QEBA@XZ 000000018005ea24     libucrt:wsetlocale.obj
 0001:0005da30       $unwind$parse_bcp47        000000018005ea30     libucrt:wsetlocale.obj
 0001:0005da54       $unwind$??$?RV<lambda_410d79af7f07d98d83a3f525b3859a53>@@AEAV<lambda_3e16ef9562a7dcce91392c22ab16ea36>@@V<lambda_38119f0e861e05405d8a144b9b982f0a>@@@?$__crt_seh_guarded_call@X@@QEAAX$$QEAV<lambda_410d79af7f07d98d83a3f525b3859a53>@@AEAV<lambda_3e16ef9562a7dcce91392c22ab16ea36>@@$$QEAV<lambda_38119f0e861e05405d8a144b9b982f0a>@@@Z 000000018005ea54     libucrt:wsetlocale.obj
 0001:0005da7c       $unwind$??$?RV<lambda_1d892b297fdedeee07ed8124eeb2f2fa>@@AEAV<lambda_ffc046909424fd52df0ac47e64813305>@@V<lambda_01a7098693036236037e7cdb9bca3d73>@@@?$__crt_seh_guarded_call@X@@QEAAX$$QEAV<lambda_1d892b297fdedeee07ed8124eeb2f2fa>@@AEAV<lambda_ffc046909424fd52df0ac47e64813305>@@$$QEAV<lambda_01a7098693036236037e7cdb9bca3d73>@@@Z 000000018005ea7c     libucrt:wsetlocale.obj
 0001:0005daa0       $unwind$??$?RV<lambda_7f2adfce497ff2baa965cd4f576ecfd1>@@AEAV<lambda_2a444430fde8c29194d880d93eed5e8f>@@AEAV<lambda_8dff2cf36a5417162780cd64fa2883ef>@@@?$__crt_seh_guarded_call@X@@QEAAX$$QEAV<lambda_7f2adfce497ff2baa965cd4f576ecfd1>@@AEAV<lambda_2a444430fde8c29194d880d93eed5e8f>@@AEAV<lambda_8dff2cf36a5417162780cd64fa2883ef>@@@Z 000000018005eaa0     libucrt:wsetlocale.obj
 0001:0005dac0       $unwind$_mbstowcs_s_l      000000018005eac0     libucrt:mbstowcs.obj
 0001:0005dad8       $unwind$?_mbstowcs_l_helper@@YA_KPEA_WPEBD_KPEAU__crt_locale_pointers@@@Z 000000018005ead8     libucrt:mbstowcs.obj
 0001:0005daf0       $unwind$_call_matherr      000000018005eaf0     libucrt:libm_error.obj
 0001:0005daf8       $unwind$_handle_error      000000018005eaf8     libucrt:libm_error.obj
 0001:0005daf8       $unwind$_handle_errorf     000000018005eaf8     libucrt:libm_error.obj
 0001:0005db18       $unwind$__acrt_initialize_fma3 000000018005eb18     libucrt:fma3_available.obj
 0001:0005db20       $unwind$_log_special_common 000000018005eb20     libucrt:log_special.obj
 0001:0005db2c       $unwind$_powf_special      000000018005eb2c     libucrt:pow_special.obj
 0001:0005db3c       $unwind$_pow_special       000000018005eb3c     libucrt:pow_special.obj
 0001:0005db48       $unwind$?_wcstombs_l_helper@@YA_KPEADPEB_W_KPEAU__crt_locale_pointers@@@Z 000000018005eb48     libucrt:wcstombs.obj
 0001:0005db6c       $stateUnwindMap$?_wcstombs_l_helper@@YA_KPEADPEB_W_KPEAU__crt_locale_pointers@@@Z 000000018005eb6c     libucrt:wcstombs.obj
 0001:0005db78       $ip2state$?_wcstombs_l_helper@@YA_KPEADPEB_W_KPEAU__crt_locale_pointers@@@Z 000000018005eb78     libucrt:wcstombs.obj
 0001:0005db88       $unwind$__acrt_GetLocaleInfoA 000000018005eb88     libucrt:getlocaleinfoa.obj
 0001:0005dba8       $unwind$?InternalGetLocaleInfoA@@YAHQEAU__crt_locale_pointers@@QEB_WKQEADH@Z 000000018005eba8     libucrt:getlocaleinfoa.obj
 0001:0005dbd0       $unwind$__acrt_GetStringTypeA 000000018005ebd0     libucrt:getstringtypea.obj
 0001:0005dbf8       $unwind$__acrt_LCMapStringA 000000018005ebf8     libucrt:lcmapstringa.obj
 0001:0005dc08       $unwind$?__acrt_LCMapStringA_stat@@YAHPEAU__crt_locale_pointers@@PEB_WKPEBDHPEADHHH@Z 000000018005ec08     libucrt:lcmapstringa.obj
 0001:0005dc30       $unwind$_raise_exc_ex      000000018005ec30     libucrt:fpexcept.obj
 0001:0005dc44       $unwind$_ctrlfp            000000018005ec44     libucrt:fpctrl.obj
 0001:0005dc6c       $unwind$_isctype_l         000000018005ec6c     libucrt:isctype.obj
 0001:0005dc88       $unwind$raise              000000018005ec88     libucrt:signal.obj
 0001:0005dcc4       $unwind$??$?RV<lambda_450d765d439847d4c735a33c368b5fc0>@@AEAV<lambda_44731a7d0e6d81c3e6aa82d741081786>@@V<lambda_601a2a7da3b7a96e9554ac7215c4b07c>@@@?$__crt_seh_guarded_call@P6AXH@Z@@QEAAP6AXH@Z$$QEAV<lambda_450d765d439847d4c735a33c368b5fc0>@@AEAV<lambda_44731a7d0e6d81c3e6aa82d741081786>@@$$QEAV<lambda_601a2a7da3b7a96e9554ac7215c4b07c>@@@Z 000000018005ecc4     libucrt:signal.obj
 0001:0005dce8       $unwind$_wcsicmp_l         000000018005ece8     libucrt:wcsicmp.obj
 0001:0005dd00       $unwind$??$common_expand_argv_wildcards@D@@YAHQEAPEADQEAPEAPEAD@Z 000000018005ed00     libucrt:argv_wildcards.obj
 0001:0005dd18       $unwind$__acrt_GetModuleFileNameA 000000018005ed18     libucrt:getmodulefilenamea.obj
 0001:0005dd34       $unwind$_setmbcp_nolock    000000018005ed34     libucrt:mbctype.obj
 0001:0005dd54       $unwind$?update_thread_multibyte_data_internal@@YAPEAU__crt_multibyte_data@@QEAU__acrt_ptd@@QEAPEAU1@@Z 000000018005ed54     libucrt:mbctype.obj
 0001:0005dd7c       $unwind$?setmbcp_internal@@YAHH_NQEAU__acrt_ptd@@QEAPEAU__crt_multibyte_data@@@Z 000000018005ed7c     libucrt:mbctype.obj
 0001:0005dd8c       $unwind$?setSBUpLow@@YAXPEAU__crt_multibyte_data@@@Z 000000018005ed8c     libucrt:mbctype.obj
 0001:0005dda8       $unwind$??$?RV<lambda_efdfa57d1f175319df784efa44bb7b81>@@AEAV<lambda_5f0a4c1567f8adc6734073e5d1e1b35c>@@V<lambda_2e8a7d3640ea6ccb4c2413664c2db6fd>@@@?$__crt_seh_guarded_call@X@@QEAAX$$QEAV<lambda_efdfa57d1f175319df784efa44bb7b81>@@AEAV<lambda_5f0a4c1567f8adc6734073e5d1e1b35c>@@$$QEAV<lambda_2e8a7d3640ea6ccb4c2413664c2db6fd>@@@Z 000000018005eda8     libucrt:mbctype.obj
 0001:0005ddcc       $unwind$?x_ismbbtype_l@@YAHPEAU__crt_locale_pointers@@IHH@Z 000000018005edcc     libucrt:ismbbyte.obj
 0001:0005dddc       $unwind$__acrt_update_thread_locale_data 000000018005eddc     libucrt:locale_refcounting.obj
 0001:0005de00       $unwind$__acrt_fenv_set_control 000000018005ee00     libucrt:_fenvutils.obj
 0001:0005de10       $unwind$fclose             000000018005ee10     libucrt:fclose.obj
 0001:0005de34       $unwind$_close             000000018005ee34     libucrt:close.obj
 0001:0005de34       $unwind$_commit            000000018005ee34     libucrt:commit.obj
 0001:0005de3c       $unwind$??$?RV<lambda_a37b2b86f63e897a80ea819b0eb08c01>@@AEAV<lambda_38ce7e780aa69e748d6df282ebc68efe>@@V<lambda_99fb1378e971ab6e7edea83e3a7a83a2>@@@?$__crt_seh_guarded_call@H@@QEAAH$$QEAV<lambda_a37b2b86f63e897a80ea819b0eb08c01>@@AEAV<lambda_38ce7e780aa69e748d6df282ebc68efe>@@$$QEAV<lambda_99fb1378e971ab6e7edea83e3a7a83a2>@@@Z 000000018005ee3c     libucrt:commit.obj
 0001:0005de60       $unwind$?__mbsrtowcs_utf8@__crt_mbstring@@YA_KPEA_WPEAPEBD_KPEAU_Mbstatet@@@Z 000000018005ee60     libucrt:mbrtowc.obj
 0001:0005de78       $unwind$_putwch_nolock     000000018005ee78     libucrt:putwch.obj
 0001:0005de80       $unwind$__acrt_fltout      000000018005ee80     libucrt:cfout.obj
 0001:0005dea0       $unwind$__acrt_locale_initialize_monetary 000000018005eea0     libucrt:initmon.obj
 0001:0005dea0       $unwind$?initialize_lc_time@@YA_NQEAU__crt_lc_time_data@@QEAU__crt_locale_data@@@Z 000000018005eea0     libucrt:inittime.obj
 0001:0005debc       $unwind$__acrt_locale_free_monetary 000000018005eebc     libucrt:initmon.obj
 0001:0005dec4       $unwind$__acrt_locale_free_time 000000018005eec4     libucrt:inittime.obj
 0001:0005ded4       $unwind$__acrt_get_qualified_locale 000000018005eed4     libucrt:get_qualified_locale.obj
 0001:0005def0       $unwind$LangCountryEnumProcEx 000000018005eef0     libucrt:get_qualified_locale.obj
 0001:0005df10       $unwind$LanguageEnumProcEx 000000018005ef10     libucrt:get_qualified_locale.obj
 0001:0005df2c       $unwind$GetLocaleNameFromDefault 000000018005ef2c     libucrt:get_qualified_locale.obj
 0001:0005df44       $unwind$TestDefaultCountry 000000018005ef44     libucrt:get_qualified_locale.obj
 0001:0005df54       $unwind$__acrt_get_qualified_locale_downlevel 000000018005ef54     libucrt:getqloc_downlevel.obj
 0001:0005df70       $unwind$LangCountryEnumProc 000000018005ef70     libucrt:getqloc_downlevel.obj
 0001:0005df90       $unwind$LanguageEnumProc   000000018005ef90     libucrt:getqloc_downlevel.obj
 0001:0005dfac       $unwind$CountryEnumProc    000000018005efac     libucrt:getqloc_downlevel.obj
 0001:0005dfcc       $unwind$?__wcsrtombs_utf8@__crt_mbstring@@YA_KPEADPEAPEB_W_KPEAU_Mbstatet@@@Z 000000018005efcc     libucrt:wcrtomb.obj
 0001:0005dff0       $xdatasym                  000000018005eff0     libucrt:fpsr.obj
 0001:0005dff8       $unwind$_towlower_l        000000018005eff8     libucrt:towlower.obj
 0001:0005e000       $unwind$qsort              000000018005f000     libucrt:qsort.obj
 0001:0005e018       $chain$4$qsort             000000018005f018     libucrt:qsort.obj
 0001:0005e03c       $chain$5$qsort             000000018005f03c     libucrt:qsort.obj
 0001:0005e04c       $unwind$fallbackMethod     000000018005f04c     libucrt:strpbrk.obj
 0001:0005e05c       $unwind$_mbsdec_l          000000018005f05c     libucrt:mbsdec.obj
 0001:0005e068       $unwind$_wcsnicmp_l        000000018005f068     libucrt:wcsnicmp.obj
 0001:0005e084       $unwind$??$?RV<lambda_751a882b2c74d4b022dec766aa51a29a>@@AEAV<lambda_628dfdc04ba53c8bfc02c9951375f3f5>@@V<lambda_f6c7be5f7998530c34de24c7437d6b54>@@@?$__crt_seh_guarded_call@H@@QEAAH$$QEAV<lambda_751a882b2c74d4b022dec766aa51a29a>@@AEAV<lambda_628dfdc04ba53c8bfc02c9951375f3f5>@@$$QEAV<lambda_f6c7be5f7998530c34de24c7437d6b54>@@@Z 000000018005f084     libucrt:close.obj
 0001:0005e0a8       $unwind$?__mbrtoc32_utf8@__crt_mbstring@@YA_KPEA_UPEBD_KPEAU_Mbstatet@@@Z 000000018005f0a8     libucrt:mbrtoc32.obj
 0001:0005e0c4       $unwind$_IsNonwritableInCurrentImage 000000018005f0c4     LIBCMT:pesect.obj
 0001:0005e4c0       .edata                     000000018005f4c0     ProcList.exp
 0001:0005e4e8       rgpv                       000000018005f4e8     ProcList.exp
 0001:0005e524       rgszName                   000000018005f524     ProcList.exp
 0001:0005e560       rgwOrd                     000000018005f560     ProcList.exp
 0001:0005e57e       szName                     000000018005f57e     ProcList.exp
 0001:0005e58b       $N00001                    000000018005f58b     ProcList.exp
 0001:0005e597       $N00002                    000000018005f597     ProcList.exp
 0001:0005e5a0       $N00003                    000000018005f5a0     ProcList.exp
 0001:0005e5ab       $N00004                    000000018005f5ab     ProcList.exp
 0001:0005e5b8       $N00005                    000000018005f5b8     ProcList.exp
 0001:0005e5c1       $N00006                    000000018005f5c1     ProcList.exp
 0001:0005e5cf       $N00007                    000000018005f5cf     ProcList.exp
 0001:0005e5d9       $N00008                    000000018005f5d9     ProcList.exp
 0001:0005e5e6       $N00009                    000000018005f5e6     ProcList.exp
 0001:0005e5f5       $N00010                    000000018005f5f5     ProcList.exp
 0001:0005e607       $N00011                    000000018005f607     ProcList.exp
 0001:0005e616       $N00012                    000000018005f616     ProcList.exp
 0001:0005e61c       $N00013                    000000018005f61c     ProcList.exp
 0001:0005e62f       $N00014                    000000018005f62f     ProcList.exp
 0001:0005e642       $N00015                    000000018005f642     ProcList.exp
 0002:00000180       ?FKeys@?1??GetOpenPanelInfo@Plist@@QEAAXPEAUOpenPanelInfo@@@Z@4PAGA 0000000180060180     Pclass.obj
 0002:000001c8       ?nr@?7??Connect@Plist@@QEAA_NPEB_W00@Z@4U_NETRESOURCEW@@A 00000001800601c8     Pclass.obj
 0002:00000270       ?init@std@@3JA             0000000180060270     libcpmt:xlock.obj
 0002:00000278       ?atcount_cdecl@@3_KA       0000000180060278     libcpmt:iosptrs.obj
 0002:000002c0       ?__vcrt_flsindex@@3KA      00000001800602c0     libvcruntime:per_thread_data.obj
 0002:000002d0       ?errno_no_memory@@3HA      00000001800602d0     libucrt:errno.obj
 0002:000002d4       ?doserrno_no_memory@@3KA   00000001800602d4     libucrt:errno.obj
 0002:000004c0       ?__acrt_flsindex@@3KA      00000001800604c0     libucrt:per_thread_data.obj
 0002:000004c8       _ctype_loc_style           00000001800604c8     libucrt:wsetlocale.obj
 0002:00000644       ?dazSupported@?1??_ctrlfp@@9@9 0000000180060644     libucrt:fpctrl.obj
 0002:00000650       ?tzstd_program@@3PADA      0000000180060650     libucrt:timeset.obj
 0002:00000690       ?tzdst_program@@3PADA      0000000180060690     libucrt:timeset.obj
 0002:000006d0       ?tzname_states@@3PAY01PEADA 00000001800606d0     libucrt:timeset.obj
 0002:00000910       _mbctypes                  0000000180060910     libucrt:mbctype.obj
 0002:00000a20       _mbcasemaps                0000000180060a20     libucrt:mbctype.obj
 0002:00000b20       ?__rgctypeflag@@3PADA      0000000180060b20     libucrt:mbctype.obj
 0002:00000b30       ?__rgcode_page_info@@3PAUcode_page_info@@A 0000000180060b30     libucrt:mbctype.obj
 0002:00000d20       ?__dcrt_lowio_console_output_handle@@3PEAXEA 0000000180060d20     libucrt:initcon.obj
 0002:00000e70       ??_R0?AV<lambda_87e110110aa5c29eaf754372c3484d5b>@@@8 0000000180060e70     Plist.obj
 0002:00000eb0       ??_R0?AV<lambda_6ecd11d6a952986d4bf89c34edf08f5f>@@@8 0000000180060eb0     WMI.obj
 0002:00000ef0       ??_R0?AV<lambda_aac7a801b46524f039ecb4f6852a8dbe>@@@8 0000000180060ef0     WMI.obj
 0002:00001150       ?UserAccountID@?1??GetUserAccountID@@YA@XZ@4V?$basic_string@_WU?$char_traits@_W@std@@V?$allocator@_W@2@@std@@B 0000000180061150     handles.obj
 0002:00001170       ?$S1@?1??GetUserAccountID@@YA@XZ@4IA 0000000180061170     handles.obj
 0002:000011e0       ?TitlesLocal@?1??PanelModes@Plist@@QEAAPEAUPanelMode@@AEA_K@Z@4V?$array@V?$array@PEA_W$0BI@@std@@$09@std@@A 00000001800611e0     Pclass.obj
 0002:00001960       ?TitlesRemote@?1??PanelModes@Plist@@QEAAPEAUPanelMode@@AEA_K@Z@4V?$array@V?$array@PEA_W$0BI@@std@@$09@std@@A 0000000180061960     Pclass.obj
 0002:000020e0       ?PanelModesLocal@?1??PanelModes@Plist@@QEAAPEAUPanelMode@@AEA_K@Z@4V?$array@UPanelMode@@$09@std@@A 00000001800620e0     Pclass.obj
 0002:000022c0       ?PanelModesRemote@?1??PanelModes@Plist@@QEAAPEAUPanelMode@@AEA_K@Z@4V?$array@UPanelMode@@$09@std@@A 00000001800622c0     Pclass.obj
 0002:000024a0       ?ArraysInited@?2??PanelModes@Plist@@QEAAPEAUPanelMode@@AEA_K@Z@4_NA 00000001800624a0     Pclass.obj
 0002:000024a8       ?Title@?1??GetOpenPanelInfo@Plist@@QEAAXPEAUOpenPanelInfo@@@Z@4V?$basic_string@_WU?$char_traits@_W@std@@V?$allocator@_W@2@@std@@A 00000001800624a8     Pclass.obj
 0002:000024c8       ?$S1@?1??GetOpenPanelInfo@Plist@@QEAAXPEAUOpenPanelInfo@@@Z@4IA 00000001800624c8     Pclass.obj
 0002:000024d0       ?kbl@?1??GetOpenPanelInfo@Plist@@QEAAXPEAUOpenPanelInfo@@@Z@4PAUKeyBarLabel@@A 00000001800624d0     Pclass.obj
 0002:000025d8       ?kbt@?1??GetOpenPanelInfo@Plist@@QEAAXPEAUOpenPanelInfo@@@Z@4UKeyBarTitles@@A 00000001800625d8     Pclass.obj
 0002:000025e8       ?$S2@?1??GetOpenPanelInfo@Plist@@QEAAXPEAUOpenPanelInfo@@@Z@4IA 00000001800625e8     Pclass.obj
 0002:000025f0       ?Styles@?1??window_style@@YA@PEAUHWND__@@@Z@4QBU?$pair@HPEB_W@std@@B 00000001800625f0     Pclass.obj
 0002:000026f0       ?$S3@?1??window_style@@YA@PEAUHWND__@@@Z@4IA 00000001800626f0     Pclass.obj
 0002:00002700       ?ExtStyles@?1??window_ex_style@@YA@PEAUHWND__@@@Z@4QBU?$pair@HPEB_W@std@@B 0000000180062700     Pclass.obj
 0002:00002840       ?$S5@?1??window_ex_style@@YA@PEAUHWND__@@@Z@4IA 0000000180062840     Pclass.obj
 0002:00002848       ?hDebugToken@@3V?$unique_ptr@XUhandle_closer@@@std@@A 0000000180062848     Plist.obj
 0002:00002b18       ?Inited@?1??dynamic_bind@@YAXXZ@4_NA 0000000180062b18     Proclist.obj
 0002:00002b20       ?PluginMenuStrings@?4??GetPluginInfoW@@9@4PAPEB_WA 0000000180062b20     Proclist.obj
 0002:00002b28       ?DiskMenuStrings@?7??GetPluginInfoW@@9@4PAPEB_WA 0000000180062b28     Proclist.obj
 0002:00002b30       ?PluginCfgStrings@?1??GetPluginInfoW@@9@4PAPEB_WA 0000000180062b30     Proclist.obj
 0002:00002b40       ?initlocks@std@@3V_Init_locks@1@A 0000000180062b40     libcpmt:xlock.obj
 0002:00002b50       ?mtx@std@@3PAU_RTL_CRITICAL_SECTION@@A 0000000180062b50     libcpmt:xlock.obj
 0002:00002cc0       ?classic_locale@std@@3Vlocale@1@A 0000000180062cc0     libcpmt:locale0.obj
 0002:00002cd8       ?_Fac_tidy_reg@std@@3U_Fac_tidy_reg_t@1@B 0000000180062cd8     libcpmt:locale0.obj
 0002:00002ce0       ?_Fac_head@std@@3PEAU_Fac_node@1@EA 0000000180062ce0     libcpmt:locale0.obj
 0002:00002ce8       global_locale              0000000180062ce8     libcpmt:locale0.obj
 0002:00002cf0       ?registered@?1??_Setgloballocale@locale@std@@CAXPEAX@Z@4_NA 0000000180062cf0     libcpmt:locale0.obj
 0002:00002d50       ?initlocks@std@@3V_Init_locks@1@A 0000000180062d50     libcpmt:iosptrs.obj
 0002:00002d51       ?init_atexit@@3U_Init_atexit@@A 0000000180062d51     libcpmt:iosptrs.obj
 0002:00002d60       ?atfuns_cdecl@@3PAP6AXXZA  0000000180062d60     libcpmt:iosptrs.obj
 0002:00002fe8       ?is_initialized_as_dll@@3_NA 0000000180062fe8     LIBCMT:utility.obj
 0002:00002fe9       ?module_local_atexit_table_initialized@@3_NA 0000000180062fe9     LIBCMT:utility.obj
 0002:00002ff0       ?module_local_atexit_table@@3U_onexit_table_t@@A 0000000180062ff0     LIBCMT:utility.obj
 0002:00003008       ?module_local_at_quick_exit_table@@3U_onexit_table_t@@A 0000000180063008     LIBCMT:utility.obj
 0002:00003020       ?__proc_attached@@3HA      0000000180063020     LIBCMT:dll_dllmain.obj
 0002:00003050       GS_ExceptionRecord         0000000180063050     LIBCMT:gs_report.obj
 0002:000030f0       GS_ContextRecord           00000001800630f0     LIBCMT:gs_report.obj
 0002:000035d0       ?__vcrt_startup_thread_ptd@@3U__vcrt_ptd@@A 00000001800635d0     libvcruntime:per_thread_data.obj
 0002:00003650       __vcrt_lock_table          0000000180063650     libvcruntime:locks.obj
 0002:00003678       __vcrt_locks_initialized   0000000180063678     libvcruntime:locks.obj
 0002:000036c0       ?heap@@3V_HeapManager@@A   00000001800636c0     libvcruntime:undname.obj
 0002:000036e8       ?module_handles@@3PAPEAUHINSTANCE__@@A 00000001800636e8     libvcruntime:winapi_downlevel.obj
 0002:00003700       ?function_pointers@@3PAPEAXA 0000000180063700     libvcruntime:winapi_downlevel.obj
 0002:00003728       ?__acrt_invalid_parameter_handler@@3V?$dual_state_global@P6AXPEB_W00I_K@Z@__crt_state_management@@A 0000000180063728     libucrt:invalid_parameter.obj
 0002:00003750       ?__acrt_lock_table@@3PAU_RTL_CRITICAL_SECTION@@A 0000000180063750     libucrt:locks.obj
 0002:00003980       ?__acrt_locks_initialized@@3IA 0000000180063980     libucrt:locks.obj
 0002:00003984       ?c_termination_complete@@3JA 0000000180063984     libucrt:exit.obj
 0002:00003988       ?thread_local_exit_callback_func@@3P6AXPEAXK0@ZEA 0000000180063988     libucrt:exit.obj
 0002:000039a0       ?program_name@?1???$common_configure_argv@D@@YAHW4_crt_argv_mode@@@Z@4PADA 00000001800639a0     libucrt:argv_parsing.obj
 0002:00003af8       ?__acrt_new_handler@@3V?$dual_state_global@P6AH_K@Z@__crt_state_management@@A 0000000180063af8     libucrt:new_handler.obj
 0002:00003b00       ?module_handles@@3PAPEAUHINSTANCE__@@A 0000000180063b00     libucrt:winapi_thunks.obj
 0002:00003ba0       ?encoded_function_pointers@@3PAPEAXA 0000000180063ba0     libucrt:winapi_thunks.obj
 0002:00003cb0       ?static_enum_proc@?1??enum_system_locales_ex_nolock@@YAHQ6AHPEA_WK_J@Z@Z@4P6AH0K1@ZEA 0000000180063cb0     libucrt:winapi_thunks.obj
 0002:000040d8       ?internal_state@?1??_mbtowc_l@@9@4U_Mbstatet@@A 00000001800640d8     libucrt:mbtowc.obj
 0002:000040e0       ?enable_percent_n@@3_KA    00000001800640e0     libucrt:printf_count_output.obj
 0002:000040f8       ?__acrt_app_type@@3W4_crt_app_type@@A 00000001800640f8     libucrt:report_runtime_error.obj
 0002:00004108       ?ctrlc_action@@3V?$dual_state_global@P6AXH@Z@__crt_state_management@@A 0000000180064108     libucrt:signal.obj
 0002:00004110       ?ctrlbreak_action@@3V?$dual_state_global@P6AXH@Z@__crt_state_management@@A 0000000180064110     libucrt:signal.obj
 0002:00004118       ?abort_action@@3V?$dual_state_global@P6AXH@Z@__crt_state_management@@A 0000000180064118     libucrt:signal.obj
 0002:00004120       ?term_action@@3V?$dual_state_global@P6AXH@Z@__crt_state_management@@A 0000000180064120     libucrt:signal.obj
 0002:00004138       ?_tzname@@3V?$dual_state_global@PEAPEAD@__crt_state_management@@A 0000000180064138     libucrt:timeset.obj
 0002:00004140       ?tz_api_used@@3HA          0000000180064140     libucrt:tzset.obj
 0002:00004150       ?tz_info@@3U_TIME_ZONE_INFORMATION@@A 0000000180064150     libucrt:tzset.obj
 0002:00004218       ?fSystemSet@@3HA           0000000180064218     libucrt:mbctype.obj
 0002:0000421c       ?initialized@?1??__acrt_initialize_multibyte@@9@4_NA 000000018006421c     libucrt:mbctype.obj
 0002:00004258       ?user_matherr@@3V?$dual_state_global@P6AHPEAU_exception@@@Z@__crt_state_management@@A 0000000180064258     libucrt:matherr.obj
 0002:00004260       ?__acrt_global_new_mode@@3V?$dual_state_global@J@__crt_state_management@@A 0000000180064260     libucrt:new_mode.obj
 0002:00004268       ?internal_pst@?1??__mbrtoc32_utf8@__crt_mbstring@@YA_KPEA_UPEBD_KPEAU_Mbstatet@@@Z@4U3@A 0000000180064268     libucrt:mbrtoc32.obj
 0002:00004270       ?internal_pst@?1??__c16rtomb_utf8@__crt_mbstring@@YA_KPEAD_SPEAU_Mbstatet@@@Z@4U3@A 0000000180064270     libucrt:c16rtomb.obj
 0003:0000000c       $pdata$?deallocate@?$allocator@_W@std@@QEAAXQEA_W_K@Z 000000018006500c     fileio.obj
 0003:00000018       $pdata$??1?$basic_string@_WU?$char_traits@_W@std@@V?$allocator@_W@2@@std@@QEAA@XZ 0000000180065018     fileio.obj
 0003:00000018       $pdata$?_Tidy_deallocate@?$basic_string@_WU?$char_traits@_W@std@@V?$allocator@_W@2@@std@@AEAAXXZ 0000000180065018     fileio.obj
 0003:00000024       $pdata$??1columns@@QEAA@XZ 0000000180065024     fileio.obj
 0003:00000030       $pdata$??1mode@@QEAA@XZ    0000000180065030     fileio.obj
 0003:0000003c       $pdata$??1?$vector@Umode@@V?$allocator@Umode@@@std@@@std@@QEAA@XZ 000000018006503c     fileio.obj
 0003:00000048       $pdata$0$??1?$vector@Umode@@V?$allocator@Umode@@@std@@@std@@QEAA@XZ 0000000180065048     fileio.obj
 0003:00000054       $pdata$1$??1?$vector@Umode@@V?$allocator@Umode@@@std@@@std@@QEAA@XZ 0000000180065054     fileio.obj
 0003:00000060       $pdata$2$??1?$vector@Umode@@V?$allocator@Umode@@@std@@@std@@QEAA@XZ 0000000180065060     fileio.obj
 0003:0000006c       $pdata$3$??1?$vector@Umode@@V?$allocator@Umode@@@std@@@std@@QEAA@XZ 000000018006506c     fileio.obj
 0003:00000078       $pdata$?WriteToFile@@YA_KPEAXAEBV?$basic_string_view@_WU?$char_traits@_W@std@@@std@@@Z 0000000180065078     fileio.obj
 0003:00000084       $pdata$?WriteToFile@@YA_KPEAX_W@Z 0000000180065084     fileio.obj
 0003:00000090       $pdata$??$_Destroy_range@V?$allocator@Umode@@@std@@@std@@YAXPEAUmode@@QEAU1@AEAV?$allocator@Umode@@@0@@Z 0000000180065090     fileio.obj
 0003:0000009c       $pdata$0$??$_Destroy_range@V?$allocator@Umode@@@std@@@std@@YAXPEAUmode@@QEAU1@AEAV?$allocator@Umode@@@0@@Z 000000018006509c     fileio.obj
 0003:000000a8       $pdata$1$??$_Destroy_range@V?$allocator@Umode@@@std@@@std@@YAXPEAUmode@@QEAU1@AEAV?$allocator@Umode@@@0@@Z 00000001800650a8     fileio.obj
 0003:000000b4       $pdata$??0exception@std@@QEAA@AEBV01@@Z 00000001800650b4     format.obj
 0003:000000c0       $pdata$??_Gbad_alloc@std@@UEAAPEAXI@Z 00000001800650c0     format.obj
 0003:000000c0       $pdata$??_Gbad_array_new_length@std@@UEAAPEAXI@Z 00000001800650c0     format.obj
 0003:000000c0       $pdata$??_Gbad_cast@std@@UEAAPEAXI@Z 00000001800650c0     format.obj
 0003:000000c0       $pdata$??_Gexception@std@@UEAAPEAXI@Z 00000001800650c0     format.obj
 0003:000000c0       $pdata$??_Gformat_error@v7@fmt@@UEAAPEAXI@Z 00000001800650c0     format.obj
 0003:000000c0       $pdata$??_Gruntime_error@std@@UEAAPEAXI@Z 00000001800650c0     format.obj
 0003:000000c0       $pdata$??_Gbad_function_call@std@@UEAAPEAXI@Z 00000001800650c0     libcpmt:xthrow.obj
 0003:000000c0       $pdata$??_Glength_error@std@@UEAAPEAXI@Z 00000001800650c0     libcpmt:xthrow.obj
 0003:000000c0       $pdata$??_Glogic_error@std@@UEAAPEAXI@Z 00000001800650c0     libcpmt:xthrow.obj
 0003:000000c0       $pdata$??_Gout_of_range@std@@UEAAPEAXI@Z 00000001800650c0     libcpmt:xthrow.obj
 0003:000000c0       $pdata$??_Gbad_exception@std@@UEAAPEAXI@Z 00000001800650c0     libvcruntime:frame.obj
 0003:000000cc       $pdata$??0bad_alloc@std@@QEAA@AEBV01@@Z 00000001800650cc     format.obj
 0003:000000d8       $pdata$??0bad_array_new_length@std@@QEAA@AEBV01@@Z 00000001800650d8     format.obj
 0003:000000e4       $pdata$?_Throw_bad_array_new_length@std@@YAXXZ 00000001800650e4     format.obj
 0003:000000e4       $pdata$?__scrt_throw_std_bad_array_new_length@@YAXXZ 00000001800650e4     LIBCMT:throw_bad_alloc.obj
 0003:000000f0       $pdata$??0bad_cast@std@@QEAA@AEBV01@@Z 00000001800650f0     format.obj
 0003:000000fc       $pdata$?_Throw_bad_cast@std@@YAXXZ 00000001800650fc     format.obj
 0003:00000108       $pdata$??1?$basic_string@DU?$char_traits@D@std@@V?$allocator@D@2@@std@@QEAA@XZ 0000000180065108     format.obj
 0003:00000114       $pdata$?assign@?$basic_string@DU?$char_traits@D@std@@V?$allocator@D@2@@std@@QEAAAEAV12@QEBD_K@Z 0000000180065114     format.obj
 0003:00000120       $pdata$0$?assign@?$basic_string@DU?$char_traits@D@std@@V?$allocator@D@2@@std@@QEAAAEAV12@QEBD_K@Z 0000000180065120     format.obj
 0003:0000012c       $pdata$1$?assign@?$basic_string@DU?$char_traits@D@std@@V?$allocator@D@2@@std@@QEAAAEAV12@QEBD_K@Z 000000018006512c     format.obj
 0003:00000138       $pdata$2$?assign@?$basic_string@DU?$char_traits@D@std@@V?$allocator@D@2@@std@@QEAAAEAV12@QEBD_K@Z 0000000180065138     format.obj
 0003:00000144       $pdata$3$?assign@?$basic_string@DU?$char_traits@D@std@@V?$allocator@D@2@@std@@QEAAAEAV12@QEBD_K@Z 0000000180065144     format.obj
 0003:00000150       $pdata$?_Xlen@?$basic_string@DU?$char_traits@D@std@@V?$allocator@D@2@@std@@CAXXZ 0000000180065150     format.obj
 0003:00000150       $pdata$?_Xlen@?$basic_string@_WU?$char_traits@_W@std@@V?$allocator@_W@2@@std@@CAXXZ 0000000180065150     format.obj
 0003:0000015c       $pdata$?allocate@?$allocator@_W@std@@QEAAPEA_W_K@Z 000000018006515c     format.obj
 0003:00000168       $pdata$?assign@?$basic_string@_WU?$char_traits@_W@std@@V?$allocator@_W@2@@std@@QEAAAEAV12@QEB_W_K@Z 0000000180065168     format.obj
 0003:00000174       $pdata$??0runtime_error@std@@QEAA@PEBD@Z 0000000180065174     format.obj
 0003:00000180       $pdata$??0runtime_error@std@@QEAA@AEBV01@@Z 0000000180065180     format.obj
 0003:0000018c       $pdata$??_G_Facet_base@std@@UEAAPEAXI@Z 000000018006518c     format.obj
 0003:00000198       $pdata$??1_Locinfo@std@@QEAA@XZ 0000000180065198     format.obj
 0003:000001a4       $pdata$??1?$_Yarn@D@std@@QEAA@XZ 00000001800651a4     format.obj
 0003:000001a4       $pdata$??1?$_Yarn@_W@std@@QEAA@XZ 00000001800651a4     format.obj
 0003:000001b0       $pdata$??1locale@std@@QEAA@XZ 00000001800651b0     format.obj
 0003:000001bc       $pdata$??$_Maklocstr@D@std@@YAPEADPEBDPEADAEBU_Cvtvec@@@Z 00000001800651bc     format.obj
 0003:000001c8       $pdata$?on_error@error_handler@detail@v7@fmt@@QEAAXPEBD@Z 00000001800651c8     format.obj
 0003:000001d4       $pdata$?try_resize@?$buffer@D@detail@v7@fmt@@QEAAX_K@Z 00000001800651d4     format.obj
 0003:000001e0       $pdata$??0format_error@v7@fmt@@QEAA@AEBV012@@Z 00000001800651e0     format.obj
 0003:000001ec       $pdata$??$grouping_impl@_W@detail@v7@fmt@@YA?AV?$basic_string@DU?$char_traits@D@std@@V?$allocator@D@2@@std@@Vlocale_ref@012@@Z 00000001800651ec     format.obj
 0003:000001f8       $pdata$??$thousands_sep_impl@_W@detail@v7@fmt@@YA_WVlocale_ref@012@@Z 00000001800651f8     format.obj
 0003:00000204       $pdata$??$decimal_point_impl@_W@detail@v7@fmt@@YA_WVlocale_ref@012@@Z 0000000180065204     format.obj
 0003:00000210       $pdata$?grow@?$basic_memory_buffer@_W$0BPE@V?$allocator@_W@std@@@v7@fmt@@MEAAX_K@Z 0000000180065210     format.obj
 0003:0000021c       $pdata$??1?$basic_memory_buffer@_W$0BPE@V?$allocator@_W@std@@@v7@fmt@@QEAA@XZ 000000018006521c     format.obj
 0003:00000228       $pdata$?grow@?$basic_memory_buffer@D$0BPE@V?$allocator@D@std@@@v7@fmt@@MEAAX_K@Z 0000000180065228     format.obj
 0003:00000234       $pdata$??1?$basic_memory_buffer@D$0BPE@V?$allocator@D@std@@@v7@fmt@@QEAA@XZ 0000000180065234     format.obj
 0003:00000240       $pdata$??$format_float@N@detail@v7@fmt@@YAHNHUfloat_specs@012@AEAV?$buffer@D@012@@Z 0000000180065240     format.obj
 0003:0000024c       $pdata$0$??$format_float@N@detail@v7@fmt@@YAHNHUfloat_specs@012@AEAV?$buffer@D@012@@Z 000000018006524c     format.obj
 0003:00000258       $pdata$2$??$format_float@N@detail@v7@fmt@@YAHNHUfloat_specs@012@AEAV?$buffer@D@012@@Z 0000000180065258     format.obj
 0003:00000264       $pdata$5$??$format_float@N@detail@v7@fmt@@YAHNHUfloat_specs@012@AEAV?$buffer@D@012@@Z 0000000180065264     format.obj
 0003:00000270       $pdata$6$??$format_float@N@detail@v7@fmt@@YAHNHUfloat_specs@012@AEAV?$buffer@D@012@@Z 0000000180065270     format.obj
 0003:0000027c       $pdata$7$??$format_float@N@detail@v7@fmt@@YAHNHUfloat_specs@012@AEAV?$buffer@D@012@@Z 000000018006527c     format.obj
 0003:00000288       $pdata$??$format_float@O@detail@v7@fmt@@YAHOHUfloat_specs@012@AEAV?$buffer@D@012@@Z 0000000180065288     format.obj
 0003:00000294       $pdata$0$??$format_float@O@detail@v7@fmt@@YAHOHUfloat_specs@012@AEAV?$buffer@D@012@@Z 0000000180065294     format.obj
 0003:000002a0       $pdata$2$??$format_float@O@detail@v7@fmt@@YAHOHUfloat_specs@012@AEAV?$buffer@D@012@@Z 00000001800652a0     format.obj
 0003:000002ac       $pdata$5$??$format_float@O@detail@v7@fmt@@YAHOHUfloat_specs@012@AEAV?$buffer@D@012@@Z 00000001800652ac     format.obj
 0003:000002b8       $pdata$6$??$format_float@O@detail@v7@fmt@@YAHOHUfloat_specs@012@AEAV?$buffer@D@012@@Z 00000001800652b8     format.obj
 0003:000002c4       $pdata$7$??$format_float@O@detail@v7@fmt@@YAHOHUfloat_specs@012@AEAV?$buffer@D@012@@Z 00000001800652c4     format.obj
 0003:000002d0       $pdata$??$snprintf_float@N@detail@v7@fmt@@YAHNHUfloat_specs@012@AEAV?$buffer@D@012@@Z 00000001800652d0     format.obj
 0003:000002dc       $pdata$??$snprintf_float@O@detail@v7@fmt@@YAHOHUfloat_specs@012@AEAV?$buffer@D@012@@Z 00000001800652dc     format.obj
 0003:000002e8       $pdata$?fmt_snprintf@detail@v7@fmt@@YAHPEAD_KPEBDZZ 00000001800652e8     format.obj
 0003:000002f4       $pdata$?grow@?$basic_memory_buffer@I$0CA@V?$allocator@I@std@@@v7@fmt@@MEAAX_K@Z 00000001800652f4     format.obj
 0003:00000300       $pdata$??1?$basic_memory_buffer@I$0CA@V?$allocator@I@std@@@v7@fmt@@QEAA@XZ 0000000180065300     format.obj
 0003:00000300       $pdata$??1bigint@detail@v7@fmt@@QEAA@XZ 0000000180065300     format.obj
 0003:0000030c       $pdata$??_3bigint@detail@v7@fmt@@QEAAAEAV0123@H@Z 000000018006530c     format.obj
 0003:00000318       $pdata$1$??_3bigint@detail@v7@fmt@@QEAAAEAV0123@H@Z 0000000180065318     format.obj
 0003:00000324       $pdata$2$??_3bigint@detail@v7@fmt@@QEAAAEAV0123@H@Z 0000000180065324     format.obj
 0003:00000330       $pdata$?compare@detail@v7@fmt@@YAHAEBVbigint@123@0@Z 0000000180065330     format.obj
 0003:0000033c       $pdata$?add_compare@detail@v7@fmt@@YAHAEBVbigint@123@00@Z 000000018006533c     format.obj
 0003:00000348       $pdata$?assign_pow10@bigint@detail@v7@fmt@@QEAAXH@Z 0000000180065348     format.obj
 0003:00000354       $pdata$?square@bigint@detail@v7@fmt@@QEAAXXZ 0000000180065354     format.obj
 0003:00000360       $pdata$?divmod_assign@bigint@detail@v7@fmt@@QEAAHAEBV1234@@Z 0000000180065360     format.obj
 0003:0000036c       $pdata$2$?divmod_assign@bigint@detail@v7@fmt@@QEAAHAEBV1234@@Z 000000018006536c     format.obj
 0003:00000378       $pdata$3$?divmod_assign@bigint@detail@v7@fmt@@QEAAHAEBV1234@@Z 0000000180065378     format.obj
 0003:00000384       $pdata$??$?XH@bigint@detail@v7@fmt@@QEAAAEAV0123@H@Z 0000000180065384     format.obj
 0003:00000390       $pdata$?get_cached_power@?$cache_accessor@N@dragonbox@detail@v7@fmt@@SA?AUuint128_wrapper@345@H@Z 0000000180065390     format.obj
 0003:0000039c       $pdata$??$do_throw@Vformat_error@v7@fmt@@@detail@v7@fmt@@YAXAEBVformat_error@12@@Z 000000018006539c     format.obj
 0003:000003a8       $pdata$??$get@Vlocale@std@@@locale_ref@detail@v7@fmt@@QEBA?AVlocale@std@@XZ 00000001800653a8     format.obj
 0003:000003b4       $pdata$??$use_facet@V?$numpunct@_W@std@@@std@@YAAEBV?$numpunct@_W@0@AEBVlocale@0@@Z 00000001800653b4     format.obj
 0003:000003c0       $pdata$?_Getcat@?$numpunct@_W@std@@SA_KPEAPEBVfacet@locale@2@PEBV42@@Z 00000001800653c0     format.obj
 0003:000003cc       $pdata$?dtor$0@?0??_Getcat@?$numpunct@_W@std@@SA_KPEAPEBVfacet@locale@2@PEBV42@@Z@4HA 00000001800653cc     format.obj
 0003:000003d8       $pdata$?dtor$1@?0??_Getcat@?$numpunct@_W@std@@SA_KPEAPEBVfacet@locale@2@PEBV42@@Z@4HA 00000001800653d8     format.obj
 0003:000003e4       $pdata$?_Init@?$numpunct@_W@std@@IEAAXAEBV_Locinfo@2@_N@Z 00000001800653e4     format.obj
 0003:000003f0       $pdata$?do_grouping@?$numpunct@_W@std@@MEBA?AV?$basic_string@DU?$char_traits@D@std@@V?$allocator@D@2@@2@XZ 00000001800653f0     format.obj
 0003:000003fc       $pdata$?do_falsename@?$numpunct@_W@std@@MEBA?AV?$basic_string@_WU?$char_traits@_W@std@@V?$allocator@_W@2@@2@XZ 00000001800653fc     format.obj
 0003:00000408       $pdata$?do_truename@?$numpunct@_W@std@@MEBA?AV?$basic_string@_WU?$char_traits@_W@std@@V?$allocator@_W@2@@2@XZ 0000000180065408     format.obj
 0003:00000414       $pdata$??_G?$numpunct@_W@std@@MEAAPEAXI@Z 0000000180065414     format.obj
 0003:00000420       $pdata$??$to_decimal@M@dragonbox@detail@v7@fmt@@YA?AU?$decimal_fp@M@0123@M@Z 0000000180065420     format.obj
 0003:0000042c       $pdata$5$??$to_decimal@M@dragonbox@detail@v7@fmt@@YA?AU?$decimal_fp@M@0123@M@Z 000000018006542c     format.obj
 0003:00000438       $pdata$??$write@DV?$buffer_appender@D@detail@v7@fmt@@I$0A@@detail@v7@fmt@@YA?AV?$buffer_appender@D@012@V3012@I@Z 0000000180065438     format.obj
 0003:00000444       $pdata$??$to_decimal@N@dragonbox@detail@v7@fmt@@YA?AU?$decimal_fp@N@0123@N@Z 0000000180065444     format.obj
 0003:00000450       $pdata$3$??$to_decimal@N@dragonbox@detail@v7@fmt@@YA?AU?$decimal_fp@N@0123@N@Z 0000000180065450     format.obj
 0003:0000045c       $pdata$4$??$to_decimal@N@dragonbox@detail@v7@fmt@@YA?AU?$decimal_fp@N@0123@N@Z 000000018006545c     format.obj
 0003:00000468       $pdata$??$write@DV?$buffer_appender@D@detail@v7@fmt@@_K$0A@@detail@v7@fmt@@YA?AV?$buffer_appender@D@012@V3012@_K@Z 0000000180065468     format.obj
 0003:00000474       $pdata$??$fallback_format@N@detail@v7@fmt@@YAXNH_NAEAV?$buffer@D@012@AEAH@Z 0000000180065474     format.obj
 0003:00000474       $pdata$??$fallback_format@O@detail@v7@fmt@@YAXOH_NAEAV?$buffer@D@012@AEAH@Z 0000000180065474     format.obj
 0003:00000480       $pdata$??$format_decimal@DIV?$buffer_appender@D@detail@v7@fmt@@$0A@@detail@v7@fmt@@YA?AU?$format_decimal_result@V?$buffer_appender@D@detail@v7@fmt@@@012@V?$buffer_appender@D@012@IH@Z 0000000180065480     format.obj
 0003:0000048c       $pdata$??$format_decimal@D_KV?$buffer_appender@D@detail@v7@fmt@@$0A@@detail@v7@fmt@@YA?AU?$format_decimal_result@V?$buffer_appender@D@detail@v7@fmt@@@012@V?$buffer_appender@D@012@_KH@Z 000000018006548c     format.obj
 0003:00000498       $pdata$??1?$_Tidy_guard@V?$numpunct@_W@std@@@std@@QEAA@XZ 0000000180065498     format.obj
 0003:000004a4       $pdata$??0?$basic_string@_WU?$char_traits@_W@std@@V?$allocator@_W@2@@std@@QEAA@AEBV01@@Z 00000001800654a4     handles.obj
 0003:000004b0       $pdata$?append@?$basic_string@_WU?$char_traits@_W@std@@V?$allocator@_W@2@@std@@QEAAAEAV12@QEB_W_K@Z 00000001800654b0     handles.obj
 0003:000004bc       $pdata$0$?append@?$basic_string@_WU?$char_traits@_W@std@@V?$allocator@_W@2@@std@@QEAAAEAV12@QEB_W_K@Z 00000001800654bc     handles.obj
 0003:000004c8       $pdata$1$?append@?$basic_string@_WU?$char_traits@_W@std@@V?$allocator@_W@2@@std@@QEAAAEAV12@QEB_W_K@Z 00000001800654c8     handles.obj
 0003:000004d4       $pdata$2$?append@?$basic_string@_WU?$char_traits@_W@std@@V?$allocator@_W@2@@std@@QEAAAEAV12@QEB_W_K@Z 00000001800654d4     handles.obj
 0003:000004e0       $pdata$3$?append@?$basic_string@_WU?$char_traits@_W@std@@V?$allocator@_W@2@@std@@QEAAAEAV12@QEB_W_K@Z 00000001800654e0     handles.obj
 0003:000004ec       $pdata$??1DebugToken@@QEAA@XZ 00000001800654ec     handles.obj
 0003:000004f8       $pdata$?PrintHandleInfo@@YA_NKPEAX_NPEAVPerfThread@@@Z 00000001800654f8     handles.obj
 0003:00000504       $pdata$?query_object@@YA?AV?$unique_ptr@$$BY0A@DU?$default_delete@$$BY0A@D@std@@@std@@PEAXW4OBJECT_INFORMATION_CLASS@@@Z 0000000180065504     handles.obj
 0003:00000510       $pdata$?GetFileNameThread@test@?4??GetFileName@@YA?AV?$basic_string@_WU?$char_traits@_W@std@@V?$allocator@_W@2@@std@@PEAX@Z@SAK0@Z 0000000180065510     handles.obj
 0003:0000051c       $pdata$??R<lambda_c3630acb37279cf92411e07a2b271fdf>@@QEBA?AV?$basic_string@_WU?$char_traits@_W@std@@V?$allocator@_W@2@@std@@XZ 000000018006551c     handles.obj
 0003:00000528       $pdata$??$make_unique@$$BY0A@_W$0A@@std@@YA?AV?$unique_ptr@$$BY0A@_WU?$default_delete@$$BY0A@_W@std@@@0@_K@Z 0000000180065528     handles.obj
 0003:00000534       $pdata$??__FUserAccountID@?1??GetUserAccountID@@YA@XZ@YAXXZ 0000000180065534     handles.obj
 0003:00000540       $pdata$?GetNameByType@@YA?AV?$basic_string@_WU?$char_traits@_W@std@@V?$allocator@_W@2@@std@@PEAXGPEAVPerfThread@@@Z 0000000180065540     handles.obj
 0003:0000054c       $pdata$?dtor$20@?0??GetNameByType@@YA?AV?$basic_string@_WU?$char_traits@_W@std@@V?$allocator@_W@2@@std@@PEAXGPEAVPerfThread@@@Z@4HA 000000018006554c     handles.obj
 0003:00000558       $pdata$??1?$scoped_lock@VPerfThread@@@std@@QEAA@XZ 0000000180065558     handles.obj
 0003:00000564       $pdata$?duplicate_handle@@YA?AV?$unique_ptr@XUhandle_closer@@@std@@PEAXK@Z 0000000180065564     handles.obj
 0003:00000570       $pdata$??$vformat@_W$0A@@detail@v7@fmt@@YA?AV?$basic_string@_WU?$char_traits@_W@std@@V?$allocator@_W@2@@std@@V?$basic_string_view@_W@12@V?$basic_format_args@V?$basic_format_context@V?$buffer_appender@_W@detail@v7@fmt@@_W@v7@fmt@@@12@@Z 0000000180065570     handles.obj
 0003:0000057c       $pdata$?on_fill@?$specs_setter@_W@detail@v7@fmt@@QEAAXV?$basic_string_view@_W@34@@Z 000000018006557c     handles.obj
 0003:00000588       $pdata$??$visit_format_arg@U?$default_arg_formatter@V?$buffer_appender@_W@detail@v7@fmt@@_W@detail@v7@fmt@@V?$basic_format_context@V?$buffer_appender@_W@detail@v7@fmt@@_W@34@@v7@fmt@@YA?AV?$buffer_appender@_W@detail@01@$$QEAU?$default_arg_formatter@V?$buffer_appender@_W@detail@v7@fmt@@_W@301@AEBV?$basic_format_arg@V?$basic_format_context@V?$buffer_appender@_W@detail@v7@fmt@@_W@v7@fmt@@@01@@Z 0000000180065588     handles.obj
 0003:00000594       $pdata$?on_text@?$format_handler@V?$buffer_appender@_W@detail@v7@fmt@@_WV?$basic_format_context@V?$buffer_appender@_W@detail@v7@fmt@@_W@34@@detail@v7@fmt@@QEAAXPEB_W0@Z 0000000180065594     handles.obj
 0003:000005a0       $pdata$?on_replacement_field@?$format_handler@V?$buffer_appender@_W@detail@v7@fmt@@_WV?$basic_format_context@V?$buffer_appender@_W@detail@v7@fmt@@_W@34@@detail@v7@fmt@@QEAAXHPEB_W@Z 00000001800655a0     handles.obj
 0003:000005ac       $pdata$?on_format_specs@?$format_handler@V?$buffer_appender@_W@detail@v7@fmt@@_WV?$basic_format_context@V?$buffer_appender@_W@detail@v7@fmt@@_W@34@@detail@v7@fmt@@QEAAPEB_WHPEB_W0@Z 00000001800655ac     handles.obj
 0003:000005b8       $pdata$0$?on_format_specs@?$format_handler@V?$buffer_appender@_W@detail@v7@fmt@@_WV?$basic_format_context@V?$buffer_appender@_W@detail@v7@fmt@@_W@34@@detail@v7@fmt@@QEAAPEB_WHPEB_W0@Z 00000001800655b8     handles.obj
 0003:000005c4       $pdata$1$?on_format_specs@?$format_handler@V?$buffer_appender@_W@detail@v7@fmt@@_WV?$basic_format_context@V?$buffer_appender@_W@detail@v7@fmt@@_W@34@@detail@v7@fmt@@QEAAPEB_WHPEB_W0@Z 00000001800655c4     handles.obj
 0003:000005d0       $pdata$??$parse_format_string@$0A@_WAEAU?$format_handler@V?$buffer_appender@_W@detail@v7@fmt@@_WV?$basic_format_context@V?$buffer_appender@_W@detail@v7@fmt@@_W@34@@detail@v7@fmt@@@detail@v7@fmt@@YAXV?$basic_string_view@_W@12@AEAU?$format_handler@V?$buffer_appender@_W@detail@v7@fmt@@_WV?$basic_format_context@V?$buffer_appender@_W@detail@v7@fmt@@_W@34@@012@@Z 00000001800655d0     handles.obj
 0003:000005dc       $pdata$0$??$parse_format_string@$0A@_WAEAU?$format_handler@V?$buffer_appender@_W@detail@v7@fmt@@_WV?$basic_format_context@V?$buffer_appender@_W@detail@v7@fmt@@_W@34@@detail@v7@fmt@@@detail@v7@fmt@@YAXV?$basic_string_view@_W@12@AEAU?$format_handler@V?$buffer_appender@_W@detail@v7@fmt@@_WV?$basic_format_context@V?$buffer_appender@_W@detail@v7@fmt@@_W@34@@012@@Z 00000001800655dc     handles.obj
 0003:000005e8       $pdata$1$??$parse_format_string@$0A@_WAEAU?$format_handler@V?$buffer_appender@_W@detail@v7@fmt@@_WV?$basic_format_context@V?$buffer_appender@_W@detail@v7@fmt@@_W@34@@detail@v7@fmt@@@detail@v7@fmt@@YAXV?$basic_string_view@_W@12@AEAU?$format_handler@V?$buffer_appender@_W@detail@v7@fmt@@_WV?$basic_format_context@V?$buffer_appender@_W@detail@v7@fmt@@_W@34@@012@@Z 00000001800655e8     handles.obj
 0003:000005f4       $pdata$??Rwriter@?1???$parse_format_string@$0A@_WAEAU?$format_handler@V?$buffer_appender@_W@detail@v7@fmt@@_WV?$basic_format_context@V?$buffer_appender@_W@detail@v7@fmt@@_W@34@@detail@v7@fmt@@@detail@v7@fmt@@YAXV?$basic_string_view@_W@23@AEAU?$format_handler@V?$buffer_appender@_W@detail@v7@fmt@@_WV?$basic_format_context@V?$buffer_appender@_W@detail@v7@fmt@@_W@34@@123@@Z@QEAAXPEB_W2@Z 00000001800655f4     handles.obj
 0003:00000600       $pdata$0$??Rwriter@?1???$parse_format_string@$0A@_WAEAU?$format_handler@V?$buffer_appender@_W@detail@v7@fmt@@_WV?$basic_format_context@V?$buffer_appender@_W@detail@v7@fmt@@_W@34@@detail@v7@fmt@@@detail@v7@fmt@@YAXV?$basic_string_view@_W@23@AEAU?$format_handler@V?$buffer_appender@_W@detail@v7@fmt@@_WV?$basic_format_context@V?$buffer_appender@_W@detail@v7@fmt@@_W@34@@123@@Z@QEAAXPEB_W2@Z 0000000180065600     handles.obj
 0003:0000060c       $pdata$1$??Rwriter@?1???$parse_format_string@$0A@_WAEAU?$format_handler@V?$buffer_appender@_W@detail@v7@fmt@@_WV?$basic_format_context@V?$buffer_appender@_W@detail@v7@fmt@@_W@34@@detail@v7@fmt@@@detail@v7@fmt@@YAXV?$basic_string_view@_W@23@AEAU?$format_handler@V?$buffer_appender@_W@detail@v7@fmt@@_WV?$basic_format_context@V?$buffer_appender@_W@detail@v7@fmt@@_W@34@@123@@Z@QEAAXPEB_W2@Z 000000018006560c     handles.obj
 0003:00000618       $pdata$2$??Rwriter@?1???$parse_format_string@$0A@_WAEAU?$format_handler@V?$buffer_appender@_W@detail@v7@fmt@@_WV?$basic_format_context@V?$buffer_appender@_W@detail@v7@fmt@@_W@34@@detail@v7@fmt@@@detail@v7@fmt@@YAXV?$basic_string_view@_W@23@AEAU?$format_handler@V?$buffer_appender@_W@detail@v7@fmt@@_WV?$basic_format_context@V?$buffer_appender@_W@detail@v7@fmt@@_W@34@@123@@Z@QEAAXPEB_W2@Z 0000000180065618     handles.obj
 0003:00000624       $pdata$??$write@_WV?$buffer_appender@_W@detail@v7@fmt@@@detail@v7@fmt@@YA?AV?$buffer_appender@_W@012@V3012@_W@Z 0000000180065624     handles.obj
 0003:00000630       $pdata$??$write@_WV?$buffer_appender@_W@detail@v7@fmt@@@detail@v7@fmt@@YA?AV?$buffer_appender@_W@012@V3012@_N@Z 0000000180065630     handles.obj
 0003:0000063c       $pdata$??$write@_WV?$buffer_appender@_W@detail@v7@fmt@@H$0A@@detail@v7@fmt@@YA?AV?$buffer_appender@_W@012@V3012@H@Z 000000018006563c     handles.obj
 0003:00000648       $pdata$??$write@_W@detail@v7@fmt@@YA?AV?$buffer_appender@_W@012@V3012@V?$basic_string_view@_W@12@@Z 0000000180065648     handles.obj
 0003:00000654       $pdata$??$write@_WV?$buffer_appender@_W@detail@v7@fmt@@I$0A@@detail@v7@fmt@@YA?AV?$buffer_appender@_W@012@V3012@I@Z 0000000180065654     handles.obj
 0003:00000660       $pdata$??$write@_WV?$buffer_appender@_W@detail@v7@fmt@@_J$0A@@detail@v7@fmt@@YA?AV?$buffer_appender@_W@012@V3012@_J@Z 0000000180065660     handles.obj
 0003:0000066c       $pdata$??$write@_WV?$buffer_appender@_W@detail@v7@fmt@@_K$0A@@detail@v7@fmt@@YA?AV?$buffer_appender@_W@012@V3012@_K@Z 000000018006566c     handles.obj
 0003:00000678       $pdata$??$parse_arg_id@_WAEAU?$id_adapter@AEAU?$format_handler@V?$buffer_appender@_W@detail@v7@fmt@@_WV?$basic_format_context@V?$buffer_appender@_W@detail@v7@fmt@@_W@34@@detail@v7@fmt@@_W@detail@v7@fmt@@@detail@v7@fmt@@YAPEB_WPEB_W0AEAU?$id_adapter@AEAU?$format_handler@V?$buffer_appender@_W@detail@v7@fmt@@_WV?$basic_format_context@V?$buffer_appender@_W@detail@v7@fmt@@_W@34@@detail@v7@fmt@@_W@012@@Z 0000000180065678     handles.obj
 0003:00000684       $pdata$?check_sign@?$numeric_specs_checker@V?$specs_handler@V?$basic_format_parse_context@_WUerror_handler@detail@v7@fmt@@@v7@fmt@@V?$basic_format_context@V?$buffer_appender@_W@detail@v7@fmt@@_W@23@@detail@v7@fmt@@@detail@v7@fmt@@QEAAXXZ 0000000180065684     handles.obj
 0003:00000690       $pdata$??$parse_format_specs@_WAEAV?$specs_checker@V?$specs_handler@V?$basic_format_parse_context@_WUerror_handler@detail@v7@fmt@@@v7@fmt@@V?$basic_format_context@V?$buffer_appender@_W@detail@v7@fmt@@_W@23@@detail@v7@fmt@@@detail@v7@fmt@@@detail@v7@fmt@@YAPEB_WPEB_W0AEAV?$specs_checker@V?$specs_handler@V?$basic_format_parse_context@_WUerror_handler@detail@v7@fmt@@@v7@fmt@@V?$basic_format_context@V?$buffer_appender@_W@detail@v7@fmt@@_W@23@@detail@v7@fmt@@@012@@Z 0000000180065690     handles.obj
 0003:0000069c       $pdata$?write@?$arg_formatter_base@V?$buffer_appender@_W@detail@v7@fmt@@_WUerror_handler@234@@detail@v7@fmt@@IEAAXPEB_W@Z 000000018006569c     handles.obj
 0003:000006a8       $pdata$??$?RH$0A@@?$arg_formatter_base@V?$buffer_appender@_W@detail@v7@fmt@@_WUerror_handler@234@@detail@v7@fmt@@QEAA?AV?$buffer_appender@_W@123@H@Z 00000001800656a8     handles.obj
 0003:000006b4       $pdata$??$visit_format_arg@V?$arg_formatter@V?$buffer_appender@_W@detail@v7@fmt@@_W@detail@v7@fmt@@V?$basic_format_context@V?$buffer_appender@_W@detail@v7@fmt@@_W@34@@v7@fmt@@YA?AV?$buffer_appender@_W@detail@01@$$QEAV?$arg_formatter@V?$buffer_appender@_W@detail@v7@fmt@@_W@301@AEBV?$basic_format_arg@V?$basic_format_context@V?$buffer_appender@_W@detail@v7@fmt@@_W@v7@fmt@@@01@@Z 00000001800656b4     handles.obj
 0003:000006c0       $pdata$0$??$visit_format_arg@V?$arg_formatter@V?$buffer_appender@_W@detail@v7@fmt@@_W@detail@v7@fmt@@V?$basic_format_context@V?$buffer_appender@_W@detail@v7@fmt@@_W@34@@v7@fmt@@YA?AV?$buffer_appender@_W@detail@01@$$QEAV?$arg_formatter@V?$buffer_appender@_W@detail@v7@fmt@@_W@301@AEBV?$basic_format_arg@V?$basic_format_context@V?$buffer_appender@_W@detail@v7@fmt@@_W@v7@fmt@@@01@@Z 00000001800656c0     handles.obj
 0003:000006cc       $pdata$1$??$visit_format_arg@V?$arg_formatter@V?$buffer_appender@_W@detail@v7@fmt@@_W@detail@v7@fmt@@V?$basic_format_context@V?$buffer_appender@_W@detail@v7@fmt@@_W@34@@v7@fmt@@YA?AV?$buffer_appender@_W@detail@01@$$QEAV?$arg_formatter@V?$buffer_appender@_W@detail@v7@fmt@@_W@301@AEBV?$basic_format_arg@V?$basic_format_context@V?$buffer_appender@_W@detail@v7@fmt@@_W@v7@fmt@@@01@@Z 00000001800656cc     handles.obj
 0003:000006d8       $pdata$??$write_ptr@_WV?$buffer_appender@_W@detail@v7@fmt@@_K@detail@v7@fmt@@YA?AV?$buffer_appender@_W@012@V3012@_KPEBU?$basic_format_specs@_W@12@@Z 00000001800656d8     handles.obj
 0003:000006e4       $pdata$1$??$write_ptr@_WV?$buffer_appender@_W@detail@v7@fmt@@_K@detail@v7@fmt@@YA?AV?$buffer_appender@_W@012@V3012@_KPEBU?$basic_format_specs@_W@12@@Z 00000001800656e4     handles.obj
 0003:000006f0       $pdata$2$??$write_ptr@_WV?$buffer_appender@_W@detail@v7@fmt@@_K@detail@v7@fmt@@YA?AV?$buffer_appender@_W@012@V3012@_KPEBU?$basic_format_specs@_W@12@@Z 00000001800656f0     handles.obj
 0003:000006fc       $pdata$??$format_decimal@_WIV?$buffer_appender@_W@detail@v7@fmt@@$0A@@detail@v7@fmt@@YA?AU?$format_decimal_result@V?$buffer_appender@_W@detail@v7@fmt@@@012@V?$buffer_appender@_W@012@IH@Z 00000001800656fc     handles.obj
 0003:00000708       $pdata$??$format_decimal@_W_K@detail@v7@fmt@@YA?AU?$format_decimal_result@PEA_W@012@PEA_W_KH@Z 0000000180065708     handles.obj
 0003:00000714       $pdata$0$??$format_decimal@_W_K@detail@v7@fmt@@YA?AU?$format_decimal_result@PEA_W@012@PEA_W_KH@Z 0000000180065714     handles.obj
 0003:00000720       $pdata$1$??$format_decimal@_W_K@detail@v7@fmt@@YA?AU?$format_decimal_result@PEA_W@012@PEA_W_KH@Z 0000000180065720     handles.obj
 0003:0000072c       $pdata$??$format_decimal@_W_KV?$buffer_appender@_W@detail@v7@fmt@@$0A@@detail@v7@fmt@@YA?AU?$format_decimal_result@V?$buffer_appender@_W@detail@v7@fmt@@@012@V?$buffer_appender@_W@012@_KH@Z 000000018006572c     handles.obj
 0003:00000738       $pdata$??$write_nonfinite@_WV?$buffer_appender@_W@detail@v7@fmt@@@detail@v7@fmt@@YA?AV?$buffer_appender@_W@012@V3012@_NAEBU?$basic_format_specs@_W@12@AEBUfloat_specs@012@@Z 0000000180065738     handles.obj
 0003:00000744       $pdata$??$write_float@V?$buffer_appender@_W@detail@v7@fmt@@U?$decimal_fp@M@dragonbox@234@_W@detail@v7@fmt@@YA?AV?$buffer_appender@_W@012@V3012@AEBU?$decimal_fp@M@dragonbox@012@AEBU?$basic_format_specs@_W@12@Ufloat_specs@012@_W@Z 0000000180065744     handles.obj
 0003:00000750       $pdata$??$write_float@V?$buffer_appender@_W@detail@v7@fmt@@U?$decimal_fp@N@dragonbox@234@_W@detail@v7@fmt@@YA?AV?$buffer_appender@_W@012@V3012@AEBU?$decimal_fp@N@dragonbox@012@AEBU?$basic_format_specs@_W@12@Ufloat_specs@012@_W@Z 0000000180065750     handles.obj
 0003:0000075c       $pdata$??$write@_W@?$arg_formatter_base@V?$buffer_appender@_W@detail@v7@fmt@@_WUerror_handler@234@@detail@v7@fmt@@AEAAXV?$basic_string_view@_W@23@AEBU?$basic_format_specs@_W@23@@Z 000000018006575c     handles.obj
 0003:00000768       $pdata$?on_char@char_spec_handler@?$arg_formatter_base@V?$buffer_appender@_W@detail@v7@fmt@@_WUerror_handler@234@@detail@v7@fmt@@QEAAXXZ 0000000180065768     handles.obj
 0003:00000774       $pdata$0$?on_char@char_spec_handler@?$arg_formatter_base@V?$buffer_appender@_W@detail@v7@fmt@@_WUerror_handler@234@@detail@v7@fmt@@QEAAXXZ 0000000180065774     handles.obj
 0003:00000780       $pdata$1$?on_char@char_spec_handler@?$arg_formatter_base@V?$buffer_appender@_W@detail@v7@fmt@@_WUerror_handler@234@@detail@v7@fmt@@QEAAXXZ 0000000180065780     handles.obj
 0003:0000078c       $pdata$??$get_id@_W@?$basic_format_args@V?$basic_format_context@V?$buffer_appender@_W@detail@v7@fmt@@_W@v7@fmt@@@v7@fmt@@QEBAHV?$basic_string_view@_W@12@@Z 000000018006578c     handles.obj
 0003:00000798       $pdata$??$copy_str@_WPEBDV?$buffer_appender@_W@detail@v7@fmt@@$0A@@detail@v7@fmt@@YA?AV?$buffer_appender@_W@012@PEBD0V3012@@Z 0000000180065798     handles.obj
 0003:000007a4       $pdata$0$??$copy_str@_WPEBDV?$buffer_appender@_W@detail@v7@fmt@@$0A@@detail@v7@fmt@@YA?AV?$buffer_appender@_W@012@PEBD0V3012@@Z 00000001800657a4     handles.obj
 0003:000007b0       $pdata$1$??$copy_str@_WPEBDV?$buffer_appender@_W@detail@v7@fmt@@$0A@@detail@v7@fmt@@YA?AV?$buffer_appender@_W@012@PEBD0V3012@@Z 00000001800657b0     handles.obj
 0003:000007bc       $pdata$??$write_int@H@?$arg_formatter_base@V?$buffer_appender@_W@detail@v7@fmt@@_WUerror_handler@234@@detail@v7@fmt@@AEAAXHAEBU?$basic_format_specs@_W@23@@Z 00000001800657bc     handles.obj
 0003:000007c8       $pdata$??$format_uint@$03_WV?$buffer_appender@_W@detail@v7@fmt@@_K@detail@v7@fmt@@YA?AV?$buffer_appender@_W@012@V3012@_KH_N@Z 00000001800657c8     handles.obj
 0003:000007d4       $pdata$1$??$format_uint@$03_WV?$buffer_appender@_W@detail@v7@fmt@@_K@detail@v7@fmt@@YA?AV?$buffer_appender@_W@012@V3012@_KH_N@Z 00000001800657d4     handles.obj
 0003:000007e0       $pdata$2$??$format_uint@$03_WV?$buffer_appender@_W@detail@v7@fmt@@_K@detail@v7@fmt@@YA?AV?$buffer_appender@_W@012@V3012@_KH_N@Z 00000001800657e0     handles.obj
 0003:000007ec       $pdata$3$??$format_uint@$03_WV?$buffer_appender@_W@detail@v7@fmt@@_K@detail@v7@fmt@@YA?AV?$buffer_appender@_W@012@V3012@_KH_N@Z 00000001800657ec     handles.obj
 0003:000007f8       $pdata$4$??$format_uint@$03_WV?$buffer_appender@_W@detail@v7@fmt@@_K@detail@v7@fmt@@YA?AV?$buffer_appender@_W@012@V3012@_KH_N@Z 00000001800657f8     handles.obj
 0003:00000804       $pdata$??R<lambda_25250293cfc32af92054c3b40a759709>@@QEBA?AV?$buffer_appender@_W@detail@v7@fmt@@V1234@@Z 0000000180065804     handles.obj
 0003:00000810       $pdata$0$??R<lambda_25250293cfc32af92054c3b40a759709>@@QEBA?AV?$buffer_appender@_W@detail@v7@fmt@@V1234@@Z 0000000180065810     handles.obj
 0003:0000081c       $pdata$1$??R<lambda_25250293cfc32af92054c3b40a759709>@@QEBA?AV?$buffer_appender@_W@detail@v7@fmt@@V1234@@Z 000000018006581c     handles.obj
 0003:00000828       $pdata$??$write_significand@V?$buffer_appender@_W@detail@v7@fmt@@_W@detail@v7@fmt@@YA?AV?$buffer_appender@_W@012@V3012@PEBDHH_W@Z 0000000180065828     handles.obj
 0003:00000834       $pdata$0$??$write_significand@V?$buffer_appender@_W@detail@v7@fmt@@_W@detail@v7@fmt@@YA?AV?$buffer_appender@_W@012@V3012@PEBDHH_W@Z 0000000180065834     handles.obj
 0003:00000840       $pdata$1$??$write_significand@V?$buffer_appender@_W@detail@v7@fmt@@_W@detail@v7@fmt@@YA?AV?$buffer_appender@_W@012@V3012@PEBDHH_W@Z 0000000180065840     handles.obj
 0003:0000084c       $pdata$??$write_significand@V?$buffer_appender@_W@detail@v7@fmt@@I_W$0A@@detail@v7@fmt@@YA?AV?$buffer_appender@_W@012@V3012@IHH_W@Z 000000018006584c     handles.obj
 0003:00000858       $pdata$??$write_exponent@_WV?$buffer_appender@_W@detail@v7@fmt@@@detail@v7@fmt@@YA?AV?$buffer_appender@_W@012@HV3012@@Z 0000000180065858     handles.obj
 0003:00000864       $pdata$0$??$write_exponent@_WV?$buffer_appender@_W@detail@v7@fmt@@@detail@v7@fmt@@YA?AV?$buffer_appender@_W@012@HV3012@@Z 0000000180065864     handles.obj
 0003:00000870       $pdata$1$??$write_exponent@_WV?$buffer_appender@_W@detail@v7@fmt@@@detail@v7@fmt@@YA?AV?$buffer_appender@_W@012@HV3012@@Z 0000000180065870     handles.obj
 0003:0000087c       $pdata$2$??$write_exponent@_WV?$buffer_appender@_W@detail@v7@fmt@@@detail@v7@fmt@@YA?AV?$buffer_appender@_W@012@HV3012@@Z 000000018006587c     handles.obj
 0003:00000888       $pdata$3$??$write_exponent@_WV?$buffer_appender@_W@detail@v7@fmt@@@detail@v7@fmt@@YA?AV?$buffer_appender@_W@012@HV3012@@Z 0000000180065888     handles.obj
 0003:00000894       $pdata$4$??$write_exponent@_WV?$buffer_appender@_W@detail@v7@fmt@@@detail@v7@fmt@@YA?AV?$buffer_appender@_W@012@HV3012@@Z 0000000180065894     handles.obj
 0003:000008a0       $pdata$5$??$write_exponent@_WV?$buffer_appender@_W@detail@v7@fmt@@@detail@v7@fmt@@YA?AV?$buffer_appender@_W@012@HV3012@@Z 00000001800658a0     handles.obj
 0003:000008ac       $pdata$6$??$write_exponent@_WV?$buffer_appender@_W@detail@v7@fmt@@@detail@v7@fmt@@YA?AV?$buffer_appender@_W@012@HV3012@@Z 00000001800658ac     handles.obj
 0003:000008b8       $pdata$7$??$write_exponent@_WV?$buffer_appender@_W@detail@v7@fmt@@@detail@v7@fmt@@YA?AV?$buffer_appender@_W@012@HV3012@@Z 00000001800658b8     handles.obj
 0003:000008c4       $pdata$??R<lambda_4616bb99871fbb1d7aed0362dec9937f>@@QEBA?AV?$buffer_appender@_W@detail@v7@fmt@@V1234@@Z 00000001800658c4     handles.obj
 0003:000008d0       $pdata$??R<lambda_d5afad9a80eedd7ee5d65dd8636b3113>@@QEBA?AV?$buffer_appender@_W@detail@v7@fmt@@V1234@@Z 00000001800658d0     handles.obj
 0003:000008dc       $pdata$??R<lambda_d927b2905a963478236b832f97f040e8>@@QEBA?AV?$buffer_appender@_W@detail@v7@fmt@@V1234@@Z 00000001800658dc     handles.obj
 0003:000008e8       $pdata$0$??R<lambda_d927b2905a963478236b832f97f040e8>@@QEBA?AV?$buffer_appender@_W@detail@v7@fmt@@V1234@@Z 00000001800658e8     handles.obj
 0003:000008f4       $pdata$1$??R<lambda_d927b2905a963478236b832f97f040e8>@@QEBA?AV?$buffer_appender@_W@detail@v7@fmt@@V1234@@Z 00000001800658f4     handles.obj
 0003:00000900       $pdata$??$write_significand@V?$buffer_appender@_W@detail@v7@fmt@@_K_W$0A@@detail@v7@fmt@@YA?AV?$buffer_appender@_W@012@V3012@_KHH_W@Z 0000000180065900     handles.obj
 0003:0000090c       $pdata$??R<lambda_d4f56f40af5457baa4f93da9d151ebf1>@@QEBA?AV?$buffer_appender@_W@detail@v7@fmt@@V1234@@Z 000000018006590c     handles.obj
 0003:00000918       $pdata$??R<lambda_c6a38d432852b55707518153570cf009>@@QEBA?AV?$buffer_appender@_W@detail@v7@fmt@@V1234@@Z 0000000180065918     handles.obj
 0003:00000924       $pdata$??$parse_arg_id@_WU?$width_adapter@AEAV?$specs_checker@V?$specs_handler@V?$basic_format_parse_context@_WUerror_handler@detail@v7@fmt@@@v7@fmt@@V?$basic_format_context@V?$buffer_appender@_W@detail@v7@fmt@@_W@23@@detail@v7@fmt@@@detail@v7@fmt@@_W@detail@v7@fmt@@@detail@v7@fmt@@YAPEB_WPEB_W0$$QEAU?$width_adapter@AEAV?$specs_checker@V?$specs_handler@V?$basic_format_parse_context@_WUerror_handler@detail@v7@fmt@@@v7@fmt@@V?$basic_format_context@V?$buffer_appender@_W@detail@v7@fmt@@_W@23@@detail@v7@fmt@@@detail@v7@fmt@@_W@012@@Z 0000000180065924     handles.obj
 0003:00000930       $pdata$??$parse_arg_id@_WU?$precision_adapter@AEAV?$specs_checker@V?$specs_handler@V?$basic_format_parse_context@_WUerror_handler@detail@v7@fmt@@@v7@fmt@@V?$basic_format_context@V?$buffer_appender@_W@detail@v7@fmt@@_W@23@@detail@v7@fmt@@@detail@v7@fmt@@_W@detail@v7@fmt@@@detail@v7@fmt@@YAPEB_WPEB_W0$$QEAU?$precision_adapter@AEAV?$specs_checker@V?$specs_handler@V?$basic_format_parse_context@_WUerror_handler@detail@v7@fmt@@@v7@fmt@@V?$basic_format_context@V?$buffer_appender@_W@detail@v7@fmt@@_W@23@@detail@v7@fmt@@@detail@v7@fmt@@_W@012@@Z 0000000180065930     handles.obj
 0003:0000093c       $pdata$??$write@_WV?$buffer_appender@_W@detail@v7@fmt@@M$0A@@detail@v7@fmt@@YA?AV?$buffer_appender@_W@012@V3012@MU?$basic_format_specs@_W@12@Vlocale_ref@012@@Z 000000018006593c     handles.obj
 0003:00000948       $pdata$??$write@_WV?$buffer_appender@_W@detail@v7@fmt@@N$0A@@detail@v7@fmt@@YA?AV?$buffer_appender@_W@012@V3012@NU?$basic_format_specs@_W@12@Vlocale_ref@012@@Z 0000000180065948     handles.obj
 0003:00000954       $pdata$??$write@_WV?$buffer_appender@_W@detail@v7@fmt@@O$0A@@detail@v7@fmt@@YA?AV?$buffer_appender@_W@012@V3012@OU?$basic_format_specs@_W@12@Vlocale_ref@012@@Z 0000000180065954     handles.obj
 0003:00000960       $pdata$??$write@D_WV?$buffer_appender@_W@detail@v7@fmt@@@detail@v7@fmt@@YA?AV?$buffer_appender@_W@012@V3012@V?$basic_string_view@D@12@AEBU?$basic_format_specs@_W@12@@Z 0000000180065960     handles.obj
 0003:0000096c       $pdata$?on_dec@?$int_writer@V?$buffer_appender@_W@detail@v7@fmt@@_WI@detail@v7@fmt@@QEAAXXZ 000000018006596c     handles.obj
 0003:00000978       $pdata$?on_hex@?$int_writer@V?$buffer_appender@_W@detail@v7@fmt@@_WI@detail@v7@fmt@@QEAAXXZ 0000000180065978     handles.obj
 0003:00000984       $pdata$?on_bin@?$int_writer@V?$buffer_appender@_W@detail@v7@fmt@@_WI@detail@v7@fmt@@QEAAXXZ 0000000180065984     handles.obj
 0003:00000990       $pdata$?on_oct@?$int_writer@V?$buffer_appender@_W@detail@v7@fmt@@_WI@detail@v7@fmt@@QEAAXXZ 0000000180065990     handles.obj
 0003:0000099c       $pdata$?on_num@?$int_writer@V?$buffer_appender@_W@detail@v7@fmt@@_WI@detail@v7@fmt@@QEAAXXZ 000000018006599c     handles.obj
 0003:000009a8       $pdata$??$handle_int_type_spec@AEAU?$int_writer@V?$buffer_appender@_W@detail@v7@fmt@@_WI@detail@v7@fmt@@@detail@v7@fmt@@YAXDAEAU?$int_writer@V?$buffer_appender@_W@detail@v7@fmt@@_WI@012@@Z 00000001800659a8     handles.obj
 0003:000009b4       $pdata$??$write_padded@$01V?$buffer_appender@_W@detail@v7@fmt@@_WAEAV<lambda_4b4910ffabc1dcd104aab6476c46284c>@@@detail@v7@fmt@@YA?AV?$buffer_appender@_W@012@V3012@AEBU?$basic_format_specs@_W@12@_K2AEAV<lambda_4b4910ffabc1dcd104aab6476c46284c>@@@Z 00000001800659b4     handles.obj
 0003:000009c0       $pdata$??$write_padded@$01V?$buffer_appender@_W@detail@v7@fmt@@_WAEAV<lambda_fd39a64e3d11c49bae2c0eea12a77202>@@@detail@v7@fmt@@YA?AV?$buffer_appender@_W@012@V3012@AEBU?$basic_format_specs@_W@12@_K2AEAV<lambda_fd39a64e3d11c49bae2c0eea12a77202>@@@Z 00000001800659c0     handles.obj
 0003:000009cc       $pdata$?on_dec@?$int_writer@V?$buffer_appender@_W@detail@v7@fmt@@_W_K@detail@v7@fmt@@QEAAXXZ 00000001800659cc     handles.obj
 0003:000009d8       $pdata$?on_bin@?$int_writer@V?$buffer_appender@_W@detail@v7@fmt@@_W_K@detail@v7@fmt@@QEAAXXZ 00000001800659d8     handles.obj
 0003:000009e4       $pdata$?on_oct@?$int_writer@V?$buffer_appender@_W@detail@v7@fmt@@_W_K@detail@v7@fmt@@QEAAXXZ 00000001800659e4     handles.obj
 0003:000009f0       $pdata$?on_num@?$int_writer@V?$buffer_appender@_W@detail@v7@fmt@@_W_K@detail@v7@fmt@@QEAAXXZ 00000001800659f0     handles.obj
 0003:000009fc       $pdata$??$handle_int_type_spec@AEAU?$int_writer@V?$buffer_appender@_W@detail@v7@fmt@@_W_K@detail@v7@fmt@@@detail@v7@fmt@@YAXDAEAU?$int_writer@V?$buffer_appender@_W@detail@v7@fmt@@_W_K@012@@Z 00000001800659fc     handles.obj
 0003:00000a08       $pdata$??$parse_float_type_spec@Uerror_handler@detail@v7@fmt@@_W@detail@v7@fmt@@YA?AUfloat_specs@012@AEBU?$basic_format_specs@_W@12@$$QEAUerror_handler@012@@Z 0000000180065a08     handles.obj
 0003:00000a14       $pdata$??$write_bytes@_WV?$buffer_appender@_W@detail@v7@fmt@@@detail@v7@fmt@@YA?AV?$buffer_appender@_W@012@V3012@V?$basic_string_view@D@12@AEBU?$basic_format_specs@_W@12@@Z 0000000180065a14     handles.obj
 0003:00000a20       $pdata$0$??$write_bytes@_WV?$buffer_appender@_W@detail@v7@fmt@@@detail@v7@fmt@@YA?AV?$buffer_appender@_W@012@V3012@V?$basic_string_view@D@12@AEBU?$basic_format_specs@_W@12@@Z 0000000180065a20     handles.obj
 0003:00000a2c       $pdata$1$??$write_bytes@_WV?$buffer_appender@_W@detail@v7@fmt@@@detail@v7@fmt@@YA?AV?$buffer_appender@_W@012@V3012@V?$basic_string_view@D@12@AEBU?$basic_format_specs@_W@12@@Z 0000000180065a2c     handles.obj
 0003:00000a38       $pdata$??$write_float@V?$buffer_appender@_W@detail@v7@fmt@@Ubig_decimal_fp@234@_W@detail@v7@fmt@@YA?AV?$buffer_appender@_W@012@V3012@AEBUbig_decimal_fp@012@AEBU?$basic_format_specs@_W@12@Ufloat_specs@012@_W@Z 0000000180065a38     handles.obj
 0003:00000a44       $pdata$??$fill@V?$buffer_appender@_W@detail@v7@fmt@@_W@detail@v7@fmt@@YA?AV?$buffer_appender@_W@012@V3012@_KAEBU?$fill_t@_W@012@@Z 0000000180065a44     handles.obj
 0003:00000a50       $pdata$1$??$fill@V?$buffer_appender@_W@detail@v7@fmt@@_W@detail@v7@fmt@@YA?AV?$buffer_appender@_W@012@V3012@_KAEBU?$fill_t@_W@012@@Z 0000000180065a50     handles.obj
 0003:00000a5c       $pdata$2$??$fill@V?$buffer_appender@_W@detail@v7@fmt@@_W@detail@v7@fmt@@YA?AV?$buffer_appender@_W@012@V3012@_KAEBU?$fill_t@_W@012@@Z 0000000180065a5c     handles.obj
 0003:00000a68       $pdata$??R<lambda_e1d60fde0f959a301c462adcda67875d>@@QEBA?AV?$buffer_appender@_W@detail@v7@fmt@@V1234@@Z 0000000180065a68     handles.obj
 0003:00000a74       $pdata$0$??R<lambda_e1d60fde0f959a301c462adcda67875d>@@QEBA?AV?$buffer_appender@_W@detail@v7@fmt@@V1234@@Z 0000000180065a74     handles.obj
 0003:00000a80       $pdata$1$??R<lambda_e1d60fde0f959a301c462adcda67875d>@@QEBA?AV?$buffer_appender@_W@detail@v7@fmt@@V1234@@Z 0000000180065a80     handles.obj
 0003:00000a8c       $pdata$??R<lambda_38f4362beee931acc75a0518550420fe>@@QEBA?AV?$buffer_appender@_W@detail@v7@fmt@@V1234@@Z 0000000180065a8c     handles.obj
 0003:00000a98       $pdata$0$??R<lambda_38f4362beee931acc75a0518550420fe>@@QEBA?AV?$buffer_appender@_W@detail@v7@fmt@@V1234@@Z 0000000180065a98     handles.obj
 0003:00000aa4       $pdata$1$??R<lambda_38f4362beee931acc75a0518550420fe>@@QEBA?AV?$buffer_appender@_W@detail@v7@fmt@@V1234@@Z 0000000180065aa4     handles.obj
 0003:00000ab0       $pdata$??R<lambda_7ff01892a3078927ded4185f7a58b615>@@QEBA?AV?$buffer_appender@_W@detail@v7@fmt@@V1234@@Z 0000000180065ab0     handles.obj
 0003:00000abc       $pdata$??$get_dynamic_spec@Vprecision_checker@detail@v7@fmt@@V?$basic_format_arg@V?$basic_format_context@V?$buffer_appender@_W@detail@v7@fmt@@_W@v7@fmt@@@34@Uerror_handler@234@@detail@v7@fmt@@YAHV?$basic_format_arg@V?$basic_format_context@V?$buffer_appender@_W@detail@v7@fmt@@_W@v7@fmt@@@12@Uerror_handler@012@@Z 0000000180065abc     handles.obj
 0003:00000ac8       $pdata$??$get_dynamic_spec@Vwidth_checker@detail@v7@fmt@@V?$basic_format_arg@V?$basic_format_context@V?$buffer_appender@_W@detail@v7@fmt@@_W@v7@fmt@@@34@Uerror_handler@234@@detail@v7@fmt@@YAHV?$basic_format_arg@V?$basic_format_context@V?$buffer_appender@_W@detail@v7@fmt@@_W@v7@fmt@@@12@Uerror_handler@012@@Z 0000000180065ac8     handles.obj
 0003:00000ad4       $pdata$??$fill_n@V?$buffer_appender@_W@detail@v7@fmt@@_K_W@std@@YA?AV?$buffer_appender@_W@detail@v7@fmt@@V1234@_KAEB_W@Z 0000000180065ad4     handles.obj
 0003:00000ae0       $pdata$??$write_padded@$01V?$buffer_appender@_W@detail@v7@fmt@@_WAEAV<lambda_6ab46ab70aabe8efae7e4774521859cf>@@@detail@v7@fmt@@YA?AV?$buffer_appender@_W@012@V3012@AEBU?$basic_format_specs@_W@12@_K2AEAV<lambda_6ab46ab70aabe8efae7e4774521859cf>@@@Z 0000000180065ae0     handles.obj
 0003:00000aec       $pdata$??R<lambda_ba169d804ecb8b91f048b0e1f2362dff>@@QEBA?AV?$buffer_appender@_W@detail@v7@fmt@@V1234@@Z 0000000180065aec     handles.obj
 0003:00000af8       $pdata$0$??R<lambda_ba169d804ecb8b91f048b0e1f2362dff>@@QEBA?AV?$buffer_appender@_W@detail@v7@fmt@@V1234@@Z 0000000180065af8     handles.obj
 0003:00000b04       $pdata$1$??R<lambda_ba169d804ecb8b91f048b0e1f2362dff>@@QEBA?AV?$buffer_appender@_W@detail@v7@fmt@@V1234@@Z 0000000180065b04     handles.obj
 0003:00000b10       $pdata$??R<lambda_e3c7c83dd69d7722b8735cfc6878b68a>@@QEBA?AV?$buffer_appender@_W@detail@v7@fmt@@V1234@@Z 0000000180065b10     handles.obj
 0003:00000b1c       $pdata$0$??R<lambda_e3c7c83dd69d7722b8735cfc6878b68a>@@QEBA?AV?$buffer_appender@_W@detail@v7@fmt@@V1234@@Z 0000000180065b1c     handles.obj
 0003:00000b28       $pdata$1$??R<lambda_e3c7c83dd69d7722b8735cfc6878b68a>@@QEBA?AV?$buffer_appender@_W@detail@v7@fmt@@V1234@@Z 0000000180065b28     handles.obj
 0003:00000b34       $pdata$??R<lambda_62e20fa9c93b0c475eedfc8d4cf093c4>@@QEBA?AV?$buffer_appender@_W@detail@v7@fmt@@V1234@@Z 0000000180065b34     handles.obj
 0003:00000b40       $pdata$0$??R<lambda_62e20fa9c93b0c475eedfc8d4cf093c4>@@QEBA?AV?$buffer_appender@_W@detail@v7@fmt@@V1234@@Z 0000000180065b40     handles.obj
 0003:00000b4c       $pdata$1$??R<lambda_62e20fa9c93b0c475eedfc8d4cf093c4>@@QEBA?AV?$buffer_appender@_W@detail@v7@fmt@@V1234@@Z 0000000180065b4c     handles.obj
 0003:00000b58       $pdata$??R<lambda_841f10f506f41ae45cd8677d3beb5225>@@QEBA?AV?$buffer_appender@_W@detail@v7@fmt@@V1234@@Z 0000000180065b58     handles.obj
 0003:00000b64       $pdata$0$??R<lambda_841f10f506f41ae45cd8677d3beb5225>@@QEBA?AV?$buffer_appender@_W@detail@v7@fmt@@V1234@@Z 0000000180065b64     handles.obj
 0003:00000b70       $pdata$1$??R<lambda_841f10f506f41ae45cd8677d3beb5225>@@QEBA?AV?$buffer_appender@_W@detail@v7@fmt@@V1234@@Z 0000000180065b70     handles.obj
 0003:00000b7c       $pdata$??R<lambda_38a3182dcdaee82dcf81af4713909e9c>@@QEBA?AV?$buffer_appender@_W@detail@v7@fmt@@V1234@@Z 0000000180065b7c     handles.obj
 0003:00000b88       $pdata$0$??R<lambda_38a3182dcdaee82dcf81af4713909e9c>@@QEBA?AV?$buffer_appender@_W@detail@v7@fmt@@V1234@@Z 0000000180065b88     handles.obj
 0003:00000b94       $pdata$1$??R<lambda_38a3182dcdaee82dcf81af4713909e9c>@@QEBA?AV?$buffer_appender@_W@detail@v7@fmt@@V1234@@Z 0000000180065b94     handles.obj
 0003:00000ba0       $pdata$??$write_padded@$01V?$buffer_appender@_W@detail@v7@fmt@@_WAEAV<lambda_02ef13d7388f44676ab23b4b72cf4858>@@@detail@v7@fmt@@YA?AV?$buffer_appender@_W@012@V3012@AEBU?$basic_format_specs@_W@12@_K2AEAV<lambda_02ef13d7388f44676ab23b4b72cf4858>@@@Z 0000000180065ba0     handles.obj
 0003:00000bac       $pdata$??$write_padded@$01V?$buffer_appender@_W@detail@v7@fmt@@_WAEAV<lambda_b50b9b8d8e7acaa70e6c58706d54422a>@@@detail@v7@fmt@@YA?AV?$buffer_appender@_W@012@V3012@AEBU?$basic_format_specs@_W@12@_K2AEAV<lambda_b50b9b8d8e7acaa70e6c58706d54422a>@@@Z 0000000180065bac     handles.obj
 0003:00000bb8       $pdata$??$write_padded@$01V?$buffer_appender@_W@detail@v7@fmt@@_WAEAV<lambda_c4418f031026211e2c1713642e49e80a>@@@detail@v7@fmt@@YA?AV?$buffer_appender@_W@012@V3012@AEBU?$basic_format_specs@_W@12@_K2AEAV<lambda_c4418f031026211e2c1713642e49e80a>@@@Z 0000000180065bb8     handles.obj
 0003:00000bc4       $pdata$??1PluginSettings@@QEAA@XZ 0000000180065bc4     Pcfg.obj
 0003:00000bd0       $pdata$?SaveValue@PluginCheckBoxBinding@@UEAAXPEBUFarDialogItem@@H@Z 0000000180065bd0     Pcfg.obj
 0003:00000bdc       $pdata$??_GPluginCheckBoxBinding@@UEAAPEAXI@Z 0000000180065bdc     Pcfg.obj
 0003:00000bdc       $pdata$??_GPluginEditFieldBinding@@UEAAPEAXI@Z 0000000180065bdc     Pclass.obj
 0003:00000be8       $pdata$??1PluginDialogBuilder@@QEAA@XZ 0000000180065be8     Pcfg.obj
 0003:00000bf4       $pdata$?AddButtons@PluginDialogBuilder@@QEAAXHPEBHHH@Z 0000000180065bf4     Pcfg.obj
 0003:00000c00       $pdata$4$?AddButtons@PluginDialogBuilder@@QEAAXHPEBHHH@Z 0000000180065c00     Pcfg.obj
 0003:00000c0c       $pdata$5$?AddButtons@PluginDialogBuilder@@QEAAXHPEBHHH@Z 0000000180065c0c     Pcfg.obj
 0003:00000c18       $pdata$?ShowDialogEx@PluginDialogBuilder@@QEAA_JXZ 0000000180065c18     Pcfg.obj
 0003:00000c24       $pdata$4$?ShowDialogEx@PluginDialogBuilder@@QEAA_JXZ 0000000180065c24     Pcfg.obj
 0003:00000c30       $pdata$6$?ShowDialogEx@PluginDialogBuilder@@QEAA_JXZ 0000000180065c30     Pcfg.obj
 0003:00000c3c       $pdata$7$?ShowDialogEx@PluginDialogBuilder@@QEAA_JXZ 0000000180065c3c     Pcfg.obj
 0003:00000c48       $pdata$8$?ShowDialogEx@PluginDialogBuilder@@QEAA_JXZ 0000000180065c48     Pcfg.obj
 0003:00000c54       $pdata$?AddDialogItem@PluginDialogBuilder@@AEAAPEAUFarDialogItem@@W4FARDIALOGITEMTYPES@@PEB_W@Z 0000000180065c54     Pcfg.obj
 0003:00000c60       $pdata$0$?AddDialogItem@PluginDialogBuilder@@AEAAPEAUFarDialogItem@@W4FARDIALOGITEMTYPES@@PEB_W@Z 0000000180065c60     Pcfg.obj
 0003:00000c6c       $pdata$1$?AddDialogItem@PluginDialogBuilder@@AEAAPEAUFarDialogItem@@W4FARDIALOGITEMTYPES@@PEB_W@Z 0000000180065c6c     Pcfg.obj
 0003:00000c78       $pdata$2$?AddDialogItem@PluginDialogBuilder@@AEAAPEAUFarDialogItem@@W4FARDIALOGITEMTYPES@@PEB_W@Z 0000000180065c78     Pcfg.obj
 0003:00000c84       $pdata$3$?AddDialogItem@PluginDialogBuilder@@AEAAPEAUFarDialogItem@@W4FARDIALOGITEMTYPES@@PEB_W@Z 0000000180065c84     Pcfg.obj
 0003:00000c90       $pdata$?ItemWidth@PluginDialogBuilder@@CA_JAEBUFarDialogItem@@@Z 0000000180065c90     Pcfg.obj
 0003:00000c9c       $pdata$?Read@options@@QEAAXXZ 0000000180065c9c     Pcfg.obj
 0003:00000ca8       $pdata$?Write@options@@QEBAXXZ 0000000180065ca8     Pcfg.obj
 0003:00000cb4       $pdata$?Config@@YAHXZ      0000000180065cb4     Pcfg.obj
 0003:00000cc0       $pdata$?_Xran@?$_String_val@U?$_Simple_types@_W@std@@@std@@SAXXZ 0000000180065cc0     Pclass.obj
 0003:00000ccc       $pdata$?append@?$basic_string@_WU?$char_traits@_W@std@@V?$allocator@_W@2@@std@@QEAAAEAV12@_K_W@Z 0000000180065ccc     Pclass.obj
 0003:00000cd8       $pdata$1$?append@?$basic_string@_WU?$char_traits@_W@std@@V?$allocator@_W@2@@std@@QEAAAEAV12@_K_W@Z 0000000180065cd8     Pclass.obj
 0003:00000ce4       $pdata$2$?append@?$basic_string@_WU?$char_traits@_W@std@@V?$allocator@_W@2@@std@@QEAAAEAV12@_K_W@Z 0000000180065ce4     Pclass.obj
 0003:00000cf0       $pdata$3$?append@?$basic_string@_WU?$char_traits@_W@std@@V?$allocator@_W@2@@std@@QEAAAEAV12@_K_W@Z 0000000180065cf0     Pclass.obj
 0003:00000cfc       $pdata$4$?append@?$basic_string@_WU?$char_traits@_W@std@@V?$allocator@_W@2@@std@@QEAAAEAV12@_K_W@Z 0000000180065cfc     Pclass.obj
 0003:00000d08       $pdata$?insert@?$basic_string@_WU?$char_traits@_W@std@@V?$allocator@_W@2@@std@@QEAAAEAV12@_KQEB_W0@Z 0000000180065d08     Pclass.obj
 0003:00000d14       $pdata$2$?insert@?$basic_string@_WU?$char_traits@_W@std@@V?$allocator@_W@2@@std@@QEAAAEAV12@_KQEB_W0@Z 0000000180065d14     Pclass.obj
 0003:00000d20       $pdata$3$?insert@?$basic_string@_WU?$char_traits@_W@std@@V?$allocator@_W@2@@std@@QEAAAEAV12@_KQEB_W0@Z 0000000180065d20     Pclass.obj
 0003:00000d2c       $pdata$??4columns@@QEAAAEAU0@AEBU0@@Z 0000000180065d2c     Pclass.obj
 0003:00000d38       $pdata$??0Plist@@QEAA@XZ   0000000180065d38     Pclass.obj
 0003:00000d44       $pdata$?dtor$7@?0???0Plist@@QEAA@XZ@4HA 0000000180065d44     Pclass.obj
 0003:00000d50       $pdata$??1Plist@@QEAA@XZ   0000000180065d50     Pclass.obj
 0003:00000d5c       $pdata$?Connect@Plist@@QEAA_NPEB_W00@Z 0000000180065d5c     Pclass.obj
 0003:00000d68       $pdata$?dtor$3@?0??Connect@Plist@@QEAA_NPEB_W00@Z@4HA 0000000180065d68     Pclass.obj
 0003:00000d74       $pdata$?GetFindData@Plist@@QEAAHAEAPEAUPluginPanelItem@@AEA_K_K@Z 0000000180065d74     Pclass.obj
 0003:00000d80       $pdata$?FreeFindData@Plist@@SAXPEAUPluginPanelItem@@_K@Z 0000000180065d80     Pclass.obj
 0003:00000d8c       $pdata$?GetOpenPanelInfo@Plist@@QEAAXPEAUOpenPanelInfo@@@Z 0000000180065d8c     Pclass.obj
 0003:00000d98       $pdata$0$?GetOpenPanelInfo@Plist@@QEAAXPEAUOpenPanelInfo@@@Z 0000000180065d98     Pclass.obj
 0003:00000da4       $pdata$1$?GetOpenPanelInfo@Plist@@QEAAXPEAUOpenPanelInfo@@@Z 0000000180065da4     Pclass.obj
 0003:00000db0       $pdata$?GetFiles@Plist@@QEAAHPEAUPluginPanelItem@@_KHPEAPEB_W1AEAUoptions@@@Z 0000000180065db0     Pclass.obj
 0003:00000dbc       $pdata$?DeleteFiles@Plist@@QEAAHPEAUPluginPanelItem@@_K1@Z 0000000180065dbc     Pclass.obj
 0003:00000dc8       $pdata$?ProcessEvent@Plist@@QEAAH_JPEAX@Z 0000000180065dc8     Pclass.obj
 0003:00000dd4       $pdata$?Compare@Plist@@QEBAHPEBUPluginPanelItem@@0I@Z 0000000180065dd4     Pclass.obj
 0003:00000de0       $pdata$?ProcessKey@Plist@@QEAAHPEBU_INPUT_RECORD@@@Z 0000000180065de0     Pclass.obj
 0003:00000dec       $pdata$?dtor$26@?0??ProcessKey@Plist@@QEAAHPEBU_INPUT_RECORD@@@Z@4HA 0000000180065dec     Pclass.obj
 0003:00000dec       $pdata$?dtor$29@?0??ProcessKey@Plist@@QEAAHPEBU_INPUT_RECORD@@@Z@4HA 0000000180065dec     Pclass.obj
 0003:00000df8       $pdata$?dtor$14@?0??ProcessKey@Plist@@QEAAHPEBU_INPUT_RECORD@@@Z@4HA 0000000180065df8     Pclass.obj
 0003:00000e04       $pdata$?dtor$15@?0??ProcessKey@Plist@@QEAAHPEBU_INPUT_RECORD@@@Z@4HA 0000000180065e04     Pclass.obj
 0003:00000e10       $pdata$?PanelModes@Plist@@QEAAPEAUPanelMode@@AEA_K@Z 0000000180065e10     Pclass.obj
 0003:00000e1c       $pdata$2$?PanelModes@Plist@@QEAAPEAUPanelMode@@AEA_K@Z 0000000180065e1c     Pclass.obj
 0003:00000e28       $pdata$3$?PanelModes@Plist@@QEAAPEAUPanelMode@@AEA_K@Z 0000000180065e28     Pclass.obj
 0003:00000e34       $pdata$?GetVersionInfo@Plist@@SA_NPEB_WAEAV?$unique_ptr@$$BY0A@DU?$default_delete@$$BY0A@D@std@@@std@@AEAPEB_W2@Z 0000000180065e34     Pclass.obj
 0003:00000e40       $pdata$?SavePanelModes@Plist@@SAXXZ 0000000180065e40     Pclass.obj
 0003:00000e4c       $pdata$?InitializePanelModes@Plist@@SAXXZ 0000000180065e4c     Pclass.obj
 0003:00000e58       $pdata$?dtor$90@?0??InitializePanelModes@Plist@@SAXXZ@4HA 0000000180065e58     Pclass.obj
 0003:00000e64       $pdata$?dtor$181@?0??InitializePanelModes@Plist@@SAXXZ@4HA 0000000180065e64     Pclass.obj
 0003:00000e70       $pdata$?PrintVersionInfo@Plist@@CAXPEAXPEB_W@Z 0000000180065e70     Pclass.obj
 0003:00000e7c       $pdata$?Reread@Plist@@AEAAXXZ 0000000180065e7c     Pclass.obj
 0003:00000e88       $pdata$?PrintOwnerInfo@Plist@@AEAAXPEAXK@Z 0000000180065e88     Pclass.obj
 0003:00000e94       $pdata$?ConnectWMI@Plist@@AEAA_NXZ 0000000180065e94     Pclass.obj
 0003:00000ea0       $pdata$?dtor$1@?0??ConnectWMI@Plist@@AEAA_NXZ@4HA 0000000180065ea0     Pclass.obj
 0003:00000eac       $pdata$?WmiError@Plist@@AEBAXXZ 0000000180065eac     Pclass.obj
 0003:00000eb8       $pdata$0$?WmiError@Plist@@AEBAXXZ 0000000180065eb8     Pclass.obj
 0003:00000ec4       $pdata$1$?WmiError@Plist@@AEBAXXZ 0000000180065ec4     Pclass.obj
 0003:00000ed0       $pdata$??4?$unique_ptr@VPerfThread@@U?$default_delete@VPerfThread@@@std@@@std@@QEAAAEAV01@$$QEAV01@@Z 0000000180065ed0     Pclass.obj
 0003:00000edc       $pdata$0$??4?$unique_ptr@VPerfThread@@U?$default_delete@VPerfThread@@@std@@@std@@QEAAAEAV01@$$QEAV01@@Z 0000000180065edc     Pclass.obj
 0003:00000ee8       $pdata$1$??4?$unique_ptr@VPerfThread@@U?$default_delete@VPerfThread@@@std@@@std@@QEAAAEAV01@$$QEAV01@@Z 0000000180065ee8     Pclass.obj
 0003:00000ef4       $pdata$??1?$unique_ptr@VPerfThread@@U?$default_delete@VPerfThread@@@std@@@std@@QEAA@XZ 0000000180065ef4     Pclass.obj
 0003:00000f00       $pdata$??1?$unique_ptr@VWMIConnection@@U?$default_delete@VWMIConnection@@@std@@@std@@QEAA@XZ 0000000180065f00     Pclass.obj
 0003:00000f0c       $pdata$?_Clear_and_reserve_geometric@?$vector@Umode@@V?$allocator@Umode@@@std@@@std@@AEAAX_K@Z 0000000180065f0c     Pclass.obj
 0003:00000f18       $pdata$0$?_Clear_and_reserve_geometric@?$vector@Umode@@V?$allocator@Umode@@@std@@@std@@AEAAX_K@Z 0000000180065f18     Pclass.obj
 0003:00000f24       $pdata$1$?_Clear_and_reserve_geometric@?$vector@Umode@@V?$allocator@Umode@@@std@@@std@@AEAAX_K@Z 0000000180065f24     Pclass.obj
 0003:00000f30       $pdata$3$?_Clear_and_reserve_geometric@?$vector@Umode@@V?$allocator@Umode@@@std@@@std@@AEAAX_K@Z 0000000180065f30     Pclass.obj
 0003:00000f3c       $pdata$4$?_Clear_and_reserve_geometric@?$vector@Umode@@V?$allocator@Umode@@@std@@@std@@AEAAX_K@Z 0000000180065f3c     Pclass.obj
 0003:00000f48       $pdata$?_Xlength@?$vector@PEB_WV?$allocator@PEB_W@std@@@std@@CAXXZ 0000000180065f48     Pclass.obj
 0003:00000f48       $pdata$?_Xlength@?$vector@UFarMenuItem@@V?$allocator@UFarMenuItem@@@std@@@std@@CAXXZ 0000000180065f48     Pclass.obj
 0003:00000f48       $pdata$?_Xlength@?$vector@Umode@@V?$allocator@Umode@@@std@@@std@@CAXXZ 0000000180065f48     Pclass.obj
 0003:00000f48       $pdata$?_Xlength@?$vector@V?$basic_string@_WU?$char_traits@_W@std@@V?$allocator@_W@2@@std@@V?$allocator@V?$basic_string@_WU?$char_traits@_W@std@@V?$allocator@_W@2@@std@@@2@@std@@CAXXZ 0000000180065f48     Pclass.obj
 0003:00000f48       $pdata$?_Xlength@?$vector@_KV?$allocator@_K@std@@@std@@CAXXZ 0000000180065f48     Pclass.obj
 0003:00000f48       $pdata$?_Xlength@?$vector@PEAUHINSTANCE__@@V?$allocator@PEAUHINSTANCE__@@@std@@@std@@CAXXZ 0000000180065f48     Plist.obj
 0003:00000f48       $pdata$?_Xlength@?$vector@EV?$allocator@E@std@@@std@@CAXXZ 0000000180065f48     perfthread.obj
 0003:00000f48       $pdata$?_Xlength@?$vector@UProcessPerfData@@V?$allocator@UProcessPerfData@@@std@@@std@@CAXXZ 0000000180065f48     perfthread.obj
 0003:00000f54       $pdata$??1ProcessData@@QEAA@XZ 0000000180065f54     Pclass.obj
 0003:00000f60       $pdata$?DurationToText@@YA?AV?$basic_string@_WU?$char_traits@_W@std@@V?$allocator@_W@2@@std@@_K@Z 0000000180065f60     Pclass.obj
 0003:00000f6c       $pdata$?SaveValue@PluginEditFieldBinding@@UEAAXPEBUFarDialogItem@@H@Z 0000000180065f6c     Pclass.obj
 0003:00000f78       $pdata$?AddEditField@PluginDialogBuilder@@QEAAPEAUFarDialogItem@@PEA_WHHPEB_W_N@Z 0000000180065f78     Pclass.obj
 0003:00000f84       $pdata$?ui64toa_width@@YA?AV?$basic_string@_WU?$char_traits@_W@std@@V?$allocator@_W@2@@std@@_KI_N@Z 0000000180065f84     Pclass.obj
 0003:00000f90       $pdata$?PrintTitle@@YA?AV?$basic_string@_WU?$char_traits@_W@std@@V?$allocator@_W@2@@std@@V?$basic_string_view@_WU?$char_traits@_W@std@@@2@@Z 0000000180065f90     Pclass.obj
 0003:00000f9c       $pdata$?TranslateMode@@YA_NAEBV?$basic_string@_WU?$char_traits@_W@std@@V?$allocator@_W@2@@std@@AEAV12@@Z 0000000180065f9c     Pclass.obj
 0003:00000fa8       $pdata$?generate_titles@@YAXAEBV?$basic_string@_WU?$char_traits@_W@std@@V?$allocator@_W@2@@std@@AEAUPanelMode@@@Z 0000000180065fa8     Pclass.obj
 0003:00000fb4       $pdata$??__FTitle@?1??GetOpenPanelInfo@Plist@@QEAAXPEAUOpenPanelInfo@@@Z@YAXXZ 0000000180065fb4     Pclass.obj
 0003:00000fc0       $pdata$?EnumWndProc@@YAHPEAUHWND__@@_J@Z 0000000180065fc0     Pclass.obj
 0003:00000fcc       $pdata$??1?$list@U?$pair@$$CBKPEAUHWND__@@@std@@V?$allocator@U?$pair@$$CBKPEAUHWND__@@@std@@@2@@std@@QEAA@XZ 0000000180065fcc     Pclass.obj
 0003:00000fd8       $pdata$0$??1?$list@U?$pair@$$CBKPEAUHWND__@@@std@@V?$allocator@U?$pair@$$CBKPEAUHWND__@@@std@@@2@@std@@QEAA@XZ 0000000180065fd8     Pclass.obj
 0003:00000fe4       $pdata$1$??1?$list@U?$pair@$$CBKPEAUHWND__@@@std@@V?$allocator@U?$pair@$$CBKPEAUHWND__@@@std@@@2@@std@@QEAA@XZ 0000000180065fe4     Pclass.obj
 0003:00000ff0       $pdata$?_Forced_rehash@?$_Hash@V?$_Umap_traits@KPEAUHWND__@@V?$_Uhash_compare@KU?$hash@K@std@@U?$equal_to@K@2@@std@@V?$allocator@U?$pair@$$CBKPEAUHWND__@@@std@@@3@$0A@@std@@@std@@IEAAX_K@Z 0000000180065ff0     Pclass.obj
 0003:00000ffc       $pdata$1$?_Forced_rehash@?$_Hash@V?$_Umap_traits@KPEAUHWND__@@V?$_Uhash_compare@KU?$hash@K@std@@U?$equal_to@K@2@@std@@V?$allocator@U?$pair@$$CBKPEAUHWND__@@@std@@@3@$0A@@std@@@std@@IEAAX_K@Z 0000000180065ffc     Pclass.obj
 0003:00001008       $pdata$2$?_Forced_rehash@?$_Hash@V?$_Umap_traits@KPEAUHWND__@@V?$_Uhash_compare@KU?$hash@K@std@@U?$equal_to@K@2@@std@@V?$allocator@U?$pair@$$CBKPEAUHWND__@@@std@@@3@$0A@@std@@@std@@IEAAX_K@Z 0000000180066008     Pclass.obj
 0003:00001014       $pdata$3$?_Forced_rehash@?$_Hash@V?$_Umap_traits@KPEAUHWND__@@V?$_Uhash_compare@KU?$hash@K@std@@U?$equal_to@K@2@@std@@V?$allocator@U?$pair@$$CBKPEAUHWND__@@@std@@@3@$0A@@std@@@std@@IEAAX_K@Z 0000000180066014     Pclass.obj
 0003:00001020       $pdata$5$?_Forced_rehash@?$_Hash@V?$_Umap_traits@KPEAUHWND__@@V?$_Uhash_compare@KU?$hash@K@std@@U?$equal_to@K@2@@std@@V?$allocator@U?$pair@$$CBKPEAUHWND__@@@std@@@3@$0A@@std@@@std@@IEAAX_K@Z 0000000180066020     Pclass.obj
 0003:0000102c       $pdata$6$?_Forced_rehash@?$_Hash@V?$_Umap_traits@KPEAUHWND__@@V?$_Uhash_compare@KU?$hash@K@std@@U?$equal_to@K@2@@std@@V?$allocator@U?$pair@$$CBKPEAUHWND__@@@std@@@3@$0A@@std@@@std@@IEAAX_K@Z 000000018006602c     Pclass.obj
 0003:00001038       $pdata$?_Assign_grow@?$_Hash_vec@V?$allocator@V?$_List_unchecked_iterator@V?$_List_val@U?$_List_simple_types@U?$pair@$$CBKPEAUHWND__@@@std@@@std@@@std@@@std@@@std@@@std@@QEAAX_KV?$_List_unchecked_iterator@V?$_List_val@U?$_List_simple_types@U?$pair@$$CBKPEAUHWND__@@@std@@@std@@@std@@@2@@Z 0000000180066038     Pclass.obj
 0003:00001044       $pdata$1$?_Assign_grow@?$_Hash_vec@V?$allocator@V?$_List_unchecked_iterator@V?$_List_val@U?$_List_simple_types@U?$pair@$$CBKPEAUHWND__@@@std@@@std@@@std@@@std@@@std@@@std@@QEAAX_KV?$_List_unchecked_iterator@V?$_List_val@U?$_List_simple_types@U?$pair@$$CBKPEAUHWND__@@@std@@@std@@@std@@@2@@Z 0000000180066044     Pclass.obj
 0003:00001050       $pdata$2$?_Assign_grow@?$_Hash_vec@V?$allocator@V?$_List_unchecked_iterator@V?$_List_val@U?$_List_simple_types@U?$pair@$$CBKPEAUHWND__@@@std@@@std@@@std@@@std@@@std@@@std@@QEAAX_KV?$_List_unchecked_iterator@V?$_List_val@U?$_List_simple_types@U?$pair@$$CBKPEAUHWND__@@@std@@@std@@@std@@@2@@Z 0000000180066050     Pclass.obj
 0003:0000105c       $pdata$3$?_Assign_grow@?$_Hash_vec@V?$allocator@V?$_List_unchecked_iterator@V?$_List_val@U?$_List_simple_types@U?$pair@$$CBKPEAUHWND__@@@std@@@std@@@std@@@std@@@std@@@std@@QEAAX_KV?$_List_unchecked_iterator@V?$_List_val@U?$_List_simple_types@U?$pair@$$CBKPEAUHWND__@@@std@@@std@@@std@@@2@@Z 000000018006605c     Pclass.obj
 0003:00001068       $pdata$??1?$_Hash_vec@V?$allocator@V?$_List_unchecked_iterator@V?$_List_val@U?$_List_simple_types@U?$pair@$$CBKPEAUHWND__@@@std@@@std@@@std@@@std@@@std@@@std@@QEAA@XZ 0000000180066068     Pclass.obj
 0003:00001074       $pdata$??1?$_Hash@V?$_Umap_traits@KPEAUHWND__@@V?$_Uhash_compare@KU?$hash@K@std@@U?$equal_to@K@2@@std@@V?$allocator@U?$pair@$$CBKPEAUHWND__@@@std@@@3@$0A@@std@@@std@@QEAA@XZ 0000000180066074     Pclass.obj
 0003:00001080       $pdata$0$??1?$_Hash@V?$_Umap_traits@KPEAUHWND__@@V?$_Uhash_compare@KU?$hash@K@std@@U?$equal_to@K@2@@std@@V?$allocator@U?$pair@$$CBKPEAUHWND__@@@std@@@3@$0A@@std@@@std@@QEAA@XZ 0000000180066080     Pclass.obj
 0003:0000108c       $pdata$1$??1?$_Hash@V?$_Umap_traits@KPEAUHWND__@@V?$_Uhash_compare@KU?$hash@K@std@@U?$equal_to@K@2@@std@@V?$allocator@U?$pair@$$CBKPEAUHWND__@@@std@@@3@$0A@@std@@@std@@QEAA@XZ 000000018006608c     Pclass.obj
 0003:00001098       $pdata$?deallocate@?$allocator@V?$basic_string@_WU?$char_traits@_W@std@@V?$allocator@_W@2@@std@@@std@@QEAAXQEAV?$basic_string@_WU?$char_traits@_W@std@@V?$allocator@_W@2@@2@_K@Z 0000000180066098     Pclass.obj
 0003:000010a4       $pdata$?allocate@?$allocator@V?$basic_string@_WU?$char_traits@_W@std@@V?$allocator@_W@2@@std@@@std@@QEAAPEAV?$basic_string@_WU?$char_traits@_W@std@@V?$allocator@_W@2@@2@_K@Z 00000001800660a4     Pclass.obj
 0003:000010b0       $pdata$?_Reallocate_exactly@?$vector@V?$basic_string@_WU?$char_traits@_W@std@@V?$allocator@_W@2@@std@@V?$allocator@V?$basic_string@_WU?$char_traits@_W@std@@V?$allocator@_W@2@@std@@@2@@std@@AEAAX_K@Z 00000001800660b0     Pclass.obj
 0003:000010bc       $pdata$?catch$2@?0??_Reallocate_exactly@?$vector@V?$basic_string@_WU?$char_traits@_W@std@@V?$allocator@_W@2@@std@@V?$allocator@V?$basic_string@_WU?$char_traits@_W@std@@V?$allocator@_W@2@@std@@@2@@std@@AEAAX_K@Z@4HA 00000001800660bc     Pclass.obj
 0003:000010c8       $pdata$?_Destroy@?$vector@V?$basic_string@_WU?$char_traits@_W@std@@V?$allocator@_W@2@@std@@V?$allocator@V?$basic_string@_WU?$char_traits@_W@std@@V?$allocator@_W@2@@std@@@2@@std@@AEAAXPEAV?$basic_string@_WU?$char_traits@_W@std@@V?$allocator@_W@2@@2@0@Z 00000001800660c8     Pclass.obj
 0003:000010d4       $pdata$?_Change_array@?$vector@V?$basic_string@_WU?$char_traits@_W@std@@V?$allocator@_W@2@@std@@V?$allocator@V?$basic_string@_WU?$char_traits@_W@std@@V?$allocator@_W@2@@std@@@2@@std@@AEAAXQEAV?$basic_string@_WU?$char_traits@_W@std@@V?$allocator@_W@2@@2@_K1@Z 00000001800660d4     Pclass.obj
 0003:000010e0       $pdata$0$?_Change_array@?$vector@V?$basic_string@_WU?$char_traits@_W@std@@V?$allocator@_W@2@@std@@V?$allocator@V?$basic_string@_WU?$char_traits@_W@std@@V?$allocator@_W@2@@std@@@2@@std@@AEAAXQEAV?$basic_string@_WU?$char_traits@_W@std@@V?$allocator@_W@2@@2@_K1@Z 00000001800660e0     Pclass.obj
 0003:000010ec       $pdata$1$?_Change_array@?$vector@V?$basic_string@_WU?$char_traits@_W@std@@V?$allocator@_W@2@@std@@V?$allocator@V?$basic_string@_WU?$char_traits@_W@std@@V?$allocator@_W@2@@std@@@2@@std@@AEAAXQEAV?$basic_string@_WU?$char_traits@_W@std@@V?$allocator@_W@2@@2@_K1@Z 00000001800660ec     Pclass.obj
 0003:000010f8       $pdata$?_Tidy@?$vector@V?$basic_string@_WU?$char_traits@_W@std@@V?$allocator@_W@2@@std@@V?$allocator@V?$basic_string@_WU?$char_traits@_W@std@@V?$allocator@_W@2@@std@@@2@@std@@AEAAXXZ 00000001800660f8     Pclass.obj
 0003:00001104       $pdata$0$?_Tidy@?$vector@V?$basic_string@_WU?$char_traits@_W@std@@V?$allocator@_W@2@@std@@V?$allocator@V?$basic_string@_WU?$char_traits@_W@std@@V?$allocator@_W@2@@std@@@2@@std@@AEAAXXZ 0000000180066104     Pclass.obj
 0003:00001110       $pdata$1$?_Tidy@?$vector@V?$basic_string@_WU?$char_traits@_W@std@@V?$allocator@_W@2@@std@@V?$allocator@V?$basic_string@_WU?$char_traits@_W@std@@V?$allocator@_W@2@@std@@@2@@std@@AEAAXXZ 0000000180066110     Pclass.obj
 0003:0000111c       $pdata$?deallocate@?$allocator@PEB_W@std@@QEAAXQEAPEB_W_K@Z 000000018006611c     Pclass.obj
 0003:0000111c       $pdata$?deallocate@?$allocator@_K@std@@QEAAXQEA_K_K@Z 000000018006611c     Pclass.obj
 0003:0000111c       $pdata$?deallocate@?$allocator@PEAUHINSTANCE__@@@std@@QEAAXQEAPEAUHINSTANCE__@@_K@Z 000000018006611c     Plist.obj
 0003:00001128       $pdata$??$_Emplace_reallocate@V?$basic_string@_WU?$char_traits@_W@std@@V?$allocator@_W@2@@std@@@?$vector@V?$basic_string@_WU?$char_traits@_W@std@@V?$allocator@_W@2@@std@@V?$allocator@V?$basic_string@_WU?$char_traits@_W@std@@V?$allocator@_W@2@@std@@@2@@std@@QEAAPEAV?$basic_string@_WU?$char_traits@_W@std@@V?$allocator@_W@2@@1@QEAV21@$$QEAV21@@Z 0000000180066128     Pclass.obj
 0003:00001134       $pdata$?catch$7@?0???$_Emplace_reallocate@V?$basic_string@_WU?$char_traits@_W@std@@V?$allocator@_W@2@@std@@@?$vector@V?$basic_string@_WU?$char_traits@_W@std@@V?$allocator@_W@2@@std@@V?$allocator@V?$basic_string@_WU?$char_traits@_W@std@@V?$allocator@_W@2@@std@@@2@@std@@QEAAPEAV?$basic_string@_WU?$char_traits@_W@std@@V?$allocator@_W@2@@1@QEAV21@$$QEAV21@@Z@4HA 0000000180066134     Pclass.obj
 0003:00001140       $pdata$?window_style@@YA@PEAUHWND__@@@Z 0000000180066140     Pclass.obj
 0003:0000114c       $pdata$?window_ex_style@@YA@PEAUHWND__@@@Z 000000018006614c     Pclass.obj
 0003:00001158       $pdata$?DumpNTCounters@@YAXPEAXAEAVPerfThread@@KK@Z 0000000180066158     Pclass.obj
 0003:00001164       $pdata$?deallocate@?$allocator@UFarMenuItem@@@std@@QEAAXQEAUFarMenuItem@@_K@Z 0000000180066164     Pclass.obj
 0003:00001170       $pdata$?allocate@?$allocator@UFarMenuItem@@@std@@QEAAPEAUFarMenuItem@@_K@Z 0000000180066170     Pclass.obj
 0003:0000117c       $pdata$??1?$vector@UFarMenuItem@@V?$allocator@UFarMenuItem@@@std@@@std@@QEAA@XZ 000000018006617c     Pclass.obj
 0003:00001188       $pdata$?_Reallocate_exactly@?$vector@UFarMenuItem@@V?$allocator@UFarMenuItem@@@std@@@std@@AEAAX_K@Z 0000000180066188     Pclass.obj
 0003:00001194       $pdata$?catch$0@?0??_Reallocate_exactly@?$vector@UFarMenuItem@@V?$allocator@UFarMenuItem@@@std@@@std@@AEAAX_K@Z@4HA 0000000180066194     Pclass.obj
 0003:000011a0       $pdata$?_Change_array@?$vector@UFarMenuItem@@V?$allocator@UFarMenuItem@@@std@@@std@@AEAAXQEAUFarMenuItem@@_K1@Z 00000001800661a0     Pclass.obj
 0003:000011ac       $pdata$?allocate@?$allocator@_K@std@@QEAAPEA_K_K@Z 00000001800661ac     Pclass.obj
 0003:000011ac       $pdata$?allocate@?$allocator@PEAUHINSTANCE__@@@std@@QEAAPEAPEAUHINSTANCE__@@_K@Z 00000001800661ac     Plist.obj
 0003:000011b8       $pdata$??1?$vector@_KV?$allocator@_K@std@@@std@@QEAA@XZ 00000001800661b8     Pclass.obj
 0003:000011b8       $pdata$??1?$vector@PEAUHINSTANCE__@@V?$allocator@PEAUHINSTANCE__@@@std@@@std@@QEAA@XZ 00000001800661b8     Plist.obj
 0003:000011c4       $pdata$?_Reallocate_exactly@?$vector@_KV?$allocator@_K@std@@@std@@AEAAX_K@Z 00000001800661c4     Pclass.obj
 0003:000011d0       $pdata$?catch$0@?0??_Reallocate_exactly@?$vector@_KV?$allocator@_K@std@@@std@@AEAAX_K@Z@4HA 00000001800661d0     Pclass.obj
 0003:000011dc       $pdata$?_Change_array@?$vector@_KV?$allocator@_K@std@@@std@@AEAAXQEA_K_K1@Z 00000001800661dc     Pclass.obj
 0003:000011e8       $pdata$??$_Emplace_reallocate@AEB_K@?$vector@_KV?$allocator@_K@std@@@std@@QEAAPEA_KQEA_KAEB_K@Z 00000001800661e8     Pclass.obj
 0003:000011e8       $pdata$??$_Emplace_reallocate@_K@?$vector@_KV?$allocator@_K@std@@@std@@QEAAPEA_KQEA_K$$QEA_K@Z 00000001800661e8     Pclass.obj
 0003:000011f4       $pdata$?catch$0@?0???$_Emplace_reallocate@AEB_K@?$vector@_KV?$allocator@_K@std@@@std@@QEAAPEA_KQEA_KAEB_K@Z@4HA 00000001800661f4     Pclass.obj
 0003:000011f4       $pdata$?catch$0@?0???$_Emplace_reallocate@_K@?$vector@_KV?$allocator@_K@std@@@std@@QEAAPEA_KQEA_K$$QEA_K@Z@4HA 00000001800661f4     Pclass.obj
 0003:00001200       $pdata$??$_Emplace_reallocate@UFarMenuItem@@@?$vector@UFarMenuItem@@V?$allocator@UFarMenuItem@@@std@@@std@@QEAAPEAUFarMenuItem@@QEAU2@$$QEAU2@@Z 0000000180066200     Pclass.obj
 0003:0000120c       $pdata$?catch$0@?0???$_Emplace_reallocate@UFarMenuItem@@@?$vector@UFarMenuItem@@V?$allocator@UFarMenuItem@@@std@@@std@@QEAAPEAUFarMenuItem@@QEAU2@$$QEAU2@@Z@4HA 000000018006620c     Pclass.obj
 0003:00001218       $pdata$??$_Try_emplace@AEBK$$V@?$_Hash@V?$_Umap_traits@KPEAUHWND__@@V?$_Uhash_compare@KU?$hash@K@std@@U?$equal_to@K@2@@std@@V?$allocator@U?$pair@$$CBKPEAUHWND__@@@std@@@3@$0A@@std@@@std@@IEAA?AU?$pair@PEAU?$_List_node@U?$pair@$$CBKPEAUHWND__@@@std@@PEAX@std@@_N@1@AEBK@Z 0000000180066218     Pclass.obj
 0003:00001224       $pdata$??$_Assign_range@PEBUmode@@@?$vector@Umode@@V?$allocator@Umode@@@std@@@std@@AEAAXPEBUmode@@0Uforward_iterator_tag@1@@Z 0000000180066224     Pclass.obj
 0003:00001230       $pdata$??$_Reallocate_grow_by@V<lambda_51c4cb9729979bd953fe6d1bff5c73b0>@@_K_K_W@?$basic_string@_WU?$char_traits@_W@std@@V?$allocator@_W@2@@std@@AEAAAEAV01@_KV<lambda_51c4cb9729979bd953fe6d1bff5c73b0>@@_K2_W@Z 0000000180066230     Pclass.obj
 0003:0000123c       $pdata$3$??$_Reallocate_grow_by@V<lambda_51c4cb9729979bd953fe6d1bff5c73b0>@@_K_K_W@?$basic_string@_WU?$char_traits@_W@std@@V?$allocator@_W@2@@std@@AEAAAEAV01@_KV<lambda_51c4cb9729979bd953fe6d1bff5c73b0>@@_K2_W@Z 000000018006623c     Pclass.obj
 0003:00001248       $pdata$5$??$_Reallocate_grow_by@V<lambda_51c4cb9729979bd953fe6d1bff5c73b0>@@_K_K_W@?$basic_string@_WU?$char_traits@_W@std@@V?$allocator@_W@2@@std@@AEAAAEAV01@_KV<lambda_51c4cb9729979bd953fe6d1bff5c73b0>@@_K2_W@Z 0000000180066248     Pclass.obj
 0003:00001254       $pdata$6$??$_Reallocate_grow_by@V<lambda_51c4cb9729979bd953fe6d1bff5c73b0>@@_K_K_W@?$basic_string@_WU?$char_traits@_W@std@@V?$allocator@_W@2@@std@@AEAAAEAV01@_KV<lambda_51c4cb9729979bd953fe6d1bff5c73b0>@@_K2_W@Z 0000000180066254     Pclass.obj
 0003:00001260       $pdata$??$_Reallocate_grow_by@V<lambda_967c2ed818824c5314a20ec3af46b793>@@_KPEB_W_K@?$basic_string@_WU?$char_traits@_W@std@@V?$allocator@_W@2@@std@@AEAAAEAV01@_KV<lambda_967c2ed818824c5314a20ec3af46b793>@@_KPEB_W2@Z 0000000180066260     Pclass.obj
 0003:0000126c       $pdata$3$??$_Reallocate_grow_by@V<lambda_967c2ed818824c5314a20ec3af46b793>@@_KPEB_W_K@?$basic_string@_WU?$char_traits@_W@std@@V?$allocator@_W@2@@std@@AEAAAEAV01@_KV<lambda_967c2ed818824c5314a20ec3af46b793>@@_KPEB_W2@Z 000000018006626c     Pclass.obj
 0003:00001278       $pdata$5$??$_Reallocate_grow_by@V<lambda_967c2ed818824c5314a20ec3af46b793>@@_KPEB_W_K@?$basic_string@_WU?$char_traits@_W@std@@V?$allocator@_W@2@@std@@AEAAAEAV01@_KV<lambda_967c2ed818824c5314a20ec3af46b793>@@_KPEB_W2@Z 0000000180066278     Pclass.obj
 0003:00001284       $pdata$6$??$_Reallocate_grow_by@V<lambda_967c2ed818824c5314a20ec3af46b793>@@_KPEB_W_K@?$basic_string@_WU?$char_traits@_W@std@@V?$allocator@_W@2@@std@@AEAAAEAV01@_KV<lambda_967c2ed818824c5314a20ec3af46b793>@@_KPEB_W2@Z 0000000180066284     Pclass.obj
 0003:00001290       $pdata$??$fill@PEAV?$_List_unchecked_iterator@V?$_List_val@U?$_List_simple_types@U?$pair@$$CBKPEAUHWND__@@@std@@@std@@@std@@@std@@V12@@std@@YAXQEAV?$_List_unchecked_iterator@V?$_List_val@U?$_List_simple_types@U?$pair@$$CBKPEAUHWND__@@@std@@@std@@@std@@@0@0AEBV10@@Z 0000000180066290     Pclass.obj
 0003:0000129c       $pdata$0$??$fill@PEAV?$_List_unchecked_iterator@V?$_List_val@U?$_List_simple_types@U?$pair@$$CBKPEAUHWND__@@@std@@@std@@@std@@@std@@V12@@std@@YAXQEAV?$_List_unchecked_iterator@V?$_List_val@U?$_List_simple_types@U?$pair@$$CBKPEAUHWND__@@@std@@@std@@@std@@@0@0AEBV10@@Z 000000018006629c     Pclass.obj
 0003:000012a8       $pdata$1$??$fill@PEAV?$_List_unchecked_iterator@V?$_List_val@U?$_List_simple_types@U?$pair@$$CBKPEAUHWND__@@@std@@@std@@@std@@@std@@V12@@std@@YAXQEAV?$_List_unchecked_iterator@V?$_List_val@U?$_List_simple_types@U?$pair@$$CBKPEAUHWND__@@@std@@@std@@@std@@@0@0AEBV10@@Z 00000001800662a8     Pclass.obj
 0003:000012b4       $pdata$??$_Resize_reallocate@U_Value_init_tag@std@@@?$vector@PEB_WV?$allocator@PEB_W@std@@@std@@AEAAX_KAEBU_Value_init_tag@1@@Z 00000001800662b4     Pclass.obj
 0003:000012c0       $pdata$?catch$0@?0???$_Resize_reallocate@U_Value_init_tag@std@@@?$vector@PEB_WV?$allocator@PEB_W@std@@@std@@AEAAX_KAEBU_Value_init_tag@1@@Z@4HA 00000001800662c0     Pclass.obj
 0003:000012cc       $pdata$??$_Copy_unchecked@PEBUmode@@PEAU1@@std@@YAPEAUmode@@PEBU1@0PEAU1@@Z 00000001800662cc     Pclass.obj
 0003:000012d8       $pdata$??4ProcessPerfData@@QEAAAEAU0@AEBU0@@Z 00000001800662d8     perfthread.obj
 0003:000012e4       $pdata$??0PerfThread@@QEAA@PEB_W00@Z 00000001800662e4     perfthread.obj
 0003:000012f0       $pdata$??1PerfThread@@QEAA@XZ 00000001800662f0     perfthread.obj
 0003:000012fc       $pdata$?GetProcessData@PerfThread@@QEAAPEAUProcessPerfData@@KK@Z 00000001800662fc     perfthread.obj
 0003:00001308       $pdata$0$?GetProcessData@PerfThread@@QEAAPEAUProcessPerfData@@KK@Z 0000000180066308     perfthread.obj
 0003:00001314       $pdata$1$?GetProcessData@PerfThread@@QEAAPEAUProcessPerfData@@KK@Z 0000000180066314     perfthread.obj
 0003:00001320       $pdata$?SyncReread@PerfThread@@QEAAXXZ 0000000180066320     perfthread.obj
 0003:0000132c       $pdata$?ThreadProc@PerfThread@@CAKPEAX@Z 000000018006632c     perfthread.obj
 0003:00001338       $pdata$?Refresh@PerfThread@@AEAAXXZ 0000000180066338     perfthread.obj
 0003:00001344       $pdata$?RefreshWMIData@PerfThread@@AEAAXXZ 0000000180066344     perfthread.obj
 0003:00001350       $pdata$?_Tidy@?$vector@UProcessPerfData@@V?$allocator@UProcessPerfData@@@std@@@std@@AEAAXXZ 0000000180066350     perfthread.obj
 0003:0000135c       $pdata$0$?_Tidy@?$vector@UProcessPerfData@@V?$allocator@UProcessPerfData@@@std@@@std@@AEAAXXZ 000000018006635c     perfthread.obj
 0003:00001368       $pdata$1$?_Tidy@?$vector@UProcessPerfData@@V?$allocator@UProcessPerfData@@@std@@@std@@AEAAXXZ 0000000180066368     perfthread.obj
 0003:00001374       $pdata$??1?$vector@_WV?$allocator@_W@std@@@std@@QEAA@XZ 0000000180066374     perfthread.obj
 0003:00001380       $pdata$?deallocate@?$allocator@E@std@@QEAAXQEAE_K@Z 0000000180066380     perfthread.obj
 0003:0000138c       $pdata$??1?$vector@EV?$allocator@E@std@@@std@@QEAA@XZ 000000018006638c     perfthread.obj
 0003:00001398       $pdata$??$_Construct_n_copies_of_ty@U_Value_init_tag@std@@@?$vector@UProcessPerfData@@V?$allocator@UProcessPerfData@@@std@@@std@@AEAAX_KAEBU_Value_init_tag@1@@Z 0000000180066398     perfthread.obj
 0003:000013a4       $pdata$2$??$_Construct_n_copies_of_ty@U_Value_init_tag@std@@@?$vector@UProcessPerfData@@V?$allocator@UProcessPerfData@@@std@@@std@@AEAAX_KAEBU_Value_init_tag@1@@Z 00000001800663a4     perfthread.obj
 0003:000013b0       $pdata$3$??$_Construct_n_copies_of_ty@U_Value_init_tag@std@@@?$vector@UProcessPerfData@@V?$allocator@UProcessPerfData@@@std@@@std@@AEAAX_KAEBU_Value_init_tag@1@@Z 00000001800663b0     perfthread.obj
 0003:000013bc       $pdata$4$??$_Construct_n_copies_of_ty@U_Value_init_tag@std@@@?$vector@UProcessPerfData@@V?$allocator@UProcessPerfData@@@std@@@std@@AEAAX_KAEBU_Value_init_tag@1@@Z 00000001800663bc     perfthread.obj
 0003:000013c8       $pdata$5$??$_Construct_n_copies_of_ty@U_Value_init_tag@std@@@?$vector@UProcessPerfData@@V?$allocator@UProcessPerfData@@@std@@@std@@AEAAX_KAEBU_Value_init_tag@1@@Z 00000001800663c8     perfthread.obj
 0003:000013d4       $pdata$6$??$_Construct_n_copies_of_ty@U_Value_init_tag@std@@@?$vector@UProcessPerfData@@V?$allocator@UProcessPerfData@@@std@@@std@@AEAAX_KAEBU_Value_init_tag@1@@Z 00000001800663d4     perfthread.obj
 0003:000013e0       $pdata$??$_Resize_reallocate@U_Value_init_tag@std@@@?$vector@EV?$allocator@E@std@@@std@@AEAAX_KAEBU_Value_init_tag@1@@Z 00000001800663e0     perfthread.obj
 0003:000013ec       $pdata$?catch$0@?0???$_Resize_reallocate@U_Value_init_tag@std@@@?$vector@EV?$allocator@E@std@@@std@@AEAAX_KAEBU_Value_init_tag@1@@Z@4HA 00000001800663ec     perfthread.obj
 0003:000013f8       $pdata$??1?$_Uninitialized_backout_al@V?$allocator@UProcessPerfData@@@std@@@std@@QEAA@XZ 00000001800663f8     perfthread.obj
 0003:00001404       $pdata$??0?$basic_string@_WU?$char_traits@_W@std@@V?$allocator@_W@2@@std@@QEAA@_K_W@Z 0000000180066404     Plist.obj
 0003:00001410       $pdata$?GetList@@YA_NAEAPEAUPluginPanelItem@@AEA_KAEAVPerfThread@@@Z 0000000180066410     Plist.obj
 0003:0000141c       $pdata$?KillProcess@@YA_NKPEAUHWND__@@@Z 000000018006641c     Plist.obj
 0003:00001428       $pdata$?Enable@DebugToken@@QEAA_NXZ 0000000180066428     Plist.obj
 0003:00001434       $pdata$?Revert@DebugToken@@QEAA_NXZ 0000000180066434     Plist.obj
 0003:00001440       $pdata$?CreateToken@DebugToken@@SA_NXZ 0000000180066440     Plist.obj
 0003:0000144c       $pdata$1$?CreateToken@DebugToken@@SA_NXZ 000000018006644c     Plist.obj
 0003:00001458       $pdata$2$?CreateToken@DebugToken@@SA_NXZ 0000000180066458     Plist.obj
 0003:00001464       $pdata$?OpenProcessForced@@YAPEAXPEAVDebugToken@@KKH@Z 0000000180066464     Plist.obj
 0003:00001470       $pdata$?PrintNTCurDirAndEnv@@YAXPEAX0H@Z 0000000180066470     Plist.obj
 0003:0000147c       $pdata$?PrintModules@@YAXPEAXKAEAUoptions@@@Z 000000018006647c     Plist.obj
 0003:00001488       $pdata$?GetPData@@YA_NAEAUProcessData@@AEBUProcessPerfData@@@Z 0000000180066488     Plist.obj
 0003:00001494       $pdata$1$?GetPData@@YA_NAEAUProcessData@@AEBUProcessPerfData@@@Z 0000000180066494     Plist.obj
 0003:000014a0       $pdata$3$?GetPData@@YA_NAEAUProcessData@@AEBUProcessPerfData@@@Z 00000001800664a0     Plist.obj
 0003:000014ac       $pdata$4$?GetPData@@YA_NAEAUProcessData@@AEBUProcessPerfData@@@Z 00000001800664ac     Plist.obj
 0003:000014b8       $pdata$??0?$vector@UProcessPerfData@@V?$allocator@UProcessPerfData@@@std@@@std@@QEAA@AEBV01@@Z 00000001800664b8     Plist.obj
 0003:000014c4       $pdata$?FreeUserData@@YAXQEAXQEBUFarPanelItemFreeInfo@@@Z 00000001800664c4     Plist.obj
 0003:000014d0       $pdata$?read_string@?$ipc_functions@$0A@@@SA?AV?$basic_string@_WU?$char_traits@_W@std@@V?$allocator@_W@2@@std@@PEAXAEBUUNICODE_STRING_SAME@detail@@@Z 00000001800664d0     Plist.obj
 0003:000014dc       $pdata$?GetOpenProcessData@?$ipc_functions@$0A@@@SAXPEAXPEAV?$basic_string@_WU?$char_traits@_W@std@@V?$allocator@_W@2@@std@@1111@Z 00000001800664dc     Plist.obj
 0003:000014e8       $pdata$0$?GetOpenProcessData@?$ipc_functions@$0A@@@SAXPEAXPEAV?$basic_string@_WU?$char_traits@_W@std@@V?$allocator@_W@2@@std@@1111@Z 00000001800664e8     Plist.obj
 0003:000014f4       $pdata$1$?GetOpenProcessData@?$ipc_functions@$0A@@@SAXPEAXPEAV?$basic_string@_WU?$char_traits@_W@std@@V?$allocator@_W@2@@std@@1111@Z 00000001800664f4     Plist.obj
 0003:00001500       $pdata$2$?GetOpenProcessData@?$ipc_functions@$0A@@@SAXPEAXPEAV?$basic_string@_WU?$char_traits@_W@std@@V?$allocator@_W@2@@std@@1111@Z 0000000180066500     Plist.obj
 0003:0000150c       $pdata$?print_module_impl@@YAXQEAXAEBV?$basic_string@_WU?$char_traits@_W@std@@V?$allocator@_W@2@@std@@KAEBUoptions@@AEBV?$function@$$A6A_NPEA_W_K@Z@2@@Z 000000018006650c     Plist.obj
 0003:00001518       $pdata$??1?$function@$$A6A_NPEA_W_K@Z@std@@QEAA@XZ 0000000180066518     Plist.obj
 0003:00001518       $pdata$??1?$function@$$A6AXAEBUtagVARIANT@@@Z@std@@QEAA@XZ 0000000180066518     WMI.obj
 0003:00001524       $pdata$??R<lambda_fbad59960194a21b5f35257a64aadaa4>@@QEBAXXZ 0000000180066524     Plist.obj
 0003:00001530       $pdata$??$print_module@PEAX@@YAXQEAXPEAXKAEAUoptions@@AEBV?$function@$$A6A_NPEA_W_K@Z@std@@@Z 0000000180066530     Plist.obj
 0003:0000153c       $pdata$??$_Resize_reallocate@U_Value_init_tag@std@@@?$vector@PEAUHINSTANCE__@@V?$allocator@PEAUHINSTANCE__@@@std@@@std@@AEAAX_KAEBU_Value_init_tag@1@@Z 000000018006653c     Plist.obj
 0003:00001548       $pdata$?catch$0@?0???$_Resize_reallocate@U_Value_init_tag@std@@@?$vector@PEAUHINSTANCE__@@V?$allocator@PEAUHINSTANCE__@@@std@@@std@@AEAAX_KAEBU_Value_init_tag@1@@Z@4HA 0000000180066548     Plist.obj
 0003:00001554       $pdata$?_Do_call@?$_Func_impl_no_alloc@V<lambda_87e110110aa5c29eaf754372c3484d5b>@@_NPEA_W_K@std@@EEAA_N$$QEAPEA_W$$QEA_K@Z 0000000180066554     Plist.obj
 0003:00001560       $pdata$?_Do_call@?$_Func_impl_no_alloc@V<lambda_c6a5923e4ab0669d9f7c2a6c892502eb>@@_NPEA_W_K@std@@EEAA_N$$QEAPEA_W$$QEA_K@Z 0000000180066560     Plist.obj
 0003:0000156c       $pdata$?ConvertDate@@YAXAEBU_FILETIME@@PEA_W1@Z 000000018006656c     Pmix.obj
 0003:00001578       $pdata$?WinError@@YAHPEB_W@Z 0000000180066578     Pmix.obj
 0003:00001584       $pdata$??0WMIConnection@@QEAA@XZ 0000000180066584     WMI.obj
 0003:00001590       $pdata$??1WMIConnection@@QEAA@XZ 0000000180066590     WMI.obj
 0003:0000159c       $pdata$?Connect@WMIConnection@@QEAA_NPEB_W00@Z 000000018006659c     WMI.obj
 0003:000015a8       $pdata$?Disconnect@WMIConnection@@QEAAXXZ 00000001800665a8     WMI.obj
 0003:000015b4       $pdata$?GetProcessPriority@WMIConnection@@QEAAKK@Z 00000001800665b4     WMI.obj
 0003:000015c0       $pdata$?SetProcessPriority@WMIConnection@@QEAAHKK@Z 00000001800665c0     WMI.obj
 0003:000015cc       $pdata$?TerminateProcess@WMIConnection@@QEAAHK@Z 00000001800665cc     WMI.obj
 0003:000015d8       $pdata$?GetProcessOwner@WMIConnection@@QEAA?AV?$basic_string@_WU?$char_traits@_W@std@@V?$allocator@_W@2@@std@@KPEAV23@@Z 00000001800665d8     WMI.obj
 0003:000015e4       $pdata$?GetProcessUserSid@WMIConnection@@QEAA?AV?$basic_string@_WU?$char_traits@_W@std@@V?$allocator@_W@2@@std@@K@Z 00000001800665e4     WMI.obj
 0003:000015f0       $pdata$?GetProcessSessionId@WMIConnection@@QEAAKK@Z 00000001800665f0     WMI.obj
 0003:000015fc       $pdata$?GetProcessExecutablePath@WMIConnection@@QEAA?AV?$basic_string@_WU?$char_traits@_W@std@@V?$allocator@_W@2@@std@@K@Z 00000001800665fc     WMI.obj
 0003:00001608       $pdata$?dtor$1@?0??GetProcessCommandLine@WMIConnection@@QEAA?AV?$basic_string@_WU?$char_traits@_W@std@@V?$allocator@_W@2@@std@@K@Z@4HA 0000000180066608     WMI.obj
 0003:00001608       $pdata$?dtor$1@?0??GetProcessExecutablePath@WMIConnection@@QEAA?AV?$basic_string@_WU?$char_traits@_W@std@@V?$allocator@_W@2@@std@@K@Z@4HA 0000000180066608     WMI.obj
 0003:00001614       $pdata$?GetProcessCommandLine@WMIConnection@@QEAA?AV?$basic_string@_WU?$char_traits@_W@std@@V?$allocator@_W@2@@std@@K@Z 0000000180066614     WMI.obj
 0003:00001620       $pdata$?ExecMethod@WMIConnection@@AEAAHKPEB_W0K@Z 0000000180066620     WMI.obj
 0003:0000162c       $pdata$?GetProcessProperty@WMIConnection@@AEAA_NKPEB_WAEBV?$function@$$A6AXAEBUtagVARIANT@@@Z@std@@@Z 000000018006662c     WMI.obj
 0003:00001638       $pdata$?ProcessPath@@YA@K@Z 0000000180066638     WMI.obj
 0003:00001644       $pdata$??1?$unique_ptr@UIWbemClassObject@@Ucom_closer@@@std@@QEAA@XZ 0000000180066644     WMI.obj
 0003:00001644       $pdata$??1?$unique_ptr@UIWbemLocator@@Ucom_closer@@@std@@QEAA@XZ 0000000180066644     WMI.obj
 0003:00001650       $pdata$??1?$ptr_setter@V?$unique_ptr@UIWbemClassObject@@Ucom_closer@@@std@@@@QEAA@XZ 0000000180066650     WMI.obj
 0003:0000165c       $pdata$ClosePanelW         000000018006665c     Proclist.obj
 0003:00001668       $pdata$CompareW            0000000180066668     Proclist.obj
 0003:00001674       $pdata$ConfigureW          0000000180066674     Proclist.obj
 0003:00001680       $pdata$DeleteFilesW        0000000180066680     Proclist.obj
 0003:0000168c       $pdata$GetFilesW           000000018006668c     Proclist.obj
 0003:00001698       $pdata$GetFindDataW        0000000180066698     Proclist.obj
 0003:000016a4       $pdata$GetGlobalInfoW      00000001800666a4     Proclist.obj
 0003:000016b0       $pdata$GetPluginInfoW      00000001800666b0     Proclist.obj
 0003:000016bc       $pdata$OpenW               00000001800666bc     Proclist.obj
 0003:000016c8       $pdata$ProcessPanelEventW  00000001800666c8     Proclist.obj
 0003:000016d4       $pdata$ProcessPanelInputW  00000001800666d4     Proclist.obj
 0003:000016e0       $pdata$SetStartupInfoW     00000001800666e0     Proclist.obj
 0003:000016ec       $pdata$?Message@@YAHIPEB_WPEAPEB_W_K2@Z 00000001800666ec     Proclist.obj
 0003:000016f8       $pdata$?is_wow64_process@@YA_NPEAX@Z 00000001800666f8     Proclist.obj
 0003:00001704       $pdata$?dynamic_bind@@YAXXZ 0000000180066704     Proclist.obj
 0003:00001710       $pdata$0$?dynamic_bind@@YAXXZ 0000000180066710     Proclist.obj
 0003:0000171c       $pdata$1$?dynamic_bind@@YAXXZ 000000018006671c     Proclist.obj
 0003:00001728       $pdata$??0_Lockit@std@@QEAA@H@Z 0000000180066728     libcpmt:xlock.obj
 0003:00001734       $pdata$??1_Lockit@std@@QEAA@XZ 0000000180066734     libcpmt:xlock.obj
 0003:00001740       $pdata$??0_Init_locks@std@@QEAA@XZ 0000000180066740     libcpmt:xlock.obj
 0003:0000174c       $pdata$??1_Init_locks@std@@QEAA@XZ 000000018006674c     libcpmt:xlock.obj
 0003:00001758       $pdata$??__Einitlocks@std@@YAXXZ 0000000180066758     libcpmt:xlock.obj
 0003:00001764       $pdata$?__scrt_throw_std_bad_alloc@@YAXXZ 0000000180066764     LIBCMT:throw_bad_alloc.obj
 0003:00001764       $pdata$?_Xbad_alloc@std@@YAXXZ 0000000180066764     libcpmt:xthrow.obj
 0003:00001770       $pdata$?_Xlength_error@std@@YAXPEBD@Z 0000000180066770     libcpmt:xthrow.obj
 0003:0000177c       $pdata$?_Xout_of_range@std@@YAXPEBD@Z 000000018006677c     libcpmt:xthrow.obj
 0003:00001788       $pdata$?_Xruntime_error@std@@YAXPEBD@Z 0000000180066788     libcpmt:xthrow.obj
 0003:00001794       $pdata$??0logic_error@std@@QEAA@AEBV01@@Z 0000000180066794     libcpmt:xthrow.obj
 0003:000017a0       $pdata$??0length_error@std@@QEAA@PEBD@Z 00000001800667a0     libcpmt:xthrow.obj
 0003:000017ac       $pdata$??0length_error@std@@QEAA@AEBV01@@Z 00000001800667ac     libcpmt:xthrow.obj
 0003:000017b8       $pdata$??0out_of_range@std@@QEAA@PEBD@Z 00000001800667b8     libcpmt:xthrow.obj
 0003:000017c4       $pdata$??0out_of_range@std@@QEAA@AEBV01@@Z 00000001800667c4     libcpmt:xthrow.obj
 0003:000017d0       $pdata$??0bad_function_call@std@@QEAA@AEBV01@@Z 00000001800667d0     libcpmt:xthrow.obj
 0003:000017dc       $pdata$?_Xbad_function_call@std@@YAXXZ 00000001800667dc     libcpmt:xthrow.obj
 0003:000017e8       $pdata$?_Facet_Register@std@@YAXPEAV_Facet_base@1@@Z 00000001800667e8     libcpmt:locale0.obj
 0003:000017f4       $pdata$??__F_Fac_tidy_reg@std@@YAXXZ 00000001800667f4     libcpmt:locale0.obj
 0003:00001800       $pdata$?_Locinfo_ctor@_Locinfo@std@@SAXPEAV12@PEBD@Z 0000000180066800     libcpmt:locale0.obj
 0003:0000180c       $pdata$?_Locinfo_dtor@_Locinfo@std@@SAXPEAV12@@Z 000000018006680c     libcpmt:locale0.obj
 0003:00001818       $pdata$??4?$_Yarn@D@std@@QEAAAEAV01@PEBD@Z 0000000180066818     libcpmt:locale0.obj
 0003:00001824       $pdata$?_New_Locimp@_Locimp@locale@std@@CAPEAV123@_N@Z 0000000180066824     libcpmt:locale0.obj
 0003:00001830       $pdata$?_Locimp_dtor@_Locimp@locale@std@@CAXPEAV123@@Z 0000000180066830     libcpmt:locale0.obj
 0003:0000183c       $pdata$??_G_Locimp@locale@std@@MEAAPEAXI@Z 000000018006683c     libcpmt:locale0.obj
 0003:00001848       $pdata$?_Init@locale@std@@CAPEAV_Locimp@12@_N@Z 0000000180066848     libcpmt:locale0.obj
 0003:00001854       $pdata$?_Setgloballocale@locale@std@@CAXPEAX@Z 0000000180066854     libcpmt:locale0.obj
 0003:00001860       $pdata$_Deletegloballocale 0000000180066860     libcpmt:locale0.obj
 0003:0000186c       $pdata$tidy_global         000000018006686c     libcpmt:locale0.obj
 0003:00001878       $pdata$??__Fclassic_locale@std@@YAXXZ 0000000180066878     libcpmt:locale0.obj
 0003:00001884       $pdata$_Getcvt             0000000180066884     libcpmt:xwctomb.obj
 0003:00001890       $pdata$_Mbrtowc            0000000180066890     libcpmt:xmbtowc.obj
 0003:0000189c       $pdata$??__Einitlocks@std@@YAXXZ 000000018006689c     libcpmt:iosptrs.obj
 0003:000018a8       $pdata$?_Atexit@@YAXP6AXXZ@Z 00000001800668a8     libcpmt:iosptrs.obj
 0003:000018b4       $pdata$??__Finit_atexit@@YAXXZ 00000001800668b4     libcpmt:iosptrs.obj
 0003:000018c0       $pdata$__crtInitializeCriticalSectionEx 00000001800668c0     libcpmt:winapisupp.obj
 0003:000018cc       $pdata$?initialize_pointers@@YAHXZ 00000001800668cc     libcpmt:winapisupp.obj
 0003:000018d8       $pdata$atexit              00000001800668d8     LIBCMT:utility.obj
 0003:000018e4       $pdata$_onexit             00000001800668e4     LIBCMT:utility.obj
 0003:000018f0       $pdata$__scrt_is_nonwritable_in_current_image 00000001800668f0     LIBCMT:utility.obj
 0003:000018fc       $pdata$__scrt_is_nonwritable_in_current_image$filt$0 00000001800668fc     LIBCMT:utility.obj
 0003:00001908       $pdata$__scrt_acquire_startup_lock 0000000180066908     LIBCMT:utility.obj
 0003:00001914       $pdata$__scrt_release_startup_lock 0000000180066914     LIBCMT:utility.obj
 0003:00001920       $pdata$__scrt_initialize_crt 0000000180066920     LIBCMT:utility.obj
 0003:0000192c       $pdata$__scrt_uninitialize_crt 000000018006692c     LIBCMT:utility.obj
 0003:00001938       $pdata$__scrt_initialize_onexit_tables 0000000180066938     LIBCMT:utility.obj
 0003:00001944       $pdata$__scrt_dllmain_exception_filter 0000000180066944     LIBCMT:utility.obj
 0003:00001950       $pdata$__scrt_dllmain_before_initialize_c 0000000180066950     LIBCMT:utility.obj
 0003:0000195c       $pdata$__scrt_dllmain_after_initialize_c 000000018006695c     LIBCMT:utility.obj
 0003:00001968       $pdata$__scrt_dllmain_uninitialize_c 0000000180066968     LIBCMT:utility.obj
 0003:00001974       $pdata$__scrt_dllmain_uninitialize_critical 0000000180066974     LIBCMT:utility.obj
 0003:00001980       $pdata$__scrt_dllmain_crt_thread_attach 0000000180066980     LIBCMT:utility.obj
 0003:0000198c       $pdata$__scrt_dllmain_crt_thread_detach 000000018006698c     LIBCMT:utility.obj
 0003:00001998       $pdata$??2@YAPEAX_K@Z      0000000180066998     LIBCMT:new_scalar.obj
 0003:000019a4       $pdata$??_Gtype_info@@UEAAPEAXI@Z 00000001800669a4     LIBCMT:std_type_info_static.obj
 0003:000019b0       $pdata$??_M@YAXPEAX_K1P6AX0@Z@Z 00000001800669b0     LIBCMT:ehvecdtr.obj
 0003:000019bc       $pdata$?fin$0@?0???_M@YAXPEAX_K1P6AX0@Z@Z@4HA 00000001800669bc     LIBCMT:ehvecdtr.obj
 0003:000019c8       $pdata$?__ArrayUnwind@@YAXPEAX_K1P6AX0@Z@Z 00000001800669c8     LIBCMT:ehvecdtr.obj
 0003:000019d4       $pdata$?filt$0@?0??__ArrayUnwind@@YAXPEAX_K1P6AX0@Z@Z@4HA 00000001800669d4     LIBCMT:ehvecdtr.obj
 0003:000019e0       $pdata$?dllmain_crt_process_attach@@YAHQEAUHINSTANCE__@@QEAX@Z 00000001800669e0     LIBCMT:dll_dllmain.obj
 0003:000019ec       $pdata$?fin$0@?0??dllmain_crt_process_attach@@YAHQEAUHINSTANCE__@@QEAX@Z@4HA 00000001800669ec     LIBCMT:dll_dllmain.obj
 0003:000019f8       $pdata$?dllmain_crt_process_detach@@YAH_N@Z 00000001800669f8     LIBCMT:dll_dllmain.obj
 0003:00001a04       $pdata$?fin$0@?0??dllmain_crt_process_detach@@YAH_N@Z@4HA 0000000180066a04     LIBCMT:dll_dllmain.obj
 0003:00001a10       $pdata$?fin$1@?0??dllmain_crt_process_detach@@YAH_N@Z@4HA 0000000180066a10     LIBCMT:dll_dllmain.obj
 0003:00001a1c       $pdata$?dllmain_crt_dispatch@@YAHQEAUHINSTANCE__@@KQEAX@Z 0000000180066a1c     LIBCMT:dll_dllmain.obj
 0003:00001a28       $pdata$?dllmain_dispatch@@YAHQEAUHINSTANCE__@@KQEAX@Z 0000000180066a28     LIBCMT:dll_dllmain.obj
 0003:00001a34       $pdata$?filt$0@?0??dllmain_dispatch@@YAHQEAUHINSTANCE__@@KQEAX@Z@4HA 0000000180066a34     LIBCMT:dll_dllmain.obj
 0003:00001a40       $pdata$_DllMainCRTStartup  0000000180066a40     LIBCMT:dll_dllmain.obj
 0003:00001a4c       $pdata$__GSHandlerCheckCommon 0000000180066a4c     LIBCMT:gshandler.obj
 0003:00001a58       $pdata$__GSHandlerCheck    0000000180066a58     LIBCMT:gshandler.obj
 0003:00001a64       $pdata$__GSHandlerCheck_EH 0000000180066a64     LIBCMT:gshandlereh.obj
 0003:00001a7c       $pdata$__isa_available_init 0000000180066a7c     LIBCMT:cpu_disp.obj
 0003:00001a88       $pdata$__scrt_fastfail     0000000180066a88     LIBCMT:utility_desktop.obj
 0003:00001a94       $pdata$__security_init_cookie 0000000180066a94     LIBCMT:gs_support.obj
 0003:00001aa0       $pdata$__scrt_initialize_default_local_stdio_options 0000000180066aa0     LIBCMT:default_local_stdio_options.obj
 0003:00001aac       $pdata$_RTC_Initialize     0000000180066aac     LIBCMT:initsect.obj
 0003:00001ab8       $pdata$_RTC_Terminate      0000000180066ab8     LIBCMT:initsect.obj
 0003:00001ad0       $pdata$__report_securityfailure 0000000180066ad0     LIBCMT:gs_report.obj
 0003:00001adc       $pdata$__report_rangecheckfailure 0000000180066adc     LIBCMT:gs_report.obj
 0003:00001ae8       $pdata$__report_gsfailure  0000000180066ae8     LIBCMT:gs_report.obj
 0003:00001af4       $pdata$capture_current_context 0000000180066af4     LIBCMT:gs_report.obj
 0003:00001b00       $pdata$capture_previous_context 0000000180066b00     LIBCMT:gs_report.obj
 0003:00001b0c       $pdata$__raise_securityfailure 0000000180066b0c     LIBCMT:gs_report.obj
 0003:00001b18       $pdata$_purecall           0000000180066b18     libvcruntime:purevirt.obj
 0003:00001b24       $pdata$__std_terminate     0000000180066b24     libvcruntime:ehhelpers.obj
 0003:00001b30       $pdata$_IsExceptionObjectToBeDestroyed 0000000180066b30     libvcruntime:ehhelpers.obj
 0003:00001b3c       $pdata$__current_exception 0000000180066b3c     libvcruntime:ehhelpers.obj
 0003:00001b48       $pdata$__current_exception_context 0000000180066b48     libvcruntime:ehhelpers.obj
 0003:00001b54       $pdata$__FrameUnwindFilter 0000000180066b54     libvcruntime:ehhelpers.obj
 0003:00001b60       $pdata$__DestructExceptionObject 0000000180066b60     libvcruntime:ehhelpers.obj
 0003:00001b6c       $pdata$__DestructExceptionObject$filt$0 0000000180066b6c     libvcruntime:ehhelpers.obj
 0003:00001b78       $pdata$__std_exception_copy 0000000180066b78     libvcruntime:std_exception.obj
 0003:00001b84       $pdata$__std_exception_destroy 0000000180066b84     libvcruntime:std_exception.obj
 0003:00001b90       $pdata$_CxxThrowException  0000000180066b90     libvcruntime:throw.obj
 0003:00001b9c       $pdata$?DecompFuncInfo@FH4@@YA_JPEAEAEAUFuncInfo4@1@_KH_N@Z 0000000180066b9c     libvcruntime:risctrnsctrl.obj
 0003:00001ba8       $pdata$?CatchTryBlock@__FrameHandler3@@SAPEBU_s_TryBlockMapEntry@@PEBU_s_FuncInfo@@H@Z 0000000180066ba8     libvcruntime:risctrnsctrl.obj
 0003:00001bb4       $pdata$?ExecutionInCatch@__FrameHandler3@@SA_NPEAU_xDISPATCHER_CONTEXT@@PEBU_s_FuncInfo@@@Z 0000000180066bb4     libvcruntime:risctrnsctrl.obj
 0003:00001bc0       $pdata$?FrameUnwindToEmptyState@__FrameHandler3@@SAXPEA_KPEAU_xDISPATCHER_CONTEXT@@PEBU_s_FuncInfo@@@Z 0000000180066bc0     libvcruntime:risctrnsctrl.obj
 0003:00001bcc       $pdata$?GetEstablisherFrame@__FrameHandler3@@SAPEA_KPEA_KPEAU_xDISPATCHER_CONTEXT@@PEBU_s_FuncInfo@@0@Z 0000000180066bcc     libvcruntime:risctrnsctrl.obj
 0003:00001bd8       $pdata$?UnwindNestedFrames@__FrameHandler3@@SAXPEA_KPEAUEHExceptionRecord@@PEAU_CONTEXT@@0PEAXPEBU_s_FuncInfo@@HHPEBU_s_HandlerType@@PEAU_xDISPATCHER_CONTEXT@@E@Z 0000000180066bd8     libvcruntime:risctrnsctrl.obj
 0003:00001be4       $pdata$?GetRangeOfTrysToCheck@__FrameHandler3@@SA?AU?$pair@Viterator@TryBlockMap@__FrameHandler3@@V123@@std@@AEAVTryBlockMap@1@HPEAU_xDISPATCHER_CONTEXT@@PEBU_s_FuncInfo@@H@Z 0000000180066be4     libvcruntime:risctrnsctrl.obj
 0003:00001bf0       $pdata$?FrameUnwindToEmptyState@__FrameHandler4@@SAXPEA_KPEAU_xDISPATCHER_CONTEXT@@PEAUFuncInfo4@FH4@@@Z 0000000180066bf0     libvcruntime:risctrnsctrl.obj
 0003:00001bfc       $pdata$?UnwindNestedFrames@__FrameHandler4@@SAXPEA_KPEAUEHExceptionRecord@@PEAU_CONTEXT@@0PEAXPEAUFuncInfo4@FH4@@HHPEAUHandlerType4@5@PEAU_xDISPATCHER_CONTEXT@@E@Z 0000000180066bfc     libvcruntime:risctrnsctrl.obj
 0003:00001c08       $pdata$?GetRangeOfTrysToCheck@__FrameHandler4@@SA?AU?$pair@Viterator@TryBlockMap4@FH4@@V123@@std@@AEAVTryBlockMap4@FH4@@HPEAU_xDISPATCHER_CONTEXT@@PEAUFuncInfo4@5@H@Z 0000000180066c08     libvcruntime:risctrnsctrl.obj
 0003:00001c14       $pdata$_GetImageBase       0000000180066c14     libvcruntime:risctrnsctrl.obj
 0003:00001c20       $pdata$_SetImageBase       0000000180066c20     libvcruntime:risctrnsctrl.obj
 0003:00001c2c       $pdata$_GetThrowImageBase  0000000180066c2c     libvcruntime:risctrnsctrl.obj
 0003:00001c38       $pdata$_SetThrowImageBase  0000000180066c38     libvcruntime:risctrnsctrl.obj
 0003:00001c44       $pdata$_CreateFrameInfo    0000000180066c44     libvcruntime:risctrnsctrl.obj
 0003:00001c50       $pdata$_FindAndUnlinkFrame 0000000180066c50     libvcruntime:risctrnsctrl.obj
 0003:00001c5c       $pdata$__CxxFrameHandler3  0000000180066c5c     libvcruntime:risctrnsctrl.obj
 0003:00001c68       $pdata$__CxxFrameHandler4  0000000180066c68     libvcruntime:risctrnsctrl.obj
 0003:00001c74       $pdata$??$_CallSETranslator@V__FrameHandler4@@@@YAHPEAUEHExceptionRecord@@PEA_KPEAU_CONTEXT@@PEAU_xDISPATCHER_CONTEXT@@PEAUFuncInfo4@FH4@@K1@Z 0000000180066c74     libvcruntime:risctrnsctrl.obj
 0003:00001c80       $pdata$?filt$0@?0???$_CallSETranslator@V__FrameHandler4@@@@YAHPEAUEHExceptionRecord@@PEA_KPEAU_CONTEXT@@PEAU_xDISPATCHER_CONTEXT@@PEAUFuncInfo4@FH4@@K1@Z@4HA 0000000180066c80     libvcruntime:risctrnsctrl.obj
 0003:00001c8c       $pdata$??$_CallSETranslator@V__FrameHandler3@@@@YAHPEAUEHExceptionRecord@@PEA_KPEAU_CONTEXT@@PEAU_xDISPATCHER_CONTEXT@@PEBU_s_FuncInfo@@K1@Z 0000000180066c8c     libvcruntime:risctrnsctrl.obj
 0003:00001c98       $pdata$?filt$0@?0???$_CallSETranslator@V__FrameHandler3@@@@YAHPEAUEHExceptionRecord@@PEA_KPEAU_CONTEXT@@PEAU_xDISPATCHER_CONTEXT@@PEBU_s_FuncInfo@@K1@Z@4HA 0000000180066c98     libvcruntime:risctrnsctrl.obj
 0003:00001cec       $pdata$__vcrt_initialize   0000000180066cec     libvcruntime:initialization.obj
 0003:00001cf8       $pdata$__vcrt_uninitialize 0000000180066cf8     libvcruntime:initialization.obj
 0003:00001d04       $pdata$__vcrt_uninitialize_critical 0000000180066d04     libvcruntime:initialization.obj
 0003:00001d10       $pdata$__vcrt_thread_attach 0000000180066d10     libvcruntime:initialization.obj
 0003:00001d1c       $pdata$__vcrt_thread_detach 0000000180066d1c     libvcruntime:initialization.obj
 0003:00001d28       $pdata$__C_specific_handler 0000000180066d28     libvcruntime:riscchandler.obj
 0003:00001d34       $pdata$__std_type_info_destroy_list 0000000180066d34     libvcruntime:std_type_info.obj
 0003:00001d40       $pdata$__vcrt_initialize_ptd 0000000180066d40     libvcruntime:per_thread_data.obj
 0003:00001d4c       $pdata$__vcrt_uninitialize_ptd 0000000180066d4c     libvcruntime:per_thread_data.obj
 0003:00001d58       $pdata$__vcrt_getptd       0000000180066d58     libvcruntime:per_thread_data.obj
 0003:00001d64       $pdata$__vcrt_getptd_noexit 0000000180066d64     libvcruntime:per_thread_data.obj
 0003:00001d70       $pdata$__vcrt_freeptd      0000000180066d70     libvcruntime:per_thread_data.obj
 0003:00001d7c       $pdata$__vcrt_freefls      0000000180066d7c     libvcruntime:per_thread_data.obj
 0003:00001d88       $pdata$?StateFromIp@__FrameHandler3@@SAHPEBU_s_FuncInfo@@PEAU_xDISPATCHER_CONTEXT@@_K@Z 0000000180066d88     libvcruntime:ehstate.obj
 0003:00001d94       $pdata$?GetCurrentState@__FrameHandler3@@SAHPEA_KPEAU_xDISPATCHER_CONTEXT@@PEBU_s_FuncInfo@@@Z 0000000180066d94     libvcruntime:ehstate.obj
 0003:00001da0       $pdata$?SetUnwindTryBlock@__FrameHandler3@@SAXPEA_KPEAU_xDISPATCHER_CONTEXT@@PEBU_s_FuncInfo@@H@Z 0000000180066da0     libvcruntime:ehstate.obj
 0003:00001dac       $pdata$?GetUnwindTryBlock@__FrameHandler3@@SAHPEA_KPEAU_xDISPATCHER_CONTEXT@@PEBU_s_FuncInfo@@@Z 0000000180066dac     libvcruntime:ehstate.obj
 0003:00001db8       $pdata$?StateFromIp@__FrameHandler4@@SAHPEAUFuncInfo4@FH4@@PEAU_xDISPATCHER_CONTEXT@@_K@Z 0000000180066db8     libvcruntime:ehstate.obj
 0003:00001dc4       $pdata$?getStartStop@UWMap4@FH4@@QEAAXHHAEAViterator@12@0@Z 0000000180066dc4     libvcruntime:frame.obj
 0003:00001dd0       $pdata$?getStateFromIterators@UWMap4@FH4@@SAHAEBViterator@12@H0H0@Z 0000000180066dd0     libvcruntime:frame.obj
 0003:00001ddc       $pdata$??0HandlerMap4@FH4@@QEAA@PEBUTryBlockMapEntry4@1@_KH@Z 0000000180066ddc     libvcruntime:frame.obj
 0003:00001de8       $pdata$?FrameUnwindToState@__FrameHandler3@@SAXPEA_KPEAU_xDISPATCHER_CONTEXT@@PEBU_s_FuncInfo@@H@Z 0000000180066de8     libvcruntime:frame.obj
 0003:00001df4       $pdata$?filt$0@?0??FrameUnwindToState@__FrameHandler3@@SAXPEA_KPEAU_xDISPATCHER_CONTEXT@@PEBU_s_FuncInfo@@H@Z@4HA 0000000180066df4     libvcruntime:frame.obj
 0003:00001e00       $pdata$?fin$1@?0??FrameUnwindToState@__FrameHandler3@@SAXPEA_KPEAU_xDISPATCHER_CONTEXT@@PEBU_s_FuncInfo@@H@Z@4HA 0000000180066e00     libvcruntime:frame.obj
 0003:00001e0c       $pdata$?GetHandlerSearchState@__FrameHandler3@@SAHPEA_KPEAU_xDISPATCHER_CONTEXT@@PEBU_s_FuncInfo@@@Z 0000000180066e0c     libvcruntime:frame.obj
 0003:00001e18       $pdata$?CxxCallCatchBlock@__FrameHandler3@@SAPEAXPEAU_EXCEPTION_RECORD@@@Z 0000000180066e18     libvcruntime:frame.obj
 0003:00001e24       $pdata$?filt$0@?0??CxxCallCatchBlock@__FrameHandler3@@SAPEAXPEAU_EXCEPTION_RECORD@@@Z@4HA 0000000180066e24     libvcruntime:frame.obj
 0003:00001e30       $pdata$?fin$1@?0??CxxCallCatchBlock@__FrameHandler3@@SAPEAXPEAU_EXCEPTION_RECORD@@@Z@4HA 0000000180066e30     libvcruntime:frame.obj
 0003:00001e3c       $pdata$?FrameUnwindToState@__FrameHandler4@@SAXPEA_KPEAU_xDISPATCHER_CONTEXT@@PEAUFuncInfo4@FH4@@H@Z 0000000180066e3c     libvcruntime:frame.obj
 0003:00001e48       $pdata$?filt$0@?0??FrameUnwindToState@__FrameHandler4@@SAXPEA_KPEAU_xDISPATCHER_CONTEXT@@PEAUFuncInfo4@FH4@@H@Z@4HA 0000000180066e48     libvcruntime:frame.obj
 0003:00001e54       $pdata$?fin$1@?0??FrameUnwindToState@__FrameHandler4@@SAXPEA_KPEAU_xDISPATCHER_CONTEXT@@PEAUFuncInfo4@FH4@@H@Z@4HA 0000000180066e54     libvcruntime:frame.obj
 0003:00001e60       $pdata$?CxxCallCatchBlock@__FrameHandler4@@SAPEAXPEAU_EXCEPTION_RECORD@@@Z 0000000180066e60     libvcruntime:frame.obj
 0003:00001e6c       $pdata$?filt$0@?0??CxxCallCatchBlock@__FrameHandler4@@SAPEAXPEAU_EXCEPTION_RECORD@@@Z@4HA 0000000180066e6c     libvcruntime:frame.obj
 0003:00001e78       $pdata$?fin$1@?0??CxxCallCatchBlock@__FrameHandler4@@SAPEAXPEAU_EXCEPTION_RECORD@@@Z@4HA 0000000180066e78     libvcruntime:frame.obj
 0003:00001e84       $pdata$??0bad_exception@std@@QEAA@AEBV01@@Z 0000000180066e84     libvcruntime:frame.obj
 0003:00001e90       $pdata$?ExFilterRethrow@@YAHPEAU_EXCEPTION_POINTERS@@PEAUEHExceptionRecord@@PEAH@Z 0000000180066e90     libvcruntime:frame.obj
 0003:00001e9c       $pdata$?ExFilterRethrowFH4@@YAHPEAU_EXCEPTION_POINTERS@@PEAUEHExceptionRecord@@HPEAH@Z 0000000180066e9c     libvcruntime:frame.obj
 0003:00001ea8       $pdata$?IsInExceptionSpec@@YAEPEAUEHExceptionRecord@@PEBU_s_ESTypeList@@@Z 0000000180066ea8     libvcruntime:frame.obj
 0003:00001eb4       $pdata$?Is_bad_exception_allowed@@YAEPEBU_s_ESTypeList@@@Z 0000000180066eb4     libvcruntime:frame.obj
 0003:00001ec0       $pdata$??$__InternalCxxFrameHandler@V__FrameHandler3@@@@YA?AW4_EXCEPTION_DISPOSITION@@PEAUEHExceptionRecord@@PEA_KPEAU_CONTEXT@@PEAU_xDISPATCHER_CONTEXT@@PEBU_s_FuncInfo@@H1E@Z 0000000180066ec0     libvcruntime:frame.obj
 0003:00001ecc       $pdata$??$__InternalCxxFrameHandler@V__FrameHandler4@@@@YA?AW4_EXCEPTION_DISPOSITION@@PEAUEHExceptionRecord@@PEA_KPEAU_CONTEXT@@PEAU_xDISPATCHER_CONTEXT@@PEAUFuncInfo4@FH4@@H1E@Z 0000000180066ecc     libvcruntime:frame.obj
 0003:00001ed8       $pdata$??$TypeMatchHelper@V__FrameHandler3@@@@YAHPEBU_s_HandlerType@@PEBU_s_CatchableType@@PEBU_s_ThrowInfo@@@Z 0000000180066ed8     libvcruntime:frame.obj
 0003:00001ee4       $pdata$??$TypeMatchHelper@V__FrameHandler4@@@@YAHPEAUHandlerType4@FH4@@PEBU_s_CatchableType@@PEBU_s_ThrowInfo@@@Z 0000000180066ee4     libvcruntime:frame.obj
 0003:00001ef0       $pdata$??$BuildCatchObjectHelperInternal@V__FrameHandler3@@@@YAHPEAUEHExceptionRecord@@PEAXPEBU_s_HandlerType@@PEBU_s_CatchableType@@@Z 0000000180066ef0     libvcruntime:frame.obj
 0003:00001efc       $pdata$??$BuildCatchObjectHelperInternal@V__FrameHandler4@@@@YAHPEAUEHExceptionRecord@@PEAXPEAUHandlerType4@FH4@@PEBU_s_CatchableType@@@Z 0000000180066efc     libvcruntime:frame.obj
 0003:00001f08       $pdata$??$BuildCatchObjectInternal@V__FrameHandler3@@@@YAXPEAUEHExceptionRecord@@PEAXPEBU_s_HandlerType@@PEBU_s_CatchableType@@@Z 0000000180066f08     libvcruntime:frame.obj
 0003:00001f14       $pdata$??$BuildCatchObjectInternal@V__FrameHandler4@@@@YAXPEAUEHExceptionRecord@@PEAXPEAUHandlerType4@FH4@@PEBU_s_CatchableType@@@Z 0000000180066f14     libvcruntime:frame.obj
 0003:00001f20       $pdata$??$FindHandler@V__FrameHandler3@@@@YAXPEAUEHExceptionRecord@@PEA_KPEAU_CONTEXT@@PEAU_xDISPATCHER_CONTEXT@@PEBU_s_FuncInfo@@EH1@Z 0000000180066f20     libvcruntime:frame.obj
 0003:00001f2c       $pdata$??$FindHandler@V__FrameHandler4@@@@YAXPEAUEHExceptionRecord@@PEA_KPEAU_CONTEXT@@PEAU_xDISPATCHER_CONTEXT@@PEAUFuncInfo4@FH4@@EH1@Z 0000000180066f2c     libvcruntime:frame.obj
 0003:00001f38       $pdata$??$CatchIt@V__FrameHandler3@@@@YAXPEAUEHExceptionRecord@@PEA_KPEAU_CONTEXT@@PEAU_xDISPATCHER_CONTEXT@@PEBU_s_FuncInfo@@PEBU_s_HandlerType@@PEBU_s_CatchableType@@PEBU_s_TryBlockMapEntry@@H1EE@Z 0000000180066f38     libvcruntime:frame.obj
 0003:00001f44       $pdata$??$FindHandlerForForeignException@V__FrameHandler3@@@@YAXPEAUEHExceptionRecord@@PEA_KPEAU_CONTEXT@@PEAU_xDISPATCHER_CONTEXT@@PEBU_s_FuncInfo@@HH1@Z 0000000180066f44     libvcruntime:frame.obj
 0003:00001f50       $pdata$??$CatchIt@V__FrameHandler4@@@@YAXPEAUEHExceptionRecord@@PEA_KPEAU_CONTEXT@@PEAU_xDISPATCHER_CONTEXT@@PEAUFuncInfo4@FH4@@PEAUHandlerType4@4@PEBU_s_CatchableType@@PEAUTryBlockMapEntry4@4@H1EE@Z 0000000180066f50     libvcruntime:frame.obj
 0003:00001f5c       $pdata$??$FindHandlerForForeignException@V__FrameHandler4@@@@YAXPEAUEHExceptionRecord@@PEA_KPEAU_CONTEXT@@PEAU_xDISPATCHER_CONTEXT@@PEAUFuncInfo4@FH4@@HH1@Z 0000000180066f5c     libvcruntime:frame.obj
 0003:00001f68       $pdata$__vcrt_initialize_locks 0000000180066f68     libvcruntime:locks.obj
 0003:00001f74       $pdata$__vcrt_uninitialize_locks 0000000180066f74     libvcruntime:locks.obj
 0003:00001fa4       $pdata$__vcrt_FlsAlloc     0000000180066fa4     libvcruntime:winapi_downlevel.obj
 0003:00001fb0       $pdata$__vcrt_FlsFree      0000000180066fb0     libvcruntime:winapi_downlevel.obj
 0003:00001fbc       $pdata$__vcrt_FlsGetValue  0000000180066fbc     libvcruntime:winapi_downlevel.obj
 0003:00001fc8       $pdata$__vcrt_FlsSetValue  0000000180066fc8     libvcruntime:winapi_downlevel.obj
 0003:00001fd4       $pdata$__vcrt_InitializeCriticalSectionEx 0000000180066fd4     libvcruntime:winapi_downlevel.obj
 0003:00001fe0       $pdata$?try_get_function@@YAPEAXW4function_id@?A0x81a78551@@QEBDQEBW4module_id@2@2@Z 0000000180066fe0     libvcruntime:winapi_downlevel.obj
 0003:0000201c       $pdata$_invalid_parameter_noinfo 000000018006701c     libucrt:invalid_parameter.obj
 0003:00002028       $pdata$_invalid_parameter_noinfo_noreturn 0000000180067028     libucrt:invalid_parameter.obj
 0003:00002034       $pdata$_invoke_watson      0000000180067034     libucrt:invalid_parameter.obj
 0003:00002040       $pdata$__acrt_call_reportfault 0000000180067040     libucrt:invalid_parameter.obj
 0003:0000204c       $pdata$_invalid_parameter  000000018006704c     libucrt:invalid_parameter.obj
 0003:00002058       $pdata$_dclass             0000000180067058     libucrt:nan.obj
 0003:00002064       $pdata$_ldclass            0000000180067064     libucrt:nanl.obj
 0003:00002070       $pdata$_fdclass            0000000180067070     libucrt:nanf.obj
 0003:0000207c       $pdata$_errno              000000018006707c     libucrt:errno.obj
 0003:00002088       $pdata$__doserrno          0000000180067088     libucrt:errno.obj
 0003:00002094       $pdata$__acrt_errno_map_os_error 0000000180067094     libucrt:errno.obj
 0003:000020a0       $pdata$__acrt_initialize_stdio 00000001800670a0     libucrt:_file.obj
 0003:000020ac       $pdata$__acrt_uninitialize_stdio 00000001800670ac     libucrt:_file.obj
 0003:000020b8       $pdata$_fileno             00000001800670b8     libucrt:fileno.obj
 0003:000020c4       $pdata$??0_LocaleUpdate@@QEAA@QEAU__crt_locale_pointers@@@Z 00000001800670c4     libucrt:output.obj
 0003:000020d0       $pdata$__stdio_common_vsnprintf_s 00000001800670d0     libucrt:output.obj
 0003:000020dc       $pdata$?write_string@?$string_output_adapter@D@__crt_stdio_output@@QEBAXQEBDHQEAHAEAV__crt_deferred_errno_cache@@@Z 00000001800670dc     libucrt:output.obj
 0003:000020e8       $pdata$??$common_vsprintf@Vformat_validation_base@__crt_stdio_output@@D@@YAH_KQEAD0QEBDQEAU__crt_locale_pointers@@1@Z 00000001800670e8     libucrt:output.obj
 0003:000020f4       $pdata$??$write_multiple_characters@V?$string_output_adapter@D@__crt_stdio_output@@D@__crt_stdio_output@@YAXAEBV?$string_output_adapter@D@0@DHQEAH@Z 00000001800670f4     libucrt:output.obj
 0003:00002100       $pdata$??$ensure_buffer_is_big_enough@D@formatting_buffer@__crt_stdio_output@@QEAA_N_K@Z 0000000180067100     libucrt:output.obj
 0003:0000210c       $pdata$?process@?$output_processor@DV?$string_output_adapter@D@__crt_stdio_output@@V?$format_validation_base@DV?$string_output_adapter@D@__crt_stdio_output@@@2@@__crt_stdio_output@@QEAAHXZ 000000018006710c     libucrt:output.obj
 0003:00002118       $pdata$?state_case_normal@?$output_processor@DV?$string_output_adapter@D@__crt_stdio_output@@V?$format_validation_base@DV?$string_output_adapter@D@__crt_stdio_output@@@2@@__crt_stdio_output@@AEAA_NXZ 0000000180067118     libucrt:output.obj
 0003:00002124       $pdata$?state_case_normal_tchar@?$output_processor@DV?$string_output_adapter@D@__crt_stdio_output@@V?$format_validation_base@DV?$string_output_adapter@D@__crt_stdio_output@@@2@@__crt_stdio_output@@AEAA_ND@Z 0000000180067124     libucrt:output.obj
 0003:00002130       $pdata$?parse_int_from_format_string@?$output_processor@DV?$string_output_adapter@D@__crt_stdio_output@@V?$format_validation_base@DV?$string_output_adapter@D@__crt_stdio_output@@@2@@__crt_stdio_output@@AEAA_NQEAH@Z 0000000180067130     libucrt:output.obj
 0003:0000213c       $pdata$?state_case_size@?$output_processor@DV?$string_output_adapter@D@__crt_stdio_output@@V?$format_validation_base@DV?$string_output_adapter@D@__crt_stdio_output@@@2@@__crt_stdio_output@@AEAA_NXZ 000000018006713c     libucrt:output.obj
 0003:00002148       $pdata$?state_case_type@?$output_processor@DV?$string_output_adapter@D@__crt_stdio_output@@V?$format_validation_base@DV?$string_output_adapter@D@__crt_stdio_output@@@2@@__crt_stdio_output@@AEAA_NXZ 0000000180067148     libucrt:output.obj
 0003:00002154       $pdata$?type_case_c_tchar@?$output_processor@DV?$string_output_adapter@D@__crt_stdio_output@@V?$format_validation_base@DV?$string_output_adapter@D@__crt_stdio_output@@@2@@__crt_stdio_output@@AEAA_ND@Z 0000000180067154     libucrt:output.obj
 0003:00002160       $pdata$?type_case_s@?$output_processor@DV?$string_output_adapter@D@__crt_stdio_output@@V?$format_validation_base@DV?$string_output_adapter@D@__crt_stdio_output@@@2@@__crt_stdio_output@@AEAA_NXZ 0000000180067160     libucrt:output.obj
 0003:0000216c       $pdata$?type_case_a@?$output_processor@DV?$string_output_adapter@D@__crt_stdio_output@@V?$format_validation_base@DV?$string_output_adapter@D@__crt_stdio_output@@@2@@__crt_stdio_output@@AEAA_NXZ 000000018006716c     libucrt:output.obj
 0003:00002178       $pdata$?type_case_integer@?$output_processor@DV?$string_output_adapter@D@__crt_stdio_output@@V?$format_validation_base@DV?$string_output_adapter@D@__crt_stdio_output@@@2@@__crt_stdio_output@@AEAA_NI_N@Z 0000000180067178     libucrt:output.obj
 0003:00002184       $pdata$?type_case_n@?$output_processor@DV?$string_output_adapter@D@__crt_stdio_output@@V?$format_validation_base@DV?$string_output_adapter@D@__crt_stdio_output@@@2@@__crt_stdio_output@@AEAA_NXZ 0000000180067184     libucrt:output.obj
 0003:00002190       $pdata$?write_stored_string_tchar@?$output_processor@DV?$string_output_adapter@D@__crt_stdio_output@@V?$format_validation_base@DV?$string_output_adapter@D@__crt_stdio_output@@@2@@__crt_stdio_output@@AEAA_ND@Z 0000000180067190     libucrt:output.obj
 0003:0000219c       $pdata$??$type_case_integer_parse_into_buffer@_K@?$output_processor@DV?$string_output_adapter@D@__crt_stdio_output@@V?$format_validation_base@DV?$string_output_adapter@D@__crt_stdio_output@@@2@@__crt_stdio_output@@AEAAX_KI_N@Z 000000018006719c     libucrt:output.obj
 0003:000021a8       $pdata$??$type_case_integer_parse_into_buffer@I@?$output_processor@DV?$string_output_adapter@D@__crt_stdio_output@@V?$format_validation_base@DV?$string_output_adapter@D@__crt_stdio_output@@@2@@__crt_stdio_output@@AEAAXII_N@Z 00000001800671a8     libucrt:output.obj
 0003:000021b4       $pdata$terminate           00000001800671b4     libucrt:terminate.obj
 0003:000021c0       $pdata$localeconv          00000001800671c0     libucrt:localeconv.obj
 0003:000021cc       $pdata$_get_osfhandle      00000001800671cc     libucrt:osfinfo.obj
 0003:000021d8       $pdata$_free_osfhnd        00000001800671d8     libucrt:osfinfo.obj
 0003:000021e4       $pdata$__acrt_lowio_create_handle_array 00000001800671e4     libucrt:osfinfo.obj
 0003:000021f0       $pdata$__acrt_lowio_destroy_handle_array 00000001800671f0     libucrt:osfinfo.obj
 0003:000021fc       $pdata$__acrt_lowio_ensure_fh_exists 00000001800671fc     libucrt:osfinfo.obj
 0003:00002208       $pdata$__acrt_initialize_lowio$fin$0 0000000180067208     libucrt:ioinit.obj
 0003:00002208       $pdata$__acrt_lowio_ensure_fh_exists$fin$0 0000000180067208     libucrt:osfinfo.obj
 0003:00002214       $pdata$_isatty             0000000180067214     libucrt:isatty.obj
 0003:00002220       $pdata$log2                0000000180067220     libucrt:log2.obj
 0003:0000222c       $pdata$round               000000018006722c     libucrt:round.obj
 0003:00002238       $pdata$_isleadbyte_l       0000000180067238     libucrt:_wctype.obj
 0003:00002244       $pdata$wcsncpy             0000000180067244     libucrt:wcsncpy.obj
 0003:00002250       $pdata$wcstok              0000000180067250     libucrt:wcstok.obj
 0003:00002274       $pdata$__acrt_initialize_locks 0000000180067274     libucrt:locks.obj
 0003:00002280       $pdata$__acrt_uninitialize_locks 0000000180067280     libucrt:locks.obj
 0003:0000228c       $pdata$_lock_locales       000000018006728c     libucrt:locks.obj
 0003:00002298       $pdata$setlocale           0000000180067298     libucrt:setlocale.obj
 0003:000022a4       $pdata$??R<lambda_b37934c380d97b75fd242ea49540127a>@@QEBAPEADXZ 00000001800672a4     libucrt:setlocale.obj
 0003:000022b0       $pdata$??$?RV<lambda_41e84717acc955b55e9d0d529e507b68>@@AEAV<lambda_b37934c380d97b75fd242ea49540127a>@@V<lambda_bb6db9f9ac473960206e0d4b942b5506>@@@?$__crt_seh_guarded_call@PEAD@@QEAAPEAD$$QEAV<lambda_41e84717acc955b55e9d0d529e507b68>@@AEAV<lambda_b37934c380d97b75fd242ea49540127a>@@$$QEAV<lambda_bb6db9f9ac473960206e0d4b942b5506>@@@Z 00000001800672b0     libucrt:setlocale.obj
 0003:000022bc       $pdata$?fin$0@?0???$?RV<lambda_0ae27a3a962d80f24befdcbee591983d>@@AEAV<lambda_8d0ee55de4b1038c4002e0adecdf1839>@@V<lambda_dc504788e8f1664fe9b84e20bfb512f2>@@@?$__crt_seh_guarded_call@X@@QEAAX$$QEAV<lambda_0ae27a3a962d80f24befdcbee591983d>@@AEAV<lambda_8d0ee55de4b1038c4002e0adecdf1839>@@$$QEAV<lambda_dc504788e8f1664fe9b84e20bfb512f2>@@@Z@4HA 00000001800672bc     libucrt:per_thread_data.obj
 0003:000022bc       $pdata$?fin$0@?0???$?RV<lambda_2d41944a1d46af3157314b8a01080d33>@@AEAV<lambda_8f455de75cd7d7f24b4096f044d8b9e6>@@V<lambda_aa500f224e6afead328df44964fe2772>@@@?$__crt_seh_guarded_call@X@@QEAAX$$QEAV<lambda_2d41944a1d46af3157314b8a01080d33>@@AEAV<lambda_8f455de75cd7d7f24b4096f044d8b9e6>@@$$QEAV<lambda_aa500f224e6afead328df44964fe2772>@@@Z@4HA 00000001800672bc     libucrt:per_thread_data.obj
 0003:000022bc       $pdata$?fin$0@?0???$?RV<lambda_aa87e3671a710a21b5dc78c0bdf72e11>@@AEAV<lambda_92619d2358a28f41a33ba319515a20b9>@@V<lambda_6992ecaafeb10aed2b74cb1fae11a551>@@@?$__crt_seh_guarded_call@X@@QEAAX$$QEAV<lambda_aa87e3671a710a21b5dc78c0bdf72e11>@@AEAV<lambda_92619d2358a28f41a33ba319515a20b9>@@$$QEAV<lambda_6992ecaafeb10aed2b74cb1fae11a551>@@@Z@4HA 00000001800672bc     libucrt:per_thread_data.obj
 0003:000022bc       $pdata$?fin$0@?0???$?RV<lambda_f2e299630e499de9f9a165e60fcd3db5>@@AEAV<lambda_2ae9d31cdba2644fcbeaf08da7c24588>@@V<lambda_40d01ff24d0e7b3814fdbdcee8eab3c7>@@@?$__crt_seh_guarded_call@X@@QEAAX$$QEAV<lambda_f2e299630e499de9f9a165e60fcd3db5>@@AEAV<lambda_2ae9d31cdba2644fcbeaf08da7c24588>@@$$QEAV<lambda_40d01ff24d0e7b3814fdbdcee8eab3c7>@@@Z@4HA 00000001800672bc     libucrt:per_thread_data.obj
 0003:000022bc       $pdata$?fin$0@?0???$?RV<lambda_48fc4a32460bb0512d3b13f8499328be>@@AEAV<lambda_6c3dac0a4f3f9cefca9bb494422f9b77>@@V<lambda_0a2f2c9f9a56eb2b08bfa6ff61d331c5>@@@?$__crt_seh_guarded_call@H@@QEAAH$$QEAV<lambda_48fc4a32460bb0512d3b13f8499328be>@@AEAV<lambda_6c3dac0a4f3f9cefca9bb494422f9b77>@@$$QEAV<lambda_0a2f2c9f9a56eb2b08bfa6ff61d331c5>@@@Z@4HA 00000001800672bc     libucrt:winapi_thunks.obj
 0003:000022bc       $pdata$?fin$0@?0???$?RV<lambda_41e84717acc955b55e9d0d529e507b68>@@AEAV<lambda_b37934c380d97b75fd242ea49540127a>@@V<lambda_bb6db9f9ac473960206e0d4b942b5506>@@@?$__crt_seh_guarded_call@PEAD@@QEAAPEAD$$QEAV<lambda_41e84717acc955b55e9d0d529e507b68>@@AEAV<lambda_b37934c380d97b75fd242ea49540127a>@@$$QEAV<lambda_bb6db9f9ac473960206e0d4b942b5506>@@@Z@4HA 00000001800672bc     libucrt:setlocale.obj
 0003:000022bc       $pdata$?fin$0@?0???$?RV<lambda_1d892b297fdedeee07ed8124eeb2f2fa>@@AEAV<lambda_ffc046909424fd52df0ac47e64813305>@@V<lambda_01a7098693036236037e7cdb9bca3d73>@@@?$__crt_seh_guarded_call@X@@QEAAX$$QEAV<lambda_1d892b297fdedeee07ed8124eeb2f2fa>@@AEAV<lambda_ffc046909424fd52df0ac47e64813305>@@$$QEAV<lambda_01a7098693036236037e7cdb9bca3d73>@@@Z@4HA 00000001800672bc     libucrt:wsetlocale.obj
 0003:000022bc       $pdata$?fin$0@?0???$?RV<lambda_efdfa57d1f175319df784efa44bb7b81>@@AEAV<lambda_5f0a4c1567f8adc6734073e5d1e1b35c>@@V<lambda_2e8a7d3640ea6ccb4c2413664c2db6fd>@@@?$__crt_seh_guarded_call@X@@QEAAX$$QEAV<lambda_efdfa57d1f175319df784efa44bb7b81>@@AEAV<lambda_5f0a4c1567f8adc6734073e5d1e1b35c>@@$$QEAV<lambda_2e8a7d3640ea6ccb4c2413664c2db6fd>@@@Z@4HA 00000001800672bc     libucrt:mbctype.obj
 0003:000022bc       $pdata$?fin$0@?0???$?RV<lambda_450d765d439847d4c735a33c368b5fc0>@@AEAV<lambda_44731a7d0e6d81c3e6aa82d741081786>@@V<lambda_601a2a7da3b7a96e9554ac7215c4b07c>@@@?$__crt_seh_guarded_call@P6AXH@Z@@QEAAP6AXH@Z$$QEAV<lambda_450d765d439847d4c735a33c368b5fc0>@@AEAV<lambda_44731a7d0e6d81c3e6aa82d741081786>@@$$QEAV<lambda_601a2a7da3b7a96e9554ac7215c4b07c>@@@Z@4HA 00000001800672bc     libucrt:signal.obj
 0003:000022bc       $pdata$?fin$0@?0???$?RV<lambda_d80eeec6fff315bfe5c115232f3240e3>@@AEAV<lambda_6e4b09c48022b2350581041d5f6b0c4c>@@V<lambda_2358e3775559c9db80273638284d5e45>@@@?$__crt_seh_guarded_call@X@@QEAAX$$QEAV<lambda_d80eeec6fff315bfe5c115232f3240e3>@@AEAV<lambda_6e4b09c48022b2350581041d5f6b0c4c>@@$$QEAV<lambda_2358e3775559c9db80273638284d5e45>@@@Z@4HA 00000001800672bc     libucrt:exit.obj
 0003:000022bc       $pdata$?fin$0@?0???$?RV<lambda_638799b9deba96c50f710eeac98168cd>@@AEAV<lambda_22ebabd17bc4fa466a2aca6d8deb888d>@@V<lambda_a6f7d7db0129f75315ebf26d50c089f1>@@@?$__crt_seh_guarded_call@H@@QEAAH$$QEAV<lambda_638799b9deba96c50f710eeac98168cd>@@AEAV<lambda_22ebabd17bc4fa466a2aca6d8deb888d>@@$$QEAV<lambda_a6f7d7db0129f75315ebf26d50c089f1>@@@Z@4HA 00000001800672bc     libucrt:onexit.obj
 0003:000022bc       $pdata$?fin$0@?0???$?RV<lambda_7777bce6b2f8c936911f934f8298dc43>@@AEAV<lambda_f03950bc5685219e0bcd2087efbe011e>@@V<lambda_3883c3dff614d5e0c5f61bb1ac94921c>@@@?$__crt_seh_guarded_call@H@@QEAAH$$QEAV<lambda_7777bce6b2f8c936911f934f8298dc43>@@AEAV<lambda_f03950bc5685219e0bcd2087efbe011e>@@$$QEAV<lambda_3883c3dff614d5e0c5f61bb1ac94921c>@@@Z@4HA 00000001800672bc     libucrt:onexit.obj
 0003:000022c8       $pdata$___mb_cur_max_func  00000001800672c8     libucrt:initctype.obj
 0003:000022d4       $pdata$__acrt_locale_initialize_ctype 00000001800672d4     libucrt:initctype.obj
 0003:000022e0       $pdata$___lc_locale_name_func 00000001800672e0     libucrt:initctype.obj
 0003:000022ec       $pdata$___lc_codepage_func 00000001800672ec     libucrt:initctype.obj
 0003:000022f8       $pdata$__pctype_func       00000001800672f8     libucrt:ctype.obj
 0003:00002304       $pdata$_ischartype_l       0000000180067304     libucrt:strtod.obj
 0003:00002310       $pdata$memcpy_s            0000000180067310     libucrt:cfout.obj
 0003:00002310       $pdata$memcpy_s            0000000180067310     libucrt:strtod.obj
 0003:0000231c       $pdata$?divide@__crt_strtox@@YA_KAEAUbig_integer@1@AEBU21@@Z 000000018006731c     libucrt:strtod.obj
 0003:00002328       $pdata$0$?divide@__crt_strtox@@YA_KAEAUbig_integer@1@AEBU21@@Z 0000000180067328     libucrt:strtod.obj
 0003:00002334       $pdata$1$?divide@__crt_strtox@@YA_KAEAUbig_integer@1@AEBU21@@Z 0000000180067334     libucrt:strtod.obj
 0003:0000234c       $pdata$abort               000000018006734c     libucrt:abort.obj
 0003:00002358       $pdata$_wcsdup             0000000180067358     libucrt:wcsdup.obj
 0003:00002364       $pdata$??$__acrt_mbs_to_wcs_cp@U__crt_win32_buffer_internal_dynamic_resizing@@@@YAHQEBDAEAV?$__crt_win32_buffer@_WU__crt_win32_buffer_internal_dynamic_resizing@@@@I@Z 0000000180067364     libucrt:strftime.obj
 0003:00002370       $pdata$??$__acrt_wcs_to_mbs_cp@U__crt_win32_buffer_no_resizing@@@@YAHQEB_WAEAV?$__crt_win32_buffer@DU__crt_win32_buffer_no_resizing@@@@I@Z 0000000180067370     libucrt:strftime.obj
 0003:0000237c       $pdata$wcscpy_s            000000018006737c     libucrt:wcscpy_s.obj
 0003:00002388       $pdata$_seh_filter_exe     0000000180067388     libucrt:exception_filter.obj
 0003:00002394       $pdata$?try_cor_exit_process@@YAXI@Z 0000000180067394     libucrt:exit.obj
 0003:000023a0       $pdata$?exit_or_terminate_process@@YAXI@Z 00000001800673a0     libucrt:exit.obj
 0003:000023ac       $pdata$?common_exit@@YAXHW4_crt_exit_cleanup_mode@@W4_crt_exit_return_mode@@@Z 00000001800673ac     libucrt:exit.obj
 0003:000023b8       $pdata$??R<lambda_6e4b09c48022b2350581041d5f6b0c4c>@@QEBA@XZ 00000001800673b8     libucrt:exit.obj
 0003:000023c4       $pdata$?filt$0@?0???R<lambda_6e4b09c48022b2350581041d5f6b0c4c>@@QEBA@XZ@4HA 00000001800673c4     libucrt:exit.obj
 0003:000023d0       $pdata$??$?RV<lambda_d80eeec6fff315bfe5c115232f3240e3>@@AEAV<lambda_6e4b09c48022b2350581041d5f6b0c4c>@@V<lambda_2358e3775559c9db80273638284d5e45>@@@?$__crt_seh_guarded_call@X@@QEAAX$$QEAV<lambda_d80eeec6fff315bfe5c115232f3240e3>@@AEAV<lambda_6e4b09c48022b2350581041d5f6b0c4c>@@$$QEAV<lambda_2358e3775559c9db80273638284d5e45>@@@Z 00000001800673d0     libucrt:exit.obj
 0003:000023dc       $pdata$_configure_narrow_argv 00000001800673dc     libucrt:argv_parsing.obj
 0003:000023e8       $pdata$__acrt_allocate_buffer_for_argv 00000001800673e8     libucrt:argv_parsing.obj
 0003:000023f4       $pdata$??$parse_command_line@D@@YAXPEADPEAPEAD0PEA_K2@Z 00000001800673f4     libucrt:argv_parsing.obj
 0003:00002400       $pdata$__dcrt_uninitialize_environments_nolock 0000000180067400     libucrt:environment_initialization.obj
 0003:0000240c       $pdata$??$common_initialize_environment_nolock@D@@YAHXZ 000000018006740c     libucrt:environment_initialization.obj
 0003:00002418       $pdata$??$uninitialize_environment_internal@D@@YAXAEAPEAPEAD@Z 0000000180067418     libucrt:environment_initialization.obj
 0003:00002424       $pdata$??$uninitialize_environment_internal@_W@@YAXAEAPEAPEA_W@Z 0000000180067424     libucrt:environment_initialization.obj
 0003:00002430       $pdata$??$free_environment@D@@YAXQEAPEAD@Z 0000000180067430     libucrt:environment_initialization.obj
 0003:00002430       $pdata$??$free_environment@_W@@YAXQEAPEA_W@Z 0000000180067430     libucrt:environment_initialization.obj
 0003:0000243c       $pdata$??$create_environment@D@@YAQEAPEADQEAD@Z 000000018006743c     libucrt:environment_initialization.obj
 0003:00002448       $pdata$_register_onexit_function 0000000180067448     libucrt:onexit.obj
 0003:00002454       $pdata$_execute_onexit_table 0000000180067454     libucrt:onexit.obj
 0003:00002460       $pdata$??R<lambda_22ebabd17bc4fa466a2aca6d8deb888d>@@QEBAHXZ 0000000180067460     libucrt:onexit.obj
 0003:0000246c       $pdata$??R<lambda_f03950bc5685219e0bcd2087efbe011e>@@QEBAHXZ 000000018006746c     libucrt:onexit.obj
 0003:00002478       $pdata$??$?RV<lambda_638799b9deba96c50f710eeac98168cd>@@AEAV<lambda_22ebabd17bc4fa466a2aca6d8deb888d>@@V<lambda_a6f7d7db0129f75315ebf26d50c089f1>@@@?$__crt_seh_guarded_call@H@@QEAAH$$QEAV<lambda_638799b9deba96c50f710eeac98168cd>@@AEAV<lambda_22ebabd17bc4fa466a2aca6d8deb888d>@@$$QEAV<lambda_a6f7d7db0129f75315ebf26d50c089f1>@@@Z 0000000180067478     libucrt:onexit.obj
 0003:00002484       $pdata$??$?RV<lambda_7777bce6b2f8c936911f934f8298dc43>@@AEAV<lambda_f03950bc5685219e0bcd2087efbe011e>@@V<lambda_3883c3dff614d5e0c5f61bb1ac94921c>@@@?$__crt_seh_guarded_call@H@@QEAAH$$QEAV<lambda_7777bce6b2f8c936911f934f8298dc43>@@AEAV<lambda_f03950bc5685219e0bcd2087efbe011e>@@$$QEAV<lambda_3883c3dff614d5e0c5f61bb1ac94921c>@@@Z 0000000180067484     libucrt:onexit.obj
 0003:00002490       $pdata$__acrt_uninitialize 0000000180067490     libucrt:initialization.obj
 0003:0000249c       $pdata$__acrt_uninitialize_critical 000000018006749c     libucrt:initialization.obj
 0003:000024a8       $pdata$__acrt_thread_attach 00000001800674a8     libucrt:initialization.obj
 0003:000024b4       $pdata$__acrt_thread_detach 00000001800674b4     libucrt:initialization.obj
 0003:000024c0       $pdata$initialize_c        00000001800674c0     libucrt:initialization.obj
 0003:000024cc       $pdata$uninitialize_environment 00000001800674cc     libucrt:initialization.obj
 0003:000024d8       $pdata$initialize_pointers 00000001800674d8     libucrt:initialization.obj
 0003:000024e4       $pdata$uninitialize_allocated_memory 00000001800674e4     libucrt:initialization.obj
 0003:000024f0       $pdata$uninitialize_allocated_io_buffers 00000001800674f0     libucrt:initialization.obj
 0003:000024fc       $pdata$_callnewh           00000001800674fc     libucrt:new_handler.obj
 0003:00002508       $pdata$_query_new_handler  0000000180067508     libucrt:new_handler.obj
 0003:00002514       $pdata$_query_new_handler$fin$0 0000000180067514     libucrt:new_handler.obj
 0003:00002520       $pdata$_initterm           0000000180067520     libucrt:initterm.obj
 0003:0000252c       $pdata$_initterm_e         000000018006752c     libucrt:initterm.obj
 0003:00002538       $pdata$strcpy_s            0000000180067538     libucrt:strcpy_s.obj
 0003:00002544       $pdata$_wtol               0000000180067544     libucrt:atox.obj
 0003:00002550       $pdata$??$parse_integer@KV?$c_string_character_source@D@__crt_strtox@@@__crt_strtox@@YAKQEAU__crt_locale_pointers@@V?$c_string_character_source@D@0@H_N@Z 0000000180067550     libucrt:atox.obj
 0003:0000255c       $pdata$??$parse_integer@KV?$c_string_character_source@_W@__crt_strtox@@@__crt_strtox@@YAKQEAU__crt_locale_pointers@@V?$c_string_character_source@_W@0@H_N@Z 000000018006755c     libucrt:atox.obj
 0003:00002574       $pdata$__acrt_initialize_ptd 0000000180067574     libucrt:per_thread_data.obj
 0003:00002580       $pdata$__acrt_uninitialize_ptd 0000000180067580     libucrt:per_thread_data.obj
 0003:0000258c       $pdata$__acrt_getptd       000000018006758c     libucrt:per_thread_data.obj
 0003:00002598       $pdata$__acrt_getptd_head  0000000180067598     libucrt:per_thread_data.obj
 0003:000025a4       $pdata$__acrt_getptd_noexit 00000001800675a4     libucrt:per_thread_data.obj
 0003:000025b0       $pdata$__acrt_freeptd      00000001800675b0     libucrt:per_thread_data.obj
 0003:000025bc       $pdata$?destroy_fls@@YAXPEAX@Z 00000001800675bc     libucrt:per_thread_data.obj
 0003:000025c8       $pdata$?replace_current_thread_locale_nolock@@YAXQEAU__acrt_ptd@@QEAU__crt_locale_data@@@Z 00000001800675c8     libucrt:per_thread_data.obj
 0003:000025d4       $pdata$?construct_ptd_array@@YAXQEAU__acrt_ptd@@@Z 00000001800675d4     libucrt:per_thread_data.obj
 0003:000025e0       $pdata$?destroy_ptd_array@@YAXQEAU__acrt_ptd@@@Z 00000001800675e0     libucrt:per_thread_data.obj
 0003:000025ec       $pdata$??$?RV<lambda_0ae27a3a962d80f24befdcbee591983d>@@AEAV<lambda_8d0ee55de4b1038c4002e0adecdf1839>@@V<lambda_dc504788e8f1664fe9b84e20bfb512f2>@@@?$__crt_seh_guarded_call@X@@QEAAX$$QEAV<lambda_0ae27a3a962d80f24befdcbee591983d>@@AEAV<lambda_8d0ee55de4b1038c4002e0adecdf1839>@@$$QEAV<lambda_dc504788e8f1664fe9b84e20bfb512f2>@@@Z 00000001800675ec     libucrt:per_thread_data.obj
 0003:000025f8       $pdata$??$?RV<lambda_aa87e3671a710a21b5dc78c0bdf72e11>@@AEAV<lambda_92619d2358a28f41a33ba319515a20b9>@@V<lambda_6992ecaafeb10aed2b74cb1fae11a551>@@@?$__crt_seh_guarded_call@X@@QEAAX$$QEAV<lambda_aa87e3671a710a21b5dc78c0bdf72e11>@@AEAV<lambda_92619d2358a28f41a33ba319515a20b9>@@$$QEAV<lambda_6992ecaafeb10aed2b74cb1fae11a551>@@@Z 00000001800675f8     libucrt:per_thread_data.obj
 0003:00002604       $pdata$??$?RV<lambda_f2e299630e499de9f9a165e60fcd3db5>@@AEAV<lambda_2ae9d31cdba2644fcbeaf08da7c24588>@@V<lambda_40d01ff24d0e7b3814fdbdcee8eab3c7>@@@?$__crt_seh_guarded_call@X@@QEAAX$$QEAV<lambda_f2e299630e499de9f9a165e60fcd3db5>@@AEAV<lambda_2ae9d31cdba2644fcbeaf08da7c24588>@@$$QEAV<lambda_40d01ff24d0e7b3814fdbdcee8eab3c7>@@@Z 0000000180067604     libucrt:per_thread_data.obj
 0003:00002610       $pdata$??$?RV<lambda_2d41944a1d46af3157314b8a01080d33>@@AEAV<lambda_8f455de75cd7d7f24b4096f044d8b9e6>@@V<lambda_aa500f224e6afead328df44964fe2772>@@@?$__crt_seh_guarded_call@X@@QEAAX$$QEAV<lambda_2d41944a1d46af3157314b8a01080d33>@@AEAV<lambda_8f455de75cd7d7f24b4096f044d8b9e6>@@$$QEAV<lambda_aa500f224e6afead328df44964fe2772>@@@Z 0000000180067610     libucrt:per_thread_data.obj
 0003:0000261c       $pdata$_calloc_base        000000018006761c     libucrt:calloc_base.obj
 0003:00002628       $pdata$_free_base          0000000180067628     libucrt:free_base.obj
 0003:00002634       $pdata$__acrt_initialize_winapi_thunks 0000000180067634     libucrt:winapi_thunks.obj
 0003:00002640       $pdata$__acrt_uninitialize_winapi_thunks 0000000180067640     libucrt:winapi_thunks.obj
 0003:0000264c       $pdata$__acrt_AreFileApisANSI 000000018006764c     libucrt:winapi_thunks.obj
 0003:00002658       $pdata$__acrt_EnumSystemLocalesEx 0000000180067658     libucrt:winapi_thunks.obj
 0003:00002664       $pdata$__acrt_FlsAlloc     0000000180067664     libucrt:winapi_thunks.obj
 0003:00002670       $pdata$__acrt_FlsFree      0000000180067670     libucrt:winapi_thunks.obj
 0003:0000267c       $pdata$__acrt_FlsGetValue  000000018006767c     libucrt:winapi_thunks.obj
 0003:00002688       $pdata$__acrt_FlsSetValue  0000000180067688     libucrt:winapi_thunks.obj
 0003:00002694       $pdata$__acrt_GetLocaleInfoEx 0000000180067694     libucrt:winapi_thunks.obj
 0003:000026a0       $pdata$__acrt_GetUserDefaultLocaleName 00000001800676a0     libucrt:winapi_thunks.obj
 0003:000026ac       $pdata$__acrt_InitializeCriticalSectionEx 00000001800676ac     libucrt:winapi_thunks.obj
 0003:000026b8       $pdata$__acrt_IsValidLocaleName 00000001800676b8     libucrt:winapi_thunks.obj
 0003:000026c4       $pdata$__acrt_LCMapStringEx 00000001800676c4     libucrt:winapi_thunks.obj
 0003:000026d0       $pdata$__acrt_LCIDToLocaleName 00000001800676d0     libucrt:winapi_thunks.obj
 0003:000026dc       $pdata$__acrt_LocaleNameToLCID 00000001800676dc     libucrt:winapi_thunks.obj
 0003:000026e8       $pdata$__acrt_AppPolicyGetProcessTerminationMethodInternal 00000001800676e8     libucrt:winapi_thunks.obj
 0003:000026f4       $pdata$__acrt_can_use_vista_locale_apis 00000001800676f4     libucrt:winapi_thunks.obj
 0003:00002700       $pdata$__acrt_eagerly_load_locale_apis 0000000180067700     libucrt:winapi_thunks.obj
 0003:0000270c       $pdata$?try_get_function@@YAPEAXW4function_id@?A0x391cf84c@@QEBDQEBW4module_id@2@2@Z 000000018006770c     libucrt:winapi_thunks.obj
 0003:00002718       $pdata$??$?RV<lambda_48fc4a32460bb0512d3b13f8499328be>@@AEAV<lambda_6c3dac0a4f3f9cefca9bb494422f9b77>@@V<lambda_0a2f2c9f9a56eb2b08bfa6ff61d331c5>@@@?$__crt_seh_guarded_call@H@@QEAAH$$QEAV<lambda_48fc4a32460bb0512d3b13f8499328be>@@AEAV<lambda_6c3dac0a4f3f9cefca9bb494422f9b77>@@$$QEAV<lambda_0a2f2c9f9a56eb2b08bfa6ff61d331c5>@@@Z 0000000180067718     libucrt:winapi_thunks.obj
 0003:00002724       $pdata$_fcloseall          0000000180067724     libucrt:closeall.obj
 0003:00002730       $pdata$_fcloseall$fin$0    0000000180067730     libucrt:closeall.obj
 0003:0000273c       $pdata$_fflush_nolock      000000018006773c     libucrt:fflush.obj
 0003:00002748       $pdata$__acrt_stdio_flush_nolock 0000000180067748     libucrt:fflush.obj
 0003:00002754       $pdata$?common_flush_all@@YAH_N@Z 0000000180067754     libucrt:fflush.obj
 0003:00002760       $pdata$??$?RV<lambda_842d9ff0dc9ef11c61343bbaebe7f885>@@AEAV<lambda_c5860995281e5c4ce005b3de8f5874ee>@@V<lambda_d90129c13df834fdcbf8d2b88dafcf2d>@@@?$__crt_seh_guarded_call@X@@QEAAX$$QEAV<lambda_842d9ff0dc9ef11c61343bbaebe7f885>@@AEAV<lambda_c5860995281e5c4ce005b3de8f5874ee>@@$$QEAV<lambda_d90129c13df834fdcbf8d2b88dafcf2d>@@@Z 0000000180067760     libucrt:fflush.obj
 0003:0000276c       $pdata$?fin$0@?0???$?RV<lambda_842d9ff0dc9ef11c61343bbaebe7f885>@@AEAV<lambda_c5860995281e5c4ce005b3de8f5874ee>@@V<lambda_d90129c13df834fdcbf8d2b88dafcf2d>@@@?$__crt_seh_guarded_call@X@@QEAAX$$QEAV<lambda_842d9ff0dc9ef11c61343bbaebe7f885>@@AEAV<lambda_c5860995281e5c4ce005b3de8f5874ee>@@$$QEAV<lambda_d90129c13df834fdcbf8d2b88dafcf2d>@@@Z@4HA 000000018006776c     libucrt:fflush.obj
 0003:00002778       $pdata$??$?RV<lambda_886d6c58226a84441f68b9f2b8217b83>@@AEAV<lambda_ab61a845afdef5b7c387490eaf3616ee>@@V<lambda_f7f22ab5edc0698d5f6905b0d3f44752>@@@?$__crt_seh_guarded_call@X@@QEAAX$$QEAV<lambda_886d6c58226a84441f68b9f2b8217b83>@@AEAV<lambda_ab61a845afdef5b7c387490eaf3616ee>@@$$QEAV<lambda_f7f22ab5edc0698d5f6905b0d3f44752>@@@Z 0000000180067778     libucrt:fflush.obj
 0003:00002784       $pdata$?fin$0@?0???$?RV<lambda_886d6c58226a84441f68b9f2b8217b83>@@AEAV<lambda_ab61a845afdef5b7c387490eaf3616ee>@@V<lambda_f7f22ab5edc0698d5f6905b0d3f44752>@@@?$__crt_seh_guarded_call@X@@QEAAX$$QEAV<lambda_886d6c58226a84441f68b9f2b8217b83>@@AEAV<lambda_ab61a845afdef5b7c387490eaf3616ee>@@$$QEAV<lambda_f7f22ab5edc0698d5f6905b0d3f44752>@@@Z@4HA 0000000180067784     libucrt:fflush.obj
 0003:00002790       $pdata$__acrt_stdio_free_buffer_nolock 0000000180067790     libucrt:_freebuf.obj
 0003:0000279c       $pdata$__acrt_initialize_lowio 000000018006779c     libucrt:ioinit.obj
 0003:000027a8       $pdata$__acrt_uninitialize_lowio 00000001800677a8     libucrt:ioinit.obj
 0003:000027b4       $pdata$?initialize_inherited_file_handles_nolock@@YAXXZ 00000001800677b4     libucrt:ioinit.obj
 0003:000027c0       $pdata$?initialize_stdio_handles_nolock@@YAXXZ 00000001800677c0     libucrt:ioinit.obj
 0003:000027cc       $pdata$_write              00000001800677cc     libucrt:write.obj
 0003:000027d8       $pdata$_write$fin$0        00000001800677d8     libucrt:write.obj
 0003:000027e4       $pdata$_write_nolock       00000001800677e4     libucrt:write.obj
 0003:000027f0       $pdata$?write_double_translated_ansi_nolock@@YA?AUwrite_result@?A0x17268360@@HQEBDI@Z 00000001800677f0     libucrt:write.obj
 0003:000027fc       $pdata$?write_text_ansi_nolock@@YA?AUwrite_result@?A0x17268360@@HQEBDI@Z 00000001800677fc     libucrt:write.obj
 0003:00002808       $pdata$?write_text_utf16le_nolock@@YA?AUwrite_result@?A0x17268360@@HQEBDI@Z 0000000180067808     libucrt:write.obj
 0003:00002814       $pdata$?write_text_utf8_nolock@@YA?AUwrite_result@?A0x17268360@@HQEBDI@Z 0000000180067814     libucrt:write.obj
 0003:00002820       $pdata$_malloc_base        0000000180067820     libucrt:malloc_base.obj
 0003:0000282c       $pdata$strtol              000000018006782c     libucrt:strtox.obj
 0003:00002838       $pdata$_mbtowc_l           0000000180067838     libucrt:mbtowc.obj
 0003:00002844       $pdata$wctomb_s            0000000180067844     libucrt:wctomb.obj
 0003:00002850       $pdata$_wctomb_s_l         0000000180067850     libucrt:wctomb.obj
 0003:0000285c       $pdata$__acrt_update_locale_info 000000018006785c     libucrt:locale_update.obj
 0003:00002868       $pdata$__acrt_update_multibyte_info 0000000180067868     libucrt:locale_update.obj
 0003:00002874       $pdata$__acrt_fp_format    0000000180067874     libucrt:cvt.obj
 0003:00002880       $pdata$?fp_format_e_internal@@YAHQEAD_KH_NIQEAU_strflt@@2QEAU__crt_locale_pointers@@@Z 0000000180067880     libucrt:cvt.obj
 0003:0000288c       $pdata$?fp_format_e@@YAHQEBNQEAD_K12H_NIQEAU__crt_locale_pointers@@@Z 000000018006788c     libucrt:cvt.obj
 0003:00002898       $pdata$?fp_format_a@@YAHQEBNPEAD_KQEAD2H_NIQEAU__crt_locale_pointers@@@Z 0000000180067898     libucrt:cvt.obj
 0003:000028a4       $pdata$?fp_format_f_internal@@YAHQEAD_KHQEAU_strflt@@_NQEAU__crt_locale_pointers@@@Z 00000001800678a4     libucrt:cvt.obj
 0003:000028b0       $pdata$?fp_format_g@@YAHQEBNQEAD_K12H_NIQEAU__crt_locale_pointers@@@Z 00000001800678b0     libucrt:cvt.obj
 0003:000028bc       $pdata$__acrt_copy_locale_name 00000001800678bc     libucrt:wsetlocale.obj
 0003:000028c8       $pdata$_wsetlocale         00000001800678c8     libucrt:wsetlocale.obj
 0003:000028d4       $pdata$_expandlocale       00000001800678d4     libucrt:wsetlocale.obj
 0003:000028e0       $pdata$_wcscats            00000001800678e0     libucrt:wsetlocale.obj
 0003:000028ec       $pdata$__lc_lctowcs        00000001800678ec     libucrt:wsetlocale.obj
 0003:000028f8       $pdata$__lc_wcstolc        00000001800678f8     libucrt:wsetlocale.obj
 0003:00002904       $pdata$_wsetlocale_set_cat 0000000180067904     libucrt:wsetlocale.obj
 0003:00002910       $pdata$_wsetlocale_get_all 0000000180067910     libucrt:wsetlocale.obj
 0003:0000291c       $pdata$_wsetlocale_nolock  000000018006791c     libucrt:wsetlocale.obj
 0003:00002928       $pdata$__acrt_uninitialize_locale 0000000180067928     libucrt:wsetlocale.obj
 0003:00002934       $pdata$_copytlocinfo_nolock 0000000180067934     libucrt:wsetlocale.obj
 0003:00002940       $pdata$??R<lambda_2a444430fde8c29194d880d93eed5e8f>@@QEBA@XZ 0000000180067940     libucrt:wsetlocale.obj
 0003:0000294c       $pdata$string_is_alpha     000000018006794c     libucrt:wsetlocale.obj
 0003:00002958       $pdata$parse_bcp47_language 0000000180067958     libucrt:wsetlocale.obj
 0003:00002964       $pdata$parse_bcp47_script  0000000180067964     libucrt:wsetlocale.obj
 0003:00002970       $pdata$parse_bcp47_region  0000000180067970     libucrt:wsetlocale.obj
 0003:0000297c       $pdata$parse_bcp47_code_page 000000018006797c     libucrt:wsetlocale.obj
 0003:00002988       $pdata$parse_bcp47         0000000180067988     libucrt:wsetlocale.obj
 0003:00002994       $pdata$?commit_locale_name@_expandlocale_locale_name_cache@@QEAAXQEB_W_K@Z 0000000180067994     libucrt:wsetlocale.obj
 0003:000029a0       $pdata$??$?RV<lambda_410d79af7f07d98d83a3f525b3859a53>@@AEAV<lambda_3e16ef9562a7dcce91392c22ab16ea36>@@V<lambda_38119f0e861e05405d8a144b9b982f0a>@@@?$__crt_seh_guarded_call@X@@QEAAX$$QEAV<lambda_410d79af7f07d98d83a3f525b3859a53>@@AEAV<lambda_3e16ef9562a7dcce91392c22ab16ea36>@@$$QEAV<lambda_38119f0e861e05405d8a144b9b982f0a>@@@Z 00000001800679a0     libucrt:wsetlocale.obj
 0003:000029ac       $pdata$?fin$0@?0???$?RV<lambda_410d79af7f07d98d83a3f525b3859a53>@@AEAV<lambda_3e16ef9562a7dcce91392c22ab16ea36>@@V<lambda_38119f0e861e05405d8a144b9b982f0a>@@@?$__crt_seh_guarded_call@X@@QEAAX$$QEAV<lambda_410d79af7f07d98d83a3f525b3859a53>@@AEAV<lambda_3e16ef9562a7dcce91392c22ab16ea36>@@$$QEAV<lambda_38119f0e861e05405d8a144b9b982f0a>@@@Z@4HA 00000001800679ac     libucrt:wsetlocale.obj
 0003:000029b8       $pdata$??$?RV<lambda_1d892b297fdedeee07ed8124eeb2f2fa>@@AEAV<lambda_ffc046909424fd52df0ac47e64813305>@@V<lambda_01a7098693036236037e7cdb9bca3d73>@@@?$__crt_seh_guarded_call@X@@QEAAX$$QEAV<lambda_1d892b297fdedeee07ed8124eeb2f2fa>@@AEAV<lambda_ffc046909424fd52df0ac47e64813305>@@$$QEAV<lambda_01a7098693036236037e7cdb9bca3d73>@@@Z 00000001800679b8     libucrt:wsetlocale.obj
 0003:000029c4       $pdata$??$?RV<lambda_7f2adfce497ff2baa965cd4f576ecfd1>@@AEAV<lambda_2a444430fde8c29194d880d93eed5e8f>@@AEAV<lambda_8dff2cf36a5417162780cd64fa2883ef>@@@?$__crt_seh_guarded_call@X@@QEAAX$$QEAV<lambda_7f2adfce497ff2baa965cd4f576ecfd1>@@AEAV<lambda_2a444430fde8c29194d880d93eed5e8f>@@AEAV<lambda_8dff2cf36a5417162780cd64fa2883ef>@@@Z 00000001800679c4     libucrt:wsetlocale.obj
 0003:000029d0       $pdata$?fin$0@?0???$?RV<lambda_7f2adfce497ff2baa965cd4f576ecfd1>@@AEAV<lambda_2a444430fde8c29194d880d93eed5e8f>@@AEAV<lambda_8dff2cf36a5417162780cd64fa2883ef>@@@?$__crt_seh_guarded_call@X@@QEAAX$$QEAV<lambda_7f2adfce497ff2baa965cd4f576ecfd1>@@AEAV<lambda_2a444430fde8c29194d880d93eed5e8f>@@AEAV<lambda_8dff2cf36a5417162780cd64fa2883ef>@@@Z@4HA 00000001800679d0     libucrt:wsetlocale.obj
 0003:000029dc       $pdata$mbstowcs_s          00000001800679dc     libucrt:mbstowcs.obj
 0003:000029e8       $pdata$_mbstowcs_s_l       00000001800679e8     libucrt:mbstowcs.obj
 0003:000029f4       $pdata$?_mbstowcs_l_helper@@YA_KPEA_WPEBD_KPEAU__crt_locale_pointers@@@Z 00000001800679f4     libucrt:mbstowcs.obj
 0003:00002a00       $pdata$strncpy_s           0000000180067a00     libucrt:strncpy_s.obj
 0003:00002a0c       $pdata$_call_matherr       0000000180067a0c     libucrt:libm_error.obj
 0003:00002a18       $pdata$_exception_enabled  0000000180067a18     libucrt:libm_error.obj
 0003:00002a24       $pdata$_handle_errorf      0000000180067a24     libucrt:libm_error.obj
 0003:00002a30       $pdata$_handle_error       0000000180067a30     libucrt:libm_error.obj
 0003:00002a3c       $pdata$iswctype            0000000180067a3c     libucrt:iswctype.obj
 0003:00002a48       $pdata$__acrt_wcstok_s_novalidation 0000000180067a48     libucrt:wcstok_s.obj
 0003:00002a54       $pdata$__acrt_initialize_fma3 0000000180067a54     libucrt:fma3_available.obj
 0003:00002a60       $pdata$_log_special_common 0000000180067a60     libucrt:log_special.obj
 0003:00002a6c       $pdata$_log10_special      0000000180067a6c     libucrt:log_special.obj
 0003:00002a78       $pdata$_powf_special       0000000180067a78     libucrt:pow_special.obj
 0003:00002a84       $pdata$_pow_special        0000000180067a84     libucrt:pow_special.obj
 0003:00002a90       $pdata$_wcstombs_s_l       0000000180067a90     libucrt:wcstombs.obj
 0003:00002a9c       $pdata$?_wcstombs_l_helper@@YA_KPEADPEB_W_KPEAU__crt_locale_pointers@@@Z 0000000180067a9c     libucrt:wcstombs.obj
 0003:00002aa8       $pdata$__acrt_GetLocaleInfoA 0000000180067aa8     libucrt:getlocaleinfoa.obj
 0003:00002ab4       $pdata$?InternalGetLocaleInfoA@@YAHQEAU__crt_locale_pointers@@QEB_WKQEADH@Z 0000000180067ab4     libucrt:getlocaleinfoa.obj
 0003:00002ac0       $pdata$__acrt_GetStringTypeA 0000000180067ac0     libucrt:getstringtypea.obj
 0003:00002acc       $pdata$__acrt_LCMapStringA 0000000180067acc     libucrt:lcmapstringa.obj
 0003:00002ad8       $pdata$?__acrt_LCMapStringA_stat@@YAHPEAU__crt_locale_pointers@@PEB_WKPEBDHPEADHHH@Z 0000000180067ad8     libucrt:lcmapstringa.obj
 0003:00002ae4       $pdata$_set_errno_from_matherr 0000000180067ae4     libucrt:fpexcept.obj
 0003:00002af0       $pdata$_raise_excf         0000000180067af0     libucrt:fpexcept.obj
 0003:00002afc       $pdata$_raise_exc          0000000180067afc     libucrt:fpexcept.obj
 0003:00002b08       $pdata$_raise_exc_ex       0000000180067b08     libucrt:fpexcept.obj
 0003:00002b14       $pdata$_clrfp              0000000180067b14     libucrt:fpctrl.obj
 0003:00002b20       $pdata$_ctrlfp             0000000180067b20     libucrt:fpctrl.obj
 0003:00002b2c       $pdata$_ctrlfp$filt$0      0000000180067b2c     libucrt:fpctrl.obj
 0003:00002b38       $pdata$_statfp             0000000180067b38     libucrt:fpctrl.obj
 0003:00002b44       $pdata$_set_statfp         0000000180067b44     libucrt:fpctrl.obj
 0003:00002b50       $pdata$_realloc_base       0000000180067b50     libucrt:realloc_base.obj
 0003:00002b5c       $pdata$_isctype_l          0000000180067b5c     libucrt:isctype.obj
 0003:00002b68       $pdata$__acrt_get_sigabrt_handler 0000000180067b68     libucrt:signal.obj
 0003:00002b74       $pdata$raise               0000000180067b74     libucrt:signal.obj
 0003:00002b80       $pdata$raise$fin$0         0000000180067b80     libucrt:signal.obj
 0003:00002b8c       $pdata$??$?RV<lambda_450d765d439847d4c735a33c368b5fc0>@@AEAV<lambda_44731a7d0e6d81c3e6aa82d741081786>@@V<lambda_601a2a7da3b7a96e9554ac7215c4b07c>@@@?$__crt_seh_guarded_call@P6AXH@Z@@QEAAP6AXH@Z$$QEAV<lambda_450d765d439847d4c735a33c368b5fc0>@@AEAV<lambda_44731a7d0e6d81c3e6aa82d741081786>@@$$QEAV<lambda_601a2a7da3b7a96e9554ac7215c4b07c>@@@Z 0000000180067b8c     libucrt:signal.obj
 0003:00002b98       $pdata$__acrt_WideCharToMultiByte 0000000180067b98     libucrt:widechartomultibyte.obj
 0003:00002ba4       $pdata$_wcsicmp            0000000180067ba4     libucrt:wcsicmp.obj
 0003:00002bb0       $pdata$_wcsicmp_l          0000000180067bb0     libucrt:wcsicmp.obj
 0003:00002bbc       $pdata$__acrt_get_process_end_policy 0000000180067bbc     libucrt:win_policies.obj
 0003:00002bc8       $pdata$??$__acrt_wcs_to_mbs_cp@U__crt_win32_buffer_internal_dynamic_resizing@@@@YAHQEB_WAEAV?$__crt_win32_buffer@DU__crt_win32_buffer_internal_dynamic_resizing@@@@I@Z 0000000180067bc8     libucrt:argv_wildcards.obj
 0003:00002bd4       $pdata$??$common_expand_argv_wildcards@D@@YAHQEAPEADQEAPEAPEAD@Z 0000000180067bd4     libucrt:argv_wildcards.obj
 0003:00002be0       $pdata$??$copy_and_add_argument_to_buffer@D@@YAHQEBD0_KAEAV?$argument_list@D@?A0x5f5c8891@@@Z 0000000180067be0     libucrt:argv_wildcards.obj
 0003:00002bec       $pdata$??$expand_argument_wildcards@D@@YAHQEAD0AEAV?$argument_list@D@?A0x5f5c8891@@@Z 0000000180067bec     libucrt:argv_wildcards.obj
 0003:00002bf8       $pdata$__acrt_GetModuleFileNameA 0000000180067bf8     libucrt:getmodulefilenamea.obj
 0003:00002c04       $pdata$__acrt_update_thread_multibyte_data 0000000180067c04     libucrt:mbctype.obj
 0003:00002c10       $pdata$__acrt_initialize_multibyte 0000000180067c10     libucrt:mbctype.obj
 0003:00002c1c       $pdata$_setmbcp_nolock     0000000180067c1c     libucrt:mbctype.obj
 0003:00002c28       $pdata$?getSystemCP@@YAHH@Z 0000000180067c28     libucrt:mbctype.obj
 0003:00002c34       $pdata$?setSBCS@@YAXPEAU__crt_multibyte_data@@@Z 0000000180067c34     libucrt:mbctype.obj
 0003:00002c40       $pdata$?update_thread_multibyte_data_internal@@YAPEAU__crt_multibyte_data@@QEAU__acrt_ptd@@QEAPEAU1@@Z 0000000180067c40     libucrt:mbctype.obj
 0003:00002c4c       $pdata$?fin$0@?0??update_thread_multibyte_data_internal@@YAPEAU__crt_multibyte_data@@QEAU__acrt_ptd@@QEAPEAU1@@Z@4HA 0000000180067c4c     libucrt:mbctype.obj
 0003:00002c58       $pdata$?setmbcp_internal@@YAHH_NQEAU__acrt_ptd@@QEAPEAU__crt_multibyte_data@@@Z 0000000180067c58     libucrt:mbctype.obj
 0003:00002c64       $pdata$?setSBUpLow@@YAXPEAU__crt_multibyte_data@@@Z 0000000180067c64     libucrt:mbctype.obj
 0003:00002c70       $pdata$??$?RV<lambda_efdfa57d1f175319df784efa44bb7b81>@@AEAV<lambda_5f0a4c1567f8adc6734073e5d1e1b35c>@@V<lambda_2e8a7d3640ea6ccb4c2413664c2db6fd>@@@?$__crt_seh_guarded_call@X@@QEAAX$$QEAV<lambda_efdfa57d1f175319df784efa44bb7b81>@@AEAV<lambda_5f0a4c1567f8adc6734073e5d1e1b35c>@@$$QEAV<lambda_2e8a7d3640ea6ccb4c2413664c2db6fd>@@@Z 0000000180067c70     libucrt:mbctype.obj
 0003:00002c7c       $pdata$?x_ismbbtype_l@@YAHPEAU__crt_locale_pointers@@IHH@Z 0000000180067c7c     libucrt:ismbbyte.obj
 0003:00002c88       $pdata$__acrt_initialize_command_line 0000000180067c88     libucrt:argv_data.obj
 0003:00002c94       $pdata$__dcrt_get_narrow_environment_from_os 0000000180067c94     libucrt:get_environment_from_os.obj
 0003:00002ca0       $pdata$_recalloc_base      0000000180067ca0     libucrt:recalloc.obj
 0003:00002cac       $pdata$__acrt_initialize_heap 0000000180067cac     libucrt:heap_handle.obj
 0003:00002cb8       $pdata$__acrt_execute_initializers 0000000180067cb8     libucrt:shared_initialization.obj
 0003:00002cc4       $pdata$__acrt_execute_uninitializers 0000000180067cc4     libucrt:shared_initialization.obj
 0003:00002cd0       $pdata$__acrt_release_locale_ref 0000000180067cd0     libucrt:locale_refcounting.obj
 0003:00002cdc       $pdata$__acrt_free_locale  0000000180067cdc     libucrt:locale_refcounting.obj
 0003:00002ce8       $pdata$__acrt_locale_free_lc_time_if_unreferenced 0000000180067ce8     libucrt:locale_refcounting.obj
 0003:00002cf4       $pdata$__acrt_update_thread_locale_data 0000000180067cf4     libucrt:locale_refcounting.obj
 0003:00002d00       $pdata$__acrt_update_thread_locale_data$fin$0 0000000180067d00     libucrt:locale_refcounting.obj
 0003:00002d0c       $pdata$_updatetlocinfoEx_nolock 0000000180067d0c     libucrt:locale_refcounting.obj
 0003:00002d18       $pdata$__acrt_fenv_set_control 0000000180067d18     libucrt:_fenvutils.obj
 0003:00002d24       $pdata$__acrt_DownlevelLocaleNameToLCID 0000000180067d24     libucrt:lcidtoname_downlevel.obj
 0003:00002d30       $pdata$__acrt_DownlevelLCIDToLocaleName 0000000180067d30     libucrt:lcidtoname_downlevel.obj
 0003:00002d3c       $pdata$fclose              0000000180067d3c     libucrt:fclose.obj
 0003:00002d48       $pdata$fclose$fin$0        0000000180067d48     libucrt:fclose.obj
 0003:00002d54       $pdata$_fclose_nolock      0000000180067d54     libucrt:fclose.obj
 0003:00002d60       $pdata$_commit             0000000180067d60     libucrt:commit.obj
 0003:00002d6c       $pdata$??$?RV<lambda_a37b2b86f63e897a80ea819b0eb08c01>@@AEAV<lambda_38ce7e780aa69e748d6df282ebc68efe>@@V<lambda_99fb1378e971ab6e7edea83e3a7a83a2>@@@?$__crt_seh_guarded_call@H@@QEAAH$$QEAV<lambda_a37b2b86f63e897a80ea819b0eb08c01>@@AEAV<lambda_38ce7e780aa69e748d6df282ebc68efe>@@$$QEAV<lambda_99fb1378e971ab6e7edea83e3a7a83a2>@@@Z 0000000180067d6c     libucrt:commit.obj
 0003:00002d78       $pdata$?fin$0@?0???$?RV<lambda_751a882b2c74d4b022dec766aa51a29a>@@AEAV<lambda_628dfdc04ba53c8bfc02c9951375f3f5>@@V<lambda_f6c7be5f7998530c34de24c7437d6b54>@@@?$__crt_seh_guarded_call@H@@QEAAH$$QEAV<lambda_751a882b2c74d4b022dec766aa51a29a>@@AEAV<lambda_628dfdc04ba53c8bfc02c9951375f3f5>@@$$QEAV<lambda_f6c7be5f7998530c34de24c7437d6b54>@@@Z@4HA 0000000180067d78     libucrt:close.obj
 0003:00002d78       $pdata$?fin$0@?0???$?RV<lambda_a37b2b86f63e897a80ea819b0eb08c01>@@AEAV<lambda_38ce7e780aa69e748d6df282ebc68efe>@@V<lambda_99fb1378e971ab6e7edea83e3a7a83a2>@@@?$__crt_seh_guarded_call@H@@QEAAH$$QEAV<lambda_a37b2b86f63e897a80ea819b0eb08c01>@@AEAV<lambda_38ce7e780aa69e748d6df282ebc68efe>@@$$QEAV<lambda_99fb1378e971ab6e7edea83e3a7a83a2>@@@Z@4HA 0000000180067d78     libucrt:commit.obj
 0003:00002d84       $pdata$??$common_lseek_nolock@_J@@YA_JH_JH@Z 0000000180067d84     libucrt:lseek.obj
 0003:00002d90       $pdata$?__mbrtowc_utf8@__crt_mbstring@@YA_KPEA_WPEBD_KPEAU_Mbstatet@@@Z 0000000180067d90     libucrt:mbrtowc.obj
 0003:00002d9c       $pdata$?__mbsrtowcs_utf8@__crt_mbstring@@YA_KPEA_WPEAPEBD_KPEAU_Mbstatet@@@Z 0000000180067d9c     libucrt:mbrtowc.obj
 0003:00002da8       $pdata$_putwch_nolock      0000000180067da8     libucrt:putwch.obj
 0003:00002db4       $pdata$?__c32rtomb_utf8@__crt_mbstring@@YA_KPEAD_UPEAU_Mbstatet@@@Z 0000000180067db4     libucrt:c32rtomb.obj
 0003:00002dc0       $pdata$__acrt_fp_strflt_to_string 0000000180067dc0     libucrt:_fptostr.obj
 0003:00002dcc       $pdata$__acrt_fltout       0000000180067dcc     libucrt:cfout.obj
 0003:00002dd8       $pdata$__acrt_locale_initialize_monetary 0000000180067dd8     libucrt:initmon.obj
 0003:00002de4       $pdata$__acrt_locale_free_monetary 0000000180067de4     libucrt:initmon.obj
 0003:00002df0       $pdata$__acrt_locale_initialize_numeric 0000000180067df0     libucrt:initnum.obj
 0003:00002dfc       $pdata$__acrt_locale_free_numeric 0000000180067dfc     libucrt:initnum.obj
 0003:00002e08       $pdata$__acrt_locale_initialize_time 0000000180067e08     libucrt:inittime.obj
 0003:00002e14       $pdata$__acrt_locale_free_time 0000000180067e14     libucrt:inittime.obj
 0003:00002e20       $pdata$?initialize_lc_time@@YA_NQEAU__crt_lc_time_data@@QEAU__crt_locale_data@@@Z 0000000180067e20     libucrt:inittime.obj
 0003:00002e2c       $pdata$?free_crt_array_internal@@YAXQEAPEBX_K@Z 0000000180067e2c     libucrt:inittime.obj
 0003:00002e38       $pdata$wcscat_s            0000000180067e38     libucrt:wcscat_s.obj
 0003:00002e44       $pdata$wcsncat_s           0000000180067e44     libucrt:wcsncat_s.obj
 0003:00002e50       $pdata$wcsncpy_s           0000000180067e50     libucrt:wcsncpy_s.obj
 0003:00002e5c       $pdata$__acrt_get_qualified_locale 0000000180067e5c     libucrt:get_qualified_locale.obj
 0003:00002e68       $pdata$TranslateName       0000000180067e68     libucrt:get_qualified_locale.obj
 0003:00002e74       $pdata$GetLocaleNameFromLangCountry 0000000180067e74     libucrt:get_qualified_locale.obj
 0003:00002e80       $pdata$LangCountryEnumProcEx 0000000180067e80     libucrt:get_qualified_locale.obj
 0003:00002e8c       $pdata$GetLocaleNameFromLanguage 0000000180067e8c     libucrt:get_qualified_locale.obj
 0003:00002e98       $pdata$LanguageEnumProcEx  0000000180067e98     libucrt:get_qualified_locale.obj
 0003:00002ea4       $pdata$GetLocaleNameFromDefault 0000000180067ea4     libucrt:get_qualified_locale.obj
 0003:00002eb0       $pdata$ProcessCodePage     0000000180067eb0     libucrt:get_qualified_locale.obj
 0003:00002ebc       $pdata$TestDefaultCountry  0000000180067ebc     libucrt:get_qualified_locale.obj
 0003:00002ec8       $pdata$__acrt_get_qualified_locale_downlevel 0000000180067ec8     libucrt:getqloc_downlevel.obj
 0003:00002ed4       $pdata$TranslateName       0000000180067ed4     libucrt:getqloc_downlevel.obj
 0003:00002ee0       $pdata$GetLcidFromLangCountry 0000000180067ee0     libucrt:getqloc_downlevel.obj
 0003:00002eec       $pdata$LangCountryEnumProc 0000000180067eec     libucrt:getqloc_downlevel.obj
 0003:00002ef8       $pdata$GetLcidFromLanguage 0000000180067ef8     libucrt:getqloc_downlevel.obj
 0003:00002f04       $pdata$LanguageEnumProc    0000000180067f04     libucrt:getqloc_downlevel.obj
 0003:00002f10       $pdata$CountryEnumProc     0000000180067f10     libucrt:getqloc_downlevel.obj
 0003:00002f1c       $pdata$ProcessCodePage     0000000180067f1c     libucrt:getqloc_downlevel.obj
 0003:00002f28       $pdata$TestDefaultLanguage 0000000180067f28     libucrt:getqloc_downlevel.obj
 0003:00002f34       $pdata$?__wcsrtombs_utf8@__crt_mbstring@@YA_KPEADPEAPEB_W_KPEAU_Mbstatet@@@Z 0000000180067f34     libucrt:wcrtomb.obj
 0003:00002f4c       $pdata$_towlower_l         0000000180067f4c     libucrt:towlower.obj
 0003:00002f58       $pdata$qsort               0000000180067f58     libucrt:qsort.obj
 0003:00002f64       $pdata$4$qsort             0000000180067f64     libucrt:qsort.obj
 0003:00002f70       $pdata$5$qsort             0000000180067f70     libucrt:qsort.obj
 0003:00002f7c       $pdata$strpbrk             0000000180067f7c     libucrt:strpbrk.obj
 0003:00002f88       $pdata$fallbackMethod      0000000180067f88     libucrt:strpbrk.obj
 0003:00002f94       $pdata$_mbsdec_l           0000000180067f94     libucrt:mbsdec.obj
 0003:00002fa0       $pdata$?initialize_multibyte@@YAHXZ 0000000180067fa0     libucrt:multibyte_initializer.obj
 0003:00002fac       $pdata$_msize_base         0000000180067fac     libucrt:msize.obj
 0003:00002fb8       $pdata$_wcsnicmp           0000000180067fb8     libucrt:wcsnicmp.obj
 0003:00002fc4       $pdata$_wcsnicmp_l         0000000180067fc4     libucrt:wcsnicmp.obj
 0003:00002fd0       $pdata$_close              0000000180067fd0     libucrt:close.obj
 0003:00002fdc       $pdata$_close_nolock       0000000180067fdc     libucrt:close.obj
 0003:00002fe8       $pdata$??$?RV<lambda_751a882b2c74d4b022dec766aa51a29a>@@AEAV<lambda_628dfdc04ba53c8bfc02c9951375f3f5>@@V<lambda_f6c7be5f7998530c34de24c7437d6b54>@@@?$__crt_seh_guarded_call@H@@QEAAH$$QEAV<lambda_751a882b2c74d4b022dec766aa51a29a>@@AEAV<lambda_628dfdc04ba53c8bfc02c9951375f3f5>@@$$QEAV<lambda_f6c7be5f7998530c34de24c7437d6b54>@@@Z 0000000180067fe8     libucrt:close.obj
 0003:00002ff4       $pdata$?__mbrtoc32_utf8@__crt_mbstring@@YA_KPEA_UPEBD_KPEAU_Mbstatet@@@Z 0000000180067ff4     libucrt:mbrtoc32.obj
 0003:00003000       $pdata$__dcrt_lowio_ensure_console_output_initialized 0000000180068000     libucrt:initcon.obj
 0003:0000300c       $pdata$__dcrt_write_console 000000018006800c     libucrt:initcon.obj
 0003:00003018       $pdata$__dcrt_terminate_console_output 0000000180068018     libucrt:initcon.obj
 0003:00003024       $pdata$fegetenv            0000000180068024     libucrt:fegetenv.obj
 0003:00003030       $pdata$fesetenv            0000000180068030     libucrt:fesetenv.obj
 0003:0000303c       $pdata$feholdexcept        000000018006803c     libucrt:feholdexcept.obj
 0003:00003048       $pdata$_itow_s             0000000180068048     libucrt:xtoa.obj
 0003:00003054       $pdata$??$common_xtox_s@K_W@@YAHKQEA_W_KI_N@Z 0000000180068054     libucrt:xtoa.obj
 0003:00003060       $pdata$??$common_xtox@K_W@@YAHKQEA_W_KI_N@Z 0000000180068060     libucrt:xtoa.obj
 0003:0000306c       $pdata$?__c16rtomb_utf8@__crt_mbstring@@YA_KPEAD_SPEAU_Mbstatet@@@Z 000000018006806c     libucrt:c16rtomb.obj
 0003:00003078       $pdata$__acrt_LCMapStringW 0000000180068078     libucrt:lcmapstringw.obj
 0003:00003084       $pdata$_clearfp            0000000180068084     libucrt:ieee.obj
 0003:00003090       $pdata$_IsNonwritableInCurrentImage 0000000180068090     LIBCMT:pesect.obj
 0003:0000309c       $pdata$_IsNonwritableInCurrentImage$filt$0 000000018006809c     LIBCMT:pesect.obj
 0003:000030a8       $pdata$__GSHandlerCheck_SEH 00000001800680a8     LIBCMT:gshandlerseh.obj
 0004:00000d18       .idata$6                   0000000180069d18     kernel32:KERNEL32.dll
 0004:00000dfe       .idata$6                   0000000180069dfe     user32:USER32.dll
 0004:00000efe       .idata$6                   0000000180069efe     advapi32:ADVAPI32.dll
 0004:00000f42       .idata$6                   0000000180069f42     ole32:ole32.dll
 0004:00000f7c       .idata$6                   0000000180069f7c     mpr:MPR.dll
 0004:00000fc6       .idata$6                   0000000180069fc6     version:VERSION.dll
 0004:00000fd2       .idata$6                   0000000180069fd2     oleaut32:OLEAUT32.dll
 0004:00001010       .idata$6                   000000018006a010     psapi:PSAPI.DLL
 0005:00000000       MoveSmall                  000000018006b000     libvcruntime:memcpy.obj
 0005:00000050       MsetTab                    000000018006b050     libvcruntime:memset.obj
 0006:00000060       $R000000                   000000018006c060     ProcList.res
